///////////////////////////////////////////////////////////////////////////////
//
// IAR C/C++ Compiler V10.10.1.4655 for 8051              16/Feb/2018  21:40:04
// Copyright 2004-2017 IAR Systems AB.
// Evaluation license - IAR Embedded Workbench for 8051, Evaluation version 10.10
//
//    Core               =  plain
//    Code model         =  banked
//    Data model         =  large
//    Calling convention =  xdata reentrant
//    Constant location  =  data_rom
//    Dptr setup         =  1,16
//                          
//    Source file        =  
//        C:\Texas Instruments\Z-Stack Home 1.2.2a.44539\Components\mt\MT_AF.c
//    Command line       =  
//        -f C:\Users\Oskar\AppData\Local\Temp\EW15B.tmp ("C:\Texas
//        Instruments\Z-Stack Home 1.2.2a.44539\Components\mt\MT_AF.c" -D
//        FEATURE_SYSTEM_STATS -D POWER_SAVING -D xTC_LINKKEY_JOIN -lC
//        "C:\Texas Instruments\Z-Stack Home
//        1.2.2a.44539\Projects\zstack\ZNP\CC253x\CC2530-Debug\List" -lA
//        "C:\Texas Instruments\Z-Stack Home
//        1.2.2a.44539\Projects\zstack\ZNP\CC253x\CC2530-Debug\List"
//        --diag_suppress Pe001,Pa010 -o "C:\Texas Instruments\Z-Stack Home
//        1.2.2a.44539\Projects\zstack\ZNP\CC253x\CC2530-Debug\Obj" -e --debug
//        --core=plain --dptr=16,1 --data_model=large --code_model=banked
//        --calling_convention=xdata_reentrant --place_constants=data_rom
//        --nr_virtual_regs 16 -f "C:\Texas Instruments\Z-Stack Home
//        1.2.2a.44539\Projects\zstack\ZNP\CC253x\..\Source\znp.cfg"
//        (-DMAC_CFG_APP_PENDING_QUEUE=TRUE
//        "-DZSTACK_DEVICE_BUILD=(DEVICE_BUILD_COORDINATOR |
//        DEVICE_BUILD_ROUTER | DEVICE_BUILD_ENDDEVICE)" -DNWK_AUTO_POLL
//        -DZNP_RUN_WDOG=FALSE -DZNP_UART_BAUD=HAL_UART_BR_115200 -DZIGBEEPRO
//        -DZIGBEE_FRAGMENTATION -DINTER_PAN -DOSAL_CLOCK -DOSAL_SAPI=FALSE
//        -DSAPI_CB_FUNC=FALSE -DHOLD_AUTO_START -DNV_RESTORE -DNV_INIT
//        -DNUM_DISC_ATTEMPTS=0 -DMT_UTIL_FUNC -DMT_SYS_FUNC -DMT_AF_FUNC
//        -DMT_SAPI_FUNC -DMT_SAPI_CB_FUNC -DMT_ZDO_CB_FUNC -DMT_ZDO_FUNC
//        -DMT_ZDO_MGMT -DMT_ZDO_EXTENSIONS -DMT_APP_FUNC) -f "C:\Texas
//        Instruments\Z-Stack Home
//        1.2.2a.44539\Projects\zstack\ZNP\CC253x\..\..\Tools\CC2530DB\f8wConfig.cfg"
//        (-DZIGBEEPRO -DSECURE=1 -DZG_SECURE_DYNAMIC=0 -DREFLECTOR
//        -DDEFAULT_CHANLIST=0x00000800 -DZDAPP_CONFIG_PAN_ID=0xFFFF
//        -DNWK_START_DELAY=100 -DEXTENDED_JOINING_RANDOM_MASK=0x007F
//        -DBEACON_REQUEST_DELAY=100 -DBEACON_REQ_DELAY_MASK=0x00FF
//        -DLINK_STATUS_JITTER_MASK=0x007F -DROUTE_EXPIRY_TIME=30
//        -DAPSC_ACK_WAIT_DURATION_POLLED=3000 -DNWK_INDIRECT_MSG_TIMEOUT=7
//        -DMAX_RREQ_ENTRIES=8 -DAPSC_MAX_FRAME_RETRIES=3
//        -DNWK_MAX_DATA_RETRIES=2 -DMAX_POLL_FAILURE_RETRIES=2 -DMAX_BCAST=9
//        -DAPS_MAX_GROUPS=16 -DMAX_RTG_ENTRIES=40 -DNWK_MAX_BINDING_ENTRIES=4
//        -DMAX_BINDING_CLUSTER_IDS=4 "-DDEFAULT_KEY={0x01, 0x03, 0x05, 0x07,
//        0x09, 0x0B, 0x0D, 0x0F, 0x00, 0x02, 0x04, 0x06, 0x08, 0x0A, 0x0C,
//        0x0D}" -DMAC_MAX_FRAME_SIZE=116 -DZDNWKMGR_MIN_TRANSMISSIONS=20
//        "-DCONST=const __code" -DGENERIC=__generic -DRFD_RCVC_ALWAYS_ON=FALSE
//        -DPOLL_RATE=1000 -DQUEUED_POLL_RATE=100 -DRESPONSE_POLL_RATE=100
//        -DREJOIN_POLL_RATE=440 -DREJOIN_BACKOFF=900000 -DREJOIN_SCAN=900000)
//        -f "C:\Texas Instruments\Z-Stack Home
//        1.2.2a.44539\Projects\zstack\ZNP\CC253x\..\..\Tools\CC2530DB\f8wZCL.cfg"
//        -I "C:\Texas Instruments\Z-Stack Home
//        1.2.2a.44539\Projects\zstack\ZNP\CC253x\" -I "C:\Texas
//        Instruments\Z-Stack Home
//        1.2.2a.44539\Projects\zstack\ZNP\CC253x\Source\" -I "C:\Texas
//        Instruments\Z-Stack Home
//        1.2.2a.44539\Projects\zstack\ZNP\CC253x\..\Source\" -I "C:\Texas
//        Instruments\Z-Stack Home
//        1.2.2a.44539\Projects\zstack\ZNP\CC253x\..\..\SE\Source\" -I
//        "C:\Texas Instruments\Z-Stack Home
//        1.2.2a.44539\Projects\zstack\ZNP\CC253x\..\..\ZMain\TI2530ZNP\" -I
//        "C:\Texas Instruments\Z-Stack Home
//        1.2.2a.44539\Projects\zstack\ZNP\CC253x\..\..\..\..\Components\hal\include\"
//        -I "C:\Texas Instruments\Z-Stack Home
//        1.2.2a.44539\Projects\zstack\ZNP\CC253x\..\..\..\..\Components\hal\target\CC2530ZNP\"
//        -I "C:\Texas Instruments\Z-Stack Home
//        1.2.2a.44539\Projects\zstack\ZNP\CC253x\..\..\..\..\Components\mac\include\"
//        -I "C:\Texas Instruments\Z-Stack Home
//        1.2.2a.44539\Projects\zstack\ZNP\CC253x\..\..\..\..\Components\mac\high_level\"
//        -I "C:\Texas Instruments\Z-Stack Home
//        1.2.2a.44539\Projects\zstack\ZNP\CC253x\..\..\..\..\Components\mac\low_level\srf04\"
//        -I "C:\Texas Instruments\Z-Stack Home
//        1.2.2a.44539\Projects\zstack\ZNP\CC253x\..\..\..\..\Components\mac\low_level\srf04\single_chip\"
//        -I "C:\Texas Instruments\Z-Stack Home
//        1.2.2a.44539\Projects\zstack\ZNP\CC253x\..\..\..\..\Components\mt\"
//        -I "C:\Texas Instruments\Z-Stack Home
//        1.2.2a.44539\Projects\zstack\ZNP\CC253x\..\..\..\..\Components\osal\include\"
//        -I "C:\Texas Instruments\Z-Stack Home
//        1.2.2a.44539\Projects\zstack\ZNP\CC253x\..\..\..\..\Components\services\ecc\binary163\"
//        -I "C:\Texas Instruments\Z-Stack Home
//        1.2.2a.44539\Projects\zstack\ZNP\CC253x\..\..\..\..\Components\services\ecc\binary283\"
//        -I "C:\Texas Instruments\Z-Stack Home
//        1.2.2a.44539\Projects\zstack\ZNP\CC253x\..\..\..\..\Components\services\saddr\"
//        -I "C:\Texas Instruments\Z-Stack Home
//        1.2.2a.44539\Projects\zstack\ZNP\CC253x\..\..\..\..\Components\services\sdata\"
//        -I "C:\Texas Instruments\Z-Stack Home
//        1.2.2a.44539\Projects\zstack\ZNP\CC253x\..\..\..\..\Components\stack\af\"
//        -I "C:\Texas Instruments\Z-Stack Home
//        1.2.2a.44539\Projects\zstack\ZNP\CC253x\..\..\..\..\Components\stack\nwk\"
//        -I "C:\Texas Instruments\Z-Stack Home
//        1.2.2a.44539\Projects\zstack\ZNP\CC253x\..\..\..\..\Components\stack\sapi\"
//        -I "C:\Texas Instruments\Z-Stack Home
//        1.2.2a.44539\Projects\zstack\ZNP\CC253x\..\..\..\..\Components\stack\sec\"
//        -I "C:\Texas Instruments\Z-Stack Home
//        1.2.2a.44539\Projects\zstack\ZNP\CC253x\..\..\..\..\Components\stack\sys\"
//        -I "C:\Texas Instruments\Z-Stack Home
//        1.2.2a.44539\Projects\zstack\ZNP\CC253x\..\..\..\..\Components\stack\zcl\"
//        -I "C:\Texas Instruments\Z-Stack Home
//        1.2.2a.44539\Projects\zstack\ZNP\CC253x\..\..\..\..\Components\stack\zdo\"
//        -I "C:\Texas Instruments\Z-Stack Home
//        1.2.2a.44539\Projects\zstack\ZNP\CC253x\..\..\..\..\Components\zmac\"
//        -I "C:\Texas Instruments\Z-Stack Home
//        1.2.2a.44539\Projects\zstack\ZNP\CC253x\..\..\..\..\Components\zmac\f8w\"
//        -Ohz --require_prototypes --no_code_motion)
//    Locale             =  German_Germany.1252
//    List file          =  
//        C:\Texas Instruments\Z-Stack Home
//        1.2.2a.44539\Projects\zstack\ZNP\CC253x\CC2530-Debug\List\MT_AF.s51
//
///////////////////////////////////////////////////////////////////////////////

        NAME MT_AF

        RTMODEL "__SystemLibrary", "CLib"
        RTMODEL "__calling_convention", "xdata_reentrant"
        RTMODEL "__code_model", "banked"
        RTMODEL "__core", "plain"
        RTMODEL "__data_model", "large"
        RTMODEL "__dptr_size", "16"
        RTMODEL "__extended_stack", "disabled"
        RTMODEL "__location_for_constants", "data"
        RTMODEL "__number_of_dptrs", "1"
        RTMODEL "__register_banks", "*"
        RTMODEL "__rt_version", "1"

        RSEG DOVERLAY:DATA:NOROOT(0)
        RSEG IOVERLAY:IDATA:NOROOT(0)
        RSEG ISTACK:IDATA:NOROOT(0)
        RSEG PSTACK:XDATA:NOROOT(0)
        RSEG XSTACK:XDATA:NOROOT(0)

        EXTERN ?V0
        EXTERN ?V1
        EXTERN ?V2
        EXTERN ?V3
        EXTERN ?V4
        EXTERN ?V5
        EXTERN ?V6
        EXTERN ?V7
        EXTERN ?V8
        EXTERN ?V9
        EXTERN ?V10
        EXTERN ?V11
        EXTERN ?V12
        EXTERN ?V13
        EXTERN ?ALLOC_XSTACK8
        EXTERN ?BANKED_ENTER_XDATA
        EXTERN ?BANKED_LEAVE_XDATA
        EXTERN ?BDISPATCH
        EXTERN ?BRET
        EXTERN ?DEALLOC_XSTACK8
        EXTERN ?L_EQ_X
        EXTERN ?MOVE_LONG8_XDATA_XDATA
        EXTERN ?PUSH_XSTACK8_X_FOUR
        EXTERN ?PUSH_XSTACK8_X_TWO
        EXTERN ?PUSH_XSTACK_I_ONE
        EXTERN ?PUSH_XSTACK_I_THREE
        EXTERN ?PUSH_XSTACK_I_TWO
        EXTERN ?XLOAD_R0123
        EXTERN ?XSP
        EXTERN ?XSTACK_DISP0_8
        EXTERN ?XSTACK_DISP100_8
        EXTERN ?XSTACK_DISP101_8
        EXTERN ?XSTACK_DISP102_8
        EXTERN ?XSTORE_R0123
        EXTERN __INIT_XDATA_Z

        PUBLIC `??MT_AfCommandProcessing::?relay`
        FUNCTION `??MT_AfCommandProcessing::?relay`,0203H
        PUBLIC `??MT_AfDataConfirm::?relay`
        FUNCTION `??MT_AfDataConfirm::?relay`,0203H
        FUNCTION `??MT_AfDataRequest::?relay`,0203H
        FUNCTION `??MT_AfDataRequestSrcRtg::?relay`,0203H
        FUNCTION `??MT_AfDataRetrieve::?relay`,0203H
        FUNCTION `??MT_AfDataStore::?relay`,0203H
        PUBLIC `??MT_AfExec::?relay`
        FUNCTION `??MT_AfExec::?relay`,0203H
        PUBLIC `??MT_AfIncomingMsg::?relay`
        FUNCTION `??MT_AfIncomingMsg::?relay`,0203H
        PUBLIC `??MT_AfReflectError::?relay`
        FUNCTION `??MT_AfReflectError::?relay`,0203H
        PUBLIC MT_AfCommandProcessing
        FUNCTION MT_AfCommandProcessing,0a1203H
        ARGFRAME XSTACK, 0, STACK
        LOCFRAME ISTACK, 1, STACK
        LOCFRAME XSTACK, 20, STACK
        PUBLIC MT_AfDataConfirm
        FUNCTION MT_AfDataConfirm,021203H
        ARGFRAME XSTACK, 0, STACK
        LOCFRAME ISTACK, 3, STACK
        LOCFRAME XSTACK, 3, STACK
        FUNCTION MT_AfDataRequest,0a1203H
        ARGFRAME XSTACK, 20, STACK
        ARGFRAME IOVERLAY, 0, STATIC
        ARGFRAME DOVERLAY, 0, STATIC
        LOCFRAME ISTACK, 1, STACK
        LOCFRAME XSTACK, 44, STACK
        FUNCTION MT_AfDataRequestSrcRtg,0a1203H
        ARGFRAME XSTACK, 20, STACK
        ARGFRAME IOVERLAY, 0, STATIC
        ARGFRAME DOVERLAY, 0, STATIC
        LOCFRAME ISTACK, 1, STACK
        LOCFRAME XSTACK, 46, STACK
        FUNCTION MT_AfDataRetrieve,0a1203H
        ARGFRAME XSTACK, 20, STACK
        ARGFRAME IOVERLAY, 0, STATIC
        ARGFRAME DOVERLAY, 0, STATIC
        LOCFRAME ISTACK, 1, STACK
        LOCFRAME XSTACK, 22, STACK
        FUNCTION MT_AfDataStore,0a1203H
        ARGFRAME XSTACK, 20, STACK
        ARGFRAME IOVERLAY, 0, STATIC
        ARGFRAME DOVERLAY, 0, STATIC
        LOCFRAME ISTACK, 1, STACK
        LOCFRAME XSTACK, 24, STACK
        PUBLIC MT_AfExec
        FUNCTION MT_AfExec,021203H
        ARGFRAME XSTACK, 0, STACK
        LOCFRAME XSTACK, 13, STACK
        PUBLIC MT_AfIncomingMsg
        FUNCTION MT_AfIncomingMsg,0a1203H
        ARGFRAME XSTACK, 0, STACK
        LOCFRAME ISTACK, 1, STACK
        LOCFRAME XSTACK, 26, STACK
        PUBLIC MT_AfReflectError
        FUNCTION MT_AfReflectError,021203H
        ARGFRAME XSTACK, 0, STACK
        LOCFRAME ISTACK, 3, STACK
        LOCFRAME XSTACK, 6, STACK
        PUBWEAK __Constant_3e8
        PUBLIC pMtAfDataReq
        PUBLIC pMtAfInMsgList
        
          CFI Names cfiNames0
          CFI StackFrame CFA_SP SP IDATA
          CFI StackFrame CFA_PSP16 PSP16 XDATA
          CFI StackFrame CFA_XSP16 XSP16 XDATA
          CFI StaticOverlayFrame CFA_IOVERLAY IOVERLAY
          CFI StaticOverlayFrame CFA_DOVERLAY DOVERLAY
          CFI Resource `PSW.CY`:1, `B.BR0`:1, `B.BR1`:1, `B.BR2`:1, `B.BR3`:1
          CFI Resource `B.BR4`:1, `B.BR5`:1, `B.BR6`:1, `B.BR7`:1, `VB.BR8`:1
          CFI Resource `VB.BR9`:1, `VB.BR10`:1, `VB.BR11`:1, `VB.BR12`:1
          CFI Resource `VB.BR13`:1, `VB.BR14`:1, `VB.BR15`:1, VB:8, B:8, A:8
          CFI Resource PSW:8, DPL0:8, DPH0:8, R0:8, R1:8, R2:8, R3:8, R4:8, R5:8
          CFI Resource R6:8, R7:8, V0:8, V1:8, V2:8, V3:8, V4:8, V5:8, V6:8, V7:8
          CFI Resource V8:8, V9:8, V10:8, V11:8, V12:8, V13:8, V14:8, V15:8, SP:8
          CFI Resource PSPH:8, PSPL:8, PSP16:16, XSPH:8, XSPL:8, XSP16:16
          CFI VirtualResource ?RET:24
          CFI Resource ?BRET_EXT:8
          CFI VirtualResource ?RET_HIGH:8, ?RET_LOW:8
          CFI ResourceParts PSP16 PSPH, PSPL
          CFI ResourceParts XSP16 XSPH, XSPL
          CFI ResourceParts ?RET ?BRET_EXT, ?RET_HIGH, ?RET_LOW
          CFI EndNames cfiNames0
        
          CFI Common cfiCommon0 Using cfiNames0
          CFI CodeAlign 1
          CFI DataAlign -1
          CFI ReturnAddress ?RET CODE
          CFI CFA_DOVERLAY Used
          CFI CFA_IOVERLAY Used
          CFI CFA_SP SP+-3
          CFI CFA_PSP16 PSP16+0
          CFI CFA_XSP16 XSP16+0
          CFI `PSW.CY` SameValue
          CFI `B.BR0` SameValue
          CFI `B.BR1` SameValue
          CFI `B.BR2` SameValue
          CFI `B.BR3` SameValue
          CFI `B.BR4` SameValue
          CFI `B.BR5` SameValue
          CFI `B.BR6` SameValue
          CFI `B.BR7` SameValue
          CFI `VB.BR8` SameValue
          CFI `VB.BR9` SameValue
          CFI `VB.BR10` SameValue
          CFI `VB.BR11` SameValue
          CFI `VB.BR12` SameValue
          CFI `VB.BR13` SameValue
          CFI `VB.BR14` SameValue
          CFI `VB.BR15` SameValue
          CFI VB SameValue
          CFI B Undefined
          CFI A Undefined
          CFI PSW SameValue
          CFI DPL0 SameValue
          CFI DPH0 SameValue
          CFI R0 Undefined
          CFI R1 Undefined
          CFI R2 Undefined
          CFI R3 Undefined
          CFI R4 Undefined
          CFI R5 Undefined
          CFI R6 SameValue
          CFI R7 SameValue
          CFI V0 SameValue
          CFI V1 SameValue
          CFI V2 SameValue
          CFI V3 SameValue
          CFI V4 SameValue
          CFI V5 SameValue
          CFI V6 SameValue
          CFI V7 SameValue
          CFI V8 SameValue
          CFI V9 SameValue
          CFI V10 SameValue
          CFI V11 SameValue
          CFI V12 SameValue
          CFI V13 SameValue
          CFI V14 SameValue
          CFI V15 SameValue
          CFI PSPH Undefined
          CFI PSPL Undefined
          CFI XSPH Undefined
          CFI XSPL Undefined
          CFI ?RET Concat
          CFI ?BRET_EXT Frame(CFA_SP, 3)
          CFI ?RET_HIGH Frame(CFA_SP, 2)
          CFI ?RET_LOW Frame(CFA_SP, 1)
          CFI EndCommon cfiCommon0
        
        
          CFI Common cfiCommon1 Using cfiNames0
          CFI CodeAlign 1
          CFI DataAlign -1
          CFI ReturnAddress ?RET CODE
          CFI CFA_DOVERLAY Used
          CFI CFA_IOVERLAY Used
          CFI CFA_SP SP+-2
          CFI CFA_PSP16 PSP16+0
          CFI CFA_XSP16 XSP16+0
          CFI `PSW.CY` SameValue
          CFI `B.BR0` SameValue
          CFI `B.BR1` SameValue
          CFI `B.BR2` SameValue
          CFI `B.BR3` SameValue
          CFI `B.BR4` SameValue
          CFI `B.BR5` SameValue
          CFI `B.BR6` SameValue
          CFI `B.BR7` SameValue
          CFI `VB.BR8` SameValue
          CFI `VB.BR9` SameValue
          CFI `VB.BR10` SameValue
          CFI `VB.BR11` SameValue
          CFI `VB.BR12` SameValue
          CFI `VB.BR13` SameValue
          CFI `VB.BR14` SameValue
          CFI `VB.BR15` SameValue
          CFI VB SameValue
          CFI B SameValue
          CFI A SameValue
          CFI PSW SameValue
          CFI DPL0 SameValue
          CFI DPH0 SameValue
          CFI R0 SameValue
          CFI R1 SameValue
          CFI R2 SameValue
          CFI R3 SameValue
          CFI R4 SameValue
          CFI R5 SameValue
          CFI R6 SameValue
          CFI R7 SameValue
          CFI V0 SameValue
          CFI V1 SameValue
          CFI V2 SameValue
          CFI V3 SameValue
          CFI V4 SameValue
          CFI V5 SameValue
          CFI V6 SameValue
          CFI V7 SameValue
          CFI V8 SameValue
          CFI V9 SameValue
          CFI V10 SameValue
          CFI V11 SameValue
          CFI V12 SameValue
          CFI V13 SameValue
          CFI V14 SameValue
          CFI V15 SameValue
          CFI PSPH Undefined
          CFI PSPL Undefined
          CFI XSPH Undefined
          CFI XSPL Undefined
          CFI ?RET Concat
          CFI ?BRET_EXT SameValue
          CFI ?RET_HIGH Frame(CFA_SP, 2)
          CFI ?RET_LOW Frame(CFA_SP, 1)
          CFI EndCommon cfiCommon1
        
AF_DataRequest      SYMBOL "AF_DataRequest"
`??AF_DataRequest::?relay` SYMBOL "?relay", AF_DataRequest
AF_DataRequestSrcRtg SYMBOL "AF_DataRequestSrcRtg"
`??AF_DataRequestSrcRtg::?relay` SYMBOL "?relay", AF_DataRequestSrcRtg
MT_BuildAndSendZToolResponse SYMBOL "MT_BuildAndSendZToolResponse"
`??MT_BuildAndSendZToolResponse::?relay` SYMBOL "?relay", MT_BuildAndSendZToolResponse
MT_BuildEndpointDesc SYMBOL "MT_BuildEndpointDesc"
`??MT_BuildEndpointDesc::?relay` SYMBOL "?relay", MT_BuildEndpointDesc
StubAPS_InterPan    SYMBOL "StubAPS_InterPan"
`??StubAPS_InterPan::?relay` SYMBOL "?relay", StubAPS_InterPan
StubAPS_RegisterApp SYMBOL "StubAPS_RegisterApp"
`??StubAPS_RegisterApp::?relay` SYMBOL "?relay", StubAPS_RegisterApp
StubAPS_SetInterPanChannel SYMBOL "StubAPS_SetInterPanChannel"
`??StubAPS_SetInterPanChannel::?relay` SYMBOL "?relay", StubAPS_SetInterPanChannel
StubAPS_SetIntraPanChannel SYMBOL "StubAPS_SetIntraPanChannel"
`??StubAPS_SetIntraPanChannel::?relay` SYMBOL "?relay", StubAPS_SetIntraPanChannel
afAPSF_ConfigGet    SYMBOL "afAPSF_ConfigGet"
`??afAPSF_ConfigGet::?relay` SYMBOL "?relay", afAPSF_ConfigGet
afAPSF_ConfigSet    SYMBOL "afAPSF_ConfigSet"
`??afAPSF_ConfigSet::?relay` SYMBOL "?relay", afAPSF_ConfigSet
afDelete            SYMBOL "afDelete"
`??afDelete::?relay` SYMBOL "?relay", afDelete
afFindEndPointDesc  SYMBOL "afFindEndPointDesc"
`??afFindEndPointDesc::?relay` SYMBOL "?relay", afFindEndPointDesc
afRegister          SYMBOL "afRegister"
`??afRegister::?relay` SYMBOL "?relay", afRegister
osal_buffer_uint32  SYMBOL "osal_buffer_uint32"
`??osal_buffer_uint32::?relay` SYMBOL "?relay", osal_buffer_uint32
osal_build_uint16   SYMBOL "osal_build_uint16"
`??osal_build_uint16::?relay` SYMBOL "?relay", osal_build_uint16
osal_build_uint32   SYMBOL "osal_build_uint32"
`??osal_build_uint32::?relay` SYMBOL "?relay", osal_build_uint32
osal_mem_alloc      SYMBOL "osal_mem_alloc"
`??osal_mem_alloc::?relay` SYMBOL "?relay", osal_mem_alloc
osal_mem_free       SYMBOL "osal_mem_free"
`??osal_mem_free::?relay` SYMBOL "?relay", osal_mem_free
osal_memcpy         SYMBOL "osal_memcpy"
`??osal_memcpy::?relay` SYMBOL "?relay", osal_memcpy
osal_memset         SYMBOL "osal_memset"
`??osal_memset::?relay` SYMBOL "?relay", osal_memset
osal_set_event      SYMBOL "osal_set_event"
`??osal_set_event::?relay` SYMBOL "?relay", osal_set_event
osal_start_timerEx  SYMBOL "osal_start_timerEx"
`??osal_start_timerEx::?relay` SYMBOL "?relay", osal_start_timerEx
MT_AfCommandProcessing SYMBOL "MT_AfCommandProcessing"
`??MT_AfCommandProcessing::?relay` SYMBOL "?relay", MT_AfCommandProcessing
MT_AfDataConfirm    SYMBOL "MT_AfDataConfirm"
`??MT_AfDataConfirm::?relay` SYMBOL "?relay", MT_AfDataConfirm
MT_AfExec           SYMBOL "MT_AfExec"
`??MT_AfExec::?relay` SYMBOL "?relay", MT_AfExec
MT_AfIncomingMsg    SYMBOL "MT_AfIncomingMsg"
`??MT_AfIncomingMsg::?relay` SYMBOL "?relay", MT_AfIncomingMsg
MT_AfReflectError   SYMBOL "MT_AfReflectError"
`??MT_AfReflectError::?relay` SYMBOL "?relay", MT_AfReflectError

        EXTERN `??AF_DataRequest::?relay`
        FUNCTION `??AF_DataRequest::?relay`,00H
        EXTERN `??AF_DataRequestSrcRtg::?relay`
        FUNCTION `??AF_DataRequestSrcRtg::?relay`,00H
        EXTERN `??MT_BuildAndSendZToolResponse::?relay`
        FUNCTION `??MT_BuildAndSendZToolResponse::?relay`,00H
        EXTERN `??MT_BuildEndpointDesc::?relay`
        FUNCTION `??MT_BuildEndpointDesc::?relay`,00H
        EXTERN `??StubAPS_InterPan::?relay`
        FUNCTION `??StubAPS_InterPan::?relay`,00H
        EXTERN `??StubAPS_RegisterApp::?relay`
        FUNCTION `??StubAPS_RegisterApp::?relay`,00H
        EXTERN `??StubAPS_SetInterPanChannel::?relay`
        FUNCTION `??StubAPS_SetInterPanChannel::?relay`,00H
        EXTERN `??StubAPS_SetIntraPanChannel::?relay`
        FUNCTION `??StubAPS_SetIntraPanChannel::?relay`,00H
        EXTERN `??afAPSF_ConfigGet::?relay`
        FUNCTION `??afAPSF_ConfigGet::?relay`,00H
        EXTERN `??afAPSF_ConfigSet::?relay`
        FUNCTION `??afAPSF_ConfigSet::?relay`,00H
        EXTERN `??afDelete::?relay`
        FUNCTION `??afDelete::?relay`,00H
        EXTERN `??afFindEndPointDesc::?relay`
        FUNCTION `??afFindEndPointDesc::?relay`,00H
        EXTERN `??afRegister::?relay`
        FUNCTION `??afRegister::?relay`,00H
        EXTERN `??osal_buffer_uint32::?relay`
        FUNCTION `??osal_buffer_uint32::?relay`,00H
        EXTERN `??osal_build_uint16::?relay`
        FUNCTION `??osal_build_uint16::?relay`,00H
        EXTERN `??osal_build_uint32::?relay`
        FUNCTION `??osal_build_uint32::?relay`,00H
        EXTERN `??osal_mem_alloc::?relay`
        FUNCTION `??osal_mem_alloc::?relay`,00H
        EXTERN `??osal_mem_free::?relay`
        FUNCTION `??osal_mem_free::?relay`,00H
        EXTERN `??osal_memcpy::?relay`
        FUNCTION `??osal_memcpy::?relay`,00H
        EXTERN `??osal_memset::?relay`
        FUNCTION `??osal_memset::?relay`,00H
        EXTERN `??osal_set_event::?relay`
        FUNCTION `??osal_set_event::?relay`,00H
        EXTERN `??osal_start_timerEx::?relay`
        FUNCTION `??osal_start_timerEx::?relay`,00H
        EXTERN AF_DataRequest
        FUNCTION AF_DataRequest,0202H
        ARGFRAME ISTACK, 0, STACK
        ARGFRAME PSTACK, 0, STACK
        ARGFRAME XSTACK, 44, STACK
        ARGFRAME IOVERLAY, 0, STATIC
        ARGFRAME DOVERLAY, 0, STATIC
        EXTERN AF_DataRequestSrcRtg
        FUNCTION AF_DataRequestSrcRtg,0202H
        ARGFRAME ISTACK, 0, STACK
        ARGFRAME PSTACK, 0, STACK
        ARGFRAME XSTACK, 46, STACK
        ARGFRAME IOVERLAY, 0, STATIC
        ARGFRAME DOVERLAY, 0, STATIC
        EXTERN MT_BuildAndSendZToolResponse
        FUNCTION MT_BuildAndSendZToolResponse,0202H
        ARGFRAME ISTACK, 2, STACK
        ARGFRAME PSTACK, 0, STACK
        ARGFRAME XSTACK, 35, STACK
        ARGFRAME IOVERLAY, 0, STATIC
        ARGFRAME DOVERLAY, 0, STATIC
        EXTERN MT_BuildEndpointDesc
        FUNCTION MT_BuildEndpointDesc,0202H
        ARGFRAME ISTACK, 0, STACK
        ARGFRAME PSTACK, 0, STACK
        ARGFRAME XSTACK, 20, STACK
        ARGFRAME IOVERLAY, 0, STATIC
        ARGFRAME DOVERLAY, 0, STATIC
        EXTERN MT_TaskID
        EXTERN StubAPS_InterPan
        FUNCTION StubAPS_InterPan,0202H
        ARGFRAME ISTACK, 0, STACK
        ARGFRAME PSTACK, 0, STACK
        ARGFRAME XSTACK, 22, STACK
        ARGFRAME IOVERLAY, 0, STATIC
        ARGFRAME DOVERLAY, 0, STATIC
        EXTERN StubAPS_RegisterApp
        FUNCTION StubAPS_RegisterApp,0202H
        ARGFRAME ISTACK, 0, STACK
        ARGFRAME PSTACK, 0, STACK
        ARGFRAME XSTACK, 20, STACK
        ARGFRAME IOVERLAY, 0, STATIC
        ARGFRAME DOVERLAY, 0, STATIC
        EXTERN StubAPS_SetInterPanChannel
        FUNCTION StubAPS_SetInterPanChannel,0202H
        ARGFRAME ISTACK, 0, STACK
        ARGFRAME PSTACK, 0, STACK
        ARGFRAME XSTACK, 20, STACK
        ARGFRAME IOVERLAY, 0, STATIC
        ARGFRAME DOVERLAY, 0, STATIC
        EXTERN StubAPS_SetIntraPanChannel
        FUNCTION StubAPS_SetIntraPanChannel,0202H
        ARGFRAME ISTACK, 0, STACK
        ARGFRAME PSTACK, 0, STACK
        ARGFRAME XSTACK, 20, STACK
        ARGFRAME IOVERLAY, 0, STATIC
        ARGFRAME DOVERLAY, 0, STATIC
        EXTERN afAPSF_ConfigGet
        FUNCTION afAPSF_ConfigGet,0202H
        ARGFRAME ISTACK, 0, STACK
        ARGFRAME PSTACK, 0, STACK
        ARGFRAME XSTACK, 20, STACK
        ARGFRAME IOVERLAY, 0, STATIC
        ARGFRAME DOVERLAY, 0, STATIC
        EXTERN afAPSF_ConfigSet
        FUNCTION afAPSF_ConfigSet,0202H
        ARGFRAME ISTACK, 0, STACK
        ARGFRAME PSTACK, 0, STACK
        ARGFRAME XSTACK, 20, STACK
        ARGFRAME IOVERLAY, 0, STATIC
        ARGFRAME DOVERLAY, 0, STATIC
        EXTERN afDelete
        FUNCTION afDelete,0202H
        ARGFRAME ISTACK, 0, STACK
        ARGFRAME PSTACK, 0, STACK
        ARGFRAME XSTACK, 20, STACK
        ARGFRAME IOVERLAY, 0, STATIC
        ARGFRAME DOVERLAY, 0, STATIC
        EXTERN afFindEndPointDesc
        FUNCTION afFindEndPointDesc,0202H
        ARGFRAME ISTACK, 0, STACK
        ARGFRAME PSTACK, 0, STACK
        ARGFRAME XSTACK, 35, STACK
        ARGFRAME IOVERLAY, 0, STATIC
        ARGFRAME DOVERLAY, 0, STATIC
        EXTERN afRegister
        FUNCTION afRegister,0202H
        ARGFRAME ISTACK, 0, STACK
        ARGFRAME PSTACK, 0, STACK
        ARGFRAME XSTACK, 20, STACK
        ARGFRAME IOVERLAY, 0, STATIC
        ARGFRAME DOVERLAY, 0, STATIC
        EXTERN osal_buffer_uint32
        FUNCTION osal_buffer_uint32,0202H
        ARGFRAME ISTACK, 0, STACK
        ARGFRAME PSTACK, 0, STACK
        ARGFRAME XSTACK, 26, STACK
        ARGFRAME IOVERLAY, 0, STATIC
        ARGFRAME DOVERLAY, 0, STATIC
        EXTERN osal_build_uint16
        FUNCTION osal_build_uint16,0202H
        ARGFRAME ISTACK, 0, STACK
        ARGFRAME PSTACK, 0, STACK
        ARGFRAME XSTACK, 35, STACK
        ARGFRAME IOVERLAY, 0, STATIC
        ARGFRAME DOVERLAY, 0, STATIC
        EXTERN osal_build_uint32
        FUNCTION osal_build_uint32,0202H
        ARGFRAME ISTACK, 0, STACK
        ARGFRAME PSTACK, 0, STACK
        ARGFRAME XSTACK, 19, STACK
        ARGFRAME IOVERLAY, 0, STATIC
        ARGFRAME DOVERLAY, 0, STATIC
        EXTERN osal_mem_alloc
        FUNCTION osal_mem_alloc,0202H
        ARGFRAME ISTACK, 0, STACK
        ARGFRAME PSTACK, 0, STACK
        ARGFRAME XSTACK, 35, STACK
        ARGFRAME IOVERLAY, 0, STATIC
        ARGFRAME DOVERLAY, 0, STATIC
        EXTERN osal_mem_free
        FUNCTION osal_mem_free,0202H
        ARGFRAME ISTACK, 0, STACK
        ARGFRAME PSTACK, 0, STACK
        ARGFRAME XSTACK, 34, STACK
        ARGFRAME IOVERLAY, 0, STATIC
        ARGFRAME DOVERLAY, 0, STATIC
        EXTERN osal_memcpy
        FUNCTION osal_memcpy,0202H
        ARGFRAME ISTACK, 0, STACK
        ARGFRAME PSTACK, 0, STACK
        ARGFRAME XSTACK, 38, STACK
        ARGFRAME IOVERLAY, 0, STATIC
        ARGFRAME DOVERLAY, 0, STATIC
        EXTERN osal_memset
        FUNCTION osal_memset,0202H
        ARGFRAME ISTACK, 0, STACK
        ARGFRAME PSTACK, 0, STACK
        ARGFRAME XSTACK, 34, STACK
        ARGFRAME IOVERLAY, 0, STATIC
        ARGFRAME DOVERLAY, 0, STATIC
        EXTERN osal_set_event
        FUNCTION osal_set_event,0202H
        ARGFRAME ISTACK, 0, STACK
        ARGFRAME PSTACK, 0, STACK
        ARGFRAME XSTACK, 35, STACK
        ARGFRAME IOVERLAY, 0, STATIC
        ARGFRAME DOVERLAY, 0, STATIC
        EXTERN osal_start_timerEx
        FUNCTION osal_start_timerEx,0202H
        ARGFRAME ISTACK, 0, STACK
        ARGFRAME PSTACK, 0, STACK
        ARGFRAME XSTACK, 39, STACK
        ARGFRAME IOVERLAY, 0, STATIC
        ARGFRAME DOVERLAY, 0, STATIC

// C:\Texas Instruments\Z-Stack Home 1.2.2a.44539\Components\mt\MT_AF.c
//    1 /**************************************************************************************************
//    2   Filename:       MT_AF.c
//    3   Revised:        $Date: 2015-01-26 08:25:50 -0800 (Mon, 26 Jan 2015) $
//    4   Revision:       $Revision: 42025 $
//    5 
//    6   Description:    MonitorTest functions for the AF layer.
//    7 
//    8   Copyright 2007-2015 Texas Instruments Incorporated. All rights reserved.
//    9 
//   10   IMPORTANT: Your use of this Software is limited to those specific rights
//   11   granted under the terms of a software license agreement between the user
//   12   who downloaded the software, his/her employer (which must be your employer)
//   13   and Texas Instruments Incorporated (the "License"). You may not use this
//   14   Software unless you agree to abide by the terms of the License. The License
//   15   limits your use, and you acknowledge, that the Software may not be modified,
//   16   copied or distributed unless embedded on a Texas Instruments microcontroller
//   17   or used solely and exclusively in conjunction with a Texas Instruments radio
//   18   frequency transceiver, which is integrated into your product. Other than for
//   19   the foregoing purpose, you may not use, reproduce, copy, prepare derivative
//   20   works of, modify, distribute, perform, display or sell this Software and/or
//   21   its documentation for any purpose.
//   22 
//   23   YOU FURTHER ACKNOWLEDGE AND AGREE THAT THE SOFTWARE AND DOCUMENTATION ARE
//   24   PROVIDED “AS IS” WITHOUT WARRANTY OF ANY KIND, EITHER EXPRESS OR IMPLIED,
//   25   INCLUDING WITHOUT LIMITATION, ANY WARRANTY OF MERCHANTABILITY, TITLE,
//   26   NON-INFRINGEMENT AND FITNESS FOR A PARTICULAR PURPOSE. IN NO EVENT SHALL
//   27   TEXAS INSTRUMENTS OR ITS LICENSORS BE LIABLE OR OBLIGATED UNDER CONTRACT,
//   28   NEGLIGENCE, STRICT LIABILITY, CONTRIBUTION, BREACH OF WARRANTY, OR OTHER
//   29   LEGAL EQUITABLE THEORY ANY DIRECT OR INDIRECT DAMAGES OR EXPENSES
//   30   INCLUDING BUT NOT LIMITED TO ANY INCIDENTAL, SPECIAL, INDIRECT, PUNITIVE
//   31   OR CONSEQUENTIAL DAMAGES, LOST PROFITS OR LOST DATA, COST OF PROCUREMENT
//   32   OF SUBSTITUTE GOODS, TECHNOLOGY, SERVICES, OR ANY CLAIMS BY THIRD PARTIES
//   33   (INCLUDING BUT NOT LIMITED TO ANY DEFENSE THEREOF), OR OTHER SIMILAR COSTS.
//   34 
//   35   Should you have any questions regarding your right to use this Software,
//   36   contact Texas Instruments Incorporated at www.TI.com.
//   37 
//   38 **************************************************************************************************/
//   39 
//   40 /* ------------------------------------------------------------------------------------------------
//   41  *                                          Includes
//   42  * ------------------------------------------------------------------------------------------------
//   43  */
//   44 #include "ZComDef.h"
//   45 #include "OSAL.h"
//   46 #include "MT.h"
//   47 #include "MT_AF.h"
//   48 #include "MT_ZDO.h"
//   49 #include "nwk.h"
//   50 #include "OnBoard.h"
//   51 #include "MT_UART.h"
//   52 
//   53 #if defined INTER_PAN
//   54 #include "stub_aps.h"
//   55 #endif
//   56 
//   57 #if defined ( MT_GP_FUNC )
//   58 #include "MT_GP.h"
//   59 #endif
//   60 
//   61 /* ------------------------------------------------------------------------------------------------
//   62  *                                          Constants
//   63  * ------------------------------------------------------------------------------------------------
//   64  */
//   65 
//   66 #if !defined MT_AF_EXEC_CNT
//   67 #define MT_AF_EXEC_CNT  15
//   68 #endif
//   69 
//   70 #if !defined MT_AF_EXEC_DLY
//   71 #define MT_AF_EXEC_DLY  1000
//   72 #endif
//   73 
//   74 /* ------------------------------------------------------------------------------------------------
//   75  *                                           Typedefs
//   76  * ------------------------------------------------------------------------------------------------
//   77  */
//   78 
//   79 typedef struct
//   80 {
//   81   uint8 *data;
//   82   afAddrType_t dstAddr;
//   83   endPointDesc_t *epDesc;
//   84   uint16 cId;
//   85   uint16 dataLen;
//   86   uint8 transId;
//   87   uint8 txOpts;
//   88   uint8 radius;
//   89   uint8 tick;
//   90 } mtAfDataReq_t;
//   91 
//   92 typedef struct _mtAfInMsgList_t
//   93 {
//   94   struct _mtAfInMsgList_t *next;
//   95   uint8 *data;
//   96   uint32 timestamp;         // Receipt timestamp from MAC.
//   97   uint8 tick;
//   98 } mtAfInMsgList_t;
//   99 
//  100 /* ------------------------------------------------------------------------------------------------
//  101  *                                        Local Variables
//  102  * ------------------------------------------------------------------------------------------------
//  103  */
//  104 

        RSEG XDATA_Z:XDATA:NOROOT(0)
        DATA16
//  105 mtAfInMsgList_t *pMtAfInMsgList = NULL;
pMtAfInMsgList:
        DS 2
        REQUIRE __INIT_XDATA_Z

        RSEG XDATA_Z:XDATA:NOROOT(0)
        DATA16
//  106 mtAfDataReq_t *pMtAfDataReq = NULL;
pMtAfDataReq:
        DS 2
        REQUIRE __INIT_XDATA_Z
//  107 
//  108 /* ------------------------------------------------------------------------------------------------
//  109  *                                        Global Variables
//  110  * ------------------------------------------------------------------------------------------------
//  111  */
//  112 
//  113 #if defined ( MT_AF_CB_FUNC )
//  114 uint16 _afCallbackSub;
//  115 #endif
//  116 
//  117 /* ------------------------------------------------------------------------------------------------
//  118  *                                        Local Functions
//  119  * ------------------------------------------------------------------------------------------------
//  120  */
//  121 
//  122 static void MT_AfRegister(uint8 *pBuf);
//  123 static void MT_AfDelete(uint8 *pBuf);
//  124 static void MT_AfDataRequest(uint8 *pBuf);
//  125 
//  126 #if defined ( ZIGBEEPRO )
//  127 static void MT_AfDataRequestSrcRtg(uint8 *pBuf);
//  128 #endif
//  129 
//  130 #if defined INTER_PAN
//  131 static void MT_AfInterPanCtl(uint8 *pBuf);
//  132 #endif
//  133 
//  134 static void MT_AfDataRetrieve(uint8 *pBuf);
//  135 static void MT_AfDataStore(uint8 *pBuf);
//  136 static void MT_AfAPSF_ConfigSet(uint8 *pBuf);
//  137 static void MT_AfAPSF_ConfigGet(uint8 *pBuf);
//  138 
//  139 
//  140 /**************************************************************************************************
//  141  * @fn          MT_AfExec
//  142  *
//  143  * @brief       This function is invoked by an MT timer event.
//  144  *
//  145  * input parameters
//  146  *
//  147  * None.
//  148  *
//  149  * output parameters
//  150  *
//  151  * None.
//  152  *
//  153  * @return      None.
//  154  **************************************************************************************************
//  155  */

        RSEG BANKED_CODE:HUGECODE:NOROOT(0)
//  156 void MT_AfExec(void)
MT_AfExec:
          CFI Block cfiBlock0 Using cfiCommon0
          CFI Function MT_AfExec
        CODE
//  157 {
        FUNCALL MT_AfExec, osal_mem_free
        LOCFRAME ISTACK, 0, STACK
        LOCFRAME PSTACK, 0, STACK
        LOCFRAME XSTACK, 9, STACK
        LOCFRAME IOVERLAY, 0, STATIC
        LOCFRAME DOVERLAY, 0, STATIC
        ARGFRAME ISTACK, 0, STACK
        ARGFRAME PSTACK, 0, STACK
        ARGFRAME XSTACK, 9, STACK
        ARGFRAME IOVERLAY, 0, STATIC
        ARGFRAME DOVERLAY, 0, STATIC
        FUNCALL MT_AfExec, osal_mem_free
        LOCFRAME ISTACK, 0, STACK
        LOCFRAME PSTACK, 0, STACK
        LOCFRAME XSTACK, 9, STACK
        LOCFRAME IOVERLAY, 0, STATIC
        LOCFRAME DOVERLAY, 0, STATIC
        ARGFRAME ISTACK, 0, STACK
        ARGFRAME PSTACK, 0, STACK
        ARGFRAME XSTACK, 9, STACK
        ARGFRAME IOVERLAY, 0, STATIC
        ARGFRAME DOVERLAY, 0, STATIC
        FUNCALL MT_AfExec, osal_mem_free
        LOCFRAME ISTACK, 0, STACK
        LOCFRAME PSTACK, 0, STACK
        LOCFRAME XSTACK, 9, STACK
        LOCFRAME IOVERLAY, 0, STATIC
        LOCFRAME DOVERLAY, 0, STATIC
        ARGFRAME ISTACK, 0, STACK
        ARGFRAME PSTACK, 0, STACK
        ARGFRAME XSTACK, 9, STACK
        ARGFRAME IOVERLAY, 0, STATIC
        ARGFRAME DOVERLAY, 0, STATIC
        FUNCALL MT_AfExec, osal_start_timerEx
        LOCFRAME ISTACK, 0, STACK
        LOCFRAME PSTACK, 0, STACK
        LOCFRAME XSTACK, 13, STACK
        LOCFRAME IOVERLAY, 0, STATIC
        LOCFRAME DOVERLAY, 0, STATIC
        ARGFRAME ISTACK, 0, STACK
        ARGFRAME PSTACK, 0, STACK
        ARGFRAME XSTACK, 13, STACK
        ARGFRAME IOVERLAY, 0, STATIC
        ARGFRAME DOVERLAY, 0, STATIC
        FUNCALL MT_AfExec, osal_set_event
        LOCFRAME ISTACK, 0, STACK
        LOCFRAME PSTACK, 0, STACK
        LOCFRAME XSTACK, 9, STACK
        LOCFRAME IOVERLAY, 0, STATIC
        LOCFRAME DOVERLAY, 0, STATIC
        ARGFRAME ISTACK, 0, STACK
        ARGFRAME PSTACK, 0, STACK
        ARGFRAME XSTACK, 9, STACK
        ARGFRAME IOVERLAY, 0, STATIC
        ARGFRAME DOVERLAY, 0, STATIC
        MOV       A,#-0x9
        LCALL     ?BANKED_ENTER_XDATA
          CFI R6 load(1, XDATA, add(CFA_XSP16, literal(-9)))
          CFI VB load(1, XDATA, add(CFA_XSP16, literal(-8)))
          CFI V0 load(1, XDATA, add(CFA_XSP16, literal(-7)))
          CFI R7 load(1, XDATA, add(CFA_XSP16, literal(-6)))
          CFI ?RET_LOW load(1, XDATA, add(CFA_XSP16, literal(-5)))
          CFI ?RET_HIGH load(1, XDATA, add(CFA_XSP16, literal(-4)))
          CFI ?BRET_EXT load(1, XDATA, add(CFA_XSP16, literal(-3)))
          CFI DPL0 load(1, XDATA, add(CFA_XSP16, literal(-2)))
          CFI DPH0 load(1, XDATA, add(CFA_XSP16, literal(-1)))
          CFI CFA_SP SP+0
          CFI CFA_XSP16 add(XSP16, 9)
        ; Saved register size: 9
        ; Auto size: 0
//  158   mtAfInMsgList_t *pPrev, *pItem = pMtAfInMsgList;
??MT_AfExec_0:
        MOV       DPTR,#pMtAfInMsgList
        SJMP      ??MT_AfExec_1
//  159 
//  160   while (pItem != NULL)
//  161   {
//  162     if (--(pItem->tick) == 0)
//  163     {
//  164       if (pMtAfInMsgList == pItem)
//  165       {
//  166         pMtAfInMsgList = pItem->next;
//  167         (void)osal_mem_free(pItem);
//  168         pItem = pMtAfInMsgList;
//  169       }
//  170       else
//  171       {
//  172         pPrev->next = pItem->next;
//  173         (void)osal_mem_free(pItem);
//  174         pItem = pPrev->next;
//  175       }
//  176     }
//  177     else
//  178     {
//  179       pPrev = pItem;
??MT_AfExec_2:
        MOV       A,R2
        MOV       R6,A
        MOV       A,R3
        MOV       R7,A
//  180       pItem = pItem->next;
        MOV       DPL,R2
        MOV       DPH,R3
//  181     }
??MT_AfExec_1:
        LCALL     ??Subroutine53_0 & 0xFFFF
??CrossCallReturnLabel_115:
        MOV       A,R2
        ORL       A,R3
        JZ        ??MT_AfExec_3
        MOV       A,R2
        ADD       A,#0x8
        MOV       DPL,A
        CLR       A
        ADDC      A,R3
        MOV       DPH,A
        MOVX      A,@DPTR
        DEC       A
        MOVX      @DPTR,A
        JNZ       ??MT_AfExec_2
        LCALL     ?Subroutine23 & 0xFFFF
??CrossCallReturnLabel_122:
        MOV       A,R2
        XRL       A,R0
        JNZ       ??MT_AfExec_4
        MOV       A,R3
        XRL       A,R1
??MT_AfExec_4:
        MOV       DPL,R2
        MOV       DPH,R3
        JNZ       ??MT_AfExec_5
        LCALL     ?Subroutine22 & 0xFFFF
??CrossCallReturnLabel_35:
        MOV       A,R0
        MOVX      @DPTR,A
        INC       DPTR
        MOV       A,R1
        MOVX      @DPTR,A
        ; Setup parameters for call to function osal_mem_free
        LCALL     `??osal_mem_free::?relay`; Banked call to: osal_mem_free
        SJMP      ??MT_AfExec_0
??MT_AfExec_5:
        LCALL     ??Subroutine54_0 & 0xFFFF
??CrossCallReturnLabel_120:
        MOV       DPL,R6
        MOV       DPH,R7
        MOV       A,R0
        MOVX      @DPTR,A
        INC       DPTR
        MOV       A,R1
        MOVX      @DPTR,A
        ; Setup parameters for call to function osal_mem_free
        LCALL     `??osal_mem_free::?relay`; Banked call to: osal_mem_free
        MOV       DPL,R6
        MOV       DPH,R7
        SJMP      ??MT_AfExec_1
//  182   }
//  183 
//  184   if (pMtAfDataReq != NULL)
??MT_AfExec_3:
        LCALL     ?Subroutine2 & 0xFFFF
??CrossCallReturnLabel_102:
        JZ        ??MT_AfExec_6
//  185   {
//  186     if (--(pMtAfDataReq->tick) == 0)
        MOVX      A,@DPTR
        XCH       A,R0
        LCALL     ?Subroutine44 & 0xFFFF
??CrossCallReturnLabel_83:
        MOVX      A,@DPTR
        DEC       A
        LCALL     ?Subroutine6 & 0xFFFF
??CrossCallReturnLabel_7:
        MOVX      A,@DPTR
        JNZ       ??MT_AfExec_6
//  187     {
//  188       (void)osal_mem_free(pMtAfDataReq);
        ; Setup parameters for call to function osal_mem_free
        LCALL     ?Subroutine12 & 0xFFFF
??CrossCallReturnLabel_118:
        LCALL     `??osal_mem_free::?relay`; Banked call to: osal_mem_free
//  189       pMtAfDataReq = NULL;
        MOV       DPTR,#pMtAfDataReq
        CLR       A
        MOVX      @DPTR,A
        INC       DPTR
        MOVX      @DPTR,A
//  190     }
//  191   }
//  192 
//  193   if ((pMtAfInMsgList != NULL) || (pMtAfDataReq != NULL))
??MT_AfExec_6:
        MOV       DPTR,#pMtAfInMsgList
        LCALL     ??Subroutine50_0 & 0xFFFF
??CrossCallReturnLabel_101:
        JNZ       ??MT_AfExec_7
        LCALL     ?Subroutine2 & 0xFFFF
??CrossCallReturnLabel_103:
        JZ        ??MT_AfExec_8
//  194   {
//  195     if (ZSuccess != osal_start_timerEx(MT_TaskID, MT_AF_EXEC_EVT, MT_AF_EXEC_DLY))
??MT_AfExec_7:
        ; Setup parameters for call to function osal_start_timerEx
        MOV       DPTR,#__Constant_3e8
        LCALL     ?PUSH_XSTACK8_X_FOUR
          CFI CFA_XSP16 add(XSP16, 13)
        MOV       R2,#0x8
        MOV       R3,#0x0
        MOV       DPTR,#MT_TaskID
        MOVX      A,@DPTR
        MOV       R1,A
        LCALL     `??osal_start_timerEx::?relay`; Banked call to: osal_start_timerEx
        MOV       A,#0x4
        LCALL     ?DEALLOC_XSTACK8
          CFI CFA_XSP16 add(XSP16, 9)
        MOV       A,R1
        JZ        ??MT_AfExec_8
//  196     {
//  197       osal_set_event(MT_TaskID, MT_AF_EXEC_EVT);
        ; Setup parameters for call to function osal_set_event
        MOV       R2,#0x8
        MOV       R3,#0x0
        MOV       DPTR,#MT_TaskID
        MOVX      A,@DPTR
        MOV       R1,A
        LCALL     `??osal_set_event::?relay`; Banked call to: osal_set_event
//  198     }
//  199   }
//  200 }
??MT_AfExec_8:
        MOV       R7,#0x1
        LJMP      ?BANKED_LEAVE_XDATA
          CFI EndBlock cfiBlock0
//  201 
//  202 /***************************************************************************************************
//  203  * @fn      MT_AfCommandProcessing
//  204  *
//  205  * @brief   Process all the AF commands that are issued by test tool
//  206  *
//  207  * @param   pBuf - pointer to the received buffer
//  208  *
//  209  * @return  status
//  210  ***************************************************************************************************/

        RSEG BANKED_CODE:HUGECODE:NOROOT(0)
//  211 uint8 MT_AfCommandProcessing(uint8 *pBuf)
MT_AfCommandProcessing:
          CFI Block cfiBlock1 Using cfiCommon0
          CFI Function MT_AfCommandProcessing
        CODE
//  212 {
        FUNCALL MT_AfCommandProcessing, osal_mem_alloc
        LOCFRAME ISTACK, 0, STACK
        LOCFRAME PSTACK, 0, STACK
        LOCFRAME XSTACK, 20, STACK
        LOCFRAME IOVERLAY, 0, STATIC
        LOCFRAME DOVERLAY, 0, STATIC
        ARGFRAME ISTACK, 0, STACK
        ARGFRAME PSTACK, 0, STACK
        ARGFRAME XSTACK, 20, STACK
        ARGFRAME IOVERLAY, 0, STATIC
        ARGFRAME DOVERLAY, 0, STATIC
        FUNCALL MT_AfCommandProcessing, MT_BuildEndpointDesc
        LOCFRAME ISTACK, 0, STACK
        LOCFRAME PSTACK, 0, STACK
        LOCFRAME XSTACK, 20, STACK
        LOCFRAME IOVERLAY, 0, STATIC
        LOCFRAME DOVERLAY, 0, STATIC
        ARGFRAME ISTACK, 0, STACK
        ARGFRAME PSTACK, 0, STACK
        ARGFRAME XSTACK, 20, STACK
        ARGFRAME IOVERLAY, 0, STATIC
        ARGFRAME DOVERLAY, 0, STATIC
        FUNCALL MT_AfCommandProcessing, afRegister
        LOCFRAME ISTACK, 0, STACK
        LOCFRAME PSTACK, 0, STACK
        LOCFRAME XSTACK, 20, STACK
        LOCFRAME IOVERLAY, 0, STATIC
        LOCFRAME DOVERLAY, 0, STATIC
        ARGFRAME ISTACK, 0, STACK
        ARGFRAME PSTACK, 0, STACK
        ARGFRAME XSTACK, 20, STACK
        ARGFRAME IOVERLAY, 0, STATIC
        ARGFRAME DOVERLAY, 0, STATIC
        FUNCALL MT_AfCommandProcessing, osal_mem_free
        LOCFRAME ISTACK, 0, STACK
        LOCFRAME PSTACK, 0, STACK
        LOCFRAME XSTACK, 20, STACK
        LOCFRAME IOVERLAY, 0, STATIC
        LOCFRAME DOVERLAY, 0, STATIC
        ARGFRAME ISTACK, 0, STACK
        ARGFRAME PSTACK, 0, STACK
        ARGFRAME XSTACK, 20, STACK
        ARGFRAME IOVERLAY, 0, STATIC
        ARGFRAME DOVERLAY, 0, STATIC
        FUNCALL MT_AfCommandProcessing, MT_BuildAndSendZToolResponse
        LOCFRAME ISTACK, 0, STACK
        LOCFRAME PSTACK, 0, STACK
        LOCFRAME XSTACK, 20, STACK
        LOCFRAME IOVERLAY, 0, STATIC
        LOCFRAME DOVERLAY, 0, STATIC
        ARGFRAME ISTACK, 0, STACK
        ARGFRAME PSTACK, 0, STACK
        ARGFRAME XSTACK, 20, STACK
        ARGFRAME IOVERLAY, 0, STATIC
        ARGFRAME DOVERLAY, 0, STATIC
        FUNCALL MT_AfCommandProcessing, afDelete
        LOCFRAME ISTACK, 0, STACK
        LOCFRAME PSTACK, 0, STACK
        LOCFRAME XSTACK, 20, STACK
        LOCFRAME IOVERLAY, 0, STATIC
        LOCFRAME DOVERLAY, 0, STATIC
        ARGFRAME ISTACK, 0, STACK
        ARGFRAME PSTACK, 0, STACK
        ARGFRAME XSTACK, 20, STACK
        ARGFRAME IOVERLAY, 0, STATIC
        ARGFRAME DOVERLAY, 0, STATIC
        FUNCALL MT_AfCommandProcessing, MT_BuildAndSendZToolResponse
        LOCFRAME ISTACK, 0, STACK
        LOCFRAME PSTACK, 0, STACK
        LOCFRAME XSTACK, 20, STACK
        LOCFRAME IOVERLAY, 0, STATIC
        LOCFRAME DOVERLAY, 0, STATIC
        ARGFRAME ISTACK, 0, STACK
        ARGFRAME PSTACK, 0, STACK
        ARGFRAME XSTACK, 20, STACK
        ARGFRAME IOVERLAY, 0, STATIC
        ARGFRAME DOVERLAY, 0, STATIC
        FUNCALL MT_AfCommandProcessing, MT_AfDataRequest
        LOCFRAME ISTACK, 0, STACK
        LOCFRAME PSTACK, 0, STACK
        LOCFRAME XSTACK, 20, STACK
        LOCFRAME IOVERLAY, 0, STATIC
        LOCFRAME DOVERLAY, 0, STATIC
        ARGFRAME ISTACK, 0, STACK
        ARGFRAME PSTACK, 0, STACK
        ARGFRAME XSTACK, 20, STACK
        ARGFRAME IOVERLAY, 0, STATIC
        ARGFRAME DOVERLAY, 0, STATIC
        FUNCALL MT_AfCommandProcessing, MT_AfDataRequestSrcRtg
        LOCFRAME ISTACK, 0, STACK
        LOCFRAME PSTACK, 0, STACK
        LOCFRAME XSTACK, 20, STACK
        LOCFRAME IOVERLAY, 0, STATIC
        LOCFRAME DOVERLAY, 0, STATIC
        ARGFRAME ISTACK, 0, STACK
        ARGFRAME PSTACK, 0, STACK
        ARGFRAME XSTACK, 20, STACK
        ARGFRAME IOVERLAY, 0, STATIC
        ARGFRAME DOVERLAY, 0, STATIC
        FUNCALL MT_AfCommandProcessing, osal_build_uint16
        LOCFRAME ISTACK, 0, STACK
        LOCFRAME PSTACK, 0, STACK
        LOCFRAME XSTACK, 20, STACK
        LOCFRAME IOVERLAY, 0, STATIC
        LOCFRAME DOVERLAY, 0, STATIC
        ARGFRAME ISTACK, 0, STACK
        ARGFRAME PSTACK, 0, STACK
        ARGFRAME XSTACK, 20, STACK
        ARGFRAME IOVERLAY, 0, STATIC
        ARGFRAME DOVERLAY, 0, STATIC
        FUNCALL MT_AfCommandProcessing, StubAPS_InterPan
        LOCFRAME ISTACK, 0, STACK
        LOCFRAME PSTACK, 0, STACK
        LOCFRAME XSTACK, 20, STACK
        LOCFRAME IOVERLAY, 0, STATIC
        LOCFRAME DOVERLAY, 0, STATIC
        ARGFRAME ISTACK, 0, STACK
        ARGFRAME PSTACK, 0, STACK
        ARGFRAME XSTACK, 20, STACK
        ARGFRAME IOVERLAY, 0, STATIC
        ARGFRAME DOVERLAY, 0, STATIC
        FUNCALL MT_AfCommandProcessing, afFindEndPointDesc
        LOCFRAME ISTACK, 0, STACK
        LOCFRAME PSTACK, 0, STACK
        LOCFRAME XSTACK, 20, STACK
        LOCFRAME IOVERLAY, 0, STATIC
        LOCFRAME DOVERLAY, 0, STATIC
        ARGFRAME ISTACK, 0, STACK
        ARGFRAME PSTACK, 0, STACK
        ARGFRAME XSTACK, 20, STACK
        ARGFRAME IOVERLAY, 0, STATIC
        ARGFRAME DOVERLAY, 0, STATIC
        FUNCALL MT_AfCommandProcessing, StubAPS_RegisterApp
        LOCFRAME ISTACK, 0, STACK
        LOCFRAME PSTACK, 0, STACK
        LOCFRAME XSTACK, 20, STACK
        LOCFRAME IOVERLAY, 0, STATIC
        LOCFRAME DOVERLAY, 0, STATIC
        ARGFRAME ISTACK, 0, STACK
        ARGFRAME PSTACK, 0, STACK
        ARGFRAME XSTACK, 20, STACK
        ARGFRAME IOVERLAY, 0, STATIC
        ARGFRAME DOVERLAY, 0, STATIC
        FUNCALL MT_AfCommandProcessing, StubAPS_SetInterPanChannel
        LOCFRAME ISTACK, 0, STACK
        LOCFRAME PSTACK, 0, STACK
        LOCFRAME XSTACK, 20, STACK
        LOCFRAME IOVERLAY, 0, STATIC
        LOCFRAME DOVERLAY, 0, STATIC
        ARGFRAME ISTACK, 0, STACK
        ARGFRAME PSTACK, 0, STACK
        ARGFRAME XSTACK, 20, STACK
        ARGFRAME IOVERLAY, 0, STATIC
        ARGFRAME DOVERLAY, 0, STATIC
        FUNCALL MT_AfCommandProcessing, StubAPS_SetIntraPanChannel
        LOCFRAME ISTACK, 0, STACK
        LOCFRAME PSTACK, 0, STACK
        LOCFRAME XSTACK, 20, STACK
        LOCFRAME IOVERLAY, 0, STATIC
        LOCFRAME DOVERLAY, 0, STATIC
        ARGFRAME ISTACK, 0, STACK
        ARGFRAME PSTACK, 0, STACK
        ARGFRAME XSTACK, 20, STACK
        ARGFRAME IOVERLAY, 0, STATIC
        ARGFRAME DOVERLAY, 0, STATIC
        FUNCALL MT_AfCommandProcessing, MT_BuildAndSendZToolResponse
        LOCFRAME ISTACK, 0, STACK
        LOCFRAME PSTACK, 0, STACK
        LOCFRAME XSTACK, 20, STACK
        LOCFRAME IOVERLAY, 0, STATIC
        LOCFRAME DOVERLAY, 0, STATIC
        ARGFRAME ISTACK, 0, STACK
        ARGFRAME PSTACK, 0, STACK
        ARGFRAME XSTACK, 20, STACK
        ARGFRAME IOVERLAY, 0, STATIC
        ARGFRAME DOVERLAY, 0, STATIC
        FUNCALL MT_AfCommandProcessing, MT_AfDataRetrieve
        LOCFRAME ISTACK, 0, STACK
        LOCFRAME PSTACK, 0, STACK
        LOCFRAME XSTACK, 20, STACK
        LOCFRAME IOVERLAY, 0, STATIC
        LOCFRAME DOVERLAY, 0, STATIC
        ARGFRAME ISTACK, 0, STACK
        ARGFRAME PSTACK, 0, STACK
        ARGFRAME XSTACK, 20, STACK
        ARGFRAME IOVERLAY, 0, STATIC
        ARGFRAME DOVERLAY, 0, STATIC
        FUNCALL MT_AfCommandProcessing, MT_AfDataStore
        LOCFRAME ISTACK, 0, STACK
        LOCFRAME PSTACK, 0, STACK
        LOCFRAME XSTACK, 20, STACK
        LOCFRAME IOVERLAY, 0, STATIC
        LOCFRAME DOVERLAY, 0, STATIC
        ARGFRAME ISTACK, 0, STACK
        ARGFRAME PSTACK, 0, STACK
        ARGFRAME XSTACK, 20, STACK
        ARGFRAME IOVERLAY, 0, STATIC
        ARGFRAME DOVERLAY, 0, STATIC
        FUNCALL MT_AfCommandProcessing, afAPSF_ConfigSet
        LOCFRAME ISTACK, 0, STACK
        LOCFRAME PSTACK, 0, STACK
        LOCFRAME XSTACK, 20, STACK
        LOCFRAME IOVERLAY, 0, STATIC
        LOCFRAME DOVERLAY, 0, STATIC
        ARGFRAME ISTACK, 0, STACK
        ARGFRAME PSTACK, 0, STACK
        ARGFRAME XSTACK, 20, STACK
        ARGFRAME IOVERLAY, 0, STATIC
        ARGFRAME DOVERLAY, 0, STATIC
        FUNCALL MT_AfCommandProcessing, MT_BuildAndSendZToolResponse
        LOCFRAME ISTACK, 0, STACK
        LOCFRAME PSTACK, 0, STACK
        LOCFRAME XSTACK, 20, STACK
        LOCFRAME IOVERLAY, 0, STATIC
        LOCFRAME DOVERLAY, 0, STATIC
        ARGFRAME ISTACK, 0, STACK
        ARGFRAME PSTACK, 0, STACK
        ARGFRAME XSTACK, 20, STACK
        ARGFRAME IOVERLAY, 0, STATIC
        ARGFRAME DOVERLAY, 0, STATIC
        FUNCALL MT_AfCommandProcessing, afAPSF_ConfigGet
        LOCFRAME ISTACK, 0, STACK
        LOCFRAME PSTACK, 0, STACK
        LOCFRAME XSTACK, 20, STACK
        LOCFRAME IOVERLAY, 0, STATIC
        LOCFRAME DOVERLAY, 0, STATIC
        ARGFRAME ISTACK, 0, STACK
        ARGFRAME PSTACK, 0, STACK
        ARGFRAME XSTACK, 20, STACK
        ARGFRAME IOVERLAY, 0, STATIC
        ARGFRAME DOVERLAY, 0, STATIC
        FUNCALL MT_AfCommandProcessing, MT_BuildAndSendZToolResponse
        LOCFRAME ISTACK, 0, STACK
        LOCFRAME PSTACK, 0, STACK
        LOCFRAME XSTACK, 20, STACK
        LOCFRAME IOVERLAY, 0, STATIC
        LOCFRAME DOVERLAY, 0, STATIC
        ARGFRAME ISTACK, 0, STACK
        ARGFRAME PSTACK, 0, STACK
        ARGFRAME XSTACK, 20, STACK
        ARGFRAME IOVERLAY, 0, STATIC
        ARGFRAME DOVERLAY, 0, STATIC
        REQUIRE ?V0
        REQUIRE ?V1
        REQUIRE ?V2
        REQUIRE ?V3
        REQUIRE ?V4
        REQUIRE ?V5
        MOV       A,#-0xe
        LCALL     ?BANKED_ENTER_XDATA
          CFI DPH0 load(1, XDATA, add(CFA_XSP16, literal(-1)))
          CFI DPL0 load(1, XDATA, add(CFA_XSP16, literal(-2)))
          CFI ?BRET_EXT load(1, XDATA, add(CFA_XSP16, literal(-3)))
          CFI ?RET_HIGH load(1, XDATA, add(CFA_XSP16, literal(-4)))
          CFI ?RET_LOW load(1, XDATA, add(CFA_XSP16, literal(-5)))
          CFI R7 load(1, XDATA, add(CFA_XSP16, literal(-6)))
          CFI V5 load(1, XDATA, add(CFA_XSP16, literal(-7)))
          CFI V4 load(1, XDATA, add(CFA_XSP16, literal(-8)))
          CFI V3 load(1, XDATA, add(CFA_XSP16, literal(-9)))
          CFI V2 load(1, XDATA, add(CFA_XSP16, literal(-10)))
          CFI V1 load(1, XDATA, add(CFA_XSP16, literal(-11)))
          CFI V0 load(1, XDATA, add(CFA_XSP16, literal(-12)))
          CFI VB load(1, XDATA, add(CFA_XSP16, literal(-13)))
          CFI R6 load(1, XDATA, add(CFA_XSP16, literal(-14)))
          CFI CFA_SP SP+0
          CFI CFA_XSP16 add(XSP16, 14)
        ; Saved register size: 14
        ; Auto size: 6
        MOV       A,#-0x6
        LCALL     ?ALLOC_XSTACK8
          CFI CFA_XSP16 add(XSP16, 20)
        MOV       A,R2
        MOV       R6,A
        MOV       A,R3
        MOV       R7,A
//  213   uint8 status = MT_RPC_SUCCESS;
        MOV       ?V0,#0x0
//  214 
//  215   switch (pBuf[MT_RPC_POS_CMD1])
        MOV       DPL,R6
        MOV       DPH,R7
        INC       DPTR
        INC       DPTR
        MOVX      A,@DPTR
        JZ        ??MT_AfCommandProcessing_0
        DEC       A
        JNZ       $+5
        LJMP      ??MT_AfCommandProcessing_1 & 0xFFFF
        DEC       A
        JNZ       $+5
        LJMP      ??MT_AfCommandProcessing_1 & 0xFFFF
        DEC       A
        JNZ       $+5
        LJMP      ??MT_AfCommandProcessing_2 & 0xFFFF
        DEC       A
        JZ        ??MT_AfCommandProcessing_3
        ADD       A,#-0xc
        JNZ       $+5
        LJMP      ??MT_AfCommandProcessing_4 & 0xFFFF
        DEC       A
        JNZ       $+5
        LJMP      ??MT_AfCommandProcessing_5 & 0xFFFF
        DEC       A
        JNZ       $+5
        LJMP      ??MT_AfCommandProcessing_6 & 0xFFFF
        DEC       A
        JNZ       $+5
        LJMP      ??MT_AfCommandProcessing_7 & 0xFFFF
        DEC       A
        JNZ       $+5
        LJMP      ??MT_AfCommandProcessing_8 & 0xFFFF
        LJMP      ??MT_AfCommandProcessing_9 & 0xFFFF
//  216   {
//  217     case MT_AF_REGISTER:
//  218       MT_AfRegister(pBuf);
??MT_AfCommandProcessing_0:
        LCALL     ?Subroutine27 & 0xFFFF
??CrossCallReturnLabel_43:
        ; Setup parameters for call to function osal_mem_alloc
        MOV       R2,#0x6
        MOV       R3,#0x0
        LCALL     `??osal_mem_alloc::?relay`; Banked call to: osal_mem_alloc
        MOV       ?V2,R2
        MOV       ?V3,R3
        MOV       A,R2
        ORL       A,?V3
        JZ        ??MT_AfCommandProcessing_10
        MOV       DPL,R2
        MOV       DPH,R3
        INC       DPTR
        MOV       A,#MT_TaskID & 0xff
        MOVX      @DPTR,A
        INC       DPTR
        MOV       A,#(MT_TaskID >> 8) & 0xff
        MOVX      @DPTR,A
        ; Setup parameters for call to function MT_BuildEndpointDesc
        MOV       R4,?V2
        MOV       R5,?V3
        MOV       A,R6
        ADD       A,#0x3
        MOV       R2,A
        CLR       A
        ADDC      A,R7
        MOV       R3,A
        LCALL     `??MT_BuildEndpointDesc::?relay`; Banked call to: MT_BuildEndpointDesc
        MOV       A,R1
        MOV       DPL,?XSP + 0
        MOV       DPH,?XSP + 1
        MOVX      @DPTR,A
        JNZ       ??MT_AfCommandProcessing_11
        ; Setup parameters for call to function afRegister
        MOV       R2,?V2
        MOV       R3,?V3
        LCALL     `??afRegister::?relay`; Banked call to: afRegister
        MOV       A,R1
        MOV       DPL,?XSP + 0
        MOV       DPH,?XSP + 1
        MOVX      @DPTR,A
??MT_AfCommandProcessing_11:
        MOVX      A,@DPTR
        JZ        ??MT_AfCommandProcessing_10
        ; Setup parameters for call to function osal_mem_free
        MOV       R2,?V2
        MOV       R3,?V3
        LCALL     `??osal_mem_free::?relay`; Banked call to: osal_mem_free
        ; Setup parameters for call to function MT_BuildAndSendZToolResponse
        SJMP      ??MT_AfCommandProcessing_10
//  219       break;
//  220 
//  221     case MT_AF_DELETE:
//  222       MT_AfDelete( pBuf );
??MT_AfCommandProcessing_3:
        LCALL     ?Subroutine27 & 0xFFFF
??CrossCallReturnLabel_44:
        ; Setup parameters for call to function afDelete
        MOV       DPL,R6
        MOV       DPH,R7
        INC       DPTR
        INC       DPTR
        INC       DPTR
        MOVX      A,@DPTR
        MOV       R1,A
        LCALL     `??afDelete::?relay`; Banked call to: afDelete
        MOV       A,R1
        MOV       DPL,?XSP + 0
        MOV       DPH,?XSP + 1
        MOVX      @DPTR,A
        ; Setup parameters for call to function MT_BuildAndSendZToolResponse
??MT_AfCommandProcessing_10:
        MOV       R4,?XSP + 0
        MOV       R5,?XSP + 1
        LJMP      ??MT_AfCommandProcessing_12 & 0xFFFF
//  223       break;
//  224 
//  225     case MT_AF_DATA_REQUEST:
//  226     case MT_AF_DATA_REQUEST_EXT:
//  227       MT_AfDataRequest(pBuf);
??MT_AfCommandProcessing_1:
        ; Setup parameters for call to function MT_AfDataRequest
        LCALL     `??MT_AfDataRequest::?relay`; Banked call to: MT_AfDataRequest
//  228       break;
        LJMP      ??MT_AfCommandProcessing_13 & 0xFFFF
//  229 
//  230 #if defined( ZIGBEEPRO )
//  231     case MT_AF_DATA_REQUEST_SRCRTG:
//  232       MT_AfDataRequestSrcRtg(pBuf);
??MT_AfCommandProcessing_2:
        ; Setup parameters for call to function MT_AfDataRequestSrcRtg
        LCALL     `??MT_AfDataRequestSrcRtg::?relay`; Banked call to: MT_AfDataRequestSrcRtg
//  233       break;
        LJMP      ??MT_AfCommandProcessing_13 & 0xFFFF
//  234 #endif
//  235 
//  236 #if defined INTER_PAN
//  237     case MT_AF_INTER_PAN_CTL:
//  238       MT_AfInterPanCtl(pBuf);
??MT_AfCommandProcessing_4:
        MOV       DPL,R6
        MOV       DPH,R7
        INC       DPTR
        INC       DPTR
        MOVX      A,@DPTR
        MOV       ?V1,A
        MOV       A,R6
        ADD       A,#0x3
        MOV       R0,A
        CLR       A
        ADDC      A,R7
        MOV       R1,A
        MOV       DPL,R0
        MOV       DPH,R1
        INC       DPTR
        MOV       ?V2,DPL
        MOV       ?V3,DPH
        MOV       DPL,R0
        MOV       DPH,R1
        MOVX      A,@DPTR
        JZ        ??MT_AfCommandProcessing_14
        DEC       A
        JZ        ??MT_AfCommandProcessing_15
        DEC       A
        JZ        ??MT_AfCommandProcessing_16
        DEC       A
        JNZ       ??MT_AfCommandProcessing_17
        ; Setup parameters for call to function osal_build_uint16
        MOV       R2,?V2
        MOV       R3,?V3
        LCALL     `??osal_build_uint16::?relay`; Banked call to: osal_build_uint16
        ; Setup parameters for call to function StubAPS_InterPan
        MOV       DPL,?V2
        MOV       DPH,?V3
        INC       DPTR
        INC       DPTR
        MOVX      A,@DPTR
        MOV       R1,A
        LCALL     `??StubAPS_InterPan::?relay`; Banked call to: StubAPS_InterPan
        MOV       A,R1
        MOV       DPL,?XSP + 0
        MOV       DPH,?XSP + 1
        JZ        ??MT_AfCommandProcessing_18
        CLR       A
        SJMP      ??MT_AfCommandProcessing_19
??MT_AfCommandProcessing_18:
        MOV       A,#0x1
??MT_AfCommandProcessing_19:
        MOVX      @DPTR,A
        MOVX      A,@DPTR
        PUSH      A
          CFI CFA_SP SP+-1
        MOV       A,#0x1
        LCALL     ?XSTACK_DISP0_8
        POP       A
          CFI CFA_SP SP+0
        SJMP      ??MT_AfCommandProcessing_20
??MT_AfCommandProcessing_16:
        ; Setup parameters for call to function afFindEndPointDesc
        MOV       DPL,?V2
        MOV       DPH,?V3
        MOVX      A,@DPTR
        MOV       R1,A
        LCALL     `??afFindEndPointDesc::?relay`; Banked call to: afFindEndPointDesc
        MOV       A,R2
        ORL       A,R3
        JZ        ??MT_AfCommandProcessing_21
        ; Setup parameters for call to function StubAPS_RegisterApp
        LCALL     `??StubAPS_RegisterApp::?relay`; Banked call to: StubAPS_RegisterApp
        MOV       A,#0x1
        LCALL     ?XSTACK_DISP0_8
        CLR       A
        SJMP      ??MT_AfCommandProcessing_20
??MT_AfCommandProcessing_21:
        MOV       A,#0x1
        LCALL     ?XSTACK_DISP0_8
        MOV       A,#0x1
        SJMP      ??MT_AfCommandProcessing_20
??MT_AfCommandProcessing_15:
        ; Setup parameters for call to function StubAPS_SetInterPanChannel
        MOV       DPL,?V2
        MOV       DPH,?V3
        MOVX      A,@DPTR
        MOV       R1,A
        LCALL     `??StubAPS_SetInterPanChannel::?relay`; Banked call to: StubAPS_SetInterPanChannel
        SJMP      ??MT_AfCommandProcessing_22
??MT_AfCommandProcessing_14:
        ; Setup parameters for call to function StubAPS_SetIntraPanChannel
        LCALL     `??StubAPS_SetIntraPanChannel::?relay`; Banked call to: StubAPS_SetIntraPanChannel
??MT_AfCommandProcessing_22:
        MOV       A,#0x1
        LCALL     ?XSTACK_DISP0_8
        MOV       A,R1
        SJMP      ??MT_AfCommandProcessing_20
??MT_AfCommandProcessing_17:
        MOV       A,#0x1
        LCALL     ?XSTACK_DISP0_8
        MOV       A,#0x2
??MT_AfCommandProcessing_20:
        MOVX      @DPTR,A
        ; Setup parameters for call to function MT_BuildAndSendZToolResponse
        MOV       A,#0x1
        LCALL     ?XSTACK_DISP102_8
??MT_AfCommandProcessing_12:
        MOV       R3,#0x1
        MOV       R2,?V1
        LJMP      ??MT_AfCommandProcessing_23 & 0xFFFF
//  239       break;
//  240 #endif
//  241 
//  242     case MT_AF_DATA_RETRIEVE:
//  243       MT_AfDataRetrieve(pBuf);
??MT_AfCommandProcessing_6:
        ; Setup parameters for call to function MT_AfDataRetrieve
        LCALL     `??MT_AfDataRetrieve::?relay`; Banked call to: MT_AfDataRetrieve
//  244       break;
        LJMP      ??MT_AfCommandProcessing_13 & 0xFFFF
//  245 
//  246     case MT_AF_DATA_STORE:
//  247       MT_AfDataStore(pBuf);
??MT_AfCommandProcessing_5:
        ; Setup parameters for call to function MT_AfDataStore
        LCALL     `??MT_AfDataStore::?relay`; Banked call to: MT_AfDataStore
//  248       break;
        LJMP      ??MT_AfCommandProcessing_13 & 0xFFFF
//  249 
//  250     case MT_AF_APSF_CONFIG_SET:
//  251       MT_AfAPSF_ConfigSet(pBuf);
??MT_AfCommandProcessing_7:
        MOV       DPL,R6
        MOV       DPH,R7
        INC       DPTR
        INC       DPTR
        INC       DPTR
        INC       DPTR
        MOVX      A,@DPTR
        PUSH      A
          CFI CFA_SP SP+-1
        MOV       A,#0x2
        LCALL     ?XSTACK_DISP0_8
        POP       A
          CFI CFA_SP SP+0
        LCALL     ??Subroutine49_0 & 0xFFFF
??CrossCallReturnLabel_96:
        INC       DPTR
        INC       DPTR
        INC       DPTR
        INC       DPTR
        MOVX      A,@DPTR
        PUSH      A
          CFI CFA_SP SP+-1
        MOV       A,#0x3
        LCALL     ?XSTACK_DISP0_8
        POP       A
          CFI CFA_SP SP+0
        MOVX      @DPTR,A
        ; Setup parameters for call to function afAPSF_ConfigSet
        MOV       A,#0x2
        LCALL     ?XSTACK_DISP101_8
        MOV       DPL,R6
        MOV       DPH,R7
        INC       DPTR
        INC       DPTR
        INC       DPTR
        MOVX      A,@DPTR
        MOV       R1,A
        LCALL     `??afAPSF_ConfigSet::?relay`; Banked call to: afAPSF_ConfigSet
        MOV       A,R1
        MOV       DPL,?XSP + 0
        MOV       DPH,?XSP + 1
        LCALL     ?Subroutine30 & 0xFFFF
??CrossCallReturnLabel_47:
        MOV       R3,#0x1
        MOV       R2,#0x13
        SJMP      ??MT_AfCommandProcessing_23
//  252       break;
//  253 
//  254     case MT_AF_APSF_CONFIG_GET:
//  255       MT_AfAPSF_ConfigGet(pBuf);
??MT_AfCommandProcessing_8:
        MOV       DPTR,#`?<Constant {0, 0}>`
        MOV       A,#0x2
        LCALL     ?XSTACK_DISP102_8
        MOV       A,#0x2
        LCALL     ?MOVE_LONG8_XDATA_XDATA
        ; Setup parameters for call to function afAPSF_ConfigGet
        MOV       A,#0x2
        LCALL     ?XSTACK_DISP101_8
        MOV       DPL,R6
        MOV       DPH,R7
        INC       DPTR
        INC       DPTR
        INC       DPTR
        MOVX      A,@DPTR
        MOV       R1,A
        LCALL     `??afAPSF_ConfigGet::?relay`; Banked call to: afAPSF_ConfigGet
        MOV       A,#0x2
        LCALL     ?XSTACK_DISP0_8
        MOVX      A,@DPTR
        PUSH      A
          CFI CFA_SP SP+-1
        MOV       A,#0x4
        LCALL     ?XSTACK_DISP0_8
        POP       A
          CFI CFA_SP SP+0
        MOVX      @DPTR,A
        MOV       A,#0x3
        LCALL     ?XSTACK_DISP0_8
        MOVX      A,@DPTR
        PUSH      A
          CFI CFA_SP SP+-1
        MOV       A,#0x5
        LCALL     ?XSTACK_DISP0_8
        POP       A
          CFI CFA_SP SP+0
        MOVX      @DPTR,A
        ; Setup parameters for call to function MT_BuildAndSendZToolResponse
        MOV       A,#0x4
        LCALL     ?XSTACK_DISP102_8
        MOV       R3,#0x3
        MOV       R2,#0x14
??MT_AfCommandProcessing_23:
        MOV       R1,#0x64
        LCALL     `??MT_BuildAndSendZToolResponse::?relay`; Banked call to: MT_BuildAndSendZToolResponse
//  256       break;
        SJMP      ??MT_AfCommandProcessing_13
//  257 
//  258     default:
//  259       status = MT_RPC_ERR_COMMAND_ID;
??MT_AfCommandProcessing_9:
        MOV       ?V0,#0x2
//  260       break;
//  261   }
//  262 
//  263   return status;
??MT_AfCommandProcessing_13:
        MOV       R1,?V0
        MOV       A,#0x6
          CFI EndBlock cfiBlock1
        REQUIRE ?Subroutine0
        ; // Fall through to label ?Subroutine0
//  264 }

        RSEG BANKED_CODE:HUGECODE:NOROOT(0)
?Subroutine0:
          CFI Block cfiBlock2 Using cfiCommon0
          CFI NoFunction
          CFI CFA_SP SP+0
          CFI CFA_XSP16 add(XSP16, 20)
          CFI VB load(1, XDATA, add(CFA_XSP16, literal(-13)))
          CFI DPL0 load(1, XDATA, add(CFA_XSP16, literal(-2)))
          CFI DPH0 load(1, XDATA, add(CFA_XSP16, literal(-1)))
          CFI R6 load(1, XDATA, add(CFA_XSP16, literal(-14)))
          CFI R7 load(1, XDATA, add(CFA_XSP16, literal(-6)))
          CFI V0 load(1, XDATA, add(CFA_XSP16, literal(-12)))
          CFI V1 load(1, XDATA, add(CFA_XSP16, literal(-11)))
          CFI V2 load(1, XDATA, add(CFA_XSP16, literal(-10)))
          CFI V3 load(1, XDATA, add(CFA_XSP16, literal(-9)))
          CFI V4 load(1, XDATA, add(CFA_XSP16, literal(-8)))
          CFI V5 load(1, XDATA, add(CFA_XSP16, literal(-7)))
          CFI ?BRET_EXT load(1, XDATA, add(CFA_XSP16, literal(-3)))
          CFI ?RET_HIGH load(1, XDATA, add(CFA_XSP16, literal(-4)))
          CFI ?RET_LOW load(1, XDATA, add(CFA_XSP16, literal(-5)))
          CFI Invalid
        LCALL     ?DEALLOC_XSTACK8
          CFI CFA_XSP16 add(XSP16, 14)
          CFI Valid
        MOV       R7,#0x6
        LJMP      ?BANKED_LEAVE_XDATA
          CFI EndBlock cfiBlock2

        RSEG BANKED_CODE:HUGECODE:NOROOT(0)
?Subroutine27:
          CFI Block cfiCond3 Using cfiCommon0
          CFI Function MT_AfCommandProcessing
          CFI Conditional ??CrossCallReturnLabel_43
          CFI R6 load(1, XDATA, add(CFA_XSP16, literal(-14)))
          CFI VB load(1, XDATA, add(CFA_XSP16, literal(-13)))
          CFI V0 load(1, XDATA, add(CFA_XSP16, literal(-12)))
          CFI V1 load(1, XDATA, add(CFA_XSP16, literal(-11)))
          CFI V2 load(1, XDATA, add(CFA_XSP16, literal(-10)))
          CFI V3 load(1, XDATA, add(CFA_XSP16, literal(-9)))
          CFI V4 load(1, XDATA, add(CFA_XSP16, literal(-8)))
          CFI V5 load(1, XDATA, add(CFA_XSP16, literal(-7)))
          CFI R7 load(1, XDATA, add(CFA_XSP16, literal(-6)))
          CFI ?RET_LOW load(1, XDATA, add(CFA_XSP16, literal(-5)))
          CFI ?RET_HIGH load(1, XDATA, add(CFA_XSP16, literal(-4)))
          CFI ?BRET_EXT load(1, XDATA, add(CFA_XSP16, literal(-3)))
          CFI DPL0 load(1, XDATA, add(CFA_XSP16, literal(-2)))
          CFI DPH0 load(1, XDATA, add(CFA_XSP16, literal(-1)))
          CFI CFA_SP SP+-2
          CFI CFA_XSP16 add(XSP16, 20)
          CFI Block cfiCond4 Using cfiCommon0
          CFI (cfiCond4) Function MT_AfCommandProcessing
          CFI (cfiCond4) Conditional ??CrossCallReturnLabel_44
          CFI (cfiCond4) R6 load(1, XDATA, add(CFA_XSP16, literal(-14)))
          CFI (cfiCond4) VB load(1, XDATA, add(CFA_XSP16, literal(-13)))
          CFI (cfiCond4) V0 load(1, XDATA, add(CFA_XSP16, literal(-12)))
          CFI (cfiCond4) V1 load(1, XDATA, add(CFA_XSP16, literal(-11)))
          CFI (cfiCond4) V2 load(1, XDATA, add(CFA_XSP16, literal(-10)))
          CFI (cfiCond4) V3 load(1, XDATA, add(CFA_XSP16, literal(-9)))
          CFI (cfiCond4) V4 load(1, XDATA, add(CFA_XSP16, literal(-8)))
          CFI (cfiCond4) V5 load(1, XDATA, add(CFA_XSP16, literal(-7)))
          CFI (cfiCond4) R7 load(1, XDATA, add(CFA_XSP16, literal(-6)))
          CFI (cfiCond4) ?RET_LOW load(1, XDATA, add(CFA_XSP16, literal(-5)))
          CFI (cfiCond4) ?RET_HIGH load(1, XDATA, add(CFA_XSP16, literal(-4)))
          CFI (cfiCond4) ?BRET_EXT load(1, XDATA, add(CFA_XSP16, literal(-3)))
          CFI (cfiCond4) DPL0 load(1, XDATA, add(CFA_XSP16, literal(-2)))
          CFI (cfiCond4) DPH0 load(1, XDATA, add(CFA_XSP16, literal(-1)))
          CFI (cfiCond4) CFA_SP SP+-2
          CFI (cfiCond4) CFA_XSP16 add(XSP16, 20)
          CFI Block cfiPicker5 Using cfiCommon1
          CFI (cfiPicker5) NoFunction
          CFI (cfiPicker5) Picker
        MOV       DPL,?XSP + 0
        MOV       DPH,?XSP + 1
        MOV       A,#0x10
        LCALL     ?Subroutine42 & 0xFFFF
??CrossCallReturnLabel_79:
        MOV       ?V1,A
        RET
          CFI EndBlock cfiCond3
          CFI EndBlock cfiCond4
          CFI EndBlock cfiPicker5
//  265 
//  266 /***************************************************************************************************
//  267  * @fn      MT_AfRegister
//  268  *
//  269  * @brief   Process AF Register command
//  270  *
//  271  * @param   pBuf - pointer to the received buffer
//  272  *
//  273  * @return  none
//  274  ***************************************************************************************************/
//  275 static void MT_AfRegister(uint8 *pBuf)
//  276 {
//  277   uint8 cmdId;
//  278   uint8 retValue = ZMemError;
//  279   endPointDesc_t *epDesc;
//  280 
//  281   /* parse header */
//  282   cmdId = pBuf[MT_RPC_POS_CMD1];
//  283   pBuf += MT_RPC_FRAME_HDR_SZ;
//  284 
//  285   epDesc = (endPointDesc_t *)osal_mem_alloc(sizeof(endPointDesc_t));
//  286   if ( epDesc )
//  287   {
//  288     epDesc->task_id = &MT_TaskID;
//  289     retValue = MT_BuildEndpointDesc( pBuf, epDesc );
//  290     if ( retValue == ZSuccess )
//  291     {
//  292       retValue = afRegister( epDesc );
//  293     }
//  294 
//  295     if ( retValue != ZSuccess )
//  296     {
//  297       osal_mem_free( epDesc );
//  298     }
//  299   }
//  300 
//  301   /* Build and send back the response */
//  302   MT_BuildAndSendZToolResponse(((uint8)MT_RPC_CMD_SRSP | (uint8)MT_RPC_SYS_AF), cmdId, 1, &retValue);
//  303 }
//  304 
//  305 /***************************************************************************************************
//  306  * @fn      MT_AfDelete
//  307  *
//  308  * @brief   Process AF Delete Endpoint command
//  309  *
//  310  * @param   pBuf - pointer to the received buffer
//  311  *
//  312  * @return  none
//  313  ***************************************************************************************************/
//  314 static void MT_AfDelete(uint8 *pBuf)
//  315 {
//  316   uint8 cmdId;
//  317   uint8 retValue = ZMemError;
//  318 
//  319   /* parse header */
//  320   cmdId = pBuf[MT_RPC_POS_CMD1];
//  321   pBuf += MT_RPC_FRAME_HDR_SZ;
//  322 
//  323   retValue = afDelete( *pBuf );
//  324 
//  325   /* Build and send back the response */
//  326   MT_BuildAndSendZToolResponse(((uint8)MT_RPC_CMD_SRSP | (uint8)MT_RPC_SYS_AF), cmdId, 1, &retValue);
//  327 }
//  328 
//  329 /***************************************************************************************************
//  330  * @fn      MT_AfDataRequest
//  331  *
//  332  * @brief   Process AF Register command
//  333  *
//  334  * @param   pBuf - pointer to the received buffer
//  335  *
//  336  * @return  none
//  337  ***************************************************************************************************/

        RSEG BANKED_CODE:HUGECODE:NOROOT(0)
//  338 static void MT_AfDataRequest(uint8 *pBuf)
MT_AfDataRequest:
          CFI Block cfiBlock6 Using cfiCommon0
          CFI Function MT_AfDataRequest
        CODE
//  339 {
        FUNCALL MT_AfDataRequest, osal_memcpy
        LOCFRAME ISTACK, 0, STACK
        LOCFRAME PSTACK, 0, STACK
        LOCFRAME XSTACK, 38, STACK
        LOCFRAME IOVERLAY, 0, STATIC
        LOCFRAME DOVERLAY, 0, STATIC
        ARGFRAME ISTACK, 0, STACK
        ARGFRAME PSTACK, 0, STACK
        ARGFRAME XSTACK, 38, STACK
        ARGFRAME IOVERLAY, 0, STATIC
        ARGFRAME DOVERLAY, 0, STATIC
        FUNCALL MT_AfDataRequest, osal_build_uint16
        LOCFRAME ISTACK, 0, STACK
        LOCFRAME PSTACK, 0, STACK
        LOCFRAME XSTACK, 35, STACK
        LOCFRAME IOVERLAY, 0, STATIC
        LOCFRAME DOVERLAY, 0, STATIC
        ARGFRAME ISTACK, 0, STACK
        ARGFRAME PSTACK, 0, STACK
        ARGFRAME XSTACK, 35, STACK
        ARGFRAME IOVERLAY, 0, STATIC
        ARGFRAME DOVERLAY, 0, STATIC
        FUNCALL MT_AfDataRequest, osal_build_uint16
        LOCFRAME ISTACK, 0, STACK
        LOCFRAME PSTACK, 0, STACK
        LOCFRAME XSTACK, 35, STACK
        LOCFRAME IOVERLAY, 0, STATIC
        LOCFRAME DOVERLAY, 0, STATIC
        ARGFRAME ISTACK, 0, STACK
        ARGFRAME PSTACK, 0, STACK
        ARGFRAME XSTACK, 35, STACK
        ARGFRAME IOVERLAY, 0, STATIC
        ARGFRAME DOVERLAY, 0, STATIC
        FUNCALL MT_AfDataRequest, osal_build_uint16
        LOCFRAME ISTACK, 0, STACK
        LOCFRAME PSTACK, 0, STACK
        LOCFRAME XSTACK, 35, STACK
        LOCFRAME IOVERLAY, 0, STATIC
        LOCFRAME DOVERLAY, 0, STATIC
        ARGFRAME ISTACK, 0, STACK
        ARGFRAME PSTACK, 0, STACK
        ARGFRAME XSTACK, 35, STACK
        ARGFRAME IOVERLAY, 0, STATIC
        ARGFRAME DOVERLAY, 0, STATIC
        FUNCALL MT_AfDataRequest, afFindEndPointDesc
        LOCFRAME ISTACK, 0, STACK
        LOCFRAME PSTACK, 0, STACK
        LOCFRAME XSTACK, 35, STACK
        LOCFRAME IOVERLAY, 0, STATIC
        LOCFRAME DOVERLAY, 0, STATIC
        ARGFRAME ISTACK, 0, STACK
        ARGFRAME PSTACK, 0, STACK
        ARGFRAME XSTACK, 35, STACK
        ARGFRAME IOVERLAY, 0, STATIC
        ARGFRAME DOVERLAY, 0, STATIC
        FUNCALL MT_AfDataRequest, osal_build_uint16
        LOCFRAME ISTACK, 0, STACK
        LOCFRAME PSTACK, 0, STACK
        LOCFRAME XSTACK, 35, STACK
        LOCFRAME IOVERLAY, 0, STATIC
        LOCFRAME DOVERLAY, 0, STATIC
        ARGFRAME ISTACK, 0, STACK
        ARGFRAME PSTACK, 0, STACK
        ARGFRAME XSTACK, 35, STACK
        ARGFRAME IOVERLAY, 0, STATIC
        ARGFRAME DOVERLAY, 0, STATIC
        FUNCALL MT_AfDataRequest, osal_build_uint16
        LOCFRAME ISTACK, 0, STACK
        LOCFRAME PSTACK, 0, STACK
        LOCFRAME XSTACK, 35, STACK
        LOCFRAME IOVERLAY, 0, STATIC
        LOCFRAME DOVERLAY, 0, STATIC
        ARGFRAME ISTACK, 0, STACK
        ARGFRAME PSTACK, 0, STACK
        ARGFRAME XSTACK, 35, STACK
        ARGFRAME IOVERLAY, 0, STATIC
        ARGFRAME DOVERLAY, 0, STATIC
        FUNCALL MT_AfDataRequest, osal_mem_alloc
        LOCFRAME ISTACK, 0, STACK
        LOCFRAME PSTACK, 0, STACK
        LOCFRAME XSTACK, 35, STACK
        LOCFRAME IOVERLAY, 0, STATIC
        LOCFRAME DOVERLAY, 0, STATIC
        ARGFRAME ISTACK, 0, STACK
        ARGFRAME PSTACK, 0, STACK
        ARGFRAME XSTACK, 35, STACK
        ARGFRAME IOVERLAY, 0, STATIC
        ARGFRAME DOVERLAY, 0, STATIC
        FUNCALL MT_AfDataRequest, osal_memcpy
        LOCFRAME ISTACK, 0, STACK
        LOCFRAME PSTACK, 0, STACK
        LOCFRAME XSTACK, 38, STACK
        LOCFRAME IOVERLAY, 0, STATIC
        LOCFRAME DOVERLAY, 0, STATIC
        ARGFRAME ISTACK, 0, STACK
        ARGFRAME PSTACK, 0, STACK
        ARGFRAME XSTACK, 38, STACK
        ARGFRAME IOVERLAY, 0, STATIC
        ARGFRAME DOVERLAY, 0, STATIC
        FUNCALL MT_AfDataRequest, osal_start_timerEx
        LOCFRAME ISTACK, 0, STACK
        LOCFRAME PSTACK, 0, STACK
        LOCFRAME XSTACK, 39, STACK
        LOCFRAME IOVERLAY, 0, STATIC
        LOCFRAME DOVERLAY, 0, STATIC
        ARGFRAME ISTACK, 0, STACK
        ARGFRAME PSTACK, 0, STACK
        ARGFRAME XSTACK, 39, STACK
        ARGFRAME IOVERLAY, 0, STATIC
        ARGFRAME DOVERLAY, 0, STATIC
        FUNCALL MT_AfDataRequest, osal_set_event
        LOCFRAME ISTACK, 0, STACK
        LOCFRAME PSTACK, 0, STACK
        LOCFRAME XSTACK, 35, STACK
        LOCFRAME IOVERLAY, 0, STATIC
        LOCFRAME DOVERLAY, 0, STATIC
        ARGFRAME ISTACK, 0, STACK
        ARGFRAME PSTACK, 0, STACK
        ARGFRAME XSTACK, 35, STACK
        ARGFRAME IOVERLAY, 0, STATIC
        ARGFRAME DOVERLAY, 0, STATIC
        FUNCALL MT_AfDataRequest, AF_DataRequest
        LOCFRAME ISTACK, 0, STACK
        LOCFRAME PSTACK, 0, STACK
        LOCFRAME XSTACK, 44, STACK
        LOCFRAME IOVERLAY, 0, STATIC
        LOCFRAME DOVERLAY, 0, STATIC
        ARGFRAME ISTACK, 0, STACK
        ARGFRAME PSTACK, 0, STACK
        ARGFRAME XSTACK, 44, STACK
        ARGFRAME IOVERLAY, 0, STATIC
        ARGFRAME DOVERLAY, 0, STATIC
        FUNCALL MT_AfDataRequest, MT_BuildAndSendZToolResponse
        LOCFRAME ISTACK, 0, STACK
        LOCFRAME PSTACK, 0, STACK
        LOCFRAME XSTACK, 35, STACK
        LOCFRAME IOVERLAY, 0, STATIC
        LOCFRAME DOVERLAY, 0, STATIC
        ARGFRAME ISTACK, 0, STACK
        ARGFRAME PSTACK, 0, STACK
        ARGFRAME XSTACK, 35, STACK
        ARGFRAME IOVERLAY, 0, STATIC
        ARGFRAME DOVERLAY, 0, STATIC
        REQUIRE ?V0
        REQUIRE ?V1
        REQUIRE ?V2
        REQUIRE ?V3
        REQUIRE ?V4
        REQUIRE ?V5
        REQUIRE ?V6
        REQUIRE ?V7
        REQUIRE ?V8
        REQUIRE ?V9
        REQUIRE ?V10
        REQUIRE ?V11
        REQUIRE ?V12
        MOV       A,#-0x15
        LCALL     ?BANKED_ENTER_XDATA
          CFI DPH0 load(1, XDATA, add(CFA_XSP16, literal(-1)))
          CFI DPL0 load(1, XDATA, add(CFA_XSP16, literal(-2)))
          CFI ?BRET_EXT load(1, XDATA, add(CFA_XSP16, literal(-3)))
          CFI ?RET_HIGH load(1, XDATA, add(CFA_XSP16, literal(-4)))
          CFI ?RET_LOW load(1, XDATA, add(CFA_XSP16, literal(-5)))
          CFI R7 load(1, XDATA, add(CFA_XSP16, literal(-6)))
          CFI V12 load(1, XDATA, add(CFA_XSP16, literal(-7)))
          CFI V11 load(1, XDATA, add(CFA_XSP16, literal(-8)))
          CFI V10 load(1, XDATA, add(CFA_XSP16, literal(-9)))
          CFI V9 load(1, XDATA, add(CFA_XSP16, literal(-10)))
          CFI V8 load(1, XDATA, add(CFA_XSP16, literal(-11)))
          CFI V7 load(1, XDATA, add(CFA_XSP16, literal(-12)))
          CFI V6 load(1, XDATA, add(CFA_XSP16, literal(-13)))
          CFI V5 load(1, XDATA, add(CFA_XSP16, literal(-14)))
          CFI V4 load(1, XDATA, add(CFA_XSP16, literal(-15)))
          CFI V3 load(1, XDATA, add(CFA_XSP16, literal(-16)))
          CFI V2 load(1, XDATA, add(CFA_XSP16, literal(-17)))
          CFI V1 load(1, XDATA, add(CFA_XSP16, literal(-18)))
          CFI V0 load(1, XDATA, add(CFA_XSP16, literal(-19)))
          CFI VB load(1, XDATA, add(CFA_XSP16, literal(-20)))
          CFI R6 load(1, XDATA, add(CFA_XSP16, literal(-21)))
          CFI CFA_SP SP+0
          CFI CFA_XSP16 add(XSP16, 21)
        ; Saved register size: 21
        ; Auto size: 14
        MOV       A,#-0xe
        LCALL     ?ALLOC_XSTACK8
          CFI CFA_XSP16 add(XSP16, 35)
        LCALL     ?Subroutine29 & 0xFFFF
//  340   #define MT_AF_REQ_MSG_LEN  10
//  341   #define MT_AF_REQ_MSG_EXT  10
//  342 
//  343   endPointDesc_t *epDesc;
//  344   afAddrType_t dstAddr;
//  345   cId_t cId;
//  346   uint8 transId, txOpts, radius;
//  347   uint8 cmd0, cmd1;
//  348   uint8 retValue = ZFailure;
//  349   uint16 dataLen, tempLen;
//  350 
//  351   /* Parse header */
//  352   cmd0 = pBuf[MT_RPC_POS_CMD0];
??CrossCallReturnLabel_94:
        MOVX      A,@DPTR
        MOV       ?V12,A
//  353   cmd1 = pBuf[MT_RPC_POS_CMD1];
        MOV       DPL,R6
        MOV       DPH,R7
        INC       DPTR
        INC       DPTR
        MOVX      A,@DPTR
        MOV       ?V9,A
//  354   pBuf += MT_RPC_FRAME_HDR_SZ;
        MOV       A,R6
        ADD       A,#0x3
        MOV       R6,A
        JNC       ??MT_AfDataRequest_0
        INC       R7
//  355 
//  356   if (cmd1 == MT_AF_DATA_REQUEST_EXT)
??MT_AfDataRequest_0:
        MOV       A,#0x2
        XRL       A,?V9
        JNZ       ??MT_AfDataRequest_1
//  357   {
//  358     dstAddr.addrMode = (afAddrMode_t)*pBuf++;
        MOV       DPL,R6
        MOV       DPH,R7
        MOVX      A,@DPTR
        MOV       R0,A
        MOV       A,#0xa
        LCALL     ?XSTACK_DISP0_8
        MOV       A,R0
        LCALL     ??Subroutine49_0 & 0xFFFF
??CrossCallReturnLabel_97:
        MOV       R6,DPL
        MOV       R7,DPH
//  359 
//  360     if (dstAddr.addrMode == afAddr64Bit)
        MOV       A,#0x3
        XRL       A,R0
        JNZ       ??MT_AfDataRequest_2
//  361     {
//  362       (void)osal_memcpy(dstAddr.addr.extAddr, pBuf, Z_EXTADDR_LEN);
        ; Setup parameters for call to function osal_memcpy
        MOV       ?V0,R6
        MOV       ?V1,R7
        MOV       ?V2,#0x0
        MOV       R0,#?V0
        LCALL     ?PUSH_XSTACK_I_THREE
          CFI CFA_XSP16 add(XSP16, 38)
        MOV       R4,#0x8
        MOV       R5,#0x0
        MOV       A,#0x5
        LCALL     ?XSTACK_DISP101_8
        LCALL     `??osal_memcpy::?relay`; Banked call to: osal_memcpy
        MOV       A,#0x3
        LCALL     ?DEALLOC_XSTACK8
          CFI CFA_XSP16 add(XSP16, 35)
        SJMP      ??MT_AfDataRequest_3
//  363     }
//  364     else
//  365     {
//  366       dstAddr.addr.shortAddr = osal_build_uint16( pBuf );
??MT_AfDataRequest_2:
        ; Setup parameters for call to function osal_build_uint16
        MOV       A,R6
        MOV       R2,A
        MOV       A,R7
        MOV       R3,A
        LCALL     `??osal_build_uint16::?relay`; Banked call to: osal_build_uint16
        MOV       A,#0x2
        LCALL     ?XSTACK_DISP0_8
        MOV       A,R2
        MOVX      @DPTR,A
        INC       DPTR
        MOV       A,R3
        MOVX      @DPTR,A
//  367     }
//  368     pBuf += Z_EXTADDR_LEN;
//  369 
//  370     dstAddr.endPoint = *pBuf++;
??MT_AfDataRequest_3:
        MOV       DPL,R6
        MOV       DPH,R7
        INC       DPTR
        INC       DPTR
        INC       DPTR
        INC       DPTR
        INC       DPTR
        INC       DPTR
        INC       DPTR
        INC       DPTR
        MOVX      A,@DPTR
        PUSH      A
          CFI CFA_SP SP+-1
        MOV       A,#0xb
        LCALL     ?XSTACK_DISP0_8
        POP       A
          CFI CFA_SP SP+0
        MOVX      @DPTR,A
        MOV       A,R6
        ADD       A,#0x9
        MOV       R6,A
        JNC       ??MT_AfDataRequest_4
        INC       R7
//  371     dstAddr.panId = osal_build_uint16( pBuf );
??MT_AfDataRequest_4:
        ; Setup parameters for call to function osal_build_uint16
        MOV       R2,A
        MOV       A,R7
        MOV       R3,A
        LCALL     `??osal_build_uint16::?relay`; Banked call to: osal_build_uint16
        MOV       A,#0xc
        LCALL     ?XSTACK_DISP0_8
        LCALL     ?Subroutine32 & 0xFFFF
//  372     pBuf += 2;
//  373   }
??CrossCallReturnLabel_53:
        JNC       ??MT_AfDataRequest_5
        INC       R7
        SJMP      ??MT_AfDataRequest_5
//  374   else
//  375   {
//  376     /* Destination address */
//  377     dstAddr.addrMode = afAddr16Bit;
??MT_AfDataRequest_1:
        MOV       A,#0xa
        LCALL     ?XSTACK_DISP0_8
        MOV       A,#0x2
        MOVX      @DPTR,A
//  378     dstAddr.addr.shortAddr = osal_build_uint16( pBuf );
        ; Setup parameters for call to function osal_build_uint16
        INC       R2
        INC       R2
        INC       R2
        MOV       A,R7
        MOV       R3,A
        LCALL     `??osal_build_uint16::?relay`; Banked call to: osal_build_uint16
        MOV       A,#0x2
        LCALL     ?XSTACK_DISP0_8
        LCALL     ?Subroutine26 & 0xFFFF
//  379     pBuf += 2;
//  380 
//  381     /* Destination endpoint */
//  382     dstAddr.endPoint = *pBuf++;
??CrossCallReturnLabel_41:
        PUSH      A
          CFI CFA_SP SP+-1
        MOV       A,#0xb
        LCALL     ?XSTACK_DISP0_8
        POP       A
          CFI CFA_SP SP+0
        MOVX      @DPTR,A
        MOV       A,R6
        ADD       A,#0x3
        MOV       R6,A
        JNC       ??MT_AfDataRequest_6
        INC       R7
//  383     dstAddr.panId = 0;
??MT_AfDataRequest_6:
        MOV       A,#0xc
        LCALL     ?XSTACK_DISP0_8
        CLR       A
        MOVX      @DPTR,A
        INC       DPTR
        MOVX      @DPTR,A
//  384   }
//  385 
//  386   /* Source endpoint */
//  387   epDesc = afFindEndPointDesc(*pBuf++);
??MT_AfDataRequest_5:
        ; Setup parameters for call to function afFindEndPointDesc
        MOV       DPL,R6
        MOV       DPH,R7
        MOVX      A,@DPTR
        MOV       R1,A
        LCALL     `??afFindEndPointDesc::?relay`; Banked call to: afFindEndPointDesc
        MOV       ?V10,R2
        MOV       ?V11,R3
        MOV       DPL,R6
        MOV       DPH,R7
        INC       DPTR
        MOV       R6,DPL
        MOV       R7,DPH
//  388 
//  389   /* ClusterId */
//  390   cId = osal_build_uint16( pBuf );
        ; Setup parameters for call to function osal_build_uint16
        MOV       A,R6
        MOV       R2,A
        MOV       A,R7
        MOV       R3,A
        LCALL     `??osal_build_uint16::?relay`; Banked call to: osal_build_uint16
        MOV       ?V2,R2
        MOV       ?V3,R3
//  391   pBuf +=2;
//  392 
//  393   /* TransId */
//  394   transId = *pBuf++;
        MOV       DPL,R6
        MOV       DPH,R7
        INC       DPTR
        INC       DPTR
        MOVX      A,@DPTR
        PUSH      A
          CFI CFA_SP SP+-1
        MOV       A,#0x1
        LCALL     ?XSTACK_DISP0_8
        POP       A
          CFI CFA_SP SP+0
        MOVX      @DPTR,A
//  395 
//  396   /* TxOption */
//  397   txOpts = *pBuf++;
        MOV       DPL,R6
        MOV       DPH,R7
        LCALL     ?Subroutine13 & 0xFFFF
//  398 
//  399   /* Radius */
//  400   radius = *pBuf++;
??CrossCallReturnLabel_19:
        MOVX      A,@DPTR
        MOV       ?V7,A
        MOV       A,R6
        ADD       A,#0x5
        MOV       R6,A
        JNC       ??MT_AfDataRequest_7
        INC       R7
//  401 
//  402   /* Length */
//  403   if (cmd1 == MT_AF_DATA_REQUEST_EXT)
??MT_AfDataRequest_7:
        MOV       A,#0x2
        XRL       A,?V9
        JNZ       ??MT_AfDataRequest_8
//  404   {
//  405     dataLen = osal_build_uint16( pBuf );
        ; Setup parameters for call to function osal_build_uint16
        MOV       A,R6
        MOV       R2,A
        MOV       A,R7
        MOV       R3,A
        LCALL     `??osal_build_uint16::?relay`; Banked call to: osal_build_uint16
        MOV       ?V0,R2
        MOV       ?V1,R3
//  406     tempLen = dataLen + MT_AF_REQ_MSG_LEN + MT_AF_REQ_MSG_EXT;
        MOV       A,R2
        ADD       A,#0x14
        MOV       R0,A
        CLR       A
        ADDC      A,?V1
        MOV       R1,A
//  407     pBuf += 2;
        MOV       A,R6
        ADD       A,#0x2
        MOV       R6,A
        JNC       ??MT_AfDataRequest_9
        INC       R7
        SJMP      ??MT_AfDataRequest_9
//  408   }
//  409   else
//  410   {
//  411     dataLen = *pBuf++;
??MT_AfDataRequest_8:
        MOV       DPL,R6
        MOV       DPH,R7
        MOVX      A,@DPTR
        MOV       ?V0,A
        MOV       ?V1,#0x0
        INC       DPTR
        INC       R6
        MOV       R7,DPH
//  412     tempLen = dataLen + MT_AF_REQ_MSG_LEN;
        ADD       A,#0xa
        MOV       R0,A
        CLR       A
        ADDC      A,#0x0
        MOV       R1,A
//  413   }
//  414 
//  415   if ( epDesc == NULL )
??MT_AfDataRequest_9:
        MOV       A,?V10
        ORL       A,?V11
        JZ        ??MT_AfDataRequest_10
//  416   {
//  417     retValue = afStatus_INVALID_PARAMETER;
//  418   }
//  419   else if (tempLen > (uint16)MT_RPC_DATA_MAX)
        CLR       C
        MOV       A,R0
        SUBB      A,#-0x5
        MOV       A,R1
        SUBB      A,#0x0
        JNC       $+5
        LJMP      ??MT_AfDataRequest_11 & 0xFFFF
//  420   {
//  421     if (pMtAfDataReq != NULL)
        LCALL     ?Subroutine2 & 0xFFFF
??CrossCallReturnLabel_104:
        JZ        ??MT_AfDataRequest_12
//  422     {
//  423       retValue = afStatus_INVALID_PARAMETER;
??MT_AfDataRequest_10:
        MOV       DPL,?XSP + 0
        MOV       DPH,?XSP + 1
        MOV       A,#0x2
        LJMP      ??MT_AfDataRequest_13 & 0xFFFF
//  424     }
//  425     else if ((pMtAfDataReq = osal_mem_alloc(sizeof(mtAfDataReq_t) + dataLen)) == NULL)
??MT_AfDataRequest_12:
        ; Setup parameters for call to function osal_mem_alloc
        MOV       A,?V0
        ADD       A,#0x18
        MOV       R2,A
        CLR       A
        ADDC      A,?V1
        MOV       R3,A
        LCALL     `??osal_mem_alloc::?relay`; Banked call to: osal_mem_alloc
        MOV       DPTR,#pMtAfDataReq
        MOV       A,R2
        MOVX      @DPTR,A
        INC       DPTR
        MOV       A,R3
        MOVX      @DPTR,A
        LCALL     ?Subroutine2 & 0xFFFF
??CrossCallReturnLabel_105:
        MOV       DPL,?XSP + 0
        MOV       DPH,?XSP + 1
        JNZ       ??MT_AfDataRequest_14
//  426     {
//  427       retValue = afStatus_MEM_FAIL;
        MOV       A,#0x10
        LJMP      ??MT_AfDataRequest_13 & 0xFFFF
//  428     }
//  429     else
//  430     {
//  431       retValue = afStatus_SUCCESS;
??MT_AfDataRequest_14:
        CLR       A
        MOVX      @DPTR,A
//  432 
//  433       pMtAfDataReq->data = (uint8 *)(pMtAfDataReq+1);
        MOV       DPTR,#pMtAfDataReq
        MOVX      A,@DPTR
        ADD       A,#0x18
        MOV       R2,A
        INC       DPTR
        MOVX      A,@DPTR
        ADDC      A,#0x0
        MOV       R3,A
        LCALL     ?Subroutine7 & 0xFFFF
??CrossCallReturnLabel_8:
        MOV       A,R2
        MOVX      @DPTR,A
        INC       DPTR
        MOV       A,R3
        MOVX      @DPTR,A
//  434       (void)osal_memcpy(&(pMtAfDataReq->dstAddr), &dstAddr, sizeof(afAddrType_t));
        ; Setup parameters for call to function osal_memcpy
        MOV       A,#0x2
        LCALL     ?XSTACK_DISP100_8
        MOV       ?V4,R0
        MOV       ?V5,R1
        MOV       ?V6,#0x0
        MOV       R0,#?V4
        LCALL     ?PUSH_XSTACK_I_THREE
          CFI CFA_XSP16 add(XSP16, 38)
        MOV       R4,#0xc
        MOV       R5,#0x0
        LCALL     ?Subroutine20 & 0xFFFF
??CrossCallReturnLabel_33:
        LCALL     `??osal_memcpy::?relay`; Banked call to: osal_memcpy
        MOV       A,#0x3
        LCALL     ?DEALLOC_XSTACK8
          CFI CFA_XSP16 add(XSP16, 35)
//  435       pMtAfDataReq->epDesc = epDesc;
        LCALL     ?Subroutine8 & 0xFFFF
??CrossCallReturnLabel_11:
        MOV       A,?V10
        MOVX      @DPTR,A
        INC       DPTR
        MOV       A,?V11
        MOVX      @DPTR,A
//  436       pMtAfDataReq->cId = cId;
        LCALL     ?Subroutine9 & 0xFFFF
??CrossCallReturnLabel_13:
        MOV       A,?V2
        MOVX      @DPTR,A
        INC       DPTR
        MOV       A,?V3
        MOVX      @DPTR,A
//  437       pMtAfDataReq->dataLen = dataLen;
        MOV       DPTR,#pMtAfDataReq
        MOVX      A,@DPTR
        MOV       R0,A
        INC       DPTR
        LCALL     ?Subroutine15 & 0xFFFF
??CrossCallReturnLabel_23:
        MOV       A,?V0
        MOVX      @DPTR,A
        INC       DPTR
        MOV       A,?V1
        MOVX      @DPTR,A
//  438       pMtAfDataReq->transId = transId;
        MOV       A,#0x1
        LCALL     ?XSTACK_DISP0_8
        MOVX      A,@DPTR
        PUSH      A
          CFI CFA_SP SP+-1
        LCALL     ?Subroutine36 & 0xFFFF
??CrossCallReturnLabel_64:
        ADD       A,#0x14
        MOV       DPL,A
        CLR       A
        ADDC      A,R0
        MOV       DPH,A
        POP       A
          CFI CFA_SP SP+0
        MOVX      @DPTR,A
//  439       pMtAfDataReq->txOpts = txOpts;
        LCALL     ?Subroutine10 & 0xFFFF
??CrossCallReturnLabel_15:
        MOV       A,?V8
        MOVX      @DPTR,A
//  440       pMtAfDataReq->radius = radius;
        MOV       DPTR,#pMtAfDataReq
        MOVX      A,@DPTR
        MOV       R0,A
        INC       DPTR
        LCALL     ?Subroutine16 & 0xFFFF
??CrossCallReturnLabel_25:
        MOV       A,?V7
        LCALL     ?Subroutine6 & 0xFFFF
//  441 
//  442       // Setup to time-out the huge outgoing item if host does not MT_AF_DATA_STORE it.
//  443       pMtAfDataReq->tick = MT_AF_EXEC_CNT;
??CrossCallReturnLabel_6:
        MOV       A,#0xf
        MOVX      @DPTR,A
//  444       if (ZSuccess != osal_start_timerEx(MT_TaskID, MT_AF_EXEC_EVT, MT_AF_EXEC_DLY))
        ; Setup parameters for call to function osal_start_timerEx
        MOV       DPTR,#__Constant_3e8
        LCALL     ?PUSH_XSTACK8_X_FOUR
          CFI CFA_XSP16 add(XSP16, 39)
        MOV       R2,#0x8
        MOV       R3,#0x0
        MOV       DPTR,#MT_TaskID
        MOVX      A,@DPTR
        MOV       R1,A
        LCALL     `??osal_start_timerEx::?relay`; Banked call to: osal_start_timerEx
        MOV       A,#0x4
        LCALL     ?DEALLOC_XSTACK8
          CFI CFA_XSP16 add(XSP16, 35)
        MOV       A,R1
        JZ        ??MT_AfDataRequest_15
//  445       {
//  446         (void)osal_set_event(MT_TaskID, MT_AF_EXEC_EVT);
        ; Setup parameters for call to function osal_set_event
        MOV       R2,#0x8
        MOV       R3,#0x0
        MOV       DPTR,#MT_TaskID
        MOVX      A,@DPTR
        MOV       R1,A
        LCALL     `??osal_set_event::?relay`; Banked call to: osal_set_event
        SJMP      ??MT_AfDataRequest_15
//  447       }
//  448     }
//  449   }
//  450 #if defined ( MT_GP_FUNC )
//  451   else if ( ( cmd1 == MT_AF_DATA_REQUEST_EXT )
//  452            && ( dstAddr.endPoint == ZGP_ENDPOINT_ID )
//  453            && ( dstAddr.panId == 0 )
//  454            && ( dstAddr.addrMode == afAddr64Bit ) )// loopback support
//  455   {
//  456     retValue = MT_GpGenerateResponse( dstAddr.addr.extAddr, dataLen, pBuf );
//  457   }
//  458 #endif
//  459   else
//  460   {
//  461     retValue = AF_DataRequest(&dstAddr, epDesc, cId, dataLen, pBuf, &transId, txOpts, radius);
??MT_AfDataRequest_11:
        ; Setup parameters for call to function AF_DataRequest
        MOV       A,?V7
        MOV       ?V4,A
        MOV       R0,#?V4
        LCALL     ?PUSH_XSTACK_I_ONE
          CFI CFA_XSP16 add(XSP16, 36)
        MOV       A,#0x2
        LCALL     ?XSTACK_DISP100_8
        MOV       ?V4,R0
        MOV       ?V5,R1
        MOV       R0,#?V4
        LCALL     ?PUSH_XSTACK_I_TWO
          CFI CFA_XSP16 add(XSP16, 38)
        MOV       ?V4,R6
        MOV       ?V5,R7
        MOV       R0,#?V4
        LCALL     ?PUSH_XSTACK_I_TWO
          CFI CFA_XSP16 add(XSP16, 40)
        MOV       R0,#?V0
        LCALL     ?PUSH_XSTACK_I_TWO
          CFI CFA_XSP16 add(XSP16, 42)
        MOV       R0,#?V2
        LCALL     ?PUSH_XSTACK_I_TWO
          CFI CFA_XSP16 add(XSP16, 44)
        MOV       R1,?V8
        MOV       R4,?V10
        MOV       R5,?V11
        MOV       A,#0xb
        LCALL     ?XSTACK_DISP101_8
        LCALL     `??AF_DataRequest::?relay`; Banked call to: AF_DataRequest
        MOV       A,#0x9
        LCALL     ?DEALLOC_XSTACK8
          CFI CFA_XSP16 add(XSP16, 35)
        MOV       A,R1
        MOV       DPL,?XSP + 0
        MOV       DPH,?XSP + 1
??MT_AfDataRequest_13:
        MOVX      @DPTR,A
//  462   }
//  463 
//  464   if (MT_RPC_CMD_SREQ == (cmd0 & MT_RPC_CMD_TYPE_MASK))
??MT_AfDataRequest_15:
        MOV       A,#-0x20
        ANL       A,?V12
        XRL       A,#0x20
        JNZ       ??MT_AfDataRequest_16
//  465   {
//  466     MT_BuildAndSendZToolResponse(((uint8)MT_RPC_CMD_SRSP|(uint8)MT_RPC_SYS_AF), cmd1, 1, &retValue);
        ; Setup parameters for call to function MT_BuildAndSendZToolResponse
        MOV       R4,?XSP + 0
        MOV       R5,?XSP + 1
        MOV       R3,#0x1
        MOV       R2,?V9
        MOV       R1,#0x64
        LCALL     `??MT_BuildAndSendZToolResponse::?relay`; Banked call to: MT_BuildAndSendZToolResponse
//  467   }
//  468 }
??MT_AfDataRequest_16:
        MOV       A,#0xe
        LCALL     ?DEALLOC_XSTACK8
          CFI CFA_XSP16 add(XSP16, 21)
        MOV       R7,#0xd
        LJMP      ?BANKED_LEAVE_XDATA
          CFI EndBlock cfiBlock6

        RSEG BANKED_CODE:HUGECODE:NOROOT(0)
?Subroutine29:
          CFI Block cfiCond7 Using cfiCommon0
          CFI Function MT_AfDataRequest
          CFI Conditional ??CrossCallReturnLabel_94
          CFI R6 load(1, XDATA, add(CFA_XSP16, literal(-21)))
          CFI VB load(1, XDATA, add(CFA_XSP16, literal(-20)))
          CFI V0 load(1, XDATA, add(CFA_XSP16, literal(-19)))
          CFI V1 load(1, XDATA, add(CFA_XSP16, literal(-18)))
          CFI V2 load(1, XDATA, add(CFA_XSP16, literal(-17)))
          CFI V3 load(1, XDATA, add(CFA_XSP16, literal(-16)))
          CFI V4 load(1, XDATA, add(CFA_XSP16, literal(-15)))
          CFI V5 load(1, XDATA, add(CFA_XSP16, literal(-14)))
          CFI V6 load(1, XDATA, add(CFA_XSP16, literal(-13)))
          CFI V7 load(1, XDATA, add(CFA_XSP16, literal(-12)))
          CFI V8 load(1, XDATA, add(CFA_XSP16, literal(-11)))
          CFI V9 load(1, XDATA, add(CFA_XSP16, literal(-10)))
          CFI V10 load(1, XDATA, add(CFA_XSP16, literal(-9)))
          CFI V11 load(1, XDATA, add(CFA_XSP16, literal(-8)))
          CFI V12 load(1, XDATA, add(CFA_XSP16, literal(-7)))
          CFI R7 load(1, XDATA, add(CFA_XSP16, literal(-6)))
          CFI ?RET_LOW load(1, XDATA, add(CFA_XSP16, literal(-5)))
          CFI ?RET_HIGH load(1, XDATA, add(CFA_XSP16, literal(-4)))
          CFI ?BRET_EXT load(1, XDATA, add(CFA_XSP16, literal(-3)))
          CFI DPL0 load(1, XDATA, add(CFA_XSP16, literal(-2)))
          CFI DPH0 load(1, XDATA, add(CFA_XSP16, literal(-1)))
          CFI CFA_SP SP+-2
          CFI CFA_XSP16 add(XSP16, 35)
          CFI Block cfiCond8 Using cfiCommon0
          CFI (cfiCond8) Function MT_AfDataRequestSrcRtg
          CFI (cfiCond8) Conditional ??CrossCallReturnLabel_95
          CFI (cfiCond8) R6 load(1, XDATA, add(CFA_XSP16, literal(-20)))
          CFI (cfiCond8) VB load(1, XDATA, add(CFA_XSP16, literal(-19)))
          CFI (cfiCond8) V0 load(1, XDATA, add(CFA_XSP16, literal(-18)))
          CFI (cfiCond8) V1 load(1, XDATA, add(CFA_XSP16, literal(-17)))
          CFI (cfiCond8) V2 load(1, XDATA, add(CFA_XSP16, literal(-16)))
          CFI (cfiCond8) V3 load(1, XDATA, add(CFA_XSP16, literal(-15)))
          CFI (cfiCond8) V4 load(1, XDATA, add(CFA_XSP16, literal(-14)))
          CFI (cfiCond8) V5 load(1, XDATA, add(CFA_XSP16, literal(-13)))
          CFI (cfiCond8) V6 load(1, XDATA, add(CFA_XSP16, literal(-12)))
          CFI (cfiCond8) V7 load(1, XDATA, add(CFA_XSP16, literal(-11)))
          CFI (cfiCond8) V8 load(1, XDATA, add(CFA_XSP16, literal(-10)))
          CFI (cfiCond8) V9 load(1, XDATA, add(CFA_XSP16, literal(-9)))
          CFI (cfiCond8) V10 load(1, XDATA, add(CFA_XSP16, literal(-8)))
          CFI (cfiCond8) V11 load(1, XDATA, add(CFA_XSP16, literal(-7)))
          CFI (cfiCond8) R7 load(1, XDATA, add(CFA_XSP16, literal(-6)))
          CFI (cfiCond8) ?RET_LOW load(1, XDATA, add(CFA_XSP16, literal(-5)))
          CFI (cfiCond8) ?RET_HIGH load(1, XDATA, add(CFA_XSP16, literal(-4)))
          CFI (cfiCond8) ?BRET_EXT load(1, XDATA, add(CFA_XSP16, literal(-3)))
          CFI (cfiCond8) DPL0 load(1, XDATA, add(CFA_XSP16, literal(-2)))
          CFI (cfiCond8) DPH0 load(1, XDATA, add(CFA_XSP16, literal(-1)))
          CFI (cfiCond8) CFA_SP SP+-2
          CFI (cfiCond8) CFA_XSP16 add(XSP16, 34)
          CFI Block cfiPicker9 Using cfiCommon1
          CFI (cfiPicker9) NoFunction
          CFI (cfiPicker9) Picker
        MOV       A,R2
        MOV       R6,A
        MOV       A,R3
        MOV       R7,A
        MOV       DPL,?XSP + 0
        MOV       DPH,?XSP + 1
        MOV       A,#0x1
          CFI EndBlock cfiCond7
          CFI EndBlock cfiCond8
          CFI EndBlock cfiPicker9
        REQUIRE ??Subroutine49_0
        ; // Fall through to label ??Subroutine49_0

        RSEG BANKED_CODE:HUGECODE:NOROOT(0)
??Subroutine49_0:
          CFI Block cfiCond10 Using cfiCommon0
          CFI Function MT_AfCommandProcessing
          CFI Conditional ??CrossCallReturnLabel_96
          CFI R6 load(1, XDATA, add(CFA_XSP16, literal(-14)))
          CFI VB load(1, XDATA, add(CFA_XSP16, literal(-13)))
          CFI V0 load(1, XDATA, add(CFA_XSP16, literal(-12)))
          CFI V1 load(1, XDATA, add(CFA_XSP16, literal(-11)))
          CFI V2 load(1, XDATA, add(CFA_XSP16, literal(-10)))
          CFI V3 load(1, XDATA, add(CFA_XSP16, literal(-9)))
          CFI V4 load(1, XDATA, add(CFA_XSP16, literal(-8)))
          CFI V5 load(1, XDATA, add(CFA_XSP16, literal(-7)))
          CFI R7 load(1, XDATA, add(CFA_XSP16, literal(-6)))
          CFI ?RET_LOW load(1, XDATA, add(CFA_XSP16, literal(-5)))
          CFI ?RET_HIGH load(1, XDATA, add(CFA_XSP16, literal(-4)))
          CFI ?BRET_EXT load(1, XDATA, add(CFA_XSP16, literal(-3)))
          CFI DPL0 load(1, XDATA, add(CFA_XSP16, literal(-2)))
          CFI DPH0 load(1, XDATA, add(CFA_XSP16, literal(-1)))
          CFI CFA_SP SP+-2
          CFI CFA_XSP16 add(XSP16, 20)
          CFI Block cfiCond11 Using cfiCommon0
          CFI (cfiCond11) Function MT_AfDataRequest
          CFI (cfiCond11) Conditional ??CrossCallReturnLabel_97
          CFI (cfiCond11) R6 load(1, XDATA, add(CFA_XSP16, literal(-21)))
          CFI (cfiCond11) VB load(1, XDATA, add(CFA_XSP16, literal(-20)))
          CFI (cfiCond11) V0 load(1, XDATA, add(CFA_XSP16, literal(-19)))
          CFI (cfiCond11) V1 load(1, XDATA, add(CFA_XSP16, literal(-18)))
          CFI (cfiCond11) V2 load(1, XDATA, add(CFA_XSP16, literal(-17)))
          CFI (cfiCond11) V3 load(1, XDATA, add(CFA_XSP16, literal(-16)))
          CFI (cfiCond11) V4 load(1, XDATA, add(CFA_XSP16, literal(-15)))
          CFI (cfiCond11) V5 load(1, XDATA, add(CFA_XSP16, literal(-14)))
          CFI (cfiCond11) V6 load(1, XDATA, add(CFA_XSP16, literal(-13)))
          CFI (cfiCond11) V7 load(1, XDATA, add(CFA_XSP16, literal(-12)))
          CFI (cfiCond11) V8 load(1, XDATA, add(CFA_XSP16, literal(-11)))
          CFI (cfiCond11) V9 load(1, XDATA, add(CFA_XSP16, literal(-10)))
          CFI (cfiCond11) V10 load(1, XDATA, add(CFA_XSP16, literal(-9)))
          CFI (cfiCond11) V11 load(1, XDATA, add(CFA_XSP16, literal(-8)))
          CFI (cfiCond11) V12 load(1, XDATA, add(CFA_XSP16, literal(-7)))
          CFI (cfiCond11) R7 load(1, XDATA, add(CFA_XSP16, literal(-6)))
          CFI (cfiCond11) ?RET_LOW load(1, XDATA, add(CFA_XSP16, literal(-5)))
          CFI (cfiCond11) ?RET_HIGH load(1, XDATA, add(CFA_XSP16, literal(-4)))
          CFI (cfiCond11) ?BRET_EXT load(1, XDATA, add(CFA_XSP16, literal(-3)))
          CFI (cfiCond11) DPL0 load(1, XDATA, add(CFA_XSP16, literal(-2)))
          CFI (cfiCond11) DPH0 load(1, XDATA, add(CFA_XSP16, literal(-1)))
          CFI (cfiCond11) CFA_SP SP+-2
          CFI (cfiCond11) CFA_XSP16 add(XSP16, 35)
          CFI Block cfiCond12 Using cfiCommon0
          CFI (cfiCond12) Function MT_AfDataRequest
          CFI (cfiCond12) Conditional ??CrossCallReturnLabel_94
          CFI (cfiCond12) R6 load(1, XDATA, add(CFA_XSP16, literal(-21)))
          CFI (cfiCond12) VB load(1, XDATA, add(CFA_XSP16, literal(-20)))
          CFI (cfiCond12) V0 load(1, XDATA, add(CFA_XSP16, literal(-19)))
          CFI (cfiCond12) V1 load(1, XDATA, add(CFA_XSP16, literal(-18)))
          CFI (cfiCond12) V2 load(1, XDATA, add(CFA_XSP16, literal(-17)))
          CFI (cfiCond12) V3 load(1, XDATA, add(CFA_XSP16, literal(-16)))
          CFI (cfiCond12) V4 load(1, XDATA, add(CFA_XSP16, literal(-15)))
          CFI (cfiCond12) V5 load(1, XDATA, add(CFA_XSP16, literal(-14)))
          CFI (cfiCond12) V6 load(1, XDATA, add(CFA_XSP16, literal(-13)))
          CFI (cfiCond12) V7 load(1, XDATA, add(CFA_XSP16, literal(-12)))
          CFI (cfiCond12) V8 load(1, XDATA, add(CFA_XSP16, literal(-11)))
          CFI (cfiCond12) V9 load(1, XDATA, add(CFA_XSP16, literal(-10)))
          CFI (cfiCond12) V10 load(1, XDATA, add(CFA_XSP16, literal(-9)))
          CFI (cfiCond12) V11 load(1, XDATA, add(CFA_XSP16, literal(-8)))
          CFI (cfiCond12) V12 load(1, XDATA, add(CFA_XSP16, literal(-7)))
          CFI (cfiCond12) R7 load(1, XDATA, add(CFA_XSP16, literal(-6)))
          CFI (cfiCond12) ?RET_LOW load(1, XDATA, add(CFA_XSP16, literal(-5)))
          CFI (cfiCond12) ?RET_HIGH load(1, XDATA, add(CFA_XSP16, literal(-4)))
          CFI (cfiCond12) ?BRET_EXT load(1, XDATA, add(CFA_XSP16, literal(-3)))
          CFI (cfiCond12) DPL0 load(1, XDATA, add(CFA_XSP16, literal(-2)))
          CFI (cfiCond12) DPH0 load(1, XDATA, add(CFA_XSP16, literal(-1)))
          CFI (cfiCond12) CFA_SP SP+-2
          CFI (cfiCond12) CFA_XSP16 add(XSP16, 35)
          CFI Block cfiCond13 Using cfiCommon0
          CFI (cfiCond13) Function MT_AfDataRequestSrcRtg
          CFI (cfiCond13) Conditional ??CrossCallReturnLabel_95
          CFI (cfiCond13) R6 load(1, XDATA, add(CFA_XSP16, literal(-20)))
          CFI (cfiCond13) VB load(1, XDATA, add(CFA_XSP16, literal(-19)))
          CFI (cfiCond13) V0 load(1, XDATA, add(CFA_XSP16, literal(-18)))
          CFI (cfiCond13) V1 load(1, XDATA, add(CFA_XSP16, literal(-17)))
          CFI (cfiCond13) V2 load(1, XDATA, add(CFA_XSP16, literal(-16)))
          CFI (cfiCond13) V3 load(1, XDATA, add(CFA_XSP16, literal(-15)))
          CFI (cfiCond13) V4 load(1, XDATA, add(CFA_XSP16, literal(-14)))
          CFI (cfiCond13) V5 load(1, XDATA, add(CFA_XSP16, literal(-13)))
          CFI (cfiCond13) V6 load(1, XDATA, add(CFA_XSP16, literal(-12)))
          CFI (cfiCond13) V7 load(1, XDATA, add(CFA_XSP16, literal(-11)))
          CFI (cfiCond13) V8 load(1, XDATA, add(CFA_XSP16, literal(-10)))
          CFI (cfiCond13) V9 load(1, XDATA, add(CFA_XSP16, literal(-9)))
          CFI (cfiCond13) V10 load(1, XDATA, add(CFA_XSP16, literal(-8)))
          CFI (cfiCond13) V11 load(1, XDATA, add(CFA_XSP16, literal(-7)))
          CFI (cfiCond13) R7 load(1, XDATA, add(CFA_XSP16, literal(-6)))
          CFI (cfiCond13) ?RET_LOW load(1, XDATA, add(CFA_XSP16, literal(-5)))
          CFI (cfiCond13) ?RET_HIGH load(1, XDATA, add(CFA_XSP16, literal(-4)))
          CFI (cfiCond13) ?BRET_EXT load(1, XDATA, add(CFA_XSP16, literal(-3)))
          CFI (cfiCond13) DPL0 load(1, XDATA, add(CFA_XSP16, literal(-2)))
          CFI (cfiCond13) DPH0 load(1, XDATA, add(CFA_XSP16, literal(-1)))
          CFI (cfiCond13) CFA_SP SP+-2
          CFI (cfiCond13) CFA_XSP16 add(XSP16, 34)
          CFI Block cfiPicker14 Using cfiCommon1
          CFI (cfiPicker14) NoFunction
          CFI (cfiPicker14) Picker
        LCALL     ?Subroutine48 & 0xFFFF
??CrossCallReturnLabel_98:
        RET
          CFI EndBlock cfiCond10
          CFI EndBlock cfiCond11
          CFI EndBlock cfiCond12
          CFI EndBlock cfiCond13
          CFI EndBlock cfiPicker14

        RSEG BANKED_CODE:HUGECODE:NOROOT(0)
?Subroutine48:
          CFI Block cfiCond15 Using cfiCommon0
          CFI Function MT_AfDataRequest
          CFI Conditional ??CrossCallReturnLabel_98, ??CrossCallReturnLabel_94
          CFI R6 load(1, XDATA, add(CFA_XSP16, literal(-21)))
          CFI VB load(1, XDATA, add(CFA_XSP16, literal(-20)))
          CFI V0 load(1, XDATA, add(CFA_XSP16, literal(-19)))
          CFI V1 load(1, XDATA, add(CFA_XSP16, literal(-18)))
          CFI V2 load(1, XDATA, add(CFA_XSP16, literal(-17)))
          CFI V3 load(1, XDATA, add(CFA_XSP16, literal(-16)))
          CFI V4 load(1, XDATA, add(CFA_XSP16, literal(-15)))
          CFI V5 load(1, XDATA, add(CFA_XSP16, literal(-14)))
          CFI V6 load(1, XDATA, add(CFA_XSP16, literal(-13)))
          CFI V7 load(1, XDATA, add(CFA_XSP16, literal(-12)))
          CFI V8 load(1, XDATA, add(CFA_XSP16, literal(-11)))
          CFI V9 load(1, XDATA, add(CFA_XSP16, literal(-10)))
          CFI V10 load(1, XDATA, add(CFA_XSP16, literal(-9)))
          CFI V11 load(1, XDATA, add(CFA_XSP16, literal(-8)))
          CFI V12 load(1, XDATA, add(CFA_XSP16, literal(-7)))
          CFI R7 load(1, XDATA, add(CFA_XSP16, literal(-6)))
          CFI ?RET_LOW load(1, XDATA, add(CFA_XSP16, literal(-5)))
          CFI ?RET_HIGH load(1, XDATA, add(CFA_XSP16, literal(-4)))
          CFI ?BRET_EXT load(1, XDATA, add(CFA_XSP16, literal(-3)))
          CFI DPL0 load(1, XDATA, add(CFA_XSP16, literal(-2)))
          CFI DPH0 load(1, XDATA, add(CFA_XSP16, literal(-1)))
          CFI CFA_SP SP+-4
          CFI CFA_XSP16 add(XSP16, 35)
          CFI Block cfiCond16 Using cfiCommon0
          CFI (cfiCond16) Function MT_AfDataRequestSrcRtg
          CFI (cfiCond16) Conditional ??CrossCallReturnLabel_98, ??CrossCallReturnLabel_95
          CFI (cfiCond16) R6 load(1, XDATA, add(CFA_XSP16, literal(-20)))
          CFI (cfiCond16) VB load(1, XDATA, add(CFA_XSP16, literal(-19)))
          CFI (cfiCond16) V0 load(1, XDATA, add(CFA_XSP16, literal(-18)))
          CFI (cfiCond16) V1 load(1, XDATA, add(CFA_XSP16, literal(-17)))
          CFI (cfiCond16) V2 load(1, XDATA, add(CFA_XSP16, literal(-16)))
          CFI (cfiCond16) V3 load(1, XDATA, add(CFA_XSP16, literal(-15)))
          CFI (cfiCond16) V4 load(1, XDATA, add(CFA_XSP16, literal(-14)))
          CFI (cfiCond16) V5 load(1, XDATA, add(CFA_XSP16, literal(-13)))
          CFI (cfiCond16) V6 load(1, XDATA, add(CFA_XSP16, literal(-12)))
          CFI (cfiCond16) V7 load(1, XDATA, add(CFA_XSP16, literal(-11)))
          CFI (cfiCond16) V8 load(1, XDATA, add(CFA_XSP16, literal(-10)))
          CFI (cfiCond16) V9 load(1, XDATA, add(CFA_XSP16, literal(-9)))
          CFI (cfiCond16) V10 load(1, XDATA, add(CFA_XSP16, literal(-8)))
          CFI (cfiCond16) V11 load(1, XDATA, add(CFA_XSP16, literal(-7)))
          CFI (cfiCond16) R7 load(1, XDATA, add(CFA_XSP16, literal(-6)))
          CFI (cfiCond16) ?RET_LOW load(1, XDATA, add(CFA_XSP16, literal(-5)))
          CFI (cfiCond16) ?RET_HIGH load(1, XDATA, add(CFA_XSP16, literal(-4)))
          CFI (cfiCond16) ?BRET_EXT load(1, XDATA, add(CFA_XSP16, literal(-3)))
          CFI (cfiCond16) DPL0 load(1, XDATA, add(CFA_XSP16, literal(-2)))
          CFI (cfiCond16) DPH0 load(1, XDATA, add(CFA_XSP16, literal(-1)))
          CFI (cfiCond16) CFA_SP SP+-4
          CFI (cfiCond16) CFA_XSP16 add(XSP16, 34)
          CFI Block cfiCond17 Using cfiCommon0
          CFI (cfiCond17) Function MT_AfCommandProcessing
          CFI (cfiCond17) Conditional ??CrossCallReturnLabel_98, ??CrossCallReturnLabel_96
          CFI (cfiCond17) R6 load(1, XDATA, add(CFA_XSP16, literal(-14)))
          CFI (cfiCond17) VB load(1, XDATA, add(CFA_XSP16, literal(-13)))
          CFI (cfiCond17) V0 load(1, XDATA, add(CFA_XSP16, literal(-12)))
          CFI (cfiCond17) V1 load(1, XDATA, add(CFA_XSP16, literal(-11)))
          CFI (cfiCond17) V2 load(1, XDATA, add(CFA_XSP16, literal(-10)))
          CFI (cfiCond17) V3 load(1, XDATA, add(CFA_XSP16, literal(-9)))
          CFI (cfiCond17) V4 load(1, XDATA, add(CFA_XSP16, literal(-8)))
          CFI (cfiCond17) V5 load(1, XDATA, add(CFA_XSP16, literal(-7)))
          CFI (cfiCond17) R7 load(1, XDATA, add(CFA_XSP16, literal(-6)))
          CFI (cfiCond17) ?RET_LOW load(1, XDATA, add(CFA_XSP16, literal(-5)))
          CFI (cfiCond17) ?RET_HIGH load(1, XDATA, add(CFA_XSP16, literal(-4)))
          CFI (cfiCond17) ?BRET_EXT load(1, XDATA, add(CFA_XSP16, literal(-3)))
          CFI (cfiCond17) DPL0 load(1, XDATA, add(CFA_XSP16, literal(-2)))
          CFI (cfiCond17) DPH0 load(1, XDATA, add(CFA_XSP16, literal(-1)))
          CFI (cfiCond17) CFA_SP SP+-4
          CFI (cfiCond17) CFA_XSP16 add(XSP16, 20)
          CFI Block cfiCond18 Using cfiCommon0
          CFI (cfiCond18) Function MT_AfDataRequest
          CFI (cfiCond18) Conditional ??CrossCallReturnLabel_98, ??CrossCallReturnLabel_97
          CFI (cfiCond18) R6 load(1, XDATA, add(CFA_XSP16, literal(-21)))
          CFI (cfiCond18) VB load(1, XDATA, add(CFA_XSP16, literal(-20)))
          CFI (cfiCond18) V0 load(1, XDATA, add(CFA_XSP16, literal(-19)))
          CFI (cfiCond18) V1 load(1, XDATA, add(CFA_XSP16, literal(-18)))
          CFI (cfiCond18) V2 load(1, XDATA, add(CFA_XSP16, literal(-17)))
          CFI (cfiCond18) V3 load(1, XDATA, add(CFA_XSP16, literal(-16)))
          CFI (cfiCond18) V4 load(1, XDATA, add(CFA_XSP16, literal(-15)))
          CFI (cfiCond18) V5 load(1, XDATA, add(CFA_XSP16, literal(-14)))
          CFI (cfiCond18) V6 load(1, XDATA, add(CFA_XSP16, literal(-13)))
          CFI (cfiCond18) V7 load(1, XDATA, add(CFA_XSP16, literal(-12)))
          CFI (cfiCond18) V8 load(1, XDATA, add(CFA_XSP16, literal(-11)))
          CFI (cfiCond18) V9 load(1, XDATA, add(CFA_XSP16, literal(-10)))
          CFI (cfiCond18) V10 load(1, XDATA, add(CFA_XSP16, literal(-9)))
          CFI (cfiCond18) V11 load(1, XDATA, add(CFA_XSP16, literal(-8)))
          CFI (cfiCond18) V12 load(1, XDATA, add(CFA_XSP16, literal(-7)))
          CFI (cfiCond18) R7 load(1, XDATA, add(CFA_XSP16, literal(-6)))
          CFI (cfiCond18) ?RET_LOW load(1, XDATA, add(CFA_XSP16, literal(-5)))
          CFI (cfiCond18) ?RET_HIGH load(1, XDATA, add(CFA_XSP16, literal(-4)))
          CFI (cfiCond18) ?BRET_EXT load(1, XDATA, add(CFA_XSP16, literal(-3)))
          CFI (cfiCond18) DPL0 load(1, XDATA, add(CFA_XSP16, literal(-2)))
          CFI (cfiCond18) DPH0 load(1, XDATA, add(CFA_XSP16, literal(-1)))
          CFI (cfiCond18) CFA_SP SP+-4
          CFI (cfiCond18) CFA_XSP16 add(XSP16, 35)
          CFI Block cfiCond19 Using cfiCommon0
          CFI (cfiCond19) Function MT_AfDataRequestSrcRtg
          CFI (cfiCond19) Conditional ??CrossCallReturnLabel_99, ??CrossCallReturnLabel_45
          CFI (cfiCond19) R6 load(1, XDATA, add(CFA_XSP16, literal(-20)))
          CFI (cfiCond19) VB load(1, XDATA, add(CFA_XSP16, literal(-19)))
          CFI (cfiCond19) V0 load(1, XDATA, add(CFA_XSP16, literal(-18)))
          CFI (cfiCond19) V1 load(1, XDATA, add(CFA_XSP16, literal(-17)))
          CFI (cfiCond19) V2 load(1, XDATA, add(CFA_XSP16, literal(-16)))
          CFI (cfiCond19) V3 load(1, XDATA, add(CFA_XSP16, literal(-15)))
          CFI (cfiCond19) V4 load(1, XDATA, add(CFA_XSP16, literal(-14)))
          CFI (cfiCond19) V5 load(1, XDATA, add(CFA_XSP16, literal(-13)))
          CFI (cfiCond19) V6 load(1, XDATA, add(CFA_XSP16, literal(-12)))
          CFI (cfiCond19) V7 load(1, XDATA, add(CFA_XSP16, literal(-11)))
          CFI (cfiCond19) V8 load(1, XDATA, add(CFA_XSP16, literal(-10)))
          CFI (cfiCond19) V9 load(1, XDATA, add(CFA_XSP16, literal(-9)))
          CFI (cfiCond19) V10 load(1, XDATA, add(CFA_XSP16, literal(-8)))
          CFI (cfiCond19) V11 load(1, XDATA, add(CFA_XSP16, literal(-7)))
          CFI (cfiCond19) R7 load(1, XDATA, add(CFA_XSP16, literal(-6)))
          CFI (cfiCond19) ?RET_LOW load(1, XDATA, add(CFA_XSP16, literal(-5)))
          CFI (cfiCond19) ?RET_HIGH load(1, XDATA, add(CFA_XSP16, literal(-4)))
          CFI (cfiCond19) ?BRET_EXT load(1, XDATA, add(CFA_XSP16, literal(-3)))
          CFI (cfiCond19) DPL0 load(1, XDATA, add(CFA_XSP16, literal(-2)))
          CFI (cfiCond19) DPH0 load(1, XDATA, add(CFA_XSP16, literal(-1)))
          CFI (cfiCond19) CFA_SP SP+-4
          CFI (cfiCond19) CFA_XSP16 add(XSP16, 34)
          CFI Block cfiCond20 Using cfiCommon0
          CFI (cfiCond20) Function MT_AfDataRequestSrcRtg
          CFI (cfiCond20) Conditional ??CrossCallReturnLabel_99, ??CrossCallReturnLabel_46
          CFI (cfiCond20) R6 load(1, XDATA, add(CFA_XSP16, literal(-20)))
          CFI (cfiCond20) VB load(1, XDATA, add(CFA_XSP16, literal(-19)))
          CFI (cfiCond20) V0 load(1, XDATA, add(CFA_XSP16, literal(-18)))
          CFI (cfiCond20) V1 load(1, XDATA, add(CFA_XSP16, literal(-17)))
          CFI (cfiCond20) V2 load(1, XDATA, add(CFA_XSP16, literal(-16)))
          CFI (cfiCond20) V3 load(1, XDATA, add(CFA_XSP16, literal(-15)))
          CFI (cfiCond20) V4 load(1, XDATA, add(CFA_XSP16, literal(-14)))
          CFI (cfiCond20) V5 load(1, XDATA, add(CFA_XSP16, literal(-13)))
          CFI (cfiCond20) V6 load(1, XDATA, add(CFA_XSP16, literal(-12)))
          CFI (cfiCond20) V7 load(1, XDATA, add(CFA_XSP16, literal(-11)))
          CFI (cfiCond20) V8 load(1, XDATA, add(CFA_XSP16, literal(-10)))
          CFI (cfiCond20) V9 load(1, XDATA, add(CFA_XSP16, literal(-9)))
          CFI (cfiCond20) V10 load(1, XDATA, add(CFA_XSP16, literal(-8)))
          CFI (cfiCond20) V11 load(1, XDATA, add(CFA_XSP16, literal(-7)))
          CFI (cfiCond20) R7 load(1, XDATA, add(CFA_XSP16, literal(-6)))
          CFI (cfiCond20) ?RET_LOW load(1, XDATA, add(CFA_XSP16, literal(-5)))
          CFI (cfiCond20) ?RET_HIGH load(1, XDATA, add(CFA_XSP16, literal(-4)))
          CFI (cfiCond20) ?BRET_EXT load(1, XDATA, add(CFA_XSP16, literal(-3)))
          CFI (cfiCond20) DPL0 load(1, XDATA, add(CFA_XSP16, literal(-2)))
          CFI (cfiCond20) DPH0 load(1, XDATA, add(CFA_XSP16, literal(-1)))
          CFI (cfiCond20) CFA_SP SP+-4
          CFI (cfiCond20) CFA_XSP16 add(XSP16, 34)
          CFI Block cfiCond21 Using cfiCommon0
          CFI (cfiCond21) Function MT_AfCommandProcessing
          CFI (cfiCond21) Conditional ??CrossCallReturnLabel_100, ??CrossCallReturnLabel_79, ??CrossCallReturnLabel_43
          CFI (cfiCond21) R6 load(1, XDATA, add(CFA_XSP16, literal(-14)))
          CFI (cfiCond21) VB load(1, XDATA, add(CFA_XSP16, literal(-13)))
          CFI (cfiCond21) V0 load(1, XDATA, add(CFA_XSP16, literal(-12)))
          CFI (cfiCond21) V1 load(1, XDATA, add(CFA_XSP16, literal(-11)))
          CFI (cfiCond21) V2 load(1, XDATA, add(CFA_XSP16, literal(-10)))
          CFI (cfiCond21) V3 load(1, XDATA, add(CFA_XSP16, literal(-9)))
          CFI (cfiCond21) V4 load(1, XDATA, add(CFA_XSP16, literal(-8)))
          CFI (cfiCond21) V5 load(1, XDATA, add(CFA_XSP16, literal(-7)))
          CFI (cfiCond21) R7 load(1, XDATA, add(CFA_XSP16, literal(-6)))
          CFI (cfiCond21) ?RET_LOW load(1, XDATA, add(CFA_XSP16, literal(-5)))
          CFI (cfiCond21) ?RET_HIGH load(1, XDATA, add(CFA_XSP16, literal(-4)))
          CFI (cfiCond21) ?BRET_EXT load(1, XDATA, add(CFA_XSP16, literal(-3)))
          CFI (cfiCond21) DPL0 load(1, XDATA, add(CFA_XSP16, literal(-2)))
          CFI (cfiCond21) DPH0 load(1, XDATA, add(CFA_XSP16, literal(-1)))
          CFI (cfiCond21) CFA_SP SP+-6
          CFI (cfiCond21) CFA_XSP16 add(XSP16, 20)
          CFI Block cfiCond22 Using cfiCommon0
          CFI (cfiCond22) Function MT_AfCommandProcessing
          CFI (cfiCond22) Conditional ??CrossCallReturnLabel_100, ??CrossCallReturnLabel_79, ??CrossCallReturnLabel_44
          CFI (cfiCond22) R6 load(1, XDATA, add(CFA_XSP16, literal(-14)))
          CFI (cfiCond22) VB load(1, XDATA, add(CFA_XSP16, literal(-13)))
          CFI (cfiCond22) V0 load(1, XDATA, add(CFA_XSP16, literal(-12)))
          CFI (cfiCond22) V1 load(1, XDATA, add(CFA_XSP16, literal(-11)))
          CFI (cfiCond22) V2 load(1, XDATA, add(CFA_XSP16, literal(-10)))
          CFI (cfiCond22) V3 load(1, XDATA, add(CFA_XSP16, literal(-9)))
          CFI (cfiCond22) V4 load(1, XDATA, add(CFA_XSP16, literal(-8)))
          CFI (cfiCond22) V5 load(1, XDATA, add(CFA_XSP16, literal(-7)))
          CFI (cfiCond22) R7 load(1, XDATA, add(CFA_XSP16, literal(-6)))
          CFI (cfiCond22) ?RET_LOW load(1, XDATA, add(CFA_XSP16, literal(-5)))
          CFI (cfiCond22) ?RET_HIGH load(1, XDATA, add(CFA_XSP16, literal(-4)))
          CFI (cfiCond22) ?BRET_EXT load(1, XDATA, add(CFA_XSP16, literal(-3)))
          CFI (cfiCond22) DPL0 load(1, XDATA, add(CFA_XSP16, literal(-2)))
          CFI (cfiCond22) DPH0 load(1, XDATA, add(CFA_XSP16, literal(-1)))
          CFI (cfiCond22) CFA_SP SP+-6
          CFI (cfiCond22) CFA_XSP16 add(XSP16, 20)
          CFI Block cfiCond23 Using cfiCommon0
          CFI (cfiCond23) Function MT_AfDataRequest
          CFI (cfiCond23) Conditional ??CrossCallReturnLabel_100, ??CrossCallReturnLabel_80, ??CrossCallReturnLabel_41
          CFI (cfiCond23) R6 load(1, XDATA, add(CFA_XSP16, literal(-21)))
          CFI (cfiCond23) VB load(1, XDATA, add(CFA_XSP16, literal(-20)))
          CFI (cfiCond23) V0 load(1, XDATA, add(CFA_XSP16, literal(-19)))
          CFI (cfiCond23) V1 load(1, XDATA, add(CFA_XSP16, literal(-18)))
          CFI (cfiCond23) V2 load(1, XDATA, add(CFA_XSP16, literal(-17)))
          CFI (cfiCond23) V3 load(1, XDATA, add(CFA_XSP16, literal(-16)))
          CFI (cfiCond23) V4 load(1, XDATA, add(CFA_XSP16, literal(-15)))
          CFI (cfiCond23) V5 load(1, XDATA, add(CFA_XSP16, literal(-14)))
          CFI (cfiCond23) V6 load(1, XDATA, add(CFA_XSP16, literal(-13)))
          CFI (cfiCond23) V7 load(1, XDATA, add(CFA_XSP16, literal(-12)))
          CFI (cfiCond23) V8 load(1, XDATA, add(CFA_XSP16, literal(-11)))
          CFI (cfiCond23) V9 load(1, XDATA, add(CFA_XSP16, literal(-10)))
          CFI (cfiCond23) V10 load(1, XDATA, add(CFA_XSP16, literal(-9)))
          CFI (cfiCond23) V11 load(1, XDATA, add(CFA_XSP16, literal(-8)))
          CFI (cfiCond23) V12 load(1, XDATA, add(CFA_XSP16, literal(-7)))
          CFI (cfiCond23) R7 load(1, XDATA, add(CFA_XSP16, literal(-6)))
          CFI (cfiCond23) ?RET_LOW load(1, XDATA, add(CFA_XSP16, literal(-5)))
          CFI (cfiCond23) ?RET_HIGH load(1, XDATA, add(CFA_XSP16, literal(-4)))
          CFI (cfiCond23) ?BRET_EXT load(1, XDATA, add(CFA_XSP16, literal(-3)))
          CFI (cfiCond23) DPL0 load(1, XDATA, add(CFA_XSP16, literal(-2)))
          CFI (cfiCond23) DPH0 load(1, XDATA, add(CFA_XSP16, literal(-1)))
          CFI (cfiCond23) CFA_SP SP+-6
          CFI (cfiCond23) CFA_XSP16 add(XSP16, 35)
          CFI Block cfiCond24 Using cfiCommon0
          CFI (cfiCond24) Function MT_AfDataRequestSrcRtg
          CFI (cfiCond24) Conditional ??CrossCallReturnLabel_100, ??CrossCallReturnLabel_80, ??CrossCallReturnLabel_42
          CFI (cfiCond24) R6 load(1, XDATA, add(CFA_XSP16, literal(-20)))
          CFI (cfiCond24) VB load(1, XDATA, add(CFA_XSP16, literal(-19)))
          CFI (cfiCond24) V0 load(1, XDATA, add(CFA_XSP16, literal(-18)))
          CFI (cfiCond24) V1 load(1, XDATA, add(CFA_XSP16, literal(-17)))
          CFI (cfiCond24) V2 load(1, XDATA, add(CFA_XSP16, literal(-16)))
          CFI (cfiCond24) V3 load(1, XDATA, add(CFA_XSP16, literal(-15)))
          CFI (cfiCond24) V4 load(1, XDATA, add(CFA_XSP16, literal(-14)))
          CFI (cfiCond24) V5 load(1, XDATA, add(CFA_XSP16, literal(-13)))
          CFI (cfiCond24) V6 load(1, XDATA, add(CFA_XSP16, literal(-12)))
          CFI (cfiCond24) V7 load(1, XDATA, add(CFA_XSP16, literal(-11)))
          CFI (cfiCond24) V8 load(1, XDATA, add(CFA_XSP16, literal(-10)))
          CFI (cfiCond24) V9 load(1, XDATA, add(CFA_XSP16, literal(-9)))
          CFI (cfiCond24) V10 load(1, XDATA, add(CFA_XSP16, literal(-8)))
          CFI (cfiCond24) V11 load(1, XDATA, add(CFA_XSP16, literal(-7)))
          CFI (cfiCond24) R7 load(1, XDATA, add(CFA_XSP16, literal(-6)))
          CFI (cfiCond24) ?RET_LOW load(1, XDATA, add(CFA_XSP16, literal(-5)))
          CFI (cfiCond24) ?RET_HIGH load(1, XDATA, add(CFA_XSP16, literal(-4)))
          CFI (cfiCond24) ?BRET_EXT load(1, XDATA, add(CFA_XSP16, literal(-3)))
          CFI (cfiCond24) DPL0 load(1, XDATA, add(CFA_XSP16, literal(-2)))
          CFI (cfiCond24) DPH0 load(1, XDATA, add(CFA_XSP16, literal(-1)))
          CFI (cfiCond24) CFA_SP SP+-6
          CFI (cfiCond24) CFA_XSP16 add(XSP16, 34)
          CFI Block cfiPicker25 Using cfiCommon1
          CFI (cfiPicker25) NoFunction
          CFI (cfiPicker25) Picker
        MOVX      @DPTR,A
        MOV       DPL,R6
        MOV       DPH,R7
        INC       DPTR
        RET
          CFI EndBlock cfiCond15
          CFI EndBlock cfiCond16
          CFI EndBlock cfiCond17
          CFI EndBlock cfiCond18
          CFI EndBlock cfiCond19
          CFI EndBlock cfiCond20
          CFI EndBlock cfiCond21
          CFI EndBlock cfiCond22
          CFI EndBlock cfiCond23
          CFI EndBlock cfiCond24
          CFI EndBlock cfiPicker25

        RSEG BANKED_CODE:HUGECODE:NOROOT(0)
?Subroutine6:
          CFI Block cfiCond26 Using cfiCommon0
          CFI Function MT_AfExec
          CFI Conditional ??CrossCallReturnLabel_7
          CFI R6 load(1, XDATA, add(CFA_XSP16, literal(-9)))
          CFI VB load(1, XDATA, add(CFA_XSP16, literal(-8)))
          CFI V0 load(1, XDATA, add(CFA_XSP16, literal(-7)))
          CFI R7 load(1, XDATA, add(CFA_XSP16, literal(-6)))
          CFI ?RET_LOW load(1, XDATA, add(CFA_XSP16, literal(-5)))
          CFI ?RET_HIGH load(1, XDATA, add(CFA_XSP16, literal(-4)))
          CFI ?BRET_EXT load(1, XDATA, add(CFA_XSP16, literal(-3)))
          CFI DPL0 load(1, XDATA, add(CFA_XSP16, literal(-2)))
          CFI DPH0 load(1, XDATA, add(CFA_XSP16, literal(-1)))
          CFI CFA_SP SP+-2
          CFI CFA_XSP16 add(XSP16, 9)
          CFI Block cfiCond27 Using cfiCommon0
          CFI (cfiCond27) Function MT_AfDataRequest
          CFI (cfiCond27) Conditional ??CrossCallReturnLabel_6
          CFI (cfiCond27) R6 load(1, XDATA, add(CFA_XSP16, literal(-21)))
          CFI (cfiCond27) VB load(1, XDATA, add(CFA_XSP16, literal(-20)))
          CFI (cfiCond27) V0 load(1, XDATA, add(CFA_XSP16, literal(-19)))
          CFI (cfiCond27) V1 load(1, XDATA, add(CFA_XSP16, literal(-18)))
          CFI (cfiCond27) V2 load(1, XDATA, add(CFA_XSP16, literal(-17)))
          CFI (cfiCond27) V3 load(1, XDATA, add(CFA_XSP16, literal(-16)))
          CFI (cfiCond27) V4 load(1, XDATA, add(CFA_XSP16, literal(-15)))
          CFI (cfiCond27) V5 load(1, XDATA, add(CFA_XSP16, literal(-14)))
          CFI (cfiCond27) V6 load(1, XDATA, add(CFA_XSP16, literal(-13)))
          CFI (cfiCond27) V7 load(1, XDATA, add(CFA_XSP16, literal(-12)))
          CFI (cfiCond27) V8 load(1, XDATA, add(CFA_XSP16, literal(-11)))
          CFI (cfiCond27) V9 load(1, XDATA, add(CFA_XSP16, literal(-10)))
          CFI (cfiCond27) V10 load(1, XDATA, add(CFA_XSP16, literal(-9)))
          CFI (cfiCond27) V11 load(1, XDATA, add(CFA_XSP16, literal(-8)))
          CFI (cfiCond27) V12 load(1, XDATA, add(CFA_XSP16, literal(-7)))
          CFI (cfiCond27) R7 load(1, XDATA, add(CFA_XSP16, literal(-6)))
          CFI (cfiCond27) ?RET_LOW load(1, XDATA, add(CFA_XSP16, literal(-5)))
          CFI (cfiCond27) ?RET_HIGH load(1, XDATA, add(CFA_XSP16, literal(-4)))
          CFI (cfiCond27) ?BRET_EXT load(1, XDATA, add(CFA_XSP16, literal(-3)))
          CFI (cfiCond27) DPL0 load(1, XDATA, add(CFA_XSP16, literal(-2)))
          CFI (cfiCond27) DPH0 load(1, XDATA, add(CFA_XSP16, literal(-1)))
          CFI (cfiCond27) CFA_SP SP+-2
          CFI (cfiCond27) CFA_XSP16 add(XSP16, 35)
          CFI Block cfiPicker28 Using cfiCommon1
          CFI (cfiPicker28) NoFunction
          CFI (cfiPicker28) Picker
        MOVX      @DPTR,A
        LCALL     ?Subroutine36 & 0xFFFF
??CrossCallReturnLabel_65:
        LCALL     ?Subroutine44 & 0xFFFF
??CrossCallReturnLabel_84:
        RET
          CFI EndBlock cfiCond26
          CFI EndBlock cfiCond27
          CFI EndBlock cfiPicker28

        RSEG BANKED_CODE:HUGECODE:NOROOT(0)
?Subroutine44:
          CFI Block cfiCond29 Using cfiCommon0
          CFI Function MT_AfExec
          CFI Conditional ??CrossCallReturnLabel_83
          CFI R6 load(1, XDATA, add(CFA_XSP16, literal(-9)))
          CFI VB load(1, XDATA, add(CFA_XSP16, literal(-8)))
          CFI V0 load(1, XDATA, add(CFA_XSP16, literal(-7)))
          CFI R7 load(1, XDATA, add(CFA_XSP16, literal(-6)))
          CFI ?RET_LOW load(1, XDATA, add(CFA_XSP16, literal(-5)))
          CFI ?RET_HIGH load(1, XDATA, add(CFA_XSP16, literal(-4)))
          CFI ?BRET_EXT load(1, XDATA, add(CFA_XSP16, literal(-3)))
          CFI DPL0 load(1, XDATA, add(CFA_XSP16, literal(-2)))
          CFI DPH0 load(1, XDATA, add(CFA_XSP16, literal(-1)))
          CFI CFA_SP SP+-2
          CFI CFA_XSP16 add(XSP16, 9)
          CFI Block cfiCond30 Using cfiCommon0
          CFI (cfiCond30) Function MT_AfExec
          CFI (cfiCond30) Conditional ??CrossCallReturnLabel_84, ??CrossCallReturnLabel_7
          CFI (cfiCond30) R6 load(1, XDATA, add(CFA_XSP16, literal(-9)))
          CFI (cfiCond30) VB load(1, XDATA, add(CFA_XSP16, literal(-8)))
          CFI (cfiCond30) V0 load(1, XDATA, add(CFA_XSP16, literal(-7)))
          CFI (cfiCond30) R7 load(1, XDATA, add(CFA_XSP16, literal(-6)))
          CFI (cfiCond30) ?RET_LOW load(1, XDATA, add(CFA_XSP16, literal(-5)))
          CFI (cfiCond30) ?RET_HIGH load(1, XDATA, add(CFA_XSP16, literal(-4)))
          CFI (cfiCond30) ?BRET_EXT load(1, XDATA, add(CFA_XSP16, literal(-3)))
          CFI (cfiCond30) DPL0 load(1, XDATA, add(CFA_XSP16, literal(-2)))
          CFI (cfiCond30) DPH0 load(1, XDATA, add(CFA_XSP16, literal(-1)))
          CFI (cfiCond30) CFA_SP SP+-4
          CFI (cfiCond30) CFA_XSP16 add(XSP16, 9)
          CFI Block cfiCond31 Using cfiCommon0
          CFI (cfiCond31) Function MT_AfDataRequest
          CFI (cfiCond31) Conditional ??CrossCallReturnLabel_84, ??CrossCallReturnLabel_6
          CFI (cfiCond31) R6 load(1, XDATA, add(CFA_XSP16, literal(-21)))
          CFI (cfiCond31) VB load(1, XDATA, add(CFA_XSP16, literal(-20)))
          CFI (cfiCond31) V0 load(1, XDATA, add(CFA_XSP16, literal(-19)))
          CFI (cfiCond31) V1 load(1, XDATA, add(CFA_XSP16, literal(-18)))
          CFI (cfiCond31) V2 load(1, XDATA, add(CFA_XSP16, literal(-17)))
          CFI (cfiCond31) V3 load(1, XDATA, add(CFA_XSP16, literal(-16)))
          CFI (cfiCond31) V4 load(1, XDATA, add(CFA_XSP16, literal(-15)))
          CFI (cfiCond31) V5 load(1, XDATA, add(CFA_XSP16, literal(-14)))
          CFI (cfiCond31) V6 load(1, XDATA, add(CFA_XSP16, literal(-13)))
          CFI (cfiCond31) V7 load(1, XDATA, add(CFA_XSP16, literal(-12)))
          CFI (cfiCond31) V8 load(1, XDATA, add(CFA_XSP16, literal(-11)))
          CFI (cfiCond31) V9 load(1, XDATA, add(CFA_XSP16, literal(-10)))
          CFI (cfiCond31) V10 load(1, XDATA, add(CFA_XSP16, literal(-9)))
          CFI (cfiCond31) V11 load(1, XDATA, add(CFA_XSP16, literal(-8)))
          CFI (cfiCond31) V12 load(1, XDATA, add(CFA_XSP16, literal(-7)))
          CFI (cfiCond31) R7 load(1, XDATA, add(CFA_XSP16, literal(-6)))
          CFI (cfiCond31) ?RET_LOW load(1, XDATA, add(CFA_XSP16, literal(-5)))
          CFI (cfiCond31) ?RET_HIGH load(1, XDATA, add(CFA_XSP16, literal(-4)))
          CFI (cfiCond31) ?BRET_EXT load(1, XDATA, add(CFA_XSP16, literal(-3)))
          CFI (cfiCond31) DPL0 load(1, XDATA, add(CFA_XSP16, literal(-2)))
          CFI (cfiCond31) DPH0 load(1, XDATA, add(CFA_XSP16, literal(-1)))
          CFI (cfiCond31) CFA_SP SP+-4
          CFI (cfiCond31) CFA_XSP16 add(XSP16, 35)
          CFI Block cfiPicker32 Using cfiCommon1
          CFI (cfiPicker32) NoFunction
          CFI (cfiPicker32) Picker
        ADD       A,#0x17
        MOV       DPL,A
        CLR       A
        ADDC      A,R0
        MOV       DPH,A
        RET
          CFI EndBlock cfiCond29
          CFI EndBlock cfiCond30
          CFI EndBlock cfiCond31
          CFI EndBlock cfiPicker32

        RSEG BANKED_CODE:HUGECODE:NOROOT(0)
?Subroutine2:
          CFI Block cfiCond33 Using cfiCommon0
          CFI Function MT_AfExec
          CFI Conditional ??CrossCallReturnLabel_102
          CFI R6 load(1, XDATA, add(CFA_XSP16, literal(-9)))
          CFI VB load(1, XDATA, add(CFA_XSP16, literal(-8)))
          CFI V0 load(1, XDATA, add(CFA_XSP16, literal(-7)))
          CFI R7 load(1, XDATA, add(CFA_XSP16, literal(-6)))
          CFI ?RET_LOW load(1, XDATA, add(CFA_XSP16, literal(-5)))
          CFI ?RET_HIGH load(1, XDATA, add(CFA_XSP16, literal(-4)))
          CFI ?BRET_EXT load(1, XDATA, add(CFA_XSP16, literal(-3)))
          CFI DPL0 load(1, XDATA, add(CFA_XSP16, literal(-2)))
          CFI DPH0 load(1, XDATA, add(CFA_XSP16, literal(-1)))
          CFI CFA_SP SP+-2
          CFI CFA_XSP16 add(XSP16, 9)
          CFI Block cfiCond34 Using cfiCommon0
          CFI (cfiCond34) Function MT_AfExec
          CFI (cfiCond34) Conditional ??CrossCallReturnLabel_103
          CFI (cfiCond34) R6 load(1, XDATA, add(CFA_XSP16, literal(-9)))
          CFI (cfiCond34) VB load(1, XDATA, add(CFA_XSP16, literal(-8)))
          CFI (cfiCond34) V0 load(1, XDATA, add(CFA_XSP16, literal(-7)))
          CFI (cfiCond34) R7 load(1, XDATA, add(CFA_XSP16, literal(-6)))
          CFI (cfiCond34) ?RET_LOW load(1, XDATA, add(CFA_XSP16, literal(-5)))
          CFI (cfiCond34) ?RET_HIGH load(1, XDATA, add(CFA_XSP16, literal(-4)))
          CFI (cfiCond34) ?BRET_EXT load(1, XDATA, add(CFA_XSP16, literal(-3)))
          CFI (cfiCond34) DPL0 load(1, XDATA, add(CFA_XSP16, literal(-2)))
          CFI (cfiCond34) DPH0 load(1, XDATA, add(CFA_XSP16, literal(-1)))
          CFI (cfiCond34) CFA_SP SP+-2
          CFI (cfiCond34) CFA_XSP16 add(XSP16, 9)
          CFI Block cfiCond35 Using cfiCommon0
          CFI (cfiCond35) Function MT_AfDataRequest
          CFI (cfiCond35) Conditional ??CrossCallReturnLabel_104
          CFI (cfiCond35) R6 load(1, XDATA, add(CFA_XSP16, literal(-21)))
          CFI (cfiCond35) VB load(1, XDATA, add(CFA_XSP16, literal(-20)))
          CFI (cfiCond35) V0 load(1, XDATA, add(CFA_XSP16, literal(-19)))
          CFI (cfiCond35) V1 load(1, XDATA, add(CFA_XSP16, literal(-18)))
          CFI (cfiCond35) V2 load(1, XDATA, add(CFA_XSP16, literal(-17)))
          CFI (cfiCond35) V3 load(1, XDATA, add(CFA_XSP16, literal(-16)))
          CFI (cfiCond35) V4 load(1, XDATA, add(CFA_XSP16, literal(-15)))
          CFI (cfiCond35) V5 load(1, XDATA, add(CFA_XSP16, literal(-14)))
          CFI (cfiCond35) V6 load(1, XDATA, add(CFA_XSP16, literal(-13)))
          CFI (cfiCond35) V7 load(1, XDATA, add(CFA_XSP16, literal(-12)))
          CFI (cfiCond35) V8 load(1, XDATA, add(CFA_XSP16, literal(-11)))
          CFI (cfiCond35) V9 load(1, XDATA, add(CFA_XSP16, literal(-10)))
          CFI (cfiCond35) V10 load(1, XDATA, add(CFA_XSP16, literal(-9)))
          CFI (cfiCond35) V11 load(1, XDATA, add(CFA_XSP16, literal(-8)))
          CFI (cfiCond35) V12 load(1, XDATA, add(CFA_XSP16, literal(-7)))
          CFI (cfiCond35) R7 load(1, XDATA, add(CFA_XSP16, literal(-6)))
          CFI (cfiCond35) ?RET_LOW load(1, XDATA, add(CFA_XSP16, literal(-5)))
          CFI (cfiCond35) ?RET_HIGH load(1, XDATA, add(CFA_XSP16, literal(-4)))
          CFI (cfiCond35) ?BRET_EXT load(1, XDATA, add(CFA_XSP16, literal(-3)))
          CFI (cfiCond35) DPL0 load(1, XDATA, add(CFA_XSP16, literal(-2)))
          CFI (cfiCond35) DPH0 load(1, XDATA, add(CFA_XSP16, literal(-1)))
          CFI (cfiCond35) CFA_SP SP+-2
          CFI (cfiCond35) CFA_XSP16 add(XSP16, 35)
          CFI Block cfiCond36 Using cfiCommon0
          CFI (cfiCond36) Function MT_AfDataRequest
          CFI (cfiCond36) Conditional ??CrossCallReturnLabel_105
          CFI (cfiCond36) R6 load(1, XDATA, add(CFA_XSP16, literal(-21)))
          CFI (cfiCond36) VB load(1, XDATA, add(CFA_XSP16, literal(-20)))
          CFI (cfiCond36) V0 load(1, XDATA, add(CFA_XSP16, literal(-19)))
          CFI (cfiCond36) V1 load(1, XDATA, add(CFA_XSP16, literal(-18)))
          CFI (cfiCond36) V2 load(1, XDATA, add(CFA_XSP16, literal(-17)))
          CFI (cfiCond36) V3 load(1, XDATA, add(CFA_XSP16, literal(-16)))
          CFI (cfiCond36) V4 load(1, XDATA, add(CFA_XSP16, literal(-15)))
          CFI (cfiCond36) V5 load(1, XDATA, add(CFA_XSP16, literal(-14)))
          CFI (cfiCond36) V6 load(1, XDATA, add(CFA_XSP16, literal(-13)))
          CFI (cfiCond36) V7 load(1, XDATA, add(CFA_XSP16, literal(-12)))
          CFI (cfiCond36) V8 load(1, XDATA, add(CFA_XSP16, literal(-11)))
          CFI (cfiCond36) V9 load(1, XDATA, add(CFA_XSP16, literal(-10)))
          CFI (cfiCond36) V10 load(1, XDATA, add(CFA_XSP16, literal(-9)))
          CFI (cfiCond36) V11 load(1, XDATA, add(CFA_XSP16, literal(-8)))
          CFI (cfiCond36) V12 load(1, XDATA, add(CFA_XSP16, literal(-7)))
          CFI (cfiCond36) R7 load(1, XDATA, add(CFA_XSP16, literal(-6)))
          CFI (cfiCond36) ?RET_LOW load(1, XDATA, add(CFA_XSP16, literal(-5)))
          CFI (cfiCond36) ?RET_HIGH load(1, XDATA, add(CFA_XSP16, literal(-4)))
          CFI (cfiCond36) ?BRET_EXT load(1, XDATA, add(CFA_XSP16, literal(-3)))
          CFI (cfiCond36) DPL0 load(1, XDATA, add(CFA_XSP16, literal(-2)))
          CFI (cfiCond36) DPH0 load(1, XDATA, add(CFA_XSP16, literal(-1)))
          CFI (cfiCond36) CFA_SP SP+-2
          CFI (cfiCond36) CFA_XSP16 add(XSP16, 35)
          CFI Block cfiCond37 Using cfiCommon0
          CFI (cfiCond37) Function MT_AfDataStore
          CFI (cfiCond37) Conditional ??CrossCallReturnLabel_106
          CFI (cfiCond37) R6 load(1, XDATA, add(CFA_XSP16, literal(-14)))
          CFI (cfiCond37) VB load(1, XDATA, add(CFA_XSP16, literal(-13)))
          CFI (cfiCond37) V0 load(1, XDATA, add(CFA_XSP16, literal(-12)))
          CFI (cfiCond37) V1 load(1, XDATA, add(CFA_XSP16, literal(-11)))
          CFI (cfiCond37) V2 load(1, XDATA, add(CFA_XSP16, literal(-10)))
          CFI (cfiCond37) V3 load(1, XDATA, add(CFA_XSP16, literal(-9)))
          CFI (cfiCond37) V4 load(1, XDATA, add(CFA_XSP16, literal(-8)))
          CFI (cfiCond37) V5 load(1, XDATA, add(CFA_XSP16, literal(-7)))
          CFI (cfiCond37) R7 load(1, XDATA, add(CFA_XSP16, literal(-6)))
          CFI (cfiCond37) ?RET_LOW load(1, XDATA, add(CFA_XSP16, literal(-5)))
          CFI (cfiCond37) ?RET_HIGH load(1, XDATA, add(CFA_XSP16, literal(-4)))
          CFI (cfiCond37) ?BRET_EXT load(1, XDATA, add(CFA_XSP16, literal(-3)))
          CFI (cfiCond37) DPL0 load(1, XDATA, add(CFA_XSP16, literal(-2)))
          CFI (cfiCond37) DPH0 load(1, XDATA, add(CFA_XSP16, literal(-1)))
          CFI (cfiCond37) CFA_SP SP+-2
          CFI (cfiCond37) CFA_XSP16 add(XSP16, 15)
          CFI Block cfiPicker38 Using cfiCommon1
          CFI (cfiPicker38) NoFunction
          CFI (cfiPicker38) Picker
        MOV       DPTR,#pMtAfDataReq
          CFI EndBlock cfiCond33
          CFI EndBlock cfiCond34
          CFI EndBlock cfiCond35
          CFI EndBlock cfiCond36
          CFI EndBlock cfiCond37
          CFI EndBlock cfiPicker38
        REQUIRE ??Subroutine50_0
        ; // Fall through to label ??Subroutine50_0

        RSEG BANKED_CODE:HUGECODE:NOROOT(0)
??Subroutine50_0:
          CFI Block cfiCond39 Using cfiCommon0
          CFI Function MT_AfExec
          CFI Conditional ??CrossCallReturnLabel_101
          CFI R6 load(1, XDATA, add(CFA_XSP16, literal(-9)))
          CFI VB load(1, XDATA, add(CFA_XSP16, literal(-8)))
          CFI V0 load(1, XDATA, add(CFA_XSP16, literal(-7)))
          CFI R7 load(1, XDATA, add(CFA_XSP16, literal(-6)))
          CFI ?RET_LOW load(1, XDATA, add(CFA_XSP16, literal(-5)))
          CFI ?RET_HIGH load(1, XDATA, add(CFA_XSP16, literal(-4)))
          CFI ?BRET_EXT load(1, XDATA, add(CFA_XSP16, literal(-3)))
          CFI DPL0 load(1, XDATA, add(CFA_XSP16, literal(-2)))
          CFI DPH0 load(1, XDATA, add(CFA_XSP16, literal(-1)))
          CFI CFA_SP SP+-2
          CFI CFA_XSP16 add(XSP16, 9)
          CFI Block cfiCond40 Using cfiCommon0
          CFI (cfiCond40) Function MT_AfExec
          CFI (cfiCond40) Conditional ??CrossCallReturnLabel_102
          CFI (cfiCond40) R6 load(1, XDATA, add(CFA_XSP16, literal(-9)))
          CFI (cfiCond40) VB load(1, XDATA, add(CFA_XSP16, literal(-8)))
          CFI (cfiCond40) V0 load(1, XDATA, add(CFA_XSP16, literal(-7)))
          CFI (cfiCond40) R7 load(1, XDATA, add(CFA_XSP16, literal(-6)))
          CFI (cfiCond40) ?RET_LOW load(1, XDATA, add(CFA_XSP16, literal(-5)))
          CFI (cfiCond40) ?RET_HIGH load(1, XDATA, add(CFA_XSP16, literal(-4)))
          CFI (cfiCond40) ?BRET_EXT load(1, XDATA, add(CFA_XSP16, literal(-3)))
          CFI (cfiCond40) DPL0 load(1, XDATA, add(CFA_XSP16, literal(-2)))
          CFI (cfiCond40) DPH0 load(1, XDATA, add(CFA_XSP16, literal(-1)))
          CFI (cfiCond40) CFA_SP SP+-2
          CFI (cfiCond40) CFA_XSP16 add(XSP16, 9)
          CFI Block cfiCond41 Using cfiCommon0
          CFI (cfiCond41) Function MT_AfExec
          CFI (cfiCond41) Conditional ??CrossCallReturnLabel_103
          CFI (cfiCond41) R6 load(1, XDATA, add(CFA_XSP16, literal(-9)))
          CFI (cfiCond41) VB load(1, XDATA, add(CFA_XSP16, literal(-8)))
          CFI (cfiCond41) V0 load(1, XDATA, add(CFA_XSP16, literal(-7)))
          CFI (cfiCond41) R7 load(1, XDATA, add(CFA_XSP16, literal(-6)))
          CFI (cfiCond41) ?RET_LOW load(1, XDATA, add(CFA_XSP16, literal(-5)))
          CFI (cfiCond41) ?RET_HIGH load(1, XDATA, add(CFA_XSP16, literal(-4)))
          CFI (cfiCond41) ?BRET_EXT load(1, XDATA, add(CFA_XSP16, literal(-3)))
          CFI (cfiCond41) DPL0 load(1, XDATA, add(CFA_XSP16, literal(-2)))
          CFI (cfiCond41) DPH0 load(1, XDATA, add(CFA_XSP16, literal(-1)))
          CFI (cfiCond41) CFA_SP SP+-2
          CFI (cfiCond41) CFA_XSP16 add(XSP16, 9)
          CFI Block cfiCond42 Using cfiCommon0
          CFI (cfiCond42) Function MT_AfDataRequest
          CFI (cfiCond42) Conditional ??CrossCallReturnLabel_104
          CFI (cfiCond42) R6 load(1, XDATA, add(CFA_XSP16, literal(-21)))
          CFI (cfiCond42) VB load(1, XDATA, add(CFA_XSP16, literal(-20)))
          CFI (cfiCond42) V0 load(1, XDATA, add(CFA_XSP16, literal(-19)))
          CFI (cfiCond42) V1 load(1, XDATA, add(CFA_XSP16, literal(-18)))
          CFI (cfiCond42) V2 load(1, XDATA, add(CFA_XSP16, literal(-17)))
          CFI (cfiCond42) V3 load(1, XDATA, add(CFA_XSP16, literal(-16)))
          CFI (cfiCond42) V4 load(1, XDATA, add(CFA_XSP16, literal(-15)))
          CFI (cfiCond42) V5 load(1, XDATA, add(CFA_XSP16, literal(-14)))
          CFI (cfiCond42) V6 load(1, XDATA, add(CFA_XSP16, literal(-13)))
          CFI (cfiCond42) V7 load(1, XDATA, add(CFA_XSP16, literal(-12)))
          CFI (cfiCond42) V8 load(1, XDATA, add(CFA_XSP16, literal(-11)))
          CFI (cfiCond42) V9 load(1, XDATA, add(CFA_XSP16, literal(-10)))
          CFI (cfiCond42) V10 load(1, XDATA, add(CFA_XSP16, literal(-9)))
          CFI (cfiCond42) V11 load(1, XDATA, add(CFA_XSP16, literal(-8)))
          CFI (cfiCond42) V12 load(1, XDATA, add(CFA_XSP16, literal(-7)))
          CFI (cfiCond42) R7 load(1, XDATA, add(CFA_XSP16, literal(-6)))
          CFI (cfiCond42) ?RET_LOW load(1, XDATA, add(CFA_XSP16, literal(-5)))
          CFI (cfiCond42) ?RET_HIGH load(1, XDATA, add(CFA_XSP16, literal(-4)))
          CFI (cfiCond42) ?BRET_EXT load(1, XDATA, add(CFA_XSP16, literal(-3)))
          CFI (cfiCond42) DPL0 load(1, XDATA, add(CFA_XSP16, literal(-2)))
          CFI (cfiCond42) DPH0 load(1, XDATA, add(CFA_XSP16, literal(-1)))
          CFI (cfiCond42) CFA_SP SP+-2
          CFI (cfiCond42) CFA_XSP16 add(XSP16, 35)
          CFI Block cfiCond43 Using cfiCommon0
          CFI (cfiCond43) Function MT_AfDataRequest
          CFI (cfiCond43) Conditional ??CrossCallReturnLabel_105
          CFI (cfiCond43) R6 load(1, XDATA, add(CFA_XSP16, literal(-21)))
          CFI (cfiCond43) VB load(1, XDATA, add(CFA_XSP16, literal(-20)))
          CFI (cfiCond43) V0 load(1, XDATA, add(CFA_XSP16, literal(-19)))
          CFI (cfiCond43) V1 load(1, XDATA, add(CFA_XSP16, literal(-18)))
          CFI (cfiCond43) V2 load(1, XDATA, add(CFA_XSP16, literal(-17)))
          CFI (cfiCond43) V3 load(1, XDATA, add(CFA_XSP16, literal(-16)))
          CFI (cfiCond43) V4 load(1, XDATA, add(CFA_XSP16, literal(-15)))
          CFI (cfiCond43) V5 load(1, XDATA, add(CFA_XSP16, literal(-14)))
          CFI (cfiCond43) V6 load(1, XDATA, add(CFA_XSP16, literal(-13)))
          CFI (cfiCond43) V7 load(1, XDATA, add(CFA_XSP16, literal(-12)))
          CFI (cfiCond43) V8 load(1, XDATA, add(CFA_XSP16, literal(-11)))
          CFI (cfiCond43) V9 load(1, XDATA, add(CFA_XSP16, literal(-10)))
          CFI (cfiCond43) V10 load(1, XDATA, add(CFA_XSP16, literal(-9)))
          CFI (cfiCond43) V11 load(1, XDATA, add(CFA_XSP16, literal(-8)))
          CFI (cfiCond43) V12 load(1, XDATA, add(CFA_XSP16, literal(-7)))
          CFI (cfiCond43) R7 load(1, XDATA, add(CFA_XSP16, literal(-6)))
          CFI (cfiCond43) ?RET_LOW load(1, XDATA, add(CFA_XSP16, literal(-5)))
          CFI (cfiCond43) ?RET_HIGH load(1, XDATA, add(CFA_XSP16, literal(-4)))
          CFI (cfiCond43) ?BRET_EXT load(1, XDATA, add(CFA_XSP16, literal(-3)))
          CFI (cfiCond43) DPL0 load(1, XDATA, add(CFA_XSP16, literal(-2)))
          CFI (cfiCond43) DPH0 load(1, XDATA, add(CFA_XSP16, literal(-1)))
          CFI (cfiCond43) CFA_SP SP+-2
          CFI (cfiCond43) CFA_XSP16 add(XSP16, 35)
          CFI Block cfiCond44 Using cfiCommon0
          CFI (cfiCond44) Function MT_AfDataStore
          CFI (cfiCond44) Conditional ??CrossCallReturnLabel_106
          CFI (cfiCond44) R6 load(1, XDATA, add(CFA_XSP16, literal(-14)))
          CFI (cfiCond44) VB load(1, XDATA, add(CFA_XSP16, literal(-13)))
          CFI (cfiCond44) V0 load(1, XDATA, add(CFA_XSP16, literal(-12)))
          CFI (cfiCond44) V1 load(1, XDATA, add(CFA_XSP16, literal(-11)))
          CFI (cfiCond44) V2 load(1, XDATA, add(CFA_XSP16, literal(-10)))
          CFI (cfiCond44) V3 load(1, XDATA, add(CFA_XSP16, literal(-9)))
          CFI (cfiCond44) V4 load(1, XDATA, add(CFA_XSP16, literal(-8)))
          CFI (cfiCond44) V5 load(1, XDATA, add(CFA_XSP16, literal(-7)))
          CFI (cfiCond44) R7 load(1, XDATA, add(CFA_XSP16, literal(-6)))
          CFI (cfiCond44) ?RET_LOW load(1, XDATA, add(CFA_XSP16, literal(-5)))
          CFI (cfiCond44) ?RET_HIGH load(1, XDATA, add(CFA_XSP16, literal(-4)))
          CFI (cfiCond44) ?BRET_EXT load(1, XDATA, add(CFA_XSP16, literal(-3)))
          CFI (cfiCond44) DPL0 load(1, XDATA, add(CFA_XSP16, literal(-2)))
          CFI (cfiCond44) DPH0 load(1, XDATA, add(CFA_XSP16, literal(-1)))
          CFI (cfiCond44) CFA_SP SP+-2
          CFI (cfiCond44) CFA_XSP16 add(XSP16, 15)
          CFI Block cfiPicker45 Using cfiCommon1
          CFI (cfiPicker45) NoFunction
          CFI (cfiPicker45) Picker
        MOVX      A,@DPTR
        MOV       R0,A
        INC       DPTR
        MOVX      A,@DPTR
        MOV       R1,A
        MOV       A,R0
        ORL       A,R1
        RET
          CFI EndBlock cfiCond39
          CFI EndBlock cfiCond40
          CFI EndBlock cfiCond41
          CFI EndBlock cfiCond42
          CFI EndBlock cfiCond43
          CFI EndBlock cfiCond44
          CFI EndBlock cfiPicker45
//  469 
//  470 #if defined( ZIGBEEPRO )
//  471 /***************************************************************************************************
//  472  * @fn      MT_AfDataRequestSrcRtg
//  473  *
//  474  * @brief   Process AF Register command
//  475  *
//  476  * @param   pBuf - pointer to the received buffer
//  477  *
//  478  * @return  none
//  479  ***************************************************************************************************/

        RSEG BANKED_CODE:HUGECODE:NOROOT(0)
//  480 static void MT_AfDataRequestSrcRtg(uint8 *pBuf)
MT_AfDataRequestSrcRtg:
          CFI Block cfiBlock46 Using cfiCommon0
          CFI Function MT_AfDataRequestSrcRtg
        CODE
//  481 {
        FUNCALL MT_AfDataRequestSrcRtg, osal_memset
        LOCFRAME ISTACK, 0, STACK
        LOCFRAME PSTACK, 0, STACK
        LOCFRAME XSTACK, 34, STACK
        LOCFRAME IOVERLAY, 0, STATIC
        LOCFRAME DOVERLAY, 0, STATIC
        ARGFRAME ISTACK, 0, STACK
        ARGFRAME PSTACK, 0, STACK
        ARGFRAME XSTACK, 34, STACK
        ARGFRAME IOVERLAY, 0, STATIC
        ARGFRAME DOVERLAY, 0, STATIC
        FUNCALL MT_AfDataRequestSrcRtg, osal_build_uint16
        LOCFRAME ISTACK, 0, STACK
        LOCFRAME PSTACK, 0, STACK
        LOCFRAME XSTACK, 34, STACK
        LOCFRAME IOVERLAY, 0, STATIC
        LOCFRAME DOVERLAY, 0, STATIC
        ARGFRAME ISTACK, 0, STACK
        ARGFRAME PSTACK, 0, STACK
        ARGFRAME XSTACK, 34, STACK
        ARGFRAME IOVERLAY, 0, STATIC
        ARGFRAME DOVERLAY, 0, STATIC
        FUNCALL MT_AfDataRequestSrcRtg, afFindEndPointDesc
        LOCFRAME ISTACK, 0, STACK
        LOCFRAME PSTACK, 0, STACK
        LOCFRAME XSTACK, 34, STACK
        LOCFRAME IOVERLAY, 0, STATIC
        LOCFRAME DOVERLAY, 0, STATIC
        ARGFRAME ISTACK, 0, STACK
        ARGFRAME PSTACK, 0, STACK
        ARGFRAME XSTACK, 34, STACK
        ARGFRAME IOVERLAY, 0, STATIC
        ARGFRAME DOVERLAY, 0, STATIC
        FUNCALL MT_AfDataRequestSrcRtg, osal_build_uint16
        LOCFRAME ISTACK, 0, STACK
        LOCFRAME PSTACK, 0, STACK
        LOCFRAME XSTACK, 34, STACK
        LOCFRAME IOVERLAY, 0, STATIC
        LOCFRAME DOVERLAY, 0, STATIC
        ARGFRAME ISTACK, 0, STACK
        ARGFRAME PSTACK, 0, STACK
        ARGFRAME XSTACK, 34, STACK
        ARGFRAME IOVERLAY, 0, STATIC
        ARGFRAME DOVERLAY, 0, STATIC
        FUNCALL MT_AfDataRequestSrcRtg, osal_mem_alloc
        LOCFRAME ISTACK, 0, STACK
        LOCFRAME PSTACK, 0, STACK
        LOCFRAME XSTACK, 34, STACK
        LOCFRAME IOVERLAY, 0, STATIC
        LOCFRAME DOVERLAY, 0, STATIC
        ARGFRAME ISTACK, 0, STACK
        ARGFRAME PSTACK, 0, STACK
        ARGFRAME XSTACK, 34, STACK
        ARGFRAME IOVERLAY, 0, STATIC
        ARGFRAME DOVERLAY, 0, STATIC
        FUNCALL MT_AfDataRequestSrcRtg, osal_build_uint16
        LOCFRAME ISTACK, 0, STACK
        LOCFRAME PSTACK, 0, STACK
        LOCFRAME XSTACK, 34, STACK
        LOCFRAME IOVERLAY, 0, STATIC
        LOCFRAME DOVERLAY, 0, STATIC
        ARGFRAME ISTACK, 0, STACK
        ARGFRAME PSTACK, 0, STACK
        ARGFRAME XSTACK, 34, STACK
        ARGFRAME IOVERLAY, 0, STATIC
        ARGFRAME DOVERLAY, 0, STATIC
        FUNCALL MT_AfDataRequestSrcRtg, AF_DataRequestSrcRtg
        LOCFRAME ISTACK, 0, STACK
        LOCFRAME PSTACK, 0, STACK
        LOCFRAME XSTACK, 46, STACK
        LOCFRAME IOVERLAY, 0, STATIC
        LOCFRAME DOVERLAY, 0, STATIC
        ARGFRAME ISTACK, 0, STACK
        ARGFRAME PSTACK, 0, STACK
        ARGFRAME XSTACK, 46, STACK
        ARGFRAME IOVERLAY, 0, STATIC
        ARGFRAME DOVERLAY, 0, STATIC
        FUNCALL MT_AfDataRequestSrcRtg, osal_mem_free
        LOCFRAME ISTACK, 0, STACK
        LOCFRAME PSTACK, 0, STACK
        LOCFRAME XSTACK, 34, STACK
        LOCFRAME IOVERLAY, 0, STATIC
        LOCFRAME DOVERLAY, 0, STATIC
        ARGFRAME ISTACK, 0, STACK
        ARGFRAME PSTACK, 0, STACK
        ARGFRAME XSTACK, 34, STACK
        ARGFRAME IOVERLAY, 0, STATIC
        ARGFRAME DOVERLAY, 0, STATIC
        FUNCALL MT_AfDataRequestSrcRtg, MT_BuildAndSendZToolResponse
        LOCFRAME ISTACK, 0, STACK
        LOCFRAME PSTACK, 0, STACK
        LOCFRAME XSTACK, 34, STACK
        LOCFRAME IOVERLAY, 0, STATIC
        LOCFRAME DOVERLAY, 0, STATIC
        ARGFRAME ISTACK, 0, STACK
        ARGFRAME PSTACK, 0, STACK
        ARGFRAME XSTACK, 34, STACK
        ARGFRAME IOVERLAY, 0, STATIC
        ARGFRAME DOVERLAY, 0, STATIC
        REQUIRE ?V0
        REQUIRE ?V1
        REQUIRE ?V2
        REQUIRE ?V3
        REQUIRE ?V4
        REQUIRE ?V5
        REQUIRE ?V6
        REQUIRE ?V7
        REQUIRE ?V8
        REQUIRE ?V9
        REQUIRE ?V10
        REQUIRE ?V11
        MOV       A,#-0x14
        LCALL     ?BANKED_ENTER_XDATA
          CFI DPH0 load(1, XDATA, add(CFA_XSP16, literal(-1)))
          CFI DPL0 load(1, XDATA, add(CFA_XSP16, literal(-2)))
          CFI ?BRET_EXT load(1, XDATA, add(CFA_XSP16, literal(-3)))
          CFI ?RET_HIGH load(1, XDATA, add(CFA_XSP16, literal(-4)))
          CFI ?RET_LOW load(1, XDATA, add(CFA_XSP16, literal(-5)))
          CFI R7 load(1, XDATA, add(CFA_XSP16, literal(-6)))
          CFI V11 load(1, XDATA, add(CFA_XSP16, literal(-7)))
          CFI V10 load(1, XDATA, add(CFA_XSP16, literal(-8)))
          CFI V9 load(1, XDATA, add(CFA_XSP16, literal(-9)))
          CFI V8 load(1, XDATA, add(CFA_XSP16, literal(-10)))
          CFI V7 load(1, XDATA, add(CFA_XSP16, literal(-11)))
          CFI V6 load(1, XDATA, add(CFA_XSP16, literal(-12)))
          CFI V5 load(1, XDATA, add(CFA_XSP16, literal(-13)))
          CFI V4 load(1, XDATA, add(CFA_XSP16, literal(-14)))
          CFI V3 load(1, XDATA, add(CFA_XSP16, literal(-15)))
          CFI V2 load(1, XDATA, add(CFA_XSP16, literal(-16)))
          CFI V1 load(1, XDATA, add(CFA_XSP16, literal(-17)))
          CFI V0 load(1, XDATA, add(CFA_XSP16, literal(-18)))
          CFI VB load(1, XDATA, add(CFA_XSP16, literal(-19)))
          CFI R6 load(1, XDATA, add(CFA_XSP16, literal(-20)))
          CFI CFA_SP SP+0
          CFI CFA_XSP16 add(XSP16, 20)
        ; Saved register size: 20
        ; Auto size: 14
        MOV       A,#-0xe
        LCALL     ?ALLOC_XSTACK8
          CFI CFA_XSP16 add(XSP16, 34)
        LCALL     ?Subroutine29 & 0xFFFF
//  482   uint8 cmdId, dataLen = 0;
//  483   uint8 retValue = ZFailure;
//  484   endPointDesc_t *epDesc;
//  485   byte transId;
//  486   afAddrType_t dstAddr;
//  487   cId_t cId;
//  488   byte txOpts, radius, srcEP, relayCnt;
//  489   uint16 *pRelayList;
//  490   uint8 i;
//  491 
//  492   /* parse header */
//  493   cmdId = pBuf[MT_RPC_POS_CMD1];
??CrossCallReturnLabel_95:
        INC       DPTR
        MOVX      A,@DPTR
        MOV       ?V6,A
//  494   pBuf += MT_RPC_FRAME_HDR_SZ;
        MOV       A,R6
        ADD       A,#0x3
        MOV       R6,A
        JNC       ??MT_AfDataRequestSrcRtg_0
        INC       R7
//  495 
//  496   /* Destination address */
//  497   /* Initialize the panID field to zero to avoid inter-pan */
//  498   osal_memset( &dstAddr, 0, sizeof(afAddrType_t) );
??MT_AfDataRequestSrcRtg_0:
        ; Setup parameters for call to function osal_memset
        MOV       R4,#0xc
        MOV       R5,#0x0
        MOV       R1,#0x0
        MOV       A,#0x2
        LCALL     ?XSTACK_DISP101_8
        LCALL     `??osal_memset::?relay`; Banked call to: osal_memset
//  499   dstAddr.addrMode = afAddr16Bit;
        MOV       A,#0xa
        LCALL     ?XSTACK_DISP0_8
        MOV       A,#0x2
        MOVX      @DPTR,A
//  500   dstAddr.addr.shortAddr = osal_build_uint16( pBuf );
        ; Setup parameters for call to function osal_build_uint16
        MOV       A,R6
        MOV       R2,A
        MOV       A,R7
        MOV       R3,A
        LCALL     `??osal_build_uint16::?relay`; Banked call to: osal_build_uint16
        MOV       A,#0x2
        LCALL     ?XSTACK_DISP0_8
        LCALL     ?Subroutine26 & 0xFFFF
//  501   pBuf += 2;
//  502 
//  503   /* Destination endpoint */
//  504   dstAddr.endPoint = *pBuf++;
??CrossCallReturnLabel_42:
        PUSH      A
          CFI CFA_SP SP+-1
        MOV       A,#0xb
        LCALL     ?XSTACK_DISP0_8
        POP       A
          CFI CFA_SP SP+0
        LCALL     ?Subroutine28 & 0xFFFF
//  505 
//  506   /* Source endpoint */
//  507   srcEP = *pBuf++;
??CrossCallReturnLabel_45:
        MOV       R1,A
        MOV       A,R6
        ADD       A,#0x4
        MOV       R6,A
        JNC       ??MT_AfDataRequestSrcRtg_1
        INC       R7
//  508   epDesc = afFindEndPointDesc( srcEP );
??MT_AfDataRequestSrcRtg_1:
        ; Setup parameters for call to function afFindEndPointDesc
        LCALL     `??afFindEndPointDesc::?relay`; Banked call to: afFindEndPointDesc
        MOV       ?V2,R2
        MOV       ?V3,R3
//  509 
//  510   /* ClusterId */
//  511   cId = osal_build_uint16( pBuf );
        ; Setup parameters for call to function osal_build_uint16
        MOV       A,R6
        MOV       R2,A
        MOV       A,R7
        MOV       R3,A
        LCALL     `??osal_build_uint16::?relay`; Banked call to: osal_build_uint16
        MOV       ?V4,R2
        MOV       ?V5,R3
//  512   pBuf +=2;
//  513 
//  514   /* TransId */
//  515   transId = *pBuf++;
        MOV       DPL,R6
        MOV       DPH,R7
        INC       DPTR
        INC       DPTR
        MOVX      A,@DPTR
        PUSH      A
          CFI CFA_SP SP+-1
        MOV       A,#0x1
        LCALL     ?XSTACK_DISP0_8
        POP       A
          CFI CFA_SP SP+0
        LCALL     ?Subroutine28 & 0xFFFF
//  516 
//  517   /* TxOption */
//  518   txOpts = *pBuf++;
??CrossCallReturnLabel_46:
        MOV       ?V7,A
//  519 
//  520   /* Radius */
//  521   radius = *pBuf++;
        MOV       DPL,R6
        MOV       DPH,R7
        INC       DPTR
        LCALL     ?Subroutine13 & 0xFFFF
//  522 
//  523   /* Source route relay count */
//  524   relayCnt = *pBuf++;
??CrossCallReturnLabel_20:
        INC       DPTR
        MOVX      A,@DPTR
        MOV       ?V9,A
        MOV       A,R6
        ADD       A,#0x6
        MOV       R6,A
        JNC       ??MT_AfDataRequestSrcRtg_2
        INC       R7
//  525 
//  526   /* Convert the source route relay list */
//  527   if( (pRelayList = osal_mem_alloc( relayCnt * sizeof( uint16 ))) != NULL )
??MT_AfDataRequestSrcRtg_2:
        ; Setup parameters for call to function osal_mem_alloc
        MOV       R2,?V9
        MOV       A,R2
        ADD       A,R2
        MOV       R2,A
        CLR       A
        RLC       A
        MOV       R3,A
        LCALL     `??osal_mem_alloc::?relay`; Banked call to: osal_mem_alloc
        MOV       ?V0,R2
        MOV       ?V1,R3
        MOV       A,R2
        ORL       A,?V1
        JNZ       $+5
        LJMP      ??MT_AfDataRequestSrcRtg_3 & 0xFFFF
//  528   {
//  529     for( i = 0; i < relayCnt; i++ )
        MOV       ?V10,#0x0
        SJMP      ??MT_AfDataRequestSrcRtg_4
//  530     {
//  531       pRelayList[i] = osal_build_uint16( pBuf );
??MT_AfDataRequestSrcRtg_5:
        ; Setup parameters for call to function osal_build_uint16
        MOV       A,R6
        MOV       R2,A
        MOV       A,R7
        MOV       R3,A
        LCALL     `??osal_build_uint16::?relay`; Banked call to: osal_build_uint16
        MOV       R0,?V10
        MOV       A,R0
        ADD       A,R0
        MOV       R0,A
        CLR       A
        RLC       A
        MOV       R1,A
        MOV       A,?V0
        ADD       A,R0
        MOV       DPL,A
        MOV       A,?V1
        ADDC      A,R1
        MOV       DPH,A
        LCALL     ?Subroutine32 & 0xFFFF
//  532       pBuf += 2;
//  533     }
??CrossCallReturnLabel_54:
        JNC       ??MT_AfDataRequestSrcRtg_6
        INC       R7
??MT_AfDataRequestSrcRtg_6:
        INC       ?V10
??MT_AfDataRequestSrcRtg_4:
        MOV       A,?V10
        CLR       C
        SUBB      A,?V9
        JC        ??MT_AfDataRequestSrcRtg_5
//  534 
//  535     /* Data payload Length */
//  536     dataLen = *pBuf++;
        MOV       DPL,R6
        MOV       DPH,R7
        MOVX      A,@DPTR
        MOV       R2,A
        INC       DPTR
        MOV       R6,DPL
        MOV       R7,DPH
//  537 
//  538     if ( epDesc == NULL )
        MOV       A,?V2
        ORL       A,?V3
        JNZ       ??MT_AfDataRequestSrcRtg_7
//  539     {
//  540       retValue = afStatus_INVALID_PARAMETER;
        MOV       DPL,?XSP + 0
        MOV       DPH,?XSP + 1
        MOV       A,#0x2
        SJMP      ??MT_AfDataRequestSrcRtg_8
//  541     }
//  542     else
//  543     {
//  544       retValue = AF_DataRequestSrcRtg( &dstAddr, epDesc, cId, dataLen, pBuf,
//  545                                      &transId, txOpts, radius, relayCnt, pRelayList );
??MT_AfDataRequestSrcRtg_7:
        ; Setup parameters for call to function AF_DataRequestSrcRtg
        MOV       R0,#?V0
        LCALL     ?PUSH_XSTACK_I_TWO
          CFI CFA_XSP16 add(XSP16, 36)
        MOV       R0,#?V9
        LCALL     ?PUSH_XSTACK_I_ONE
          CFI CFA_XSP16 add(XSP16, 37)
        MOV       R0,#?V8
        LCALL     ?PUSH_XSTACK_I_ONE
          CFI CFA_XSP16 add(XSP16, 38)
        MOV       A,#0x5
        LCALL     ?XSTACK_DISP100_8
        MOV       ?V8,R0
        MOV       ?V9,R1
        MOV       R0,#?V8
        LCALL     ?PUSH_XSTACK_I_TWO
          CFI CFA_XSP16 add(XSP16, 40)
        MOV       ?V8,R6
        MOV       ?V9,R7
        MOV       R0,#?V8
        LCALL     ?PUSH_XSTACK_I_TWO
          CFI CFA_XSP16 add(XSP16, 42)
        MOV       A,R2
        MOV       ?V8,A
        MOV       ?V9,#0x0
        MOV       R0,#?V8
        LCALL     ?PUSH_XSTACK_I_TWO
          CFI CFA_XSP16 add(XSP16, 44)
        MOV       R0,#?V4
        LCALL     ?PUSH_XSTACK_I_TWO
          CFI CFA_XSP16 add(XSP16, 46)
        MOV       R1,?V7
        MOV       R4,?V2
        MOV       R5,?V3
        MOV       A,#0xe
        LCALL     ?XSTACK_DISP101_8
        LCALL     `??AF_DataRequestSrcRtg::?relay`; Banked call to: AF_DataRequestSrcRtg
        MOV       A,#0xc
        LCALL     ?DEALLOC_XSTACK8
          CFI CFA_XSP16 add(XSP16, 34)
        MOV       A,R1
        MOV       DPL,?XSP + 0
        MOV       DPH,?XSP + 1
??MT_AfDataRequestSrcRtg_8:
        MOVX      @DPTR,A
//  546     }
//  547 
//  548     /* Free the memory allocated */
//  549     osal_mem_free( pRelayList );
        ; Setup parameters for call to function osal_mem_free
        MOV       R2,?V0
        MOV       R3,?V1
        LCALL     `??osal_mem_free::?relay`; Banked call to: osal_mem_free
        SJMP      ??MT_AfDataRequestSrcRtg_9
//  550   }
//  551   else
//  552   {
//  553     retValue = afStatus_MEM_FAIL;
??MT_AfDataRequestSrcRtg_3:
        MOV       DPL,?XSP + 0
        MOV       DPH,?XSP + 1
        MOV       A,#0x10
        MOVX      @DPTR,A
//  554   }
//  555 
//  556 
//  557   /* Build and send back the response */
//  558   MT_BuildAndSendZToolResponse(((uint8)MT_RPC_CMD_SRSP | (uint8)MT_RPC_SYS_AF), cmdId, 1, &retValue);
??MT_AfDataRequestSrcRtg_9:
        ; Setup parameters for call to function MT_BuildAndSendZToolResponse
        MOV       R4,?XSP + 0
        MOV       R5,?XSP + 1
        MOV       R3,#0x1
        MOV       R2,?V6
        MOV       R1,#0x64
        LCALL     `??MT_BuildAndSendZToolResponse::?relay`; Banked call to: MT_BuildAndSendZToolResponse
//  559 }
        MOV       A,#0xe
        LCALL     ?DEALLOC_XSTACK8
          CFI CFA_XSP16 add(XSP16, 20)
        MOV       R7,#0xc
        LJMP      ?BANKED_LEAVE_XDATA
          CFI EndBlock cfiBlock46

        RSEG BANKED_CODE:HUGECODE:NOROOT(0)
?Subroutine32:
          CFI Block cfiCond47 Using cfiCommon0
          CFI Function MT_AfDataRequest
          CFI Conditional ??CrossCallReturnLabel_53
          CFI R6 load(1, XDATA, add(CFA_XSP16, literal(-21)))
          CFI VB load(1, XDATA, add(CFA_XSP16, literal(-20)))
          CFI V0 load(1, XDATA, add(CFA_XSP16, literal(-19)))
          CFI V1 load(1, XDATA, add(CFA_XSP16, literal(-18)))
          CFI V2 load(1, XDATA, add(CFA_XSP16, literal(-17)))
          CFI V3 load(1, XDATA, add(CFA_XSP16, literal(-16)))
          CFI V4 load(1, XDATA, add(CFA_XSP16, literal(-15)))
          CFI V5 load(1, XDATA, add(CFA_XSP16, literal(-14)))
          CFI V6 load(1, XDATA, add(CFA_XSP16, literal(-13)))
          CFI V7 load(1, XDATA, add(CFA_XSP16, literal(-12)))
          CFI V8 load(1, XDATA, add(CFA_XSP16, literal(-11)))
          CFI V9 load(1, XDATA, add(CFA_XSP16, literal(-10)))
          CFI V10 load(1, XDATA, add(CFA_XSP16, literal(-9)))
          CFI V11 load(1, XDATA, add(CFA_XSP16, literal(-8)))
          CFI V12 load(1, XDATA, add(CFA_XSP16, literal(-7)))
          CFI R7 load(1, XDATA, add(CFA_XSP16, literal(-6)))
          CFI ?RET_LOW load(1, XDATA, add(CFA_XSP16, literal(-5)))
          CFI ?RET_HIGH load(1, XDATA, add(CFA_XSP16, literal(-4)))
          CFI ?BRET_EXT load(1, XDATA, add(CFA_XSP16, literal(-3)))
          CFI DPL0 load(1, XDATA, add(CFA_XSP16, literal(-2)))
          CFI DPH0 load(1, XDATA, add(CFA_XSP16, literal(-1)))
          CFI CFA_SP SP+-2
          CFI CFA_XSP16 add(XSP16, 35)
          CFI Block cfiCond48 Using cfiCommon0
          CFI (cfiCond48) Function MT_AfDataRequestSrcRtg
          CFI (cfiCond48) Conditional ??CrossCallReturnLabel_54
          CFI (cfiCond48) R6 load(1, XDATA, add(CFA_XSP16, literal(-20)))
          CFI (cfiCond48) VB load(1, XDATA, add(CFA_XSP16, literal(-19)))
          CFI (cfiCond48) V0 load(1, XDATA, add(CFA_XSP16, literal(-18)))
          CFI (cfiCond48) V1 load(1, XDATA, add(CFA_XSP16, literal(-17)))
          CFI (cfiCond48) V2 load(1, XDATA, add(CFA_XSP16, literal(-16)))
          CFI (cfiCond48) V3 load(1, XDATA, add(CFA_XSP16, literal(-15)))
          CFI (cfiCond48) V4 load(1, XDATA, add(CFA_XSP16, literal(-14)))
          CFI (cfiCond48) V5 load(1, XDATA, add(CFA_XSP16, literal(-13)))
          CFI (cfiCond48) V6 load(1, XDATA, add(CFA_XSP16, literal(-12)))
          CFI (cfiCond48) V7 load(1, XDATA, add(CFA_XSP16, literal(-11)))
          CFI (cfiCond48) V8 load(1, XDATA, add(CFA_XSP16, literal(-10)))
          CFI (cfiCond48) V9 load(1, XDATA, add(CFA_XSP16, literal(-9)))
          CFI (cfiCond48) V10 load(1, XDATA, add(CFA_XSP16, literal(-8)))
          CFI (cfiCond48) V11 load(1, XDATA, add(CFA_XSP16, literal(-7)))
          CFI (cfiCond48) R7 load(1, XDATA, add(CFA_XSP16, literal(-6)))
          CFI (cfiCond48) ?RET_LOW load(1, XDATA, add(CFA_XSP16, literal(-5)))
          CFI (cfiCond48) ?RET_HIGH load(1, XDATA, add(CFA_XSP16, literal(-4)))
          CFI (cfiCond48) ?BRET_EXT load(1, XDATA, add(CFA_XSP16, literal(-3)))
          CFI (cfiCond48) DPL0 load(1, XDATA, add(CFA_XSP16, literal(-2)))
          CFI (cfiCond48) DPH0 load(1, XDATA, add(CFA_XSP16, literal(-1)))
          CFI (cfiCond48) CFA_SP SP+-2
          CFI (cfiCond48) CFA_XSP16 add(XSP16, 34)
          CFI Block cfiPicker49 Using cfiCommon1
          CFI (cfiPicker49) NoFunction
          CFI (cfiPicker49) Picker
        MOV       A,R2
        MOVX      @DPTR,A
        INC       DPTR
        MOV       A,R3
        MOVX      @DPTR,A
        MOV       A,R6
        ADD       A,#0x2
        MOV       R6,A
        RET
          CFI EndBlock cfiCond47
          CFI EndBlock cfiCond48
          CFI EndBlock cfiPicker49

        RSEG BANKED_CODE:HUGECODE:NOROOT(0)
?Subroutine28:
          CFI Block cfiCond50 Using cfiCommon0
          CFI Function MT_AfDataRequestSrcRtg
          CFI Conditional ??CrossCallReturnLabel_45
          CFI R6 load(1, XDATA, add(CFA_XSP16, literal(-20)))
          CFI VB load(1, XDATA, add(CFA_XSP16, literal(-19)))
          CFI V0 load(1, XDATA, add(CFA_XSP16, literal(-18)))
          CFI V1 load(1, XDATA, add(CFA_XSP16, literal(-17)))
          CFI V2 load(1, XDATA, add(CFA_XSP16, literal(-16)))
          CFI V3 load(1, XDATA, add(CFA_XSP16, literal(-15)))
          CFI V4 load(1, XDATA, add(CFA_XSP16, literal(-14)))
          CFI V5 load(1, XDATA, add(CFA_XSP16, literal(-13)))
          CFI V6 load(1, XDATA, add(CFA_XSP16, literal(-12)))
          CFI V7 load(1, XDATA, add(CFA_XSP16, literal(-11)))
          CFI V8 load(1, XDATA, add(CFA_XSP16, literal(-10)))
          CFI V9 load(1, XDATA, add(CFA_XSP16, literal(-9)))
          CFI V10 load(1, XDATA, add(CFA_XSP16, literal(-8)))
          CFI V11 load(1, XDATA, add(CFA_XSP16, literal(-7)))
          CFI R7 load(1, XDATA, add(CFA_XSP16, literal(-6)))
          CFI ?RET_LOW load(1, XDATA, add(CFA_XSP16, literal(-5)))
          CFI ?RET_HIGH load(1, XDATA, add(CFA_XSP16, literal(-4)))
          CFI ?BRET_EXT load(1, XDATA, add(CFA_XSP16, literal(-3)))
          CFI DPL0 load(1, XDATA, add(CFA_XSP16, literal(-2)))
          CFI DPH0 load(1, XDATA, add(CFA_XSP16, literal(-1)))
          CFI CFA_SP SP+-2
          CFI CFA_XSP16 add(XSP16, 34)
          CFI Block cfiCond51 Using cfiCommon0
          CFI (cfiCond51) Function MT_AfDataRequestSrcRtg
          CFI (cfiCond51) Conditional ??CrossCallReturnLabel_46
          CFI (cfiCond51) R6 load(1, XDATA, add(CFA_XSP16, literal(-20)))
          CFI (cfiCond51) VB load(1, XDATA, add(CFA_XSP16, literal(-19)))
          CFI (cfiCond51) V0 load(1, XDATA, add(CFA_XSP16, literal(-18)))
          CFI (cfiCond51) V1 load(1, XDATA, add(CFA_XSP16, literal(-17)))
          CFI (cfiCond51) V2 load(1, XDATA, add(CFA_XSP16, literal(-16)))
          CFI (cfiCond51) V3 load(1, XDATA, add(CFA_XSP16, literal(-15)))
          CFI (cfiCond51) V4 load(1, XDATA, add(CFA_XSP16, literal(-14)))
          CFI (cfiCond51) V5 load(1, XDATA, add(CFA_XSP16, literal(-13)))
          CFI (cfiCond51) V6 load(1, XDATA, add(CFA_XSP16, literal(-12)))
          CFI (cfiCond51) V7 load(1, XDATA, add(CFA_XSP16, literal(-11)))
          CFI (cfiCond51) V8 load(1, XDATA, add(CFA_XSP16, literal(-10)))
          CFI (cfiCond51) V9 load(1, XDATA, add(CFA_XSP16, literal(-9)))
          CFI (cfiCond51) V10 load(1, XDATA, add(CFA_XSP16, literal(-8)))
          CFI (cfiCond51) V11 load(1, XDATA, add(CFA_XSP16, literal(-7)))
          CFI (cfiCond51) R7 load(1, XDATA, add(CFA_XSP16, literal(-6)))
          CFI (cfiCond51) ?RET_LOW load(1, XDATA, add(CFA_XSP16, literal(-5)))
          CFI (cfiCond51) ?RET_HIGH load(1, XDATA, add(CFA_XSP16, literal(-4)))
          CFI (cfiCond51) ?BRET_EXT load(1, XDATA, add(CFA_XSP16, literal(-3)))
          CFI (cfiCond51) DPL0 load(1, XDATA, add(CFA_XSP16, literal(-2)))
          CFI (cfiCond51) DPH0 load(1, XDATA, add(CFA_XSP16, literal(-1)))
          CFI (cfiCond51) CFA_SP SP+-2
          CFI (cfiCond51) CFA_XSP16 add(XSP16, 34)
          CFI Block cfiPicker52 Using cfiCommon1
          CFI (cfiPicker52) NoFunction
          CFI (cfiPicker52) Picker
        LCALL     ?Subroutine48 & 0xFFFF
??CrossCallReturnLabel_99:
        INC       DPTR
        INC       DPTR
        MOVX      A,@DPTR
        RET
          CFI EndBlock cfiCond50
          CFI EndBlock cfiCond51
          CFI EndBlock cfiPicker52

        RSEG BANKED_CODE:HUGECODE:NOROOT(0)
?Subroutine26:
          CFI Block cfiCond53 Using cfiCommon0
          CFI Function MT_AfDataRequest
          CFI Conditional ??CrossCallReturnLabel_41
          CFI R6 load(1, XDATA, add(CFA_XSP16, literal(-21)))
          CFI VB load(1, XDATA, add(CFA_XSP16, literal(-20)))
          CFI V0 load(1, XDATA, add(CFA_XSP16, literal(-19)))
          CFI V1 load(1, XDATA, add(CFA_XSP16, literal(-18)))
          CFI V2 load(1, XDATA, add(CFA_XSP16, literal(-17)))
          CFI V3 load(1, XDATA, add(CFA_XSP16, literal(-16)))
          CFI V4 load(1, XDATA, add(CFA_XSP16, literal(-15)))
          CFI V5 load(1, XDATA, add(CFA_XSP16, literal(-14)))
          CFI V6 load(1, XDATA, add(CFA_XSP16, literal(-13)))
          CFI V7 load(1, XDATA, add(CFA_XSP16, literal(-12)))
          CFI V8 load(1, XDATA, add(CFA_XSP16, literal(-11)))
          CFI V9 load(1, XDATA, add(CFA_XSP16, literal(-10)))
          CFI V10 load(1, XDATA, add(CFA_XSP16, literal(-9)))
          CFI V11 load(1, XDATA, add(CFA_XSP16, literal(-8)))
          CFI V12 load(1, XDATA, add(CFA_XSP16, literal(-7)))
          CFI R7 load(1, XDATA, add(CFA_XSP16, literal(-6)))
          CFI ?RET_LOW load(1, XDATA, add(CFA_XSP16, literal(-5)))
          CFI ?RET_HIGH load(1, XDATA, add(CFA_XSP16, literal(-4)))
          CFI ?BRET_EXT load(1, XDATA, add(CFA_XSP16, literal(-3)))
          CFI DPL0 load(1, XDATA, add(CFA_XSP16, literal(-2)))
          CFI DPH0 load(1, XDATA, add(CFA_XSP16, literal(-1)))
          CFI CFA_SP SP+-2
          CFI CFA_XSP16 add(XSP16, 35)
          CFI Block cfiCond54 Using cfiCommon0
          CFI (cfiCond54) Function MT_AfDataRequestSrcRtg
          CFI (cfiCond54) Conditional ??CrossCallReturnLabel_42
          CFI (cfiCond54) R6 load(1, XDATA, add(CFA_XSP16, literal(-20)))
          CFI (cfiCond54) VB load(1, XDATA, add(CFA_XSP16, literal(-19)))
          CFI (cfiCond54) V0 load(1, XDATA, add(CFA_XSP16, literal(-18)))
          CFI (cfiCond54) V1 load(1, XDATA, add(CFA_XSP16, literal(-17)))
          CFI (cfiCond54) V2 load(1, XDATA, add(CFA_XSP16, literal(-16)))
          CFI (cfiCond54) V3 load(1, XDATA, add(CFA_XSP16, literal(-15)))
          CFI (cfiCond54) V4 load(1, XDATA, add(CFA_XSP16, literal(-14)))
          CFI (cfiCond54) V5 load(1, XDATA, add(CFA_XSP16, literal(-13)))
          CFI (cfiCond54) V6 load(1, XDATA, add(CFA_XSP16, literal(-12)))
          CFI (cfiCond54) V7 load(1, XDATA, add(CFA_XSP16, literal(-11)))
          CFI (cfiCond54) V8 load(1, XDATA, add(CFA_XSP16, literal(-10)))
          CFI (cfiCond54) V9 load(1, XDATA, add(CFA_XSP16, literal(-9)))
          CFI (cfiCond54) V10 load(1, XDATA, add(CFA_XSP16, literal(-8)))
          CFI (cfiCond54) V11 load(1, XDATA, add(CFA_XSP16, literal(-7)))
          CFI (cfiCond54) R7 load(1, XDATA, add(CFA_XSP16, literal(-6)))
          CFI (cfiCond54) ?RET_LOW load(1, XDATA, add(CFA_XSP16, literal(-5)))
          CFI (cfiCond54) ?RET_HIGH load(1, XDATA, add(CFA_XSP16, literal(-4)))
          CFI (cfiCond54) ?BRET_EXT load(1, XDATA, add(CFA_XSP16, literal(-3)))
          CFI (cfiCond54) DPL0 load(1, XDATA, add(CFA_XSP16, literal(-2)))
          CFI (cfiCond54) DPH0 load(1, XDATA, add(CFA_XSP16, literal(-1)))
          CFI (cfiCond54) CFA_SP SP+-2
          CFI (cfiCond54) CFA_XSP16 add(XSP16, 34)
          CFI Block cfiPicker55 Using cfiCommon1
          CFI (cfiPicker55) NoFunction
          CFI (cfiPicker55) Picker
        MOV       A,R2
        MOVX      @DPTR,A
        INC       DPTR
        MOV       A,R3
        LCALL     ?Subroutine42 & 0xFFFF
??CrossCallReturnLabel_80:
        RET
          CFI EndBlock cfiCond53
          CFI EndBlock cfiCond54
          CFI EndBlock cfiPicker55

        RSEG BANKED_CODE:HUGECODE:NOROOT(0)
?Subroutine42:
          CFI Block cfiCond56 Using cfiCommon0
          CFI Function MT_AfCommandProcessing
          CFI Conditional ??CrossCallReturnLabel_79, ??CrossCallReturnLabel_43
          CFI R6 load(1, XDATA, add(CFA_XSP16, literal(-14)))
          CFI VB load(1, XDATA, add(CFA_XSP16, literal(-13)))
          CFI V0 load(1, XDATA, add(CFA_XSP16, literal(-12)))
          CFI V1 load(1, XDATA, add(CFA_XSP16, literal(-11)))
          CFI V2 load(1, XDATA, add(CFA_XSP16, literal(-10)))
          CFI V3 load(1, XDATA, add(CFA_XSP16, literal(-9)))
          CFI V4 load(1, XDATA, add(CFA_XSP16, literal(-8)))
          CFI V5 load(1, XDATA, add(CFA_XSP16, literal(-7)))
          CFI R7 load(1, XDATA, add(CFA_XSP16, literal(-6)))
          CFI ?RET_LOW load(1, XDATA, add(CFA_XSP16, literal(-5)))
          CFI ?RET_HIGH load(1, XDATA, add(CFA_XSP16, literal(-4)))
          CFI ?BRET_EXT load(1, XDATA, add(CFA_XSP16, literal(-3)))
          CFI DPL0 load(1, XDATA, add(CFA_XSP16, literal(-2)))
          CFI DPH0 load(1, XDATA, add(CFA_XSP16, literal(-1)))
          CFI CFA_SP SP+-4
          CFI CFA_XSP16 add(XSP16, 20)
          CFI Block cfiCond57 Using cfiCommon0
          CFI (cfiCond57) Function MT_AfCommandProcessing
          CFI (cfiCond57) Conditional ??CrossCallReturnLabel_79, ??CrossCallReturnLabel_44
          CFI (cfiCond57) R6 load(1, XDATA, add(CFA_XSP16, literal(-14)))
          CFI (cfiCond57) VB load(1, XDATA, add(CFA_XSP16, literal(-13)))
          CFI (cfiCond57) V0 load(1, XDATA, add(CFA_XSP16, literal(-12)))
          CFI (cfiCond57) V1 load(1, XDATA, add(CFA_XSP16, literal(-11)))
          CFI (cfiCond57) V2 load(1, XDATA, add(CFA_XSP16, literal(-10)))
          CFI (cfiCond57) V3 load(1, XDATA, add(CFA_XSP16, literal(-9)))
          CFI (cfiCond57) V4 load(1, XDATA, add(CFA_XSP16, literal(-8)))
          CFI (cfiCond57) V5 load(1, XDATA, add(CFA_XSP16, literal(-7)))
          CFI (cfiCond57) R7 load(1, XDATA, add(CFA_XSP16, literal(-6)))
          CFI (cfiCond57) ?RET_LOW load(1, XDATA, add(CFA_XSP16, literal(-5)))
          CFI (cfiCond57) ?RET_HIGH load(1, XDATA, add(CFA_XSP16, literal(-4)))
          CFI (cfiCond57) ?BRET_EXT load(1, XDATA, add(CFA_XSP16, literal(-3)))
          CFI (cfiCond57) DPL0 load(1, XDATA, add(CFA_XSP16, literal(-2)))
          CFI (cfiCond57) DPH0 load(1, XDATA, add(CFA_XSP16, literal(-1)))
          CFI (cfiCond57) CFA_SP SP+-4
          CFI (cfiCond57) CFA_XSP16 add(XSP16, 20)
          CFI Block cfiCond58 Using cfiCommon0
          CFI (cfiCond58) Function MT_AfDataRequest
          CFI (cfiCond58) Conditional ??CrossCallReturnLabel_80, ??CrossCallReturnLabel_41
          CFI (cfiCond58) R6 load(1, XDATA, add(CFA_XSP16, literal(-21)))
          CFI (cfiCond58) VB load(1, XDATA, add(CFA_XSP16, literal(-20)))
          CFI (cfiCond58) V0 load(1, XDATA, add(CFA_XSP16, literal(-19)))
          CFI (cfiCond58) V1 load(1, XDATA, add(CFA_XSP16, literal(-18)))
          CFI (cfiCond58) V2 load(1, XDATA, add(CFA_XSP16, literal(-17)))
          CFI (cfiCond58) V3 load(1, XDATA, add(CFA_XSP16, literal(-16)))
          CFI (cfiCond58) V4 load(1, XDATA, add(CFA_XSP16, literal(-15)))
          CFI (cfiCond58) V5 load(1, XDATA, add(CFA_XSP16, literal(-14)))
          CFI (cfiCond58) V6 load(1, XDATA, add(CFA_XSP16, literal(-13)))
          CFI (cfiCond58) V7 load(1, XDATA, add(CFA_XSP16, literal(-12)))
          CFI (cfiCond58) V8 load(1, XDATA, add(CFA_XSP16, literal(-11)))
          CFI (cfiCond58) V9 load(1, XDATA, add(CFA_XSP16, literal(-10)))
          CFI (cfiCond58) V10 load(1, XDATA, add(CFA_XSP16, literal(-9)))
          CFI (cfiCond58) V11 load(1, XDATA, add(CFA_XSP16, literal(-8)))
          CFI (cfiCond58) V12 load(1, XDATA, add(CFA_XSP16, literal(-7)))
          CFI (cfiCond58) R7 load(1, XDATA, add(CFA_XSP16, literal(-6)))
          CFI (cfiCond58) ?RET_LOW load(1, XDATA, add(CFA_XSP16, literal(-5)))
          CFI (cfiCond58) ?RET_HIGH load(1, XDATA, add(CFA_XSP16, literal(-4)))
          CFI (cfiCond58) ?BRET_EXT load(1, XDATA, add(CFA_XSP16, literal(-3)))
          CFI (cfiCond58) DPL0 load(1, XDATA, add(CFA_XSP16, literal(-2)))
          CFI (cfiCond58) DPH0 load(1, XDATA, add(CFA_XSP16, literal(-1)))
          CFI (cfiCond58) CFA_SP SP+-4
          CFI (cfiCond58) CFA_XSP16 add(XSP16, 35)
          CFI Block cfiCond59 Using cfiCommon0
          CFI (cfiCond59) Function MT_AfDataRequestSrcRtg
          CFI (cfiCond59) Conditional ??CrossCallReturnLabel_80, ??CrossCallReturnLabel_42
          CFI (cfiCond59) R6 load(1, XDATA, add(CFA_XSP16, literal(-20)))
          CFI (cfiCond59) VB load(1, XDATA, add(CFA_XSP16, literal(-19)))
          CFI (cfiCond59) V0 load(1, XDATA, add(CFA_XSP16, literal(-18)))
          CFI (cfiCond59) V1 load(1, XDATA, add(CFA_XSP16, literal(-17)))
          CFI (cfiCond59) V2 load(1, XDATA, add(CFA_XSP16, literal(-16)))
          CFI (cfiCond59) V3 load(1, XDATA, add(CFA_XSP16, literal(-15)))
          CFI (cfiCond59) V4 load(1, XDATA, add(CFA_XSP16, literal(-14)))
          CFI (cfiCond59) V5 load(1, XDATA, add(CFA_XSP16, literal(-13)))
          CFI (cfiCond59) V6 load(1, XDATA, add(CFA_XSP16, literal(-12)))
          CFI (cfiCond59) V7 load(1, XDATA, add(CFA_XSP16, literal(-11)))
          CFI (cfiCond59) V8 load(1, XDATA, add(CFA_XSP16, literal(-10)))
          CFI (cfiCond59) V9 load(1, XDATA, add(CFA_XSP16, literal(-9)))
          CFI (cfiCond59) V10 load(1, XDATA, add(CFA_XSP16, literal(-8)))
          CFI (cfiCond59) V11 load(1, XDATA, add(CFA_XSP16, literal(-7)))
          CFI (cfiCond59) R7 load(1, XDATA, add(CFA_XSP16, literal(-6)))
          CFI (cfiCond59) ?RET_LOW load(1, XDATA, add(CFA_XSP16, literal(-5)))
          CFI (cfiCond59) ?RET_HIGH load(1, XDATA, add(CFA_XSP16, literal(-4)))
          CFI (cfiCond59) ?BRET_EXT load(1, XDATA, add(CFA_XSP16, literal(-3)))
          CFI (cfiCond59) DPL0 load(1, XDATA, add(CFA_XSP16, literal(-2)))
          CFI (cfiCond59) DPH0 load(1, XDATA, add(CFA_XSP16, literal(-1)))
          CFI (cfiCond59) CFA_SP SP+-4
          CFI (cfiCond59) CFA_XSP16 add(XSP16, 34)
          CFI Block cfiPicker60 Using cfiCommon1
          CFI (cfiPicker60) NoFunction
          CFI (cfiPicker60) Picker
        LCALL     ?Subroutine48 & 0xFFFF
??CrossCallReturnLabel_100:
        INC       DPTR
        MOVX      A,@DPTR
        RET
          CFI EndBlock cfiCond56
          CFI EndBlock cfiCond57
          CFI EndBlock cfiCond58
          CFI EndBlock cfiCond59
          CFI EndBlock cfiPicker60

        RSEG BANKED_CODE:HUGECODE:NOROOT(0)
?Subroutine13:
          CFI Block cfiCond61 Using cfiCommon0
          CFI Function MT_AfDataRequest
          CFI Conditional ??CrossCallReturnLabel_19
          CFI R6 load(1, XDATA, add(CFA_XSP16, literal(-21)))
          CFI VB load(1, XDATA, add(CFA_XSP16, literal(-20)))
          CFI V0 load(1, XDATA, add(CFA_XSP16, literal(-19)))
          CFI V1 load(1, XDATA, add(CFA_XSP16, literal(-18)))
          CFI V2 load(1, XDATA, add(CFA_XSP16, literal(-17)))
          CFI V3 load(1, XDATA, add(CFA_XSP16, literal(-16)))
          CFI V4 load(1, XDATA, add(CFA_XSP16, literal(-15)))
          CFI V5 load(1, XDATA, add(CFA_XSP16, literal(-14)))
          CFI V6 load(1, XDATA, add(CFA_XSP16, literal(-13)))
          CFI V7 load(1, XDATA, add(CFA_XSP16, literal(-12)))
          CFI V8 load(1, XDATA, add(CFA_XSP16, literal(-11)))
          CFI V9 load(1, XDATA, add(CFA_XSP16, literal(-10)))
          CFI V10 load(1, XDATA, add(CFA_XSP16, literal(-9)))
          CFI V11 load(1, XDATA, add(CFA_XSP16, literal(-8)))
          CFI V12 load(1, XDATA, add(CFA_XSP16, literal(-7)))
          CFI R7 load(1, XDATA, add(CFA_XSP16, literal(-6)))
          CFI ?RET_LOW load(1, XDATA, add(CFA_XSP16, literal(-5)))
          CFI ?RET_HIGH load(1, XDATA, add(CFA_XSP16, literal(-4)))
          CFI ?BRET_EXT load(1, XDATA, add(CFA_XSP16, literal(-3)))
          CFI DPL0 load(1, XDATA, add(CFA_XSP16, literal(-2)))
          CFI DPH0 load(1, XDATA, add(CFA_XSP16, literal(-1)))
          CFI CFA_SP SP+-2
          CFI CFA_XSP16 add(XSP16, 35)
          CFI Block cfiCond62 Using cfiCommon0
          CFI (cfiCond62) Function MT_AfDataRequestSrcRtg
          CFI (cfiCond62) Conditional ??CrossCallReturnLabel_20
          CFI (cfiCond62) R6 load(1, XDATA, add(CFA_XSP16, literal(-20)))
          CFI (cfiCond62) VB load(1, XDATA, add(CFA_XSP16, literal(-19)))
          CFI (cfiCond62) V0 load(1, XDATA, add(CFA_XSP16, literal(-18)))
          CFI (cfiCond62) V1 load(1, XDATA, add(CFA_XSP16, literal(-17)))
          CFI (cfiCond62) V2 load(1, XDATA, add(CFA_XSP16, literal(-16)))
          CFI (cfiCond62) V3 load(1, XDATA, add(CFA_XSP16, literal(-15)))
          CFI (cfiCond62) V4 load(1, XDATA, add(CFA_XSP16, literal(-14)))
          CFI (cfiCond62) V5 load(1, XDATA, add(CFA_XSP16, literal(-13)))
          CFI (cfiCond62) V6 load(1, XDATA, add(CFA_XSP16, literal(-12)))
          CFI (cfiCond62) V7 load(1, XDATA, add(CFA_XSP16, literal(-11)))
          CFI (cfiCond62) V8 load(1, XDATA, add(CFA_XSP16, literal(-10)))
          CFI (cfiCond62) V9 load(1, XDATA, add(CFA_XSP16, literal(-9)))
          CFI (cfiCond62) V10 load(1, XDATA, add(CFA_XSP16, literal(-8)))
          CFI (cfiCond62) V11 load(1, XDATA, add(CFA_XSP16, literal(-7)))
          CFI (cfiCond62) R7 load(1, XDATA, add(CFA_XSP16, literal(-6)))
          CFI (cfiCond62) ?RET_LOW load(1, XDATA, add(CFA_XSP16, literal(-5)))
          CFI (cfiCond62) ?RET_HIGH load(1, XDATA, add(CFA_XSP16, literal(-4)))
          CFI (cfiCond62) ?BRET_EXT load(1, XDATA, add(CFA_XSP16, literal(-3)))
          CFI (cfiCond62) DPL0 load(1, XDATA, add(CFA_XSP16, literal(-2)))
          CFI (cfiCond62) DPH0 load(1, XDATA, add(CFA_XSP16, literal(-1)))
          CFI (cfiCond62) CFA_SP SP+-2
          CFI (cfiCond62) CFA_XSP16 add(XSP16, 34)
          CFI Block cfiPicker63 Using cfiCommon1
          CFI (cfiPicker63) NoFunction
          CFI (cfiPicker63) Picker
        INC       DPTR
        INC       DPTR
        INC       DPTR
        MOVX      A,@DPTR
        MOV       ?V8,A
        MOV       DPL,R6
        MOV       DPH,R7
        INC       DPTR
        INC       DPTR
        INC       DPTR
        INC       DPTR
        RET
          CFI EndBlock cfiCond61
          CFI EndBlock cfiCond62
          CFI EndBlock cfiPicker63
//  560 #endif
//  561 
//  562 #if defined INTER_PAN
//  563 /***************************************************************************************************
//  564  * @fn      MT_AfInterPanCtl
//  565  *
//  566  * @brief   Process the AF Inter Pan control command.
//  567  *
//  568  * @param   pBuf - pointer to the received buffer
//  569  *
//  570  * @return  none
//  571  ***************************************************************************************************/
//  572 static void MT_AfInterPanCtl(uint8 *pBuf)
//  573 {
//  574   uint8 cmd, rtrn;
//  575   uint16 panId;
//  576   endPointDesc_t *pEP;
//  577 
//  578   cmd = pBuf[MT_RPC_POS_CMD1];
//  579   pBuf += MT_RPC_FRAME_HDR_SZ;
//  580 
//  581   switch (*pBuf++)  // Inter-pan request parameter.
//  582   {
//  583   case InterPanClr:
//  584     rtrn = StubAPS_SetIntraPanChannel();           // Switch channel back to the NIB channel.
//  585     break;
//  586 
//  587   case InterPanSet:
//  588     rtrn = StubAPS_SetInterPanChannel(*pBuf);      // Set channel for inter-pan communication.
//  589     break;
//  590 
//  591   case InterPanReg:
//  592     if ((pEP = afFindEndPointDesc(*pBuf)))
//  593     {
//  594       StubAPS_RegisterApp(pEP);
//  595       rtrn = SUCCESS;
//  596     }
//  597     else
//  598     {
//  599       rtrn = FAILURE;
//  600     }
//  601     break;
//  602 
//  603   case InterPanChk:
//  604     panId = osal_build_uint16( pBuf );
//  605     rtrn = (StubAPS_InterPan(panId, pBuf[2])) ? ZSuccess : ZFailure;
//  606     break;
//  607 
//  608   default:
//  609     rtrn = afStatus_INVALID_PARAMETER;
//  610     break;
//  611   }
//  612 
//  613   MT_BuildAndSendZToolResponse(((uint8)MT_RPC_CMD_SRSP | (uint8)MT_RPC_SYS_AF), cmd, 1, &rtrn);
//  614 }
//  615 #endif
//  616 
//  617 /***************************************************************************************************
//  618  * @fn      MT_AfDataConfirm
//  619  *
//  620  * @brief   Process
//  621  *
//  622  * @param   pBuf - pointer to the received buffer
//  623  *
//  624  * @return  none
//  625  ***************************************************************************************************/

        RSEG BANKED_CODE:HUGECODE:NOROOT(0)
//  626 void MT_AfDataConfirm(afDataConfirm_t *pMsg)
MT_AfDataConfirm:
          CFI Block cfiBlock64 Using cfiCommon0
          CFI Function MT_AfDataConfirm
        CODE
//  627 {
        FUNCALL MT_AfDataConfirm, MT_BuildAndSendZToolResponse
        LOCFRAME ISTACK, 2, STACK
        LOCFRAME PSTACK, 0, STACK
        LOCFRAME XSTACK, 3, STACK
        LOCFRAME IOVERLAY, 0, STATIC
        LOCFRAME DOVERLAY, 0, STATIC
        ARGFRAME ISTACK, 2, STACK
        ARGFRAME PSTACK, 0, STACK
        ARGFRAME XSTACK, 3, STACK
        ARGFRAME IOVERLAY, 0, STATIC
        ARGFRAME DOVERLAY, 0, STATIC
        PUSH      DPL
          CFI DPL0 Frame(CFA_SP, 4)
          CFI CFA_SP SP+-4
        PUSH      DPH
          CFI DPH0 Frame(CFA_SP, 5)
          CFI CFA_SP SP+-5
        ; Saved register size: 2
        ; Auto size: 3
        MOV       A,#-0x3
        LCALL     ?ALLOC_XSTACK8
          CFI CFA_XSP16 add(XSP16, 3)
//  628   uint8 retArray[3];
//  629 
//  630   retArray[0] = pMsg->hdr.status;
        LCALL     ?Subroutine5 & 0xFFFF
//  631   retArray[1] = pMsg->endpoint;
??CrossCallReturnLabel_4:
        PUSH      A
          CFI CFA_SP SP+-6
        MOV       A,#0x1
        LCALL     ?XSTACK_DISP0_8
        POP       A
          CFI CFA_SP SP+-5
        LCALL     ?Subroutine31 & 0xFFFF
//  632   retArray[2] = pMsg->transID;
??CrossCallReturnLabel_51:
        PUSH      A
          CFI CFA_SP SP+-6
        MOV       A,#0x2
        LCALL     ?XSTACK_DISP0_8
        POP       A
          CFI CFA_SP SP+-5
        LCALL     ?Subroutine30 & 0xFFFF
//  633 
//  634   /* Build and send back the response */
//  635   MT_BuildAndSendZToolResponse(((uint8)MT_RPC_CMD_AREQ | (uint8)MT_RPC_SYS_AF), MT_AF_DATA_CONFIRM, 3, retArray);
??CrossCallReturnLabel_48:
        MOV       R3,#0x3
        MOV       R2,#-0x80
        MOV       R1,#0x44
        LCALL     `??MT_BuildAndSendZToolResponse::?relay`; Banked call to: MT_BuildAndSendZToolResponse
//  636 }
        MOV       A,#0x3
          CFI EndBlock cfiBlock64
        REQUIRE ?Subroutine1
        ; // Fall through to label ?Subroutine1

        RSEG BANKED_CODE:HUGECODE:NOROOT(0)
?Subroutine1:
          CFI Block cfiBlock65 Using cfiCommon0
          CFI NoFunction
          CFI CFA_SP SP+-5
          CFI CFA_XSP16 add(XSP16, 3)
          CFI DPL0 Frame(CFA_SP, 4)
          CFI DPH0 Frame(CFA_SP, 5)
          CFI Invalid
        LCALL     ?DEALLOC_XSTACK8
          CFI CFA_XSP16 XSP16+0
          CFI Valid
        POP       DPH
          CFI CFA_SP SP+-4
          CFI DPH0 SameValue
        POP       DPL
          CFI CFA_SP SP+-3
          CFI DPL0 SameValue
        LJMP      ?BRET
          CFI EndBlock cfiBlock65
//  637 
//  638 /***************************************************************************************************
//  639  * @fn      MT_AfReflectError
//  640  *
//  641  * @brief   Process
//  642  *
//  643  * @param   pBuf - pointer to the received buffer
//  644  *
//  645  * @return  none
//  646  ***************************************************************************************************/

        RSEG BANKED_CODE:HUGECODE:NOROOT(0)
//  647 void MT_AfReflectError(afReflectError_t *pMsg)
MT_AfReflectError:
          CFI Block cfiBlock66 Using cfiCommon0
          CFI Function MT_AfReflectError
        CODE
//  648 {
        FUNCALL MT_AfReflectError, MT_BuildAndSendZToolResponse
        LOCFRAME ISTACK, 2, STACK
        LOCFRAME PSTACK, 0, STACK
        LOCFRAME XSTACK, 6, STACK
        LOCFRAME IOVERLAY, 0, STATIC
        LOCFRAME DOVERLAY, 0, STATIC
        ARGFRAME ISTACK, 2, STACK
        ARGFRAME PSTACK, 0, STACK
        ARGFRAME XSTACK, 6, STACK
        ARGFRAME IOVERLAY, 0, STATIC
        ARGFRAME DOVERLAY, 0, STATIC
        PUSH      DPL
          CFI DPL0 Frame(CFA_SP, 4)
          CFI CFA_SP SP+-4
        PUSH      DPH
          CFI DPH0 Frame(CFA_SP, 5)
          CFI CFA_SP SP+-5
        ; Saved register size: 2
        ; Auto size: 6
        MOV       A,#-0x6
        LCALL     ?ALLOC_XSTACK8
          CFI CFA_XSP16 add(XSP16, 6)
//  649   uint8 retArray[6];
//  650 
//  651   retArray[0] = pMsg->hdr.status;
        LCALL     ?Subroutine5 & 0xFFFF
//  652   retArray[1] = pMsg->endpoint;
??CrossCallReturnLabel_5:
        PUSH      A
          CFI CFA_SP SP+-6
        MOV       A,#0x1
        LCALL     ?XSTACK_DISP0_8
        POP       A
          CFI CFA_SP SP+-5
        LCALL     ?Subroutine31 & 0xFFFF
//  653   retArray[2] = pMsg->transID;
??CrossCallReturnLabel_52:
        PUSH      A
          CFI CFA_SP SP+-6
        MOV       A,#0x2
        LCALL     ?XSTACK_DISP0_8
        POP       A
          CFI CFA_SP SP+-5
        LCALL     ?Subroutine43 & 0xFFFF
//  654   retArray[3] = pMsg->dstAddrMode;
??CrossCallReturnLabel_81:
        INC       DPTR
        MOVX      A,@DPTR
        PUSH      A
          CFI CFA_SP SP+-6
        MOV       A,#0x3
        LCALL     ?XSTACK_DISP0_8
        POP       A
          CFI CFA_SP SP+-5
        MOVX      @DPTR,A
//  655   retArray[4] = LO_UINT16( pMsg->dstAddr );
        MOV       A,R2
        ADD       A,#0x5
        MOV       R0,A
        CLR       A
        ADDC      A,R3
        MOV       R1,A
        MOV       DPL,R0
        MOV       DPH,R1
        MOVX      A,@DPTR
        PUSH      A
          CFI CFA_SP SP+-6
        MOV       A,#0x4
        LCALL     ?XSTACK_DISP0_8
        POP       A
          CFI CFA_SP SP+-5
        LCALL     ?Subroutine40 & 0xFFFF
//  656   retArray[5] = HI_UINT16( pMsg->dstAddr );
??CrossCallReturnLabel_73:
        MOVX      A,@DPTR
        PUSH      A
          CFI CFA_SP SP+-6
        MOV       A,#0x5
        LCALL     ?XSTACK_DISP0_8
        POP       A
          CFI CFA_SP SP+-5
        LCALL     ?Subroutine30 & 0xFFFF
//  657 
//  658   /* Build and send back the response */
//  659   MT_BuildAndSendZToolResponse(((uint8)MT_RPC_CMD_AREQ | (uint8)MT_RPC_SYS_AF), MT_AF_REFLECT_ERROR, 6, retArray);
??CrossCallReturnLabel_49:
        MOV       R3,#0x6
        MOV       R2,#-0x7d
        MOV       R1,#0x44
        LCALL     `??MT_BuildAndSendZToolResponse::?relay`; Banked call to: MT_BuildAndSendZToolResponse
//  660 }
        MOV       A,#0x6
        SJMP      ?Subroutine1
          CFI EndBlock cfiBlock66

        RSEG BANKED_CODE:HUGECODE:NOROOT(0)
?Subroutine31:
          CFI Block cfiCond67 Using cfiCommon0
          CFI Function MT_AfDataConfirm
          CFI Conditional ??CrossCallReturnLabel_51
          CFI DPL0 Frame(CFA_SP, 4)
          CFI DPH0 Frame(CFA_SP, 5)
          CFI CFA_SP SP+-7
          CFI CFA_XSP16 add(XSP16, 3)
          CFI Block cfiCond68 Using cfiCommon0
          CFI (cfiCond68) Function MT_AfReflectError
          CFI (cfiCond68) Conditional ??CrossCallReturnLabel_52
          CFI (cfiCond68) DPL0 Frame(CFA_SP, 4)
          CFI (cfiCond68) DPH0 Frame(CFA_SP, 5)
          CFI (cfiCond68) CFA_SP SP+-7
          CFI (cfiCond68) CFA_XSP16 add(XSP16, 6)
          CFI Block cfiPicker69 Using cfiCommon1
          CFI (cfiPicker69) NoFunction
          CFI (cfiPicker69) Picker
        LCALL     ?Subroutine43 & 0xFFFF
??CrossCallReturnLabel_82:
        MOVX      A,@DPTR
        RET
          CFI EndBlock cfiCond67
          CFI EndBlock cfiCond68
          CFI EndBlock cfiPicker69

        RSEG BANKED_CODE:HUGECODE:NOROOT(0)
?Subroutine43:
          CFI Block cfiCond70 Using cfiCommon0
          CFI Function MT_AfReflectError
          CFI Conditional ??CrossCallReturnLabel_81
          CFI DPL0 Frame(CFA_SP, 4)
          CFI DPH0 Frame(CFA_SP, 5)
          CFI CFA_SP SP+-7
          CFI CFA_XSP16 add(XSP16, 6)
          CFI Block cfiCond71 Using cfiCommon0
          CFI (cfiCond71) Function MT_AfDataConfirm
          CFI (cfiCond71) Conditional ??CrossCallReturnLabel_82, ??CrossCallReturnLabel_51
          CFI (cfiCond71) DPL0 Frame(CFA_SP, 4)
          CFI (cfiCond71) DPH0 Frame(CFA_SP, 5)
          CFI (cfiCond71) CFA_SP SP+-9
          CFI (cfiCond71) CFA_XSP16 add(XSP16, 3)
          CFI Block cfiCond72 Using cfiCommon0
          CFI (cfiCond72) Function MT_AfReflectError
          CFI (cfiCond72) Conditional ??CrossCallReturnLabel_82, ??CrossCallReturnLabel_52
          CFI (cfiCond72) DPL0 Frame(CFA_SP, 4)
          CFI (cfiCond72) DPH0 Frame(CFA_SP, 5)
          CFI (cfiCond72) CFA_SP SP+-9
          CFI (cfiCond72) CFA_XSP16 add(XSP16, 6)
          CFI Block cfiPicker73 Using cfiCommon1
          CFI (cfiPicker73) NoFunction
          CFI (cfiPicker73) Picker
        MOVX      @DPTR,A
        MOV       DPL,R2
        MOV       DPH,R3
        INC       DPTR
        INC       DPTR
        INC       DPTR
        RET
          CFI EndBlock cfiCond70
          CFI EndBlock cfiCond71
          CFI EndBlock cfiCond72
          CFI EndBlock cfiPicker73

        RSEG BANKED_CODE:HUGECODE:NOROOT(0)
?Subroutine30:
          CFI Block cfiCond74 Using cfiCommon0
          CFI Function MT_AfCommandProcessing
          CFI Conditional ??CrossCallReturnLabel_47
          CFI R6 load(1, XDATA, add(CFA_XSP16, literal(-14)))
          CFI VB load(1, XDATA, add(CFA_XSP16, literal(-13)))
          CFI V0 load(1, XDATA, add(CFA_XSP16, literal(-12)))
          CFI V1 load(1, XDATA, add(CFA_XSP16, literal(-11)))
          CFI V2 load(1, XDATA, add(CFA_XSP16, literal(-10)))
          CFI V3 load(1, XDATA, add(CFA_XSP16, literal(-9)))
          CFI V4 load(1, XDATA, add(CFA_XSP16, literal(-8)))
          CFI V5 load(1, XDATA, add(CFA_XSP16, literal(-7)))
          CFI R7 load(1, XDATA, add(CFA_XSP16, literal(-6)))
          CFI ?RET_LOW load(1, XDATA, add(CFA_XSP16, literal(-5)))
          CFI ?RET_HIGH load(1, XDATA, add(CFA_XSP16, literal(-4)))
          CFI ?BRET_EXT load(1, XDATA, add(CFA_XSP16, literal(-3)))
          CFI DPL0 load(1, XDATA, add(CFA_XSP16, literal(-2)))
          CFI DPH0 load(1, XDATA, add(CFA_XSP16, literal(-1)))
          CFI CFA_SP SP+-2
          CFI CFA_XSP16 add(XSP16, 20)
          CFI Block cfiCond75 Using cfiCommon0
          CFI (cfiCond75) Function MT_AfDataConfirm
          CFI (cfiCond75) Conditional ??CrossCallReturnLabel_48
          CFI (cfiCond75) DPL0 Frame(CFA_SP, 4)
          CFI (cfiCond75) DPH0 Frame(CFA_SP, 5)
          CFI (cfiCond75) CFA_SP SP+-7
          CFI (cfiCond75) CFA_XSP16 add(XSP16, 3)
          CFI Block cfiCond76 Using cfiCommon0
          CFI (cfiCond76) Function MT_AfReflectError
          CFI (cfiCond76) Conditional ??CrossCallReturnLabel_49
          CFI (cfiCond76) DPL0 Frame(CFA_SP, 4)
          CFI (cfiCond76) DPH0 Frame(CFA_SP, 5)
          CFI (cfiCond76) CFA_SP SP+-7
          CFI (cfiCond76) CFA_XSP16 add(XSP16, 6)
          CFI Block cfiCond77 Using cfiCommon0
          CFI (cfiCond77) Function MT_AfDataStore
          CFI (cfiCond77) Conditional ??CrossCallReturnLabel_50
          CFI (cfiCond77) R6 load(1, XDATA, add(CFA_XSP16, literal(-14)))
          CFI (cfiCond77) VB load(1, XDATA, add(CFA_XSP16, literal(-13)))
          CFI (cfiCond77) V0 load(1, XDATA, add(CFA_XSP16, literal(-12)))
          CFI (cfiCond77) V1 load(1, XDATA, add(CFA_XSP16, literal(-11)))
          CFI (cfiCond77) V2 load(1, XDATA, add(CFA_XSP16, literal(-10)))
          CFI (cfiCond77) V3 load(1, XDATA, add(CFA_XSP16, literal(-9)))
          CFI (cfiCond77) V4 load(1, XDATA, add(CFA_XSP16, literal(-8)))
          CFI (cfiCond77) V5 load(1, XDATA, add(CFA_XSP16, literal(-7)))
          CFI (cfiCond77) R7 load(1, XDATA, add(CFA_XSP16, literal(-6)))
          CFI (cfiCond77) ?RET_LOW load(1, XDATA, add(CFA_XSP16, literal(-5)))
          CFI (cfiCond77) ?RET_HIGH load(1, XDATA, add(CFA_XSP16, literal(-4)))
          CFI (cfiCond77) ?BRET_EXT load(1, XDATA, add(CFA_XSP16, literal(-3)))
          CFI (cfiCond77) DPL0 load(1, XDATA, add(CFA_XSP16, literal(-2)))
          CFI (cfiCond77) DPH0 load(1, XDATA, add(CFA_XSP16, literal(-1)))
          CFI (cfiCond77) CFA_SP SP+-2
          CFI (cfiCond77) CFA_XSP16 add(XSP16, 15)
          CFI Block cfiPicker78 Using cfiCommon1
          CFI (cfiPicker78) NoFunction
          CFI (cfiPicker78) Picker
        MOVX      @DPTR,A
        ; Setup parameters for call to function MT_BuildAndSendZToolResponse
        ; Setup parameters for call to function MT_BuildAndSendZToolResponse
        ; Setup parameters for call to function MT_BuildAndSendZToolResponse
        ; Setup parameters for call to function MT_BuildAndSendZToolResponse
        MOV       R4,?XSP + 0
        MOV       R5,?XSP + 1
        RET
          CFI EndBlock cfiCond74
          CFI EndBlock cfiCond75
          CFI EndBlock cfiCond76
          CFI EndBlock cfiCond77
          CFI EndBlock cfiPicker78

        RSEG BANKED_CODE:HUGECODE:NOROOT(0)
?Subroutine5:
          CFI Block cfiCond79 Using cfiCommon0
          CFI Function MT_AfDataConfirm
          CFI Conditional ??CrossCallReturnLabel_4
          CFI DPL0 Frame(CFA_SP, 4)
          CFI DPH0 Frame(CFA_SP, 5)
          CFI CFA_SP SP+-7
          CFI CFA_XSP16 add(XSP16, 3)
          CFI Block cfiCond80 Using cfiCommon0
          CFI (cfiCond80) Function MT_AfReflectError
          CFI (cfiCond80) Conditional ??CrossCallReturnLabel_5
          CFI (cfiCond80) DPL0 Frame(CFA_SP, 4)
          CFI (cfiCond80) DPH0 Frame(CFA_SP, 5)
          CFI (cfiCond80) CFA_SP SP+-7
          CFI (cfiCond80) CFA_XSP16 add(XSP16, 6)
          CFI Block cfiPicker81 Using cfiCommon1
          CFI (cfiPicker81) NoFunction
          CFI (cfiPicker81) Picker
        MOV       DPL,R2
        MOV       DPH,R3
        INC       DPTR
        MOVX      A,@DPTR
        MOV       DPL,?XSP + 0
        MOV       DPH,?XSP + 1
        MOVX      @DPTR,A
        MOV       DPL,R2
        MOV       DPH,R3
        INC       DPTR
        INC       DPTR
        MOVX      A,@DPTR
        RET
          CFI EndBlock cfiCond79
          CFI EndBlock cfiCond80
          CFI EndBlock cfiPicker81
//  661 
//  662 /***************************************************************************************************
//  663  * @fn          MT_AfIncomingMsg
//  664  *
//  665  * @brief       Process the callback subscription for AF Incoming data.
//  666  *
//  667  * @param       pkt - Incoming AF data.
//  668  *
//  669  * @return      none
//  670  ***************************************************************************************************/

        RSEG BANKED_CODE:HUGECODE:NOROOT(0)
//  671 void MT_AfIncomingMsg(afIncomingMSGPacket_t *pMsg)
MT_AfIncomingMsg:
          CFI Block cfiBlock82 Using cfiCommon0
          CFI Function MT_AfIncomingMsg
        CODE
//  672 {
        FUNCALL MT_AfIncomingMsg, StubAPS_InterPan
        LOCFRAME ISTACK, 0, STACK
        LOCFRAME PSTACK, 0, STACK
        LOCFRAME XSTACK, 22, STACK
        LOCFRAME IOVERLAY, 0, STATIC
        LOCFRAME DOVERLAY, 0, STATIC
        ARGFRAME ISTACK, 0, STACK
        ARGFRAME PSTACK, 0, STACK
        ARGFRAME XSTACK, 22, STACK
        ARGFRAME IOVERLAY, 0, STATIC
        ARGFRAME DOVERLAY, 0, STATIC
        FUNCALL MT_AfIncomingMsg, osal_mem_alloc
        LOCFRAME ISTACK, 0, STACK
        LOCFRAME PSTACK, 0, STACK
        LOCFRAME XSTACK, 22, STACK
        LOCFRAME IOVERLAY, 0, STATIC
        LOCFRAME DOVERLAY, 0, STATIC
        ARGFRAME ISTACK, 0, STACK
        ARGFRAME PSTACK, 0, STACK
        ARGFRAME XSTACK, 22, STACK
        ARGFRAME IOVERLAY, 0, STATIC
        ARGFRAME DOVERLAY, 0, STATIC
        FUNCALL MT_AfIncomingMsg, osal_mem_alloc
        LOCFRAME ISTACK, 0, STACK
        LOCFRAME PSTACK, 0, STACK
        LOCFRAME XSTACK, 22, STACK
        LOCFRAME IOVERLAY, 0, STATIC
        LOCFRAME DOVERLAY, 0, STATIC
        ARGFRAME ISTACK, 0, STACK
        ARGFRAME PSTACK, 0, STACK
        ARGFRAME XSTACK, 22, STACK
        ARGFRAME IOVERLAY, 0, STATIC
        ARGFRAME DOVERLAY, 0, STATIC
        FUNCALL MT_AfIncomingMsg, osal_mem_free
        LOCFRAME ISTACK, 0, STACK
        LOCFRAME PSTACK, 0, STACK
        LOCFRAME XSTACK, 22, STACK
        LOCFRAME IOVERLAY, 0, STATIC
        LOCFRAME DOVERLAY, 0, STATIC
        ARGFRAME ISTACK, 0, STACK
        ARGFRAME PSTACK, 0, STACK
        ARGFRAME XSTACK, 22, STACK
        ARGFRAME IOVERLAY, 0, STATIC
        ARGFRAME DOVERLAY, 0, STATIC
        FUNCALL MT_AfIncomingMsg, osal_memcpy
        LOCFRAME ISTACK, 0, STACK
        LOCFRAME PSTACK, 0, STACK
        LOCFRAME XSTACK, 25, STACK
        LOCFRAME IOVERLAY, 0, STATIC
        LOCFRAME DOVERLAY, 0, STATIC
        ARGFRAME ISTACK, 0, STACK
        ARGFRAME PSTACK, 0, STACK
        ARGFRAME XSTACK, 25, STACK
        ARGFRAME IOVERLAY, 0, STATIC
        ARGFRAME DOVERLAY, 0, STATIC
        FUNCALL MT_AfIncomingMsg, osal_buffer_uint32
        LOCFRAME ISTACK, 0, STACK
        LOCFRAME PSTACK, 0, STACK
        LOCFRAME XSTACK, 26, STACK
        LOCFRAME IOVERLAY, 0, STATIC
        LOCFRAME DOVERLAY, 0, STATIC
        ARGFRAME ISTACK, 0, STACK
        ARGFRAME PSTACK, 0, STACK
        ARGFRAME XSTACK, 26, STACK
        ARGFRAME IOVERLAY, 0, STATIC
        ARGFRAME DOVERLAY, 0, STATIC
        FUNCALL MT_AfIncomingMsg, osal_start_timerEx
        LOCFRAME ISTACK, 0, STACK
        LOCFRAME PSTACK, 0, STACK
        LOCFRAME XSTACK, 26, STACK
        LOCFRAME IOVERLAY, 0, STATIC
        LOCFRAME DOVERLAY, 0, STATIC
        ARGFRAME ISTACK, 0, STACK
        ARGFRAME PSTACK, 0, STACK
        ARGFRAME XSTACK, 26, STACK
        ARGFRAME IOVERLAY, 0, STATIC
        ARGFRAME DOVERLAY, 0, STATIC
        FUNCALL MT_AfIncomingMsg, osal_set_event
        LOCFRAME ISTACK, 0, STACK
        LOCFRAME PSTACK, 0, STACK
        LOCFRAME XSTACK, 22, STACK
        LOCFRAME IOVERLAY, 0, STATIC
        LOCFRAME DOVERLAY, 0, STATIC
        ARGFRAME ISTACK, 0, STACK
        ARGFRAME PSTACK, 0, STACK
        ARGFRAME XSTACK, 22, STACK
        ARGFRAME IOVERLAY, 0, STATIC
        ARGFRAME DOVERLAY, 0, STATIC
        FUNCALL MT_AfIncomingMsg, osal_memcpy
        LOCFRAME ISTACK, 0, STACK
        LOCFRAME PSTACK, 0, STACK
        LOCFRAME XSTACK, 25, STACK
        LOCFRAME IOVERLAY, 0, STATIC
        LOCFRAME DOVERLAY, 0, STATIC
        ARGFRAME ISTACK, 0, STACK
        ARGFRAME PSTACK, 0, STACK
        ARGFRAME XSTACK, 25, STACK
        ARGFRAME IOVERLAY, 0, STATIC
        ARGFRAME DOVERLAY, 0, STATIC
        FUNCALL MT_AfIncomingMsg, osal_memcpy
        LOCFRAME ISTACK, 0, STACK
        LOCFRAME PSTACK, 0, STACK
        LOCFRAME XSTACK, 25, STACK
        LOCFRAME IOVERLAY, 0, STATIC
        LOCFRAME DOVERLAY, 0, STATIC
        ARGFRAME ISTACK, 0, STACK
        ARGFRAME PSTACK, 0, STACK
        ARGFRAME XSTACK, 25, STACK
        ARGFRAME IOVERLAY, 0, STATIC
        ARGFRAME DOVERLAY, 0, STATIC
        FUNCALL MT_AfIncomingMsg, MT_BuildAndSendZToolResponse
        LOCFRAME ISTACK, 0, STACK
        LOCFRAME PSTACK, 0, STACK
        LOCFRAME XSTACK, 22, STACK
        LOCFRAME IOVERLAY, 0, STATIC
        LOCFRAME DOVERLAY, 0, STATIC
        ARGFRAME ISTACK, 0, STACK
        ARGFRAME PSTACK, 0, STACK
        ARGFRAME XSTACK, 22, STACK
        ARGFRAME IOVERLAY, 0, STATIC
        ARGFRAME DOVERLAY, 0, STATIC
        FUNCALL MT_AfIncomingMsg, osal_mem_free
        LOCFRAME ISTACK, 0, STACK
        LOCFRAME PSTACK, 0, STACK
        LOCFRAME XSTACK, 22, STACK
        LOCFRAME IOVERLAY, 0, STATIC
        LOCFRAME DOVERLAY, 0, STATIC
        ARGFRAME ISTACK, 0, STACK
        ARGFRAME PSTACK, 0, STACK
        ARGFRAME XSTACK, 22, STACK
        ARGFRAME IOVERLAY, 0, STATIC
        ARGFRAME DOVERLAY, 0, STATIC
        REQUIRE ?V0
        REQUIRE ?V1
        REQUIRE ?V2
        REQUIRE ?V3
        REQUIRE ?V4
        REQUIRE ?V5
        REQUIRE ?V6
        REQUIRE ?V7
        REQUIRE ?V8
        REQUIRE ?V9
        REQUIRE ?V10
        REQUIRE ?V11
        REQUIRE ?V12
        REQUIRE ?V13
        MOV       A,#-0x16
        LCALL     ?BANKED_ENTER_XDATA
          CFI DPH0 load(1, XDATA, add(CFA_XSP16, literal(-1)))
          CFI DPL0 load(1, XDATA, add(CFA_XSP16, literal(-2)))
          CFI ?BRET_EXT load(1, XDATA, add(CFA_XSP16, literal(-3)))
          CFI ?RET_HIGH load(1, XDATA, add(CFA_XSP16, literal(-4)))
          CFI ?RET_LOW load(1, XDATA, add(CFA_XSP16, literal(-5)))
          CFI R7 load(1, XDATA, add(CFA_XSP16, literal(-6)))
          CFI V13 load(1, XDATA, add(CFA_XSP16, literal(-7)))
          CFI V12 load(1, XDATA, add(CFA_XSP16, literal(-8)))
          CFI V11 load(1, XDATA, add(CFA_XSP16, literal(-9)))
          CFI V10 load(1, XDATA, add(CFA_XSP16, literal(-10)))
          CFI V9 load(1, XDATA, add(CFA_XSP16, literal(-11)))
          CFI V8 load(1, XDATA, add(CFA_XSP16, literal(-12)))
          CFI V7 load(1, XDATA, add(CFA_XSP16, literal(-13)))
          CFI V6 load(1, XDATA, add(CFA_XSP16, literal(-14)))
          CFI V5 load(1, XDATA, add(CFA_XSP16, literal(-15)))
          CFI V4 load(1, XDATA, add(CFA_XSP16, literal(-16)))
          CFI V3 load(1, XDATA, add(CFA_XSP16, literal(-17)))
          CFI V2 load(1, XDATA, add(CFA_XSP16, literal(-18)))
          CFI V1 load(1, XDATA, add(CFA_XSP16, literal(-19)))
          CFI V0 load(1, XDATA, add(CFA_XSP16, literal(-20)))
          CFI VB load(1, XDATA, add(CFA_XSP16, literal(-21)))
          CFI R6 load(1, XDATA, add(CFA_XSP16, literal(-22)))
          CFI CFA_SP SP+0
          CFI CFA_XSP16 add(XSP16, 22)
        ; Saved register size: 22
        ; Auto size: 0
        MOV       ?V8,R2
        MOV       ?V9,R3
//  673   #define MT_AF_INC_MSG_LEN  20
//  674   #define MT_AF_INC_MSG_EXT  10
//  675 
//  676   uint16 dataLen = pMsg->cmd.DataLength;  // Length of the data section in the response packet.
        MOV       A,R2
        ADD       A,#0x20
        LCALL     ?Subroutine34 & 0xFFFF
??CrossCallReturnLabel_58:
        MOV       ?V0,A
        INC       DPTR
        MOVX      A,@DPTR
        MOV       ?V1,A
//  677   uint16 respLen = MT_AF_INC_MSG_LEN + dataLen;
        MOV       A,?V0
        ADD       A,#0x14
        MOV       R6,A
        CLR       A
        ADDC      A,?V1
        MOV       R7,A
//  678   uint8 cmd = MT_AF_INCOMING_MSG;
        MOV       ?V7,#-0x7f
//  679   uint8 *pRsp, *pTmp;
//  680   mtAfInMsgList_t *pItem = NULL;
        MOV       ?V10,#0x0
        MOV       ?V11,#0x0
//  681 
//  682 #if defined INTER_PAN
//  683   if (StubAPS_InterPan(pMsg->srcAddr.panId, pMsg->srcAddr.endPoint))
        ; Setup parameters for call to function StubAPS_InterPan
        MOV       A,R2
        ADD       A,#0xf
        LCALL     ?Subroutine34 & 0xFFFF
??CrossCallReturnLabel_59:
        MOV       R1,A
        MOV       A,R2
        ADD       A,#0x10
        LCALL     ?Subroutine46 & 0xFFFF
??CrossCallReturnLabel_88:
        LCALL     ??Subroutine53_0 & 0xFFFF
??CrossCallReturnLabel_116:
        LCALL     `??StubAPS_InterPan::?relay`; Banked call to: StubAPS_InterPan
        MOV       A,R1
        JNZ       ??MT_AfIncomingMsg_0
//  684   {
//  685     cmd = MT_AF_INCOMING_MSG_EXT;
//  686   }
//  687   else
//  688 #endif
//  689   if ((pMsg->srcAddr.addrMode == afAddr64Bit) ||
//  690       (respLen > (uint16)(MT_RPC_DATA_MAX - MT_AF_INC_MSG_EXT)))
        MOV       A,?V8
        ADD       A,#0xe
        LCALL     ?Subroutine34 & 0xFFFF
??CrossCallReturnLabel_60:
        XRL       A,#0x3
        JZ        ??MT_AfIncomingMsg_0
        CLR       C
        MOV       A,R6
        SUBB      A,#-0xf
        MOV       A,R7
        SUBB      A,#0x0
        JC        ??MT_AfIncomingMsg_1
//  691   {
//  692     cmd = MT_AF_INCOMING_MSG_EXT;
??MT_AfIncomingMsg_0:
        MOV       ?V7,#-0x7e
//  693   }
//  694 
//  695   if (cmd == MT_AF_INCOMING_MSG_EXT)
//  696   {
//  697     respLen += MT_AF_INC_MSG_EXT;
        MOV       A,R6
        ADD       A,#0xa
        MOV       R6,A
        CLR       A
        ADDC      A,R7
        MOV       R7,A
//  698   }
//  699 
//  700   if (respLen > (uint16)MT_RPC_DATA_MAX)
??MT_AfIncomingMsg_1:
        CLR       C
        MOV       A,R6
        SUBB      A,#-0x5
        MOV       A,R7
        SUBB      A,#0x0
        JC        ??MT_AfIncomingMsg_2
//  701   {
//  702     if ((pItem = (mtAfInMsgList_t *)osal_mem_alloc(sizeof(mtAfInMsgList_t) + dataLen)) == NULL)
        ; Setup parameters for call to function osal_mem_alloc
        MOV       A,?V0
        ADD       A,#0x9
        MOV       R2,A
        CLR       A
        ADDC      A,?V1
        MOV       R3,A
        LCALL     `??osal_mem_alloc::?relay`; Banked call to: osal_mem_alloc
        MOV       ?V10,R2
        MOV       ?V11,R3
        MOV       A,R2
        ORL       A,?V11
        JNZ       $+5
        LJMP      ??MT_AfIncomingMsg_3 & 0xFFFF
//  703     {
//  704       return;  // If cannot hold a huge message, cannot give indication at all.
//  705     }
//  706 
//  707     pItem->data = (uint8 *)(pItem+1);
        MOV       A,R2
        ADD       A,#0x9
        MOV       R0,A
        CLR       A
        ADDC      A,?V11
        MOV       R1,A
        MOV       DPL,R2
        MOV       DPH,R3
        INC       DPTR
        INC       DPTR
        MOV       A,R0
        MOVX      @DPTR,A
        INC       DPTR
        MOV       A,R1
        MOVX      @DPTR,A
//  708     respLen -= dataLen;  // Zero data bytes are sent with an over-sized incoming indication.
        CLR       C
        MOV       A,R6
        SUBB      A,?V0
        MOV       R6,A
        MOV       A,R7
        SUBB      A,?V1
        MOV       R7,A
//  709   }
//  710 
//  711   // Attempt to allocate memory for the response packet.
//  712   if ((pRsp = osal_mem_alloc(respLen)) == NULL)
??MT_AfIncomingMsg_2:
        ; Setup parameters for call to function osal_mem_alloc
        MOV       A,R6
        MOV       R2,A
        MOV       A,R7
        MOV       R3,A
        LCALL     `??osal_mem_alloc::?relay`; Banked call to: osal_mem_alloc
        MOV       ?V12,R2
        MOV       ?V13,R3
        MOV       A,R2
        ORL       A,?V13
        JNZ       ??MT_AfIncomingMsg_4
//  713   {
//  714     if (pItem != NULL)
        MOV       A,?V10
        ORL       A,?V11
        JZ        ??MT_AfIncomingMsg_5
//  715     {
//  716       (void)osal_mem_free(pItem);
        ; Setup parameters for call to function osal_mem_free
        MOV       R2,?V10
        MOV       R3,?V11
        LCALL     `??osal_mem_free::?relay`; Banked call to: osal_mem_free
//  717     }
//  718     return;
??MT_AfIncomingMsg_5:
        LJMP      ??MT_AfIncomingMsg_3 & 0xFFFF
//  719   }
//  720   pTmp = pRsp;
//  721 
//  722   /* Group ID */
//  723   *pTmp++ = LO_UINT16(pMsg->groupId);
??MT_AfIncomingMsg_4:
        MOV       A,?V8
        ADD       A,#0x2
        LCALL     ?Subroutine33 & 0xFFFF
??CrossCallReturnLabel_55:
        MOVX      A,@DPTR
        MOV       DPL,R2
        MOV       DPH,R3
        LCALL     ?Subroutine21 & 0xFFFF
//  724   *pTmp++ = HI_UINT16(pMsg->groupId);
??CrossCallReturnLabel_112:
        MOVX      @DPTR,A
//  725 
//  726   /* Cluster ID */
//  727   *pTmp++ = LO_UINT16(pMsg->clusterId);
        MOV       A,?V8
        ADD       A,#0x4
        LCALL     ?Subroutine33 & 0xFFFF
??CrossCallReturnLabel_56:
        LCALL     ??Subroutine52_0 & 0xFFFF
??CrossCallReturnLabel_114:
        INC       DPTR
        LCALL     ?Subroutine21 & 0xFFFF
//  728   *pTmp++ = HI_UINT16(pMsg->clusterId);
??CrossCallReturnLabel_113:
        INC       DPTR
        INC       DPTR
        MOVX      @DPTR,A
//  729 
//  730   if (cmd == MT_AF_INCOMING_MSG_EXT)
        MOV       A,#-0x7e
        XRL       A,?V7
        JNZ       ??MT_AfIncomingMsg_6
//  731   {
//  732     *pTmp++ = pMsg->srcAddr.addrMode;
        MOV       A,?V8
        ADD       A,#0xe
        LCALL     ?Subroutine17 & 0xFFFF
??CrossCallReturnLabel_27:
        MOV       A,R2
        ADD       A,#0x5
        MOV       ?V2,A
        CLR       A
        ADDC      A,?V13
        MOV       ?V3,A
//  733 
//  734     if (pMsg->srcAddr.addrMode == afAddr64Bit)
        MOV       DPL,R0
        MOV       DPH,R1
        MOVX      A,@DPTR
        XRL       A,#0x3
        JNZ       ??MT_AfIncomingMsg_7
//  735     {
//  736       (void)osal_memcpy(pTmp, pMsg->srcAddr.addr.extAddr, Z_EXTADDR_LEN);
        ; Setup parameters for call to function osal_memcpy
        MOV       A,?V8
        ADD       A,#0x6
        MOV       ?V4,A
        CLR       A
        ADDC      A,?V9
        MOV       ?V5,A
        MOV       ?V6,#0x0
        MOV       R0,#?V4
        LCALL     ?PUSH_XSTACK_I_THREE
          CFI CFA_XSP16 add(XSP16, 25)
        MOV       R4,#0x8
        MOV       R5,#0x0
        MOV       R2,?V2
        MOV       R3,?V3
        LCALL     `??osal_memcpy::?relay`; Banked call to: osal_memcpy
        MOV       A,#0x3
        LCALL     ?DEALLOC_XSTACK8
          CFI CFA_XSP16 add(XSP16, 22)
        SJMP      ??CrossCallReturnLabel_0
//  737     }
//  738     else
//  739     {
//  740       pTmp[0] = LO_UINT16(pMsg->srcAddr.addr.shortAddr);
??MT_AfIncomingMsg_7:
        MOV       A,?V8
        ADD       A,#0x6
        LCALL     ?Subroutine3 & 0xFFFF
//  741       pTmp[1] = HI_UINT16(pMsg->srcAddr.addr.shortAddr);
//  742     }
//  743     pTmp += Z_EXTADDR_LEN;
//  744 
//  745     *pTmp++ = pMsg->srcAddr.endPoint;
??CrossCallReturnLabel_0:
        MOV       A,?V8
        ADD       A,#0xf
        LCALL     ?Subroutine14 & 0xFFFF
??CrossCallReturnLabel_21:
        INC       DPTR
        INC       DPTR
        INC       DPTR
        INC       DPTR
        MOVX      @DPTR,A
//  746 #if defined INTER_PAN
//  747     *pTmp++ = LO_UINT16(pMsg->srcAddr.panId);
        MOV       A,?V8
        ADD       A,#0x10
        LCALL     ?Subroutine33 & 0xFFFF
//  748     *pTmp++ = HI_UINT16(pMsg->srcAddr.panId);
//  749 #else
//  750     *pTmp++ = 0;
//  751     *pTmp++ = 0;
//  752 #endif
//  753   }
??CrossCallReturnLabel_57:
        LCALL     ?Subroutine4 & 0xFFFF
??CrossCallReturnLabel_2:
        LCALL     ?Subroutine40 & 0xFFFF
??CrossCallReturnLabel_74:
        LCALL     ?Subroutine4 & 0xFFFF
??CrossCallReturnLabel_3:
        INC       DPTR
        MOVX      @DPTR,A
        MOV       A,?V2
        ADD       A,#0xb
        MOV       ?V2,A
        JNC       ??MT_AfIncomingMsg_8
        INC       ?V3
        SJMP      ??MT_AfIncomingMsg_8
//  754   else
//  755   {
//  756     /* Source Address */
//  757     *pTmp++ = LO_UINT16(pMsg->srcAddr.addr.shortAddr);
??MT_AfIncomingMsg_6:
        MOV       A,?V8
        ADD       A,#0x6
        LCALL     ?Subroutine17 & 0xFFFF
//  758     *pTmp++ = HI_UINT16(pMsg->srcAddr.addr.shortAddr);
??CrossCallReturnLabel_28:
        MOV       DPL,R0
        MOV       DPH,R1
        INC       DPTR
        LCALL     ?Subroutine18 & 0xFFFF
??CrossCallReturnLabel_29:
        MOVX      @DPTR,A
//  759 
//  760     /* Source EP */
//  761     *pTmp++ = pMsg->srcAddr.endPoint;
        MOV       A,?V8
        ADD       A,#0xf
        LCALL     ?Subroutine46 & 0xFFFF
//  762   }
??CrossCallReturnLabel_89:
        LCALL     ?Subroutine18 & 0xFFFF
??CrossCallReturnLabel_30:
        INC       DPTR
        MOVX      @DPTR,A
        MOV       A,R2
        ADD       A,#0x7
        MOV       ?V2,A
        CLR       A
        ADDC      A,?V13
        MOV       ?V3,A
//  763 
//  764   /* Destination EP */
//  765   *pTmp++ = pMsg->endPoint;
??MT_AfIncomingMsg_8:
        MOV       A,?V8
        ADD       A,#0x14
        LCALL     ?Subroutine34 & 0xFFFF
??CrossCallReturnLabel_61:
        MOV       DPL,?V2
        MOV       DPH,?V3
        MOVX      @DPTR,A
//  766 
//  767   /* WasBroadCast */
//  768   *pTmp++ = pMsg->wasBroadcast;
        MOV       A,?V8
        ADD       A,#0x15
        LCALL     ?Subroutine24 & 0xFFFF
??CrossCallReturnLabel_37:
        MOVX      @DPTR,A
//  769 
//  770   /* LinkQuality */
//  771   *pTmp++ = pMsg->LinkQuality;
        MOV       A,?V8
        ADD       A,#0x16
        LCALL     ?Subroutine19 & 0xFFFF
//  772 
//  773   /* SecurityUse */
//  774   *pTmp++ = pMsg->SecurityUse;
??CrossCallReturnLabel_31:
        MOV       A,?V8
        ADD       A,#0x19
        LCALL     ?Subroutine24 & 0xFFFF
??CrossCallReturnLabel_38:
        INC       DPTR
        INC       DPTR
        MOVX      @DPTR,A
        MOV       A,?V2
        ADD       A,#0x4
        MOV       ?V2,A
        JNC       ??MT_AfIncomingMsg_9
        INC       ?V3
//  775 
//  776   /* Timestamp */
//  777   osal_buffer_uint32( pTmp, pMsg->timestamp );
??MT_AfIncomingMsg_9:
        ; Setup parameters for call to function osal_buffer_uint32
        LCALL     ?Subroutine35 & 0xFFFF
??CrossCallReturnLabel_62:
        LCALL     ?PUSH_XSTACK8_X_FOUR
          CFI CFA_XSP16 add(XSP16, 26)
        MOV       R2,?V2
        MOV       R3,?V3
        LCALL     `??osal_buffer_uint32::?relay`; Banked call to: osal_buffer_uint32
        MOV       A,#0x4
        LCALL     ?DEALLOC_XSTACK8
          CFI CFA_XSP16 add(XSP16, 22)
//  778   pTmp += 4;
//  779 
//  780   /* Data Length */
//  781   if (cmd == MT_AF_INCOMING_MSG_EXT)
        MOV       A,#-0x7e
        XRL       A,?V7
        JNZ       ??MT_AfIncomingMsg_10
//  782   {
//  783     /* Z-Tool apparently takes the last Byte before the data buffer as the dynamic length and
//  784      * ignores the bigger UInt16 length of an EXT incoming message. But no data bytes will be sent
//  785      * with a huge message, so it's necessary to work-around and fake-out Z-Tool with a zero here.
//  786      */
//  787     *pTmp++ = 0;  // TODO - workaround Z-Tool shortcoming; should be: = pMsg->cmd.TransSeqNumber;
        MOV       DPL,?V2
        MOV       DPH,?V3
        INC       DPTR
        INC       DPTR
        INC       DPTR
        INC       DPTR
        CLR       A
        LCALL     ?Subroutine25 & 0xFFFF
//  788     *pTmp++ = LO_UINT16(dataLen);
//  789     *pTmp++ = HI_UINT16(dataLen);
??CrossCallReturnLabel_39:
        MOV       DPL,?V2
        MOV       DPH,?V3
        INC       DPTR
        INC       DPTR
        INC       DPTR
        INC       DPTR
        INC       DPTR
        INC       DPTR
        MOV       A,?V1
        MOVX      @DPTR,A
        MOV       A,?V2
        ADD       A,#0x7
        SJMP      ??MT_AfIncomingMsg_11
//  790   }
//  791   else
//  792   {
//  793     *pTmp++ = pMsg->cmd.TransSeqNumber;
??MT_AfIncomingMsg_10:
        MOV       A,?V8
        ADD       A,#0x1f
        LCALL     ?Subroutine14 & 0xFFFF
//  794     *pTmp++ = dataLen;
//  795   }
??CrossCallReturnLabel_22:
        LCALL     ?Subroutine25 & 0xFFFF
??CrossCallReturnLabel_40:
        MOV       A,?V2
        ADD       A,#0x6
??MT_AfIncomingMsg_11:
        MOV       ?V2,A
        JNC       ??MT_AfIncomingMsg_12
        INC       ?V3
//  796 
//  797   /* Data */
//  798   if (pItem != NULL)
??MT_AfIncomingMsg_12:
        MOV       A,?V10
        ORL       A,?V11
        JNZ       $+5
        LJMP      ??MT_AfIncomingMsg_13 & 0xFFFF
//  799   {
//  800     // Enqueue the new huge incoming item.
//  801     pItem->next = pMtAfInMsgList;
        LCALL     ?Subroutine23 & 0xFFFF
??CrossCallReturnLabel_123:
        MOV       DPL,?V10
        MOV       DPH,?V11
        MOV       A,R0
        MOVX      @DPTR,A
        INC       DPTR
        MOV       A,R1
        MOVX      @DPTR,A
//  802     pMtAfInMsgList = pItem;
        MOV       DPTR,#pMtAfInMsgList
        MOV       A,?V10
        MOVX      @DPTR,A
        INC       DPTR
        MOV       A,?V11
        MOVX      @DPTR,A
//  803 
//  804     // Setup to time-out the huge incoming item if host does not MT_AF_DATA_RETRIEVE it.
//  805     pItem->tick = MT_AF_EXEC_CNT;
        MOV       DPL,?V10
        MOV       DPH,A
        INC       DPTR
        INC       DPTR
        INC       DPTR
        INC       DPTR
        INC       DPTR
        INC       DPTR
        INC       DPTR
        INC       DPTR
        MOV       A,#0xf
        MOVX      @DPTR,A
//  806     if (ZSuccess != osal_start_timerEx(MT_TaskID, MT_AF_EXEC_EVT, MT_AF_EXEC_DLY))
        ; Setup parameters for call to function osal_start_timerEx
        MOV       DPTR,#__Constant_3e8
        LCALL     ?PUSH_XSTACK8_X_FOUR
          CFI CFA_XSP16 add(XSP16, 26)
        MOV       R2,#0x8
        MOV       R3,#0x0
        MOV       DPTR,#MT_TaskID
        MOVX      A,@DPTR
        MOV       R1,A
        LCALL     `??osal_start_timerEx::?relay`; Banked call to: osal_start_timerEx
        MOV       A,#0x4
        LCALL     ?DEALLOC_XSTACK8
          CFI CFA_XSP16 add(XSP16, 22)
        MOV       A,R1
        JZ        ??MT_AfIncomingMsg_14
//  807     {
//  808       (void)osal_set_event(MT_TaskID, MT_AF_EXEC_EVT);
        ; Setup parameters for call to function osal_set_event
        MOV       R2,#0x8
        MOV       R3,#0x0
        MOV       DPTR,#MT_TaskID
        MOVX      A,@DPTR
        MOV       R1,A
        LCALL     `??osal_set_event::?relay`; Banked call to: osal_set_event
//  809     }
//  810 
//  811     pItem->timestamp = pMsg->timestamp;
??MT_AfIncomingMsg_14:
        LCALL     ?Subroutine35 & 0xFFFF
??CrossCallReturnLabel_63:
        LCALL     ?XLOAD_R0123
        MOV       DPL,?V10
        MOV       DPH,?V11
        INC       DPTR
        INC       DPTR
        INC       DPTR
        INC       DPTR
        LCALL     ?XSTORE_R0123
//  812     (void)osal_memcpy(pItem->data, pMsg->cmd.Data, dataLen);
        ; Setup parameters for call to function osal_memcpy
        LCALL     ?Subroutine11 & 0xFFFF
//  813   }
??CrossCallReturnLabel_17:
        LCALL     ?PUSH_XSTACK_I_THREE
          CFI CFA_XSP16 add(XSP16, 25)
        MOV       R4,?V0
        MOV       R5,?V1
        MOV       DPL,?V10
        MOV       DPH,?V11
        INC       DPTR
        INC       DPTR
        LCALL     ??Subroutine53_0 & 0xFFFF
??CrossCallReturnLabel_117:
        LCALL     `??osal_memcpy::?relay`; Banked call to: osal_memcpy
        MOV       A,#0x3
        LCALL     ?DEALLOC_XSTACK8
          CFI CFA_XSP16 add(XSP16, 22)
        SJMP      ??MT_AfIncomingMsg_15
//  814   else
//  815   {
//  816     (void)osal_memcpy(pTmp, pMsg->cmd.Data, dataLen);
??MT_AfIncomingMsg_13:
        ; Setup parameters for call to function osal_memcpy
        LCALL     ?Subroutine11 & 0xFFFF
??CrossCallReturnLabel_18:
        LCALL     ?PUSH_XSTACK_I_THREE
          CFI CFA_XSP16 add(XSP16, 25)
        MOV       R4,?V0
        MOV       R5,?V1
        MOV       R2,?V2
        MOV       R3,?V3
        LCALL     `??osal_memcpy::?relay`; Banked call to: osal_memcpy
        MOV       A,#0x3
        LCALL     ?DEALLOC_XSTACK8
          CFI CFA_XSP16 add(XSP16, 22)
//  817     pTmp += dataLen;
        MOV       A,?V2
        ADD       A,?V0
        MOV       ?V2,A
        MOV       A,?V3
        ADDC      A,?V1
        MOV       ?V3,A
//  818   }
//  819 
//  820   // MAC Source address
//  821   *pTmp++ = LO_UINT16(pMsg->macSrcAddr);
??MT_AfIncomingMsg_15:
        MOV       A,?V8
        ADD       A,#0x24
        LCALL     ?Subroutine3 & 0xFFFF
//  822   *pTmp++ = HI_UINT16(pMsg->macSrcAddr);
//  823 
//  824   // messages result radius
//  825   *pTmp = pMsg->radius;
??CrossCallReturnLabel_1:
        MOV       A,?V8
        ADD       A,#0x26
        LCALL     ?Subroutine19 & 0xFFFF
//  826 
//  827   /* Build and send back the response */
//  828   MT_BuildAndSendZToolResponse(((uint8)MT_RPC_CMD_AREQ|(uint8)MT_RPC_SYS_AF), cmd, respLen, pRsp);
??CrossCallReturnLabel_32:
        ; Setup parameters for call to function MT_BuildAndSendZToolResponse
        MOV       R4,?V12
        MOV       R5,?V13
        MOV       A,R6
        MOV       R3,A
        MOV       R2,?V7
        MOV       R1,#0x44
        LCALL     `??MT_BuildAndSendZToolResponse::?relay`; Banked call to: MT_BuildAndSendZToolResponse
//  829 
//  830   (void)osal_mem_free(pRsp);
        ; Setup parameters for call to function osal_mem_free
        MOV       R2,?V12
        MOV       R3,?V13
        LCALL     `??osal_mem_free::?relay`; Banked call to: osal_mem_free
//  831 }
??MT_AfIncomingMsg_3:
        MOV       R7,#0xe
        LJMP      ?BANKED_LEAVE_XDATA
          CFI EndBlock cfiBlock82

        RSEG BANKED_CODE:HUGECODE:NOROOT(0)
?Subroutine35:
          CFI Block cfiCond83 Using cfiCommon0
          CFI Function MT_AfIncomingMsg
          CFI Conditional ??CrossCallReturnLabel_62
          CFI R6 load(1, XDATA, add(CFA_XSP16, literal(-22)))
          CFI VB load(1, XDATA, add(CFA_XSP16, literal(-21)))
          CFI V0 load(1, XDATA, add(CFA_XSP16, literal(-20)))
          CFI V1 load(1, XDATA, add(CFA_XSP16, literal(-19)))
          CFI V2 load(1, XDATA, add(CFA_XSP16, literal(-18)))
          CFI V3 load(1, XDATA, add(CFA_XSP16, literal(-17)))
          CFI V4 load(1, XDATA, add(CFA_XSP16, literal(-16)))
          CFI V5 load(1, XDATA, add(CFA_XSP16, literal(-15)))
          CFI V6 load(1, XDATA, add(CFA_XSP16, literal(-14)))
          CFI V7 load(1, XDATA, add(CFA_XSP16, literal(-13)))
          CFI V8 load(1, XDATA, add(CFA_XSP16, literal(-12)))
          CFI V9 load(1, XDATA, add(CFA_XSP16, literal(-11)))
          CFI V10 load(1, XDATA, add(CFA_XSP16, literal(-10)))
          CFI V11 load(1, XDATA, add(CFA_XSP16, literal(-9)))
          CFI V12 load(1, XDATA, add(CFA_XSP16, literal(-8)))
          CFI V13 load(1, XDATA, add(CFA_XSP16, literal(-7)))
          CFI R7 load(1, XDATA, add(CFA_XSP16, literal(-6)))
          CFI ?RET_LOW load(1, XDATA, add(CFA_XSP16, literal(-5)))
          CFI ?RET_HIGH load(1, XDATA, add(CFA_XSP16, literal(-4)))
          CFI ?BRET_EXT load(1, XDATA, add(CFA_XSP16, literal(-3)))
          CFI DPL0 load(1, XDATA, add(CFA_XSP16, literal(-2)))
          CFI DPH0 load(1, XDATA, add(CFA_XSP16, literal(-1)))
          CFI CFA_SP SP+-2
          CFI CFA_XSP16 add(XSP16, 22)
          CFI Block cfiCond84 Using cfiCommon0
          CFI (cfiCond84) Function MT_AfIncomingMsg
          CFI (cfiCond84) Conditional ??CrossCallReturnLabel_63
          CFI (cfiCond84) R6 load(1, XDATA, add(CFA_XSP16, literal(-22)))
          CFI (cfiCond84) VB load(1, XDATA, add(CFA_XSP16, literal(-21)))
          CFI (cfiCond84) V0 load(1, XDATA, add(CFA_XSP16, literal(-20)))
          CFI (cfiCond84) V1 load(1, XDATA, add(CFA_XSP16, literal(-19)))
          CFI (cfiCond84) V2 load(1, XDATA, add(CFA_XSP16, literal(-18)))
          CFI (cfiCond84) V3 load(1, XDATA, add(CFA_XSP16, literal(-17)))
          CFI (cfiCond84) V4 load(1, XDATA, add(CFA_XSP16, literal(-16)))
          CFI (cfiCond84) V5 load(1, XDATA, add(CFA_XSP16, literal(-15)))
          CFI (cfiCond84) V6 load(1, XDATA, add(CFA_XSP16, literal(-14)))
          CFI (cfiCond84) V7 load(1, XDATA, add(CFA_XSP16, literal(-13)))
          CFI (cfiCond84) V8 load(1, XDATA, add(CFA_XSP16, literal(-12)))
          CFI (cfiCond84) V9 load(1, XDATA, add(CFA_XSP16, literal(-11)))
          CFI (cfiCond84) V10 load(1, XDATA, add(CFA_XSP16, literal(-10)))
          CFI (cfiCond84) V11 load(1, XDATA, add(CFA_XSP16, literal(-9)))
          CFI (cfiCond84) V12 load(1, XDATA, add(CFA_XSP16, literal(-8)))
          CFI (cfiCond84) V13 load(1, XDATA, add(CFA_XSP16, literal(-7)))
          CFI (cfiCond84) R7 load(1, XDATA, add(CFA_XSP16, literal(-6)))
          CFI (cfiCond84) ?RET_LOW load(1, XDATA, add(CFA_XSP16, literal(-5)))
          CFI (cfiCond84) ?RET_HIGH load(1, XDATA, add(CFA_XSP16, literal(-4)))
          CFI (cfiCond84) ?BRET_EXT load(1, XDATA, add(CFA_XSP16, literal(-3)))
          CFI (cfiCond84) DPL0 load(1, XDATA, add(CFA_XSP16, literal(-2)))
          CFI (cfiCond84) DPH0 load(1, XDATA, add(CFA_XSP16, literal(-1)))
          CFI (cfiCond84) CFA_SP SP+-2
          CFI (cfiCond84) CFA_XSP16 add(XSP16, 22)
          CFI Block cfiPicker85 Using cfiCommon1
          CFI (cfiPicker85) NoFunction
          CFI (cfiPicker85) Picker
        MOV       A,?V8
        ADD       A,#0x1a
        LCALL     ?Subroutine46 & 0xFFFF
??CrossCallReturnLabel_93:
        RET
          CFI EndBlock cfiCond83
          CFI EndBlock cfiCond84
          CFI EndBlock cfiPicker85

        RSEG BANKED_CODE:HUGECODE:NOROOT(0)
?Subroutine46:
          CFI Block cfiCond86 Using cfiCommon0
          CFI Function MT_AfIncomingMsg
          CFI Conditional ??CrossCallReturnLabel_88
          CFI R6 load(1, XDATA, add(CFA_XSP16, literal(-22)))
          CFI VB load(1, XDATA, add(CFA_XSP16, literal(-21)))
          CFI V0 load(1, XDATA, add(CFA_XSP16, literal(-20)))
          CFI V1 load(1, XDATA, add(CFA_XSP16, literal(-19)))
          CFI V2 load(1, XDATA, add(CFA_XSP16, literal(-18)))
          CFI V3 load(1, XDATA, add(CFA_XSP16, literal(-17)))
          CFI V4 load(1, XDATA, add(CFA_XSP16, literal(-16)))
          CFI V5 load(1, XDATA, add(CFA_XSP16, literal(-15)))
          CFI V6 load(1, XDATA, add(CFA_XSP16, literal(-14)))
          CFI V7 load(1, XDATA, add(CFA_XSP16, literal(-13)))
          CFI V8 load(1, XDATA, add(CFA_XSP16, literal(-12)))
          CFI V9 load(1, XDATA, add(CFA_XSP16, literal(-11)))
          CFI V10 load(1, XDATA, add(CFA_XSP16, literal(-10)))
          CFI V11 load(1, XDATA, add(CFA_XSP16, literal(-9)))
          CFI V12 load(1, XDATA, add(CFA_XSP16, literal(-8)))
          CFI V13 load(1, XDATA, add(CFA_XSP16, literal(-7)))
          CFI R7 load(1, XDATA, add(CFA_XSP16, literal(-6)))
          CFI ?RET_LOW load(1, XDATA, add(CFA_XSP16, literal(-5)))
          CFI ?RET_HIGH load(1, XDATA, add(CFA_XSP16, literal(-4)))
          CFI ?BRET_EXT load(1, XDATA, add(CFA_XSP16, literal(-3)))
          CFI DPL0 load(1, XDATA, add(CFA_XSP16, literal(-2)))
          CFI DPH0 load(1, XDATA, add(CFA_XSP16, literal(-1)))
          CFI CFA_SP SP+-2
          CFI CFA_XSP16 add(XSP16, 22)
          CFI Block cfiCond87 Using cfiCommon0
          CFI (cfiCond87) Function MT_AfIncomingMsg
          CFI (cfiCond87) Conditional ??CrossCallReturnLabel_89
          CFI (cfiCond87) R6 load(1, XDATA, add(CFA_XSP16, literal(-22)))
          CFI (cfiCond87) VB load(1, XDATA, add(CFA_XSP16, literal(-21)))
          CFI (cfiCond87) V0 load(1, XDATA, add(CFA_XSP16, literal(-20)))
          CFI (cfiCond87) V1 load(1, XDATA, add(CFA_XSP16, literal(-19)))
          CFI (cfiCond87) V2 load(1, XDATA, add(CFA_XSP16, literal(-18)))
          CFI (cfiCond87) V3 load(1, XDATA, add(CFA_XSP16, literal(-17)))
          CFI (cfiCond87) V4 load(1, XDATA, add(CFA_XSP16, literal(-16)))
          CFI (cfiCond87) V5 load(1, XDATA, add(CFA_XSP16, literal(-15)))
          CFI (cfiCond87) V6 load(1, XDATA, add(CFA_XSP16, literal(-14)))
          CFI (cfiCond87) V7 load(1, XDATA, add(CFA_XSP16, literal(-13)))
          CFI (cfiCond87) V8 load(1, XDATA, add(CFA_XSP16, literal(-12)))
          CFI (cfiCond87) V9 load(1, XDATA, add(CFA_XSP16, literal(-11)))
          CFI (cfiCond87) V10 load(1, XDATA, add(CFA_XSP16, literal(-10)))
          CFI (cfiCond87) V11 load(1, XDATA, add(CFA_XSP16, literal(-9)))
          CFI (cfiCond87) V12 load(1, XDATA, add(CFA_XSP16, literal(-8)))
          CFI (cfiCond87) V13 load(1, XDATA, add(CFA_XSP16, literal(-7)))
          CFI (cfiCond87) R7 load(1, XDATA, add(CFA_XSP16, literal(-6)))
          CFI (cfiCond87) ?RET_LOW load(1, XDATA, add(CFA_XSP16, literal(-5)))
          CFI (cfiCond87) ?RET_HIGH load(1, XDATA, add(CFA_XSP16, literal(-4)))
          CFI (cfiCond87) ?BRET_EXT load(1, XDATA, add(CFA_XSP16, literal(-3)))
          CFI (cfiCond87) DPL0 load(1, XDATA, add(CFA_XSP16, literal(-2)))
          CFI (cfiCond87) DPH0 load(1, XDATA, add(CFA_XSP16, literal(-1)))
          CFI (cfiCond87) CFA_SP SP+-2
          CFI (cfiCond87) CFA_XSP16 add(XSP16, 22)
          CFI Block cfiCond88 Using cfiCommon0
          CFI (cfiCond88) Function MT_AfIncomingMsg
          CFI (cfiCond88) Conditional ??CrossCallReturnLabel_93, ??CrossCallReturnLabel_62
          CFI (cfiCond88) R6 load(1, XDATA, add(CFA_XSP16, literal(-22)))
          CFI (cfiCond88) VB load(1, XDATA, add(CFA_XSP16, literal(-21)))
          CFI (cfiCond88) V0 load(1, XDATA, add(CFA_XSP16, literal(-20)))
          CFI (cfiCond88) V1 load(1, XDATA, add(CFA_XSP16, literal(-19)))
          CFI (cfiCond88) V2 load(1, XDATA, add(CFA_XSP16, literal(-18)))
          CFI (cfiCond88) V3 load(1, XDATA, add(CFA_XSP16, literal(-17)))
          CFI (cfiCond88) V4 load(1, XDATA, add(CFA_XSP16, literal(-16)))
          CFI (cfiCond88) V5 load(1, XDATA, add(CFA_XSP16, literal(-15)))
          CFI (cfiCond88) V6 load(1, XDATA, add(CFA_XSP16, literal(-14)))
          CFI (cfiCond88) V7 load(1, XDATA, add(CFA_XSP16, literal(-13)))
          CFI (cfiCond88) V8 load(1, XDATA, add(CFA_XSP16, literal(-12)))
          CFI (cfiCond88) V9 load(1, XDATA, add(CFA_XSP16, literal(-11)))
          CFI (cfiCond88) V10 load(1, XDATA, add(CFA_XSP16, literal(-10)))
          CFI (cfiCond88) V11 load(1, XDATA, add(CFA_XSP16, literal(-9)))
          CFI (cfiCond88) V12 load(1, XDATA, add(CFA_XSP16, literal(-8)))
          CFI (cfiCond88) V13 load(1, XDATA, add(CFA_XSP16, literal(-7)))
          CFI (cfiCond88) R7 load(1, XDATA, add(CFA_XSP16, literal(-6)))
          CFI (cfiCond88) ?RET_LOW load(1, XDATA, add(CFA_XSP16, literal(-5)))
          CFI (cfiCond88) ?RET_HIGH load(1, XDATA, add(CFA_XSP16, literal(-4)))
          CFI (cfiCond88) ?BRET_EXT load(1, XDATA, add(CFA_XSP16, literal(-3)))
          CFI (cfiCond88) DPL0 load(1, XDATA, add(CFA_XSP16, literal(-2)))
          CFI (cfiCond88) DPH0 load(1, XDATA, add(CFA_XSP16, literal(-1)))
          CFI (cfiCond88) CFA_SP SP+-4
          CFI (cfiCond88) CFA_XSP16 add(XSP16, 22)
          CFI Block cfiCond89 Using cfiCommon0
          CFI (cfiCond89) Function MT_AfIncomingMsg
          CFI (cfiCond89) Conditional ??CrossCallReturnLabel_93, ??CrossCallReturnLabel_63
          CFI (cfiCond89) R6 load(1, XDATA, add(CFA_XSP16, literal(-22)))
          CFI (cfiCond89) VB load(1, XDATA, add(CFA_XSP16, literal(-21)))
          CFI (cfiCond89) V0 load(1, XDATA, add(CFA_XSP16, literal(-20)))
          CFI (cfiCond89) V1 load(1, XDATA, add(CFA_XSP16, literal(-19)))
          CFI (cfiCond89) V2 load(1, XDATA, add(CFA_XSP16, literal(-18)))
          CFI (cfiCond89) V3 load(1, XDATA, add(CFA_XSP16, literal(-17)))
          CFI (cfiCond89) V4 load(1, XDATA, add(CFA_XSP16, literal(-16)))
          CFI (cfiCond89) V5 load(1, XDATA, add(CFA_XSP16, literal(-15)))
          CFI (cfiCond89) V6 load(1, XDATA, add(CFA_XSP16, literal(-14)))
          CFI (cfiCond89) V7 load(1, XDATA, add(CFA_XSP16, literal(-13)))
          CFI (cfiCond89) V8 load(1, XDATA, add(CFA_XSP16, literal(-12)))
          CFI (cfiCond89) V9 load(1, XDATA, add(CFA_XSP16, literal(-11)))
          CFI (cfiCond89) V10 load(1, XDATA, add(CFA_XSP16, literal(-10)))
          CFI (cfiCond89) V11 load(1, XDATA, add(CFA_XSP16, literal(-9)))
          CFI (cfiCond89) V12 load(1, XDATA, add(CFA_XSP16, literal(-8)))
          CFI (cfiCond89) V13 load(1, XDATA, add(CFA_XSP16, literal(-7)))
          CFI (cfiCond89) R7 load(1, XDATA, add(CFA_XSP16, literal(-6)))
          CFI (cfiCond89) ?RET_LOW load(1, XDATA, add(CFA_XSP16, literal(-5)))
          CFI (cfiCond89) ?RET_HIGH load(1, XDATA, add(CFA_XSP16, literal(-4)))
          CFI (cfiCond89) ?BRET_EXT load(1, XDATA, add(CFA_XSP16, literal(-3)))
          CFI (cfiCond89) DPL0 load(1, XDATA, add(CFA_XSP16, literal(-2)))
          CFI (cfiCond89) DPH0 load(1, XDATA, add(CFA_XSP16, literal(-1)))
          CFI (cfiCond89) CFA_SP SP+-4
          CFI (cfiCond89) CFA_XSP16 add(XSP16, 22)
          CFI Block cfiCond90 Using cfiCommon0
          CFI (cfiCond90) Function MT_AfIncomingMsg
          CFI (cfiCond90) Conditional ??CrossCallReturnLabel_92, ??CrossCallReturnLabel_58
          CFI (cfiCond90) R6 load(1, XDATA, add(CFA_XSP16, literal(-22)))
          CFI (cfiCond90) VB load(1, XDATA, add(CFA_XSP16, literal(-21)))
          CFI (cfiCond90) V0 load(1, XDATA, add(CFA_XSP16, literal(-20)))
          CFI (cfiCond90) V1 load(1, XDATA, add(CFA_XSP16, literal(-19)))
          CFI (cfiCond90) V2 load(1, XDATA, add(CFA_XSP16, literal(-18)))
          CFI (cfiCond90) V3 load(1, XDATA, add(CFA_XSP16, literal(-17)))
          CFI (cfiCond90) V4 load(1, XDATA, add(CFA_XSP16, literal(-16)))
          CFI (cfiCond90) V5 load(1, XDATA, add(CFA_XSP16, literal(-15)))
          CFI (cfiCond90) V6 load(1, XDATA, add(CFA_XSP16, literal(-14)))
          CFI (cfiCond90) V7 load(1, XDATA, add(CFA_XSP16, literal(-13)))
          CFI (cfiCond90) V8 load(1, XDATA, add(CFA_XSP16, literal(-12)))
          CFI (cfiCond90) V9 load(1, XDATA, add(CFA_XSP16, literal(-11)))
          CFI (cfiCond90) V10 load(1, XDATA, add(CFA_XSP16, literal(-10)))
          CFI (cfiCond90) V11 load(1, XDATA, add(CFA_XSP16, literal(-9)))
          CFI (cfiCond90) V12 load(1, XDATA, add(CFA_XSP16, literal(-8)))
          CFI (cfiCond90) V13 load(1, XDATA, add(CFA_XSP16, literal(-7)))
          CFI (cfiCond90) R7 load(1, XDATA, add(CFA_XSP16, literal(-6)))
          CFI (cfiCond90) ?RET_LOW load(1, XDATA, add(CFA_XSP16, literal(-5)))
          CFI (cfiCond90) ?RET_HIGH load(1, XDATA, add(CFA_XSP16, literal(-4)))
          CFI (cfiCond90) ?BRET_EXT load(1, XDATA, add(CFA_XSP16, literal(-3)))
          CFI (cfiCond90) DPL0 load(1, XDATA, add(CFA_XSP16, literal(-2)))
          CFI (cfiCond90) DPH0 load(1, XDATA, add(CFA_XSP16, literal(-1)))
          CFI (cfiCond90) CFA_SP SP+-4
          CFI (cfiCond90) CFA_XSP16 add(XSP16, 22)
          CFI Block cfiCond91 Using cfiCommon0
          CFI (cfiCond91) Function MT_AfIncomingMsg
          CFI (cfiCond91) Conditional ??CrossCallReturnLabel_92, ??CrossCallReturnLabel_59
          CFI (cfiCond91) R6 load(1, XDATA, add(CFA_XSP16, literal(-22)))
          CFI (cfiCond91) VB load(1, XDATA, add(CFA_XSP16, literal(-21)))
          CFI (cfiCond91) V0 load(1, XDATA, add(CFA_XSP16, literal(-20)))
          CFI (cfiCond91) V1 load(1, XDATA, add(CFA_XSP16, literal(-19)))
          CFI (cfiCond91) V2 load(1, XDATA, add(CFA_XSP16, literal(-18)))
          CFI (cfiCond91) V3 load(1, XDATA, add(CFA_XSP16, literal(-17)))
          CFI (cfiCond91) V4 load(1, XDATA, add(CFA_XSP16, literal(-16)))
          CFI (cfiCond91) V5 load(1, XDATA, add(CFA_XSP16, literal(-15)))
          CFI (cfiCond91) V6 load(1, XDATA, add(CFA_XSP16, literal(-14)))
          CFI (cfiCond91) V7 load(1, XDATA, add(CFA_XSP16, literal(-13)))
          CFI (cfiCond91) V8 load(1, XDATA, add(CFA_XSP16, literal(-12)))
          CFI (cfiCond91) V9 load(1, XDATA, add(CFA_XSP16, literal(-11)))
          CFI (cfiCond91) V10 load(1, XDATA, add(CFA_XSP16, literal(-10)))
          CFI (cfiCond91) V11 load(1, XDATA, add(CFA_XSP16, literal(-9)))
          CFI (cfiCond91) V12 load(1, XDATA, add(CFA_XSP16, literal(-8)))
          CFI (cfiCond91) V13 load(1, XDATA, add(CFA_XSP16, literal(-7)))
          CFI (cfiCond91) R7 load(1, XDATA, add(CFA_XSP16, literal(-6)))
          CFI (cfiCond91) ?RET_LOW load(1, XDATA, add(CFA_XSP16, literal(-5)))
          CFI (cfiCond91) ?RET_HIGH load(1, XDATA, add(CFA_XSP16, literal(-4)))
          CFI (cfiCond91) ?BRET_EXT load(1, XDATA, add(CFA_XSP16, literal(-3)))
          CFI (cfiCond91) DPL0 load(1, XDATA, add(CFA_XSP16, literal(-2)))
          CFI (cfiCond91) DPH0 load(1, XDATA, add(CFA_XSP16, literal(-1)))
          CFI (cfiCond91) CFA_SP SP+-4
          CFI (cfiCond91) CFA_XSP16 add(XSP16, 22)
          CFI Block cfiCond92 Using cfiCommon0
          CFI (cfiCond92) Function MT_AfIncomingMsg
          CFI (cfiCond92) Conditional ??CrossCallReturnLabel_92, ??CrossCallReturnLabel_60
          CFI (cfiCond92) R6 load(1, XDATA, add(CFA_XSP16, literal(-22)))
          CFI (cfiCond92) VB load(1, XDATA, add(CFA_XSP16, literal(-21)))
          CFI (cfiCond92) V0 load(1, XDATA, add(CFA_XSP16, literal(-20)))
          CFI (cfiCond92) V1 load(1, XDATA, add(CFA_XSP16, literal(-19)))
          CFI (cfiCond92) V2 load(1, XDATA, add(CFA_XSP16, literal(-18)))
          CFI (cfiCond92) V3 load(1, XDATA, add(CFA_XSP16, literal(-17)))
          CFI (cfiCond92) V4 load(1, XDATA, add(CFA_XSP16, literal(-16)))
          CFI (cfiCond92) V5 load(1, XDATA, add(CFA_XSP16, literal(-15)))
          CFI (cfiCond92) V6 load(1, XDATA, add(CFA_XSP16, literal(-14)))
          CFI (cfiCond92) V7 load(1, XDATA, add(CFA_XSP16, literal(-13)))
          CFI (cfiCond92) V8 load(1, XDATA, add(CFA_XSP16, literal(-12)))
          CFI (cfiCond92) V9 load(1, XDATA, add(CFA_XSP16, literal(-11)))
          CFI (cfiCond92) V10 load(1, XDATA, add(CFA_XSP16, literal(-10)))
          CFI (cfiCond92) V11 load(1, XDATA, add(CFA_XSP16, literal(-9)))
          CFI (cfiCond92) V12 load(1, XDATA, add(CFA_XSP16, literal(-8)))
          CFI (cfiCond92) V13 load(1, XDATA, add(CFA_XSP16, literal(-7)))
          CFI (cfiCond92) R7 load(1, XDATA, add(CFA_XSP16, literal(-6)))
          CFI (cfiCond92) ?RET_LOW load(1, XDATA, add(CFA_XSP16, literal(-5)))
          CFI (cfiCond92) ?RET_HIGH load(1, XDATA, add(CFA_XSP16, literal(-4)))
          CFI (cfiCond92) ?BRET_EXT load(1, XDATA, add(CFA_XSP16, literal(-3)))
          CFI (cfiCond92) DPL0 load(1, XDATA, add(CFA_XSP16, literal(-2)))
          CFI (cfiCond92) DPH0 load(1, XDATA, add(CFA_XSP16, literal(-1)))
          CFI (cfiCond92) CFA_SP SP+-4
          CFI (cfiCond92) CFA_XSP16 add(XSP16, 22)
          CFI Block cfiCond93 Using cfiCommon0
          CFI (cfiCond93) Function MT_AfIncomingMsg
          CFI (cfiCond93) Conditional ??CrossCallReturnLabel_92, ??CrossCallReturnLabel_61
          CFI (cfiCond93) R6 load(1, XDATA, add(CFA_XSP16, literal(-22)))
          CFI (cfiCond93) VB load(1, XDATA, add(CFA_XSP16, literal(-21)))
          CFI (cfiCond93) V0 load(1, XDATA, add(CFA_XSP16, literal(-20)))
          CFI (cfiCond93) V1 load(1, XDATA, add(CFA_XSP16, literal(-19)))
          CFI (cfiCond93) V2 load(1, XDATA, add(CFA_XSP16, literal(-18)))
          CFI (cfiCond93) V3 load(1, XDATA, add(CFA_XSP16, literal(-17)))
          CFI (cfiCond93) V4 load(1, XDATA, add(CFA_XSP16, literal(-16)))
          CFI (cfiCond93) V5 load(1, XDATA, add(CFA_XSP16, literal(-15)))
          CFI (cfiCond93) V6 load(1, XDATA, add(CFA_XSP16, literal(-14)))
          CFI (cfiCond93) V7 load(1, XDATA, add(CFA_XSP16, literal(-13)))
          CFI (cfiCond93) V8 load(1, XDATA, add(CFA_XSP16, literal(-12)))
          CFI (cfiCond93) V9 load(1, XDATA, add(CFA_XSP16, literal(-11)))
          CFI (cfiCond93) V10 load(1, XDATA, add(CFA_XSP16, literal(-10)))
          CFI (cfiCond93) V11 load(1, XDATA, add(CFA_XSP16, literal(-9)))
          CFI (cfiCond93) V12 load(1, XDATA, add(CFA_XSP16, literal(-8)))
          CFI (cfiCond93) V13 load(1, XDATA, add(CFA_XSP16, literal(-7)))
          CFI (cfiCond93) R7 load(1, XDATA, add(CFA_XSP16, literal(-6)))
          CFI (cfiCond93) ?RET_LOW load(1, XDATA, add(CFA_XSP16, literal(-5)))
          CFI (cfiCond93) ?RET_HIGH load(1, XDATA, add(CFA_XSP16, literal(-4)))
          CFI (cfiCond93) ?BRET_EXT load(1, XDATA, add(CFA_XSP16, literal(-3)))
          CFI (cfiCond93) DPL0 load(1, XDATA, add(CFA_XSP16, literal(-2)))
          CFI (cfiCond93) DPH0 load(1, XDATA, add(CFA_XSP16, literal(-1)))
          CFI (cfiCond93) CFA_SP SP+-4
          CFI (cfiCond93) CFA_XSP16 add(XSP16, 22)
          CFI Block cfiCond94 Using cfiCommon0
          CFI (cfiCond94) Function MT_AfIncomingMsg
          CFI (cfiCond94) Conditional ??CrossCallReturnLabel_91, ??CrossCallReturnLabel_21
          CFI (cfiCond94) R6 load(1, XDATA, add(CFA_XSP16, literal(-22)))
          CFI (cfiCond94) VB load(1, XDATA, add(CFA_XSP16, literal(-21)))
          CFI (cfiCond94) V0 load(1, XDATA, add(CFA_XSP16, literal(-20)))
          CFI (cfiCond94) V1 load(1, XDATA, add(CFA_XSP16, literal(-19)))
          CFI (cfiCond94) V2 load(1, XDATA, add(CFA_XSP16, literal(-18)))
          CFI (cfiCond94) V3 load(1, XDATA, add(CFA_XSP16, literal(-17)))
          CFI (cfiCond94) V4 load(1, XDATA, add(CFA_XSP16, literal(-16)))
          CFI (cfiCond94) V5 load(1, XDATA, add(CFA_XSP16, literal(-15)))
          CFI (cfiCond94) V6 load(1, XDATA, add(CFA_XSP16, literal(-14)))
          CFI (cfiCond94) V7 load(1, XDATA, add(CFA_XSP16, literal(-13)))
          CFI (cfiCond94) V8 load(1, XDATA, add(CFA_XSP16, literal(-12)))
          CFI (cfiCond94) V9 load(1, XDATA, add(CFA_XSP16, literal(-11)))
          CFI (cfiCond94) V10 load(1, XDATA, add(CFA_XSP16, literal(-10)))
          CFI (cfiCond94) V11 load(1, XDATA, add(CFA_XSP16, literal(-9)))
          CFI (cfiCond94) V12 load(1, XDATA, add(CFA_XSP16, literal(-8)))
          CFI (cfiCond94) V13 load(1, XDATA, add(CFA_XSP16, literal(-7)))
          CFI (cfiCond94) R7 load(1, XDATA, add(CFA_XSP16, literal(-6)))
          CFI (cfiCond94) ?RET_LOW load(1, XDATA, add(CFA_XSP16, literal(-5)))
          CFI (cfiCond94) ?RET_HIGH load(1, XDATA, add(CFA_XSP16, literal(-4)))
          CFI (cfiCond94) ?BRET_EXT load(1, XDATA, add(CFA_XSP16, literal(-3)))
          CFI (cfiCond94) DPL0 load(1, XDATA, add(CFA_XSP16, literal(-2)))
          CFI (cfiCond94) DPH0 load(1, XDATA, add(CFA_XSP16, literal(-1)))
          CFI (cfiCond94) CFA_SP SP+-4
          CFI (cfiCond94) CFA_XSP16 add(XSP16, 22)
          CFI Block cfiCond95 Using cfiCommon0
          CFI (cfiCond95) Function MT_AfIncomingMsg
          CFI (cfiCond95) Conditional ??CrossCallReturnLabel_91, ??CrossCallReturnLabel_22
          CFI (cfiCond95) R6 load(1, XDATA, add(CFA_XSP16, literal(-22)))
          CFI (cfiCond95) VB load(1, XDATA, add(CFA_XSP16, literal(-21)))
          CFI (cfiCond95) V0 load(1, XDATA, add(CFA_XSP16, literal(-20)))
          CFI (cfiCond95) V1 load(1, XDATA, add(CFA_XSP16, literal(-19)))
          CFI (cfiCond95) V2 load(1, XDATA, add(CFA_XSP16, literal(-18)))
          CFI (cfiCond95) V3 load(1, XDATA, add(CFA_XSP16, literal(-17)))
          CFI (cfiCond95) V4 load(1, XDATA, add(CFA_XSP16, literal(-16)))
          CFI (cfiCond95) V5 load(1, XDATA, add(CFA_XSP16, literal(-15)))
          CFI (cfiCond95) V6 load(1, XDATA, add(CFA_XSP16, literal(-14)))
          CFI (cfiCond95) V7 load(1, XDATA, add(CFA_XSP16, literal(-13)))
          CFI (cfiCond95) V8 load(1, XDATA, add(CFA_XSP16, literal(-12)))
          CFI (cfiCond95) V9 load(1, XDATA, add(CFA_XSP16, literal(-11)))
          CFI (cfiCond95) V10 load(1, XDATA, add(CFA_XSP16, literal(-10)))
          CFI (cfiCond95) V11 load(1, XDATA, add(CFA_XSP16, literal(-9)))
          CFI (cfiCond95) V12 load(1, XDATA, add(CFA_XSP16, literal(-8)))
          CFI (cfiCond95) V13 load(1, XDATA, add(CFA_XSP16, literal(-7)))
          CFI (cfiCond95) R7 load(1, XDATA, add(CFA_XSP16, literal(-6)))
          CFI (cfiCond95) ?RET_LOW load(1, XDATA, add(CFA_XSP16, literal(-5)))
          CFI (cfiCond95) ?RET_HIGH load(1, XDATA, add(CFA_XSP16, literal(-4)))
          CFI (cfiCond95) ?BRET_EXT load(1, XDATA, add(CFA_XSP16, literal(-3)))
          CFI (cfiCond95) DPL0 load(1, XDATA, add(CFA_XSP16, literal(-2)))
          CFI (cfiCond95) DPH0 load(1, XDATA, add(CFA_XSP16, literal(-1)))
          CFI (cfiCond95) CFA_SP SP+-4
          CFI (cfiCond95) CFA_XSP16 add(XSP16, 22)
          CFI Block cfiCond96 Using cfiCommon0
          CFI (cfiCond96) Function MT_AfIncomingMsg
          CFI (cfiCond96) Conditional ??CrossCallReturnLabel_90, ??CrossCallReturnLabel_17
          CFI (cfiCond96) R6 load(1, XDATA, add(CFA_XSP16, literal(-22)))
          CFI (cfiCond96) VB load(1, XDATA, add(CFA_XSP16, literal(-21)))
          CFI (cfiCond96) V0 load(1, XDATA, add(CFA_XSP16, literal(-20)))
          CFI (cfiCond96) V1 load(1, XDATA, add(CFA_XSP16, literal(-19)))
          CFI (cfiCond96) V2 load(1, XDATA, add(CFA_XSP16, literal(-18)))
          CFI (cfiCond96) V3 load(1, XDATA, add(CFA_XSP16, literal(-17)))
          CFI (cfiCond96) V4 load(1, XDATA, add(CFA_XSP16, literal(-16)))
          CFI (cfiCond96) V5 load(1, XDATA, add(CFA_XSP16, literal(-15)))
          CFI (cfiCond96) V6 load(1, XDATA, add(CFA_XSP16, literal(-14)))
          CFI (cfiCond96) V7 load(1, XDATA, add(CFA_XSP16, literal(-13)))
          CFI (cfiCond96) V8 load(1, XDATA, add(CFA_XSP16, literal(-12)))
          CFI (cfiCond96) V9 load(1, XDATA, add(CFA_XSP16, literal(-11)))
          CFI (cfiCond96) V10 load(1, XDATA, add(CFA_XSP16, literal(-10)))
          CFI (cfiCond96) V11 load(1, XDATA, add(CFA_XSP16, literal(-9)))
          CFI (cfiCond96) V12 load(1, XDATA, add(CFA_XSP16, literal(-8)))
          CFI (cfiCond96) V13 load(1, XDATA, add(CFA_XSP16, literal(-7)))
          CFI (cfiCond96) R7 load(1, XDATA, add(CFA_XSP16, literal(-6)))
          CFI (cfiCond96) ?RET_LOW load(1, XDATA, add(CFA_XSP16, literal(-5)))
          CFI (cfiCond96) ?RET_HIGH load(1, XDATA, add(CFA_XSP16, literal(-4)))
          CFI (cfiCond96) ?BRET_EXT load(1, XDATA, add(CFA_XSP16, literal(-3)))
          CFI (cfiCond96) DPL0 load(1, XDATA, add(CFA_XSP16, literal(-2)))
          CFI (cfiCond96) DPH0 load(1, XDATA, add(CFA_XSP16, literal(-1)))
          CFI (cfiCond96) CFA_SP SP+-4
          CFI (cfiCond96) CFA_XSP16 add(XSP16, 22)
          CFI Block cfiCond97 Using cfiCommon0
          CFI (cfiCond97) Function MT_AfIncomingMsg
          CFI (cfiCond97) Conditional ??CrossCallReturnLabel_90, ??CrossCallReturnLabel_18
          CFI (cfiCond97) R6 load(1, XDATA, add(CFA_XSP16, literal(-22)))
          CFI (cfiCond97) VB load(1, XDATA, add(CFA_XSP16, literal(-21)))
          CFI (cfiCond97) V0 load(1, XDATA, add(CFA_XSP16, literal(-20)))
          CFI (cfiCond97) V1 load(1, XDATA, add(CFA_XSP16, literal(-19)))
          CFI (cfiCond97) V2 load(1, XDATA, add(CFA_XSP16, literal(-18)))
          CFI (cfiCond97) V3 load(1, XDATA, add(CFA_XSP16, literal(-17)))
          CFI (cfiCond97) V4 load(1, XDATA, add(CFA_XSP16, literal(-16)))
          CFI (cfiCond97) V5 load(1, XDATA, add(CFA_XSP16, literal(-15)))
          CFI (cfiCond97) V6 load(1, XDATA, add(CFA_XSP16, literal(-14)))
          CFI (cfiCond97) V7 load(1, XDATA, add(CFA_XSP16, literal(-13)))
          CFI (cfiCond97) V8 load(1, XDATA, add(CFA_XSP16, literal(-12)))
          CFI (cfiCond97) V9 load(1, XDATA, add(CFA_XSP16, literal(-11)))
          CFI (cfiCond97) V10 load(1, XDATA, add(CFA_XSP16, literal(-10)))
          CFI (cfiCond97) V11 load(1, XDATA, add(CFA_XSP16, literal(-9)))
          CFI (cfiCond97) V12 load(1, XDATA, add(CFA_XSP16, literal(-8)))
          CFI (cfiCond97) V13 load(1, XDATA, add(CFA_XSP16, literal(-7)))
          CFI (cfiCond97) R7 load(1, XDATA, add(CFA_XSP16, literal(-6)))
          CFI (cfiCond97) ?RET_LOW load(1, XDATA, add(CFA_XSP16, literal(-5)))
          CFI (cfiCond97) ?RET_HIGH load(1, XDATA, add(CFA_XSP16, literal(-4)))
          CFI (cfiCond97) ?BRET_EXT load(1, XDATA, add(CFA_XSP16, literal(-3)))
          CFI (cfiCond97) DPL0 load(1, XDATA, add(CFA_XSP16, literal(-2)))
          CFI (cfiCond97) DPH0 load(1, XDATA, add(CFA_XSP16, literal(-1)))
          CFI (cfiCond97) CFA_SP SP+-4
          CFI (cfiCond97) CFA_XSP16 add(XSP16, 22)
          CFI Block cfiPicker98 Using cfiCommon1
          CFI (cfiPicker98) NoFunction
          CFI (cfiPicker98) Picker
        MOV       DPL,A
        CLR       A
        ADDC      A,?V9
        MOV       DPH,A
        RET
          CFI EndBlock cfiCond86
          CFI EndBlock cfiCond87
          CFI EndBlock cfiCond88
          CFI EndBlock cfiCond89
          CFI EndBlock cfiCond90
          CFI EndBlock cfiCond91
          CFI EndBlock cfiCond92
          CFI EndBlock cfiCond93
          CFI EndBlock cfiCond94
          CFI EndBlock cfiCond95
          CFI EndBlock cfiCond96
          CFI EndBlock cfiCond97
          CFI EndBlock cfiPicker98

        RSEG BANKED_CODE:HUGECODE:NOROOT(0)
?Subroutine34:
          CFI Block cfiCond99 Using cfiCommon0
          CFI Function MT_AfIncomingMsg
          CFI Conditional ??CrossCallReturnLabel_58
          CFI R6 load(1, XDATA, add(CFA_XSP16, literal(-22)))
          CFI VB load(1, XDATA, add(CFA_XSP16, literal(-21)))
          CFI V0 load(1, XDATA, add(CFA_XSP16, literal(-20)))
          CFI V1 load(1, XDATA, add(CFA_XSP16, literal(-19)))
          CFI V2 load(1, XDATA, add(CFA_XSP16, literal(-18)))
          CFI V3 load(1, XDATA, add(CFA_XSP16, literal(-17)))
          CFI V4 load(1, XDATA, add(CFA_XSP16, literal(-16)))
          CFI V5 load(1, XDATA, add(CFA_XSP16, literal(-15)))
          CFI V6 load(1, XDATA, add(CFA_XSP16, literal(-14)))
          CFI V7 load(1, XDATA, add(CFA_XSP16, literal(-13)))
          CFI V8 load(1, XDATA, add(CFA_XSP16, literal(-12)))
          CFI V9 load(1, XDATA, add(CFA_XSP16, literal(-11)))
          CFI V10 load(1, XDATA, add(CFA_XSP16, literal(-10)))
          CFI V11 load(1, XDATA, add(CFA_XSP16, literal(-9)))
          CFI V12 load(1, XDATA, add(CFA_XSP16, literal(-8)))
          CFI V13 load(1, XDATA, add(CFA_XSP16, literal(-7)))
          CFI R7 load(1, XDATA, add(CFA_XSP16, literal(-6)))
          CFI ?RET_LOW load(1, XDATA, add(CFA_XSP16, literal(-5)))
          CFI ?RET_HIGH load(1, XDATA, add(CFA_XSP16, literal(-4)))
          CFI ?BRET_EXT load(1, XDATA, add(CFA_XSP16, literal(-3)))
          CFI DPL0 load(1, XDATA, add(CFA_XSP16, literal(-2)))
          CFI DPH0 load(1, XDATA, add(CFA_XSP16, literal(-1)))
          CFI CFA_SP SP+-2
          CFI CFA_XSP16 add(XSP16, 22)
          CFI Block cfiCond100 Using cfiCommon0
          CFI (cfiCond100) Function MT_AfIncomingMsg
          CFI (cfiCond100) Conditional ??CrossCallReturnLabel_59
          CFI (cfiCond100) R6 load(1, XDATA, add(CFA_XSP16, literal(-22)))
          CFI (cfiCond100) VB load(1, XDATA, add(CFA_XSP16, literal(-21)))
          CFI (cfiCond100) V0 load(1, XDATA, add(CFA_XSP16, literal(-20)))
          CFI (cfiCond100) V1 load(1, XDATA, add(CFA_XSP16, literal(-19)))
          CFI (cfiCond100) V2 load(1, XDATA, add(CFA_XSP16, literal(-18)))
          CFI (cfiCond100) V3 load(1, XDATA, add(CFA_XSP16, literal(-17)))
          CFI (cfiCond100) V4 load(1, XDATA, add(CFA_XSP16, literal(-16)))
          CFI (cfiCond100) V5 load(1, XDATA, add(CFA_XSP16, literal(-15)))
          CFI (cfiCond100) V6 load(1, XDATA, add(CFA_XSP16, literal(-14)))
          CFI (cfiCond100) V7 load(1, XDATA, add(CFA_XSP16, literal(-13)))
          CFI (cfiCond100) V8 load(1, XDATA, add(CFA_XSP16, literal(-12)))
          CFI (cfiCond100) V9 load(1, XDATA, add(CFA_XSP16, literal(-11)))
          CFI (cfiCond100) V10 load(1, XDATA, add(CFA_XSP16, literal(-10)))
          CFI (cfiCond100) V11 load(1, XDATA, add(CFA_XSP16, literal(-9)))
          CFI (cfiCond100) V12 load(1, XDATA, add(CFA_XSP16, literal(-8)))
          CFI (cfiCond100) V13 load(1, XDATA, add(CFA_XSP16, literal(-7)))
          CFI (cfiCond100) R7 load(1, XDATA, add(CFA_XSP16, literal(-6)))
          CFI (cfiCond100) ?RET_LOW load(1, XDATA, add(CFA_XSP16, literal(-5)))
          CFI (cfiCond100) ?RET_HIGH load(1, XDATA, add(CFA_XSP16, literal(-4)))
          CFI (cfiCond100) ?BRET_EXT load(1, XDATA, add(CFA_XSP16, literal(-3)))
          CFI (cfiCond100) DPL0 load(1, XDATA, add(CFA_XSP16, literal(-2)))
          CFI (cfiCond100) DPH0 load(1, XDATA, add(CFA_XSP16, literal(-1)))
          CFI (cfiCond100) CFA_SP SP+-2
          CFI (cfiCond100) CFA_XSP16 add(XSP16, 22)
          CFI Block cfiCond101 Using cfiCommon0
          CFI (cfiCond101) Function MT_AfIncomingMsg
          CFI (cfiCond101) Conditional ??CrossCallReturnLabel_60
          CFI (cfiCond101) R6 load(1, XDATA, add(CFA_XSP16, literal(-22)))
          CFI (cfiCond101) VB load(1, XDATA, add(CFA_XSP16, literal(-21)))
          CFI (cfiCond101) V0 load(1, XDATA, add(CFA_XSP16, literal(-20)))
          CFI (cfiCond101) V1 load(1, XDATA, add(CFA_XSP16, literal(-19)))
          CFI (cfiCond101) V2 load(1, XDATA, add(CFA_XSP16, literal(-18)))
          CFI (cfiCond101) V3 load(1, XDATA, add(CFA_XSP16, literal(-17)))
          CFI (cfiCond101) V4 load(1, XDATA, add(CFA_XSP16, literal(-16)))
          CFI (cfiCond101) V5 load(1, XDATA, add(CFA_XSP16, literal(-15)))
          CFI (cfiCond101) V6 load(1, XDATA, add(CFA_XSP16, literal(-14)))
          CFI (cfiCond101) V7 load(1, XDATA, add(CFA_XSP16, literal(-13)))
          CFI (cfiCond101) V8 load(1, XDATA, add(CFA_XSP16, literal(-12)))
          CFI (cfiCond101) V9 load(1, XDATA, add(CFA_XSP16, literal(-11)))
          CFI (cfiCond101) V10 load(1, XDATA, add(CFA_XSP16, literal(-10)))
          CFI (cfiCond101) V11 load(1, XDATA, add(CFA_XSP16, literal(-9)))
          CFI (cfiCond101) V12 load(1, XDATA, add(CFA_XSP16, literal(-8)))
          CFI (cfiCond101) V13 load(1, XDATA, add(CFA_XSP16, literal(-7)))
          CFI (cfiCond101) R7 load(1, XDATA, add(CFA_XSP16, literal(-6)))
          CFI (cfiCond101) ?RET_LOW load(1, XDATA, add(CFA_XSP16, literal(-5)))
          CFI (cfiCond101) ?RET_HIGH load(1, XDATA, add(CFA_XSP16, literal(-4)))
          CFI (cfiCond101) ?BRET_EXT load(1, XDATA, add(CFA_XSP16, literal(-3)))
          CFI (cfiCond101) DPL0 load(1, XDATA, add(CFA_XSP16, literal(-2)))
          CFI (cfiCond101) DPH0 load(1, XDATA, add(CFA_XSP16, literal(-1)))
          CFI (cfiCond101) CFA_SP SP+-2
          CFI (cfiCond101) CFA_XSP16 add(XSP16, 22)
          CFI Block cfiCond102 Using cfiCommon0
          CFI (cfiCond102) Function MT_AfIncomingMsg
          CFI (cfiCond102) Conditional ??CrossCallReturnLabel_61
          CFI (cfiCond102) R6 load(1, XDATA, add(CFA_XSP16, literal(-22)))
          CFI (cfiCond102) VB load(1, XDATA, add(CFA_XSP16, literal(-21)))
          CFI (cfiCond102) V0 load(1, XDATA, add(CFA_XSP16, literal(-20)))
          CFI (cfiCond102) V1 load(1, XDATA, add(CFA_XSP16, literal(-19)))
          CFI (cfiCond102) V2 load(1, XDATA, add(CFA_XSP16, literal(-18)))
          CFI (cfiCond102) V3 load(1, XDATA, add(CFA_XSP16, literal(-17)))
          CFI (cfiCond102) V4 load(1, XDATA, add(CFA_XSP16, literal(-16)))
          CFI (cfiCond102) V5 load(1, XDATA, add(CFA_XSP16, literal(-15)))
          CFI (cfiCond102) V6 load(1, XDATA, add(CFA_XSP16, literal(-14)))
          CFI (cfiCond102) V7 load(1, XDATA, add(CFA_XSP16, literal(-13)))
          CFI (cfiCond102) V8 load(1, XDATA, add(CFA_XSP16, literal(-12)))
          CFI (cfiCond102) V9 load(1, XDATA, add(CFA_XSP16, literal(-11)))
          CFI (cfiCond102) V10 load(1, XDATA, add(CFA_XSP16, literal(-10)))
          CFI (cfiCond102) V11 load(1, XDATA, add(CFA_XSP16, literal(-9)))
          CFI (cfiCond102) V12 load(1, XDATA, add(CFA_XSP16, literal(-8)))
          CFI (cfiCond102) V13 load(1, XDATA, add(CFA_XSP16, literal(-7)))
          CFI (cfiCond102) R7 load(1, XDATA, add(CFA_XSP16, literal(-6)))
          CFI (cfiCond102) ?RET_LOW load(1, XDATA, add(CFA_XSP16, literal(-5)))
          CFI (cfiCond102) ?RET_HIGH load(1, XDATA, add(CFA_XSP16, literal(-4)))
          CFI (cfiCond102) ?BRET_EXT load(1, XDATA, add(CFA_XSP16, literal(-3)))
          CFI (cfiCond102) DPL0 load(1, XDATA, add(CFA_XSP16, literal(-2)))
          CFI (cfiCond102) DPH0 load(1, XDATA, add(CFA_XSP16, literal(-1)))
          CFI (cfiCond102) CFA_SP SP+-2
          CFI (cfiCond102) CFA_XSP16 add(XSP16, 22)
          CFI Block cfiPicker103 Using cfiCommon1
          CFI (cfiPicker103) NoFunction
          CFI (cfiPicker103) Picker
        LCALL     ?Subroutine46 & 0xFFFF
??CrossCallReturnLabel_92:
        MOVX      A,@DPTR
        RET
          CFI EndBlock cfiCond99
          CFI EndBlock cfiCond100
          CFI EndBlock cfiCond101
          CFI EndBlock cfiCond102
          CFI EndBlock cfiPicker103

        RSEG BANKED_CODE:HUGECODE:NOROOT(0)
?Subroutine33:
          CFI Block cfiCond104 Using cfiCommon0
          CFI Function MT_AfIncomingMsg
          CFI Conditional ??CrossCallReturnLabel_55
          CFI R6 load(1, XDATA, add(CFA_XSP16, literal(-22)))
          CFI VB load(1, XDATA, add(CFA_XSP16, literal(-21)))
          CFI V0 load(1, XDATA, add(CFA_XSP16, literal(-20)))
          CFI V1 load(1, XDATA, add(CFA_XSP16, literal(-19)))
          CFI V2 load(1, XDATA, add(CFA_XSP16, literal(-18)))
          CFI V3 load(1, XDATA, add(CFA_XSP16, literal(-17)))
          CFI V4 load(1, XDATA, add(CFA_XSP16, literal(-16)))
          CFI V5 load(1, XDATA, add(CFA_XSP16, literal(-15)))
          CFI V6 load(1, XDATA, add(CFA_XSP16, literal(-14)))
          CFI V7 load(1, XDATA, add(CFA_XSP16, literal(-13)))
          CFI V8 load(1, XDATA, add(CFA_XSP16, literal(-12)))
          CFI V9 load(1, XDATA, add(CFA_XSP16, literal(-11)))
          CFI V10 load(1, XDATA, add(CFA_XSP16, literal(-10)))
          CFI V11 load(1, XDATA, add(CFA_XSP16, literal(-9)))
          CFI V12 load(1, XDATA, add(CFA_XSP16, literal(-8)))
          CFI V13 load(1, XDATA, add(CFA_XSP16, literal(-7)))
          CFI R7 load(1, XDATA, add(CFA_XSP16, literal(-6)))
          CFI ?RET_LOW load(1, XDATA, add(CFA_XSP16, literal(-5)))
          CFI ?RET_HIGH load(1, XDATA, add(CFA_XSP16, literal(-4)))
          CFI ?BRET_EXT load(1, XDATA, add(CFA_XSP16, literal(-3)))
          CFI DPL0 load(1, XDATA, add(CFA_XSP16, literal(-2)))
          CFI DPH0 load(1, XDATA, add(CFA_XSP16, literal(-1)))
          CFI CFA_SP SP+-2
          CFI CFA_XSP16 add(XSP16, 22)
          CFI Block cfiCond105 Using cfiCommon0
          CFI (cfiCond105) Function MT_AfIncomingMsg
          CFI (cfiCond105) Conditional ??CrossCallReturnLabel_56
          CFI (cfiCond105) R6 load(1, XDATA, add(CFA_XSP16, literal(-22)))
          CFI (cfiCond105) VB load(1, XDATA, add(CFA_XSP16, literal(-21)))
          CFI (cfiCond105) V0 load(1, XDATA, add(CFA_XSP16, literal(-20)))
          CFI (cfiCond105) V1 load(1, XDATA, add(CFA_XSP16, literal(-19)))
          CFI (cfiCond105) V2 load(1, XDATA, add(CFA_XSP16, literal(-18)))
          CFI (cfiCond105) V3 load(1, XDATA, add(CFA_XSP16, literal(-17)))
          CFI (cfiCond105) V4 load(1, XDATA, add(CFA_XSP16, literal(-16)))
          CFI (cfiCond105) V5 load(1, XDATA, add(CFA_XSP16, literal(-15)))
          CFI (cfiCond105) V6 load(1, XDATA, add(CFA_XSP16, literal(-14)))
          CFI (cfiCond105) V7 load(1, XDATA, add(CFA_XSP16, literal(-13)))
          CFI (cfiCond105) V8 load(1, XDATA, add(CFA_XSP16, literal(-12)))
          CFI (cfiCond105) V9 load(1, XDATA, add(CFA_XSP16, literal(-11)))
          CFI (cfiCond105) V10 load(1, XDATA, add(CFA_XSP16, literal(-10)))
          CFI (cfiCond105) V11 load(1, XDATA, add(CFA_XSP16, literal(-9)))
          CFI (cfiCond105) V12 load(1, XDATA, add(CFA_XSP16, literal(-8)))
          CFI (cfiCond105) V13 load(1, XDATA, add(CFA_XSP16, literal(-7)))
          CFI (cfiCond105) R7 load(1, XDATA, add(CFA_XSP16, literal(-6)))
          CFI (cfiCond105) ?RET_LOW load(1, XDATA, add(CFA_XSP16, literal(-5)))
          CFI (cfiCond105) ?RET_HIGH load(1, XDATA, add(CFA_XSP16, literal(-4)))
          CFI (cfiCond105) ?BRET_EXT load(1, XDATA, add(CFA_XSP16, literal(-3)))
          CFI (cfiCond105) DPL0 load(1, XDATA, add(CFA_XSP16, literal(-2)))
          CFI (cfiCond105) DPH0 load(1, XDATA, add(CFA_XSP16, literal(-1)))
          CFI (cfiCond105) CFA_SP SP+-2
          CFI (cfiCond105) CFA_XSP16 add(XSP16, 22)
          CFI Block cfiCond106 Using cfiCommon0
          CFI (cfiCond106) Function MT_AfIncomingMsg
          CFI (cfiCond106) Conditional ??CrossCallReturnLabel_57
          CFI (cfiCond106) R6 load(1, XDATA, add(CFA_XSP16, literal(-22)))
          CFI (cfiCond106) VB load(1, XDATA, add(CFA_XSP16, literal(-21)))
          CFI (cfiCond106) V0 load(1, XDATA, add(CFA_XSP16, literal(-20)))
          CFI (cfiCond106) V1 load(1, XDATA, add(CFA_XSP16, literal(-19)))
          CFI (cfiCond106) V2 load(1, XDATA, add(CFA_XSP16, literal(-18)))
          CFI (cfiCond106) V3 load(1, XDATA, add(CFA_XSP16, literal(-17)))
          CFI (cfiCond106) V4 load(1, XDATA, add(CFA_XSP16, literal(-16)))
          CFI (cfiCond106) V5 load(1, XDATA, add(CFA_XSP16, literal(-15)))
          CFI (cfiCond106) V6 load(1, XDATA, add(CFA_XSP16, literal(-14)))
          CFI (cfiCond106) V7 load(1, XDATA, add(CFA_XSP16, literal(-13)))
          CFI (cfiCond106) V8 load(1, XDATA, add(CFA_XSP16, literal(-12)))
          CFI (cfiCond106) V9 load(1, XDATA, add(CFA_XSP16, literal(-11)))
          CFI (cfiCond106) V10 load(1, XDATA, add(CFA_XSP16, literal(-10)))
          CFI (cfiCond106) V11 load(1, XDATA, add(CFA_XSP16, literal(-9)))
          CFI (cfiCond106) V12 load(1, XDATA, add(CFA_XSP16, literal(-8)))
          CFI (cfiCond106) V13 load(1, XDATA, add(CFA_XSP16, literal(-7)))
          CFI (cfiCond106) R7 load(1, XDATA, add(CFA_XSP16, literal(-6)))
          CFI (cfiCond106) ?RET_LOW load(1, XDATA, add(CFA_XSP16, literal(-5)))
          CFI (cfiCond106) ?RET_HIGH load(1, XDATA, add(CFA_XSP16, literal(-4)))
          CFI (cfiCond106) ?BRET_EXT load(1, XDATA, add(CFA_XSP16, literal(-3)))
          CFI (cfiCond106) DPL0 load(1, XDATA, add(CFA_XSP16, literal(-2)))
          CFI (cfiCond106) DPH0 load(1, XDATA, add(CFA_XSP16, literal(-1)))
          CFI (cfiCond106) CFA_SP SP+-2
          CFI (cfiCond106) CFA_XSP16 add(XSP16, 22)
          CFI Block cfiPicker107 Using cfiCommon1
          CFI (cfiPicker107) NoFunction
          CFI (cfiPicker107) Picker
        LCALL     ?Subroutine45 & 0xFFFF
??CrossCallReturnLabel_87:
        RET
          CFI EndBlock cfiCond104
          CFI EndBlock cfiCond105
          CFI EndBlock cfiCond106
          CFI EndBlock cfiPicker107

        RSEG BANKED_CODE:HUGECODE:NOROOT(0)
?Subroutine45:
          CFI Block cfiCond108 Using cfiCommon0
          CFI Function MT_AfIncomingMsg
          CFI Conditional ??CrossCallReturnLabel_87, ??CrossCallReturnLabel_55
          CFI R6 load(1, XDATA, add(CFA_XSP16, literal(-22)))
          CFI VB load(1, XDATA, add(CFA_XSP16, literal(-21)))
          CFI V0 load(1, XDATA, add(CFA_XSP16, literal(-20)))
          CFI V1 load(1, XDATA, add(CFA_XSP16, literal(-19)))
          CFI V2 load(1, XDATA, add(CFA_XSP16, literal(-18)))
          CFI V3 load(1, XDATA, add(CFA_XSP16, literal(-17)))
          CFI V4 load(1, XDATA, add(CFA_XSP16, literal(-16)))
          CFI V5 load(1, XDATA, add(CFA_XSP16, literal(-15)))
          CFI V6 load(1, XDATA, add(CFA_XSP16, literal(-14)))
          CFI V7 load(1, XDATA, add(CFA_XSP16, literal(-13)))
          CFI V8 load(1, XDATA, add(CFA_XSP16, literal(-12)))
          CFI V9 load(1, XDATA, add(CFA_XSP16, literal(-11)))
          CFI V10 load(1, XDATA, add(CFA_XSP16, literal(-10)))
          CFI V11 load(1, XDATA, add(CFA_XSP16, literal(-9)))
          CFI V12 load(1, XDATA, add(CFA_XSP16, literal(-8)))
          CFI V13 load(1, XDATA, add(CFA_XSP16, literal(-7)))
          CFI R7 load(1, XDATA, add(CFA_XSP16, literal(-6)))
          CFI ?RET_LOW load(1, XDATA, add(CFA_XSP16, literal(-5)))
          CFI ?RET_HIGH load(1, XDATA, add(CFA_XSP16, literal(-4)))
          CFI ?BRET_EXT load(1, XDATA, add(CFA_XSP16, literal(-3)))
          CFI DPL0 load(1, XDATA, add(CFA_XSP16, literal(-2)))
          CFI DPH0 load(1, XDATA, add(CFA_XSP16, literal(-1)))
          CFI CFA_SP SP+-4
          CFI CFA_XSP16 add(XSP16, 22)
          CFI Block cfiCond109 Using cfiCommon0
          CFI (cfiCond109) Function MT_AfIncomingMsg
          CFI (cfiCond109) Conditional ??CrossCallReturnLabel_87, ??CrossCallReturnLabel_56
          CFI (cfiCond109) R6 load(1, XDATA, add(CFA_XSP16, literal(-22)))
          CFI (cfiCond109) VB load(1, XDATA, add(CFA_XSP16, literal(-21)))
          CFI (cfiCond109) V0 load(1, XDATA, add(CFA_XSP16, literal(-20)))
          CFI (cfiCond109) V1 load(1, XDATA, add(CFA_XSP16, literal(-19)))
          CFI (cfiCond109) V2 load(1, XDATA, add(CFA_XSP16, literal(-18)))
          CFI (cfiCond109) V3 load(1, XDATA, add(CFA_XSP16, literal(-17)))
          CFI (cfiCond109) V4 load(1, XDATA, add(CFA_XSP16, literal(-16)))
          CFI (cfiCond109) V5 load(1, XDATA, add(CFA_XSP16, literal(-15)))
          CFI (cfiCond109) V6 load(1, XDATA, add(CFA_XSP16, literal(-14)))
          CFI (cfiCond109) V7 load(1, XDATA, add(CFA_XSP16, literal(-13)))
          CFI (cfiCond109) V8 load(1, XDATA, add(CFA_XSP16, literal(-12)))
          CFI (cfiCond109) V9 load(1, XDATA, add(CFA_XSP16, literal(-11)))
          CFI (cfiCond109) V10 load(1, XDATA, add(CFA_XSP16, literal(-10)))
          CFI (cfiCond109) V11 load(1, XDATA, add(CFA_XSP16, literal(-9)))
          CFI (cfiCond109) V12 load(1, XDATA, add(CFA_XSP16, literal(-8)))
          CFI (cfiCond109) V13 load(1, XDATA, add(CFA_XSP16, literal(-7)))
          CFI (cfiCond109) R7 load(1, XDATA, add(CFA_XSP16, literal(-6)))
          CFI (cfiCond109) ?RET_LOW load(1, XDATA, add(CFA_XSP16, literal(-5)))
          CFI (cfiCond109) ?RET_HIGH load(1, XDATA, add(CFA_XSP16, literal(-4)))
          CFI (cfiCond109) ?BRET_EXT load(1, XDATA, add(CFA_XSP16, literal(-3)))
          CFI (cfiCond109) DPL0 load(1, XDATA, add(CFA_XSP16, literal(-2)))
          CFI (cfiCond109) DPH0 load(1, XDATA, add(CFA_XSP16, literal(-1)))
          CFI (cfiCond109) CFA_SP SP+-4
          CFI (cfiCond109) CFA_XSP16 add(XSP16, 22)
          CFI Block cfiCond110 Using cfiCommon0
          CFI (cfiCond110) Function MT_AfIncomingMsg
          CFI (cfiCond110) Conditional ??CrossCallReturnLabel_87, ??CrossCallReturnLabel_57
          CFI (cfiCond110) R6 load(1, XDATA, add(CFA_XSP16, literal(-22)))
          CFI (cfiCond110) VB load(1, XDATA, add(CFA_XSP16, literal(-21)))
          CFI (cfiCond110) V0 load(1, XDATA, add(CFA_XSP16, literal(-20)))
          CFI (cfiCond110) V1 load(1, XDATA, add(CFA_XSP16, literal(-19)))
          CFI (cfiCond110) V2 load(1, XDATA, add(CFA_XSP16, literal(-18)))
          CFI (cfiCond110) V3 load(1, XDATA, add(CFA_XSP16, literal(-17)))
          CFI (cfiCond110) V4 load(1, XDATA, add(CFA_XSP16, literal(-16)))
          CFI (cfiCond110) V5 load(1, XDATA, add(CFA_XSP16, literal(-15)))
          CFI (cfiCond110) V6 load(1, XDATA, add(CFA_XSP16, literal(-14)))
          CFI (cfiCond110) V7 load(1, XDATA, add(CFA_XSP16, literal(-13)))
          CFI (cfiCond110) V8 load(1, XDATA, add(CFA_XSP16, literal(-12)))
          CFI (cfiCond110) V9 load(1, XDATA, add(CFA_XSP16, literal(-11)))
          CFI (cfiCond110) V10 load(1, XDATA, add(CFA_XSP16, literal(-10)))
          CFI (cfiCond110) V11 load(1, XDATA, add(CFA_XSP16, literal(-9)))
          CFI (cfiCond110) V12 load(1, XDATA, add(CFA_XSP16, literal(-8)))
          CFI (cfiCond110) V13 load(1, XDATA, add(CFA_XSP16, literal(-7)))
          CFI (cfiCond110) R7 load(1, XDATA, add(CFA_XSP16, literal(-6)))
          CFI (cfiCond110) ?RET_LOW load(1, XDATA, add(CFA_XSP16, literal(-5)))
          CFI (cfiCond110) ?RET_HIGH load(1, XDATA, add(CFA_XSP16, literal(-4)))
          CFI (cfiCond110) ?BRET_EXT load(1, XDATA, add(CFA_XSP16, literal(-3)))
          CFI (cfiCond110) DPL0 load(1, XDATA, add(CFA_XSP16, literal(-2)))
          CFI (cfiCond110) DPH0 load(1, XDATA, add(CFA_XSP16, literal(-1)))
          CFI (cfiCond110) CFA_SP SP+-4
          CFI (cfiCond110) CFA_XSP16 add(XSP16, 22)
          CFI Block cfiCond111 Using cfiCommon0
          CFI (cfiCond111) Function MT_AfIncomingMsg
          CFI (cfiCond111) Conditional ??CrossCallReturnLabel_86, ??CrossCallReturnLabel_27
          CFI (cfiCond111) R6 load(1, XDATA, add(CFA_XSP16, literal(-22)))
          CFI (cfiCond111) VB load(1, XDATA, add(CFA_XSP16, literal(-21)))
          CFI (cfiCond111) V0 load(1, XDATA, add(CFA_XSP16, literal(-20)))
          CFI (cfiCond111) V1 load(1, XDATA, add(CFA_XSP16, literal(-19)))
          CFI (cfiCond111) V2 load(1, XDATA, add(CFA_XSP16, literal(-18)))
          CFI (cfiCond111) V3 load(1, XDATA, add(CFA_XSP16, literal(-17)))
          CFI (cfiCond111) V4 load(1, XDATA, add(CFA_XSP16, literal(-16)))
          CFI (cfiCond111) V5 load(1, XDATA, add(CFA_XSP16, literal(-15)))
          CFI (cfiCond111) V6 load(1, XDATA, add(CFA_XSP16, literal(-14)))
          CFI (cfiCond111) V7 load(1, XDATA, add(CFA_XSP16, literal(-13)))
          CFI (cfiCond111) V8 load(1, XDATA, add(CFA_XSP16, literal(-12)))
          CFI (cfiCond111) V9 load(1, XDATA, add(CFA_XSP16, literal(-11)))
          CFI (cfiCond111) V10 load(1, XDATA, add(CFA_XSP16, literal(-10)))
          CFI (cfiCond111) V11 load(1, XDATA, add(CFA_XSP16, literal(-9)))
          CFI (cfiCond111) V12 load(1, XDATA, add(CFA_XSP16, literal(-8)))
          CFI (cfiCond111) V13 load(1, XDATA, add(CFA_XSP16, literal(-7)))
          CFI (cfiCond111) R7 load(1, XDATA, add(CFA_XSP16, literal(-6)))
          CFI (cfiCond111) ?RET_LOW load(1, XDATA, add(CFA_XSP16, literal(-5)))
          CFI (cfiCond111) ?RET_HIGH load(1, XDATA, add(CFA_XSP16, literal(-4)))
          CFI (cfiCond111) ?BRET_EXT load(1, XDATA, add(CFA_XSP16, literal(-3)))
          CFI (cfiCond111) DPL0 load(1, XDATA, add(CFA_XSP16, literal(-2)))
          CFI (cfiCond111) DPH0 load(1, XDATA, add(CFA_XSP16, literal(-1)))
          CFI (cfiCond111) CFA_SP SP+-4
          CFI (cfiCond111) CFA_XSP16 add(XSP16, 22)
          CFI Block cfiCond112 Using cfiCommon0
          CFI (cfiCond112) Function MT_AfIncomingMsg
          CFI (cfiCond112) Conditional ??CrossCallReturnLabel_86, ??CrossCallReturnLabel_28
          CFI (cfiCond112) R6 load(1, XDATA, add(CFA_XSP16, literal(-22)))
          CFI (cfiCond112) VB load(1, XDATA, add(CFA_XSP16, literal(-21)))
          CFI (cfiCond112) V0 load(1, XDATA, add(CFA_XSP16, literal(-20)))
          CFI (cfiCond112) V1 load(1, XDATA, add(CFA_XSP16, literal(-19)))
          CFI (cfiCond112) V2 load(1, XDATA, add(CFA_XSP16, literal(-18)))
          CFI (cfiCond112) V3 load(1, XDATA, add(CFA_XSP16, literal(-17)))
          CFI (cfiCond112) V4 load(1, XDATA, add(CFA_XSP16, literal(-16)))
          CFI (cfiCond112) V5 load(1, XDATA, add(CFA_XSP16, literal(-15)))
          CFI (cfiCond112) V6 load(1, XDATA, add(CFA_XSP16, literal(-14)))
          CFI (cfiCond112) V7 load(1, XDATA, add(CFA_XSP16, literal(-13)))
          CFI (cfiCond112) V8 load(1, XDATA, add(CFA_XSP16, literal(-12)))
          CFI (cfiCond112) V9 load(1, XDATA, add(CFA_XSP16, literal(-11)))
          CFI (cfiCond112) V10 load(1, XDATA, add(CFA_XSP16, literal(-10)))
          CFI (cfiCond112) V11 load(1, XDATA, add(CFA_XSP16, literal(-9)))
          CFI (cfiCond112) V12 load(1, XDATA, add(CFA_XSP16, literal(-8)))
          CFI (cfiCond112) V13 load(1, XDATA, add(CFA_XSP16, literal(-7)))
          CFI (cfiCond112) R7 load(1, XDATA, add(CFA_XSP16, literal(-6)))
          CFI (cfiCond112) ?RET_LOW load(1, XDATA, add(CFA_XSP16, literal(-5)))
          CFI (cfiCond112) ?RET_HIGH load(1, XDATA, add(CFA_XSP16, literal(-4)))
          CFI (cfiCond112) ?BRET_EXT load(1, XDATA, add(CFA_XSP16, literal(-3)))
          CFI (cfiCond112) DPL0 load(1, XDATA, add(CFA_XSP16, literal(-2)))
          CFI (cfiCond112) DPH0 load(1, XDATA, add(CFA_XSP16, literal(-1)))
          CFI (cfiCond112) CFA_SP SP+-4
          CFI (cfiCond112) CFA_XSP16 add(XSP16, 22)
          CFI Block cfiCond113 Using cfiCommon0
          CFI (cfiCond113) Function MT_AfIncomingMsg
          CFI (cfiCond113) Conditional ??CrossCallReturnLabel_85, ??CrossCallReturnLabel_0
          CFI (cfiCond113) R6 load(1, XDATA, add(CFA_XSP16, literal(-22)))
          CFI (cfiCond113) VB load(1, XDATA, add(CFA_XSP16, literal(-21)))
          CFI (cfiCond113) V0 load(1, XDATA, add(CFA_XSP16, literal(-20)))
          CFI (cfiCond113) V1 load(1, XDATA, add(CFA_XSP16, literal(-19)))
          CFI (cfiCond113) V2 load(1, XDATA, add(CFA_XSP16, literal(-18)))
          CFI (cfiCond113) V3 load(1, XDATA, add(CFA_XSP16, literal(-17)))
          CFI (cfiCond113) V4 load(1, XDATA, add(CFA_XSP16, literal(-16)))
          CFI (cfiCond113) V5 load(1, XDATA, add(CFA_XSP16, literal(-15)))
          CFI (cfiCond113) V6 load(1, XDATA, add(CFA_XSP16, literal(-14)))
          CFI (cfiCond113) V7 load(1, XDATA, add(CFA_XSP16, literal(-13)))
          CFI (cfiCond113) V8 load(1, XDATA, add(CFA_XSP16, literal(-12)))
          CFI (cfiCond113) V9 load(1, XDATA, add(CFA_XSP16, literal(-11)))
          CFI (cfiCond113) V10 load(1, XDATA, add(CFA_XSP16, literal(-10)))
          CFI (cfiCond113) V11 load(1, XDATA, add(CFA_XSP16, literal(-9)))
          CFI (cfiCond113) V12 load(1, XDATA, add(CFA_XSP16, literal(-8)))
          CFI (cfiCond113) V13 load(1, XDATA, add(CFA_XSP16, literal(-7)))
          CFI (cfiCond113) R7 load(1, XDATA, add(CFA_XSP16, literal(-6)))
          CFI (cfiCond113) ?RET_LOW load(1, XDATA, add(CFA_XSP16, literal(-5)))
          CFI (cfiCond113) ?RET_HIGH load(1, XDATA, add(CFA_XSP16, literal(-4)))
          CFI (cfiCond113) ?BRET_EXT load(1, XDATA, add(CFA_XSP16, literal(-3)))
          CFI (cfiCond113) DPL0 load(1, XDATA, add(CFA_XSP16, literal(-2)))
          CFI (cfiCond113) DPH0 load(1, XDATA, add(CFA_XSP16, literal(-1)))
          CFI (cfiCond113) CFA_SP SP+-4
          CFI (cfiCond113) CFA_XSP16 add(XSP16, 22)
          CFI Block cfiCond114 Using cfiCommon0
          CFI (cfiCond114) Function MT_AfIncomingMsg
          CFI (cfiCond114) Conditional ??CrossCallReturnLabel_85, ??CrossCallReturnLabel_1
          CFI (cfiCond114) R6 load(1, XDATA, add(CFA_XSP16, literal(-22)))
          CFI (cfiCond114) VB load(1, XDATA, add(CFA_XSP16, literal(-21)))
          CFI (cfiCond114) V0 load(1, XDATA, add(CFA_XSP16, literal(-20)))
          CFI (cfiCond114) V1 load(1, XDATA, add(CFA_XSP16, literal(-19)))
          CFI (cfiCond114) V2 load(1, XDATA, add(CFA_XSP16, literal(-18)))
          CFI (cfiCond114) V3 load(1, XDATA, add(CFA_XSP16, literal(-17)))
          CFI (cfiCond114) V4 load(1, XDATA, add(CFA_XSP16, literal(-16)))
          CFI (cfiCond114) V5 load(1, XDATA, add(CFA_XSP16, literal(-15)))
          CFI (cfiCond114) V6 load(1, XDATA, add(CFA_XSP16, literal(-14)))
          CFI (cfiCond114) V7 load(1, XDATA, add(CFA_XSP16, literal(-13)))
          CFI (cfiCond114) V8 load(1, XDATA, add(CFA_XSP16, literal(-12)))
          CFI (cfiCond114) V9 load(1, XDATA, add(CFA_XSP16, literal(-11)))
          CFI (cfiCond114) V10 load(1, XDATA, add(CFA_XSP16, literal(-10)))
          CFI (cfiCond114) V11 load(1, XDATA, add(CFA_XSP16, literal(-9)))
          CFI (cfiCond114) V12 load(1, XDATA, add(CFA_XSP16, literal(-8)))
          CFI (cfiCond114) V13 load(1, XDATA, add(CFA_XSP16, literal(-7)))
          CFI (cfiCond114) R7 load(1, XDATA, add(CFA_XSP16, literal(-6)))
          CFI (cfiCond114) ?RET_LOW load(1, XDATA, add(CFA_XSP16, literal(-5)))
          CFI (cfiCond114) ?RET_HIGH load(1, XDATA, add(CFA_XSP16, literal(-4)))
          CFI (cfiCond114) ?BRET_EXT load(1, XDATA, add(CFA_XSP16, literal(-3)))
          CFI (cfiCond114) DPL0 load(1, XDATA, add(CFA_XSP16, literal(-2)))
          CFI (cfiCond114) DPH0 load(1, XDATA, add(CFA_XSP16, literal(-1)))
          CFI (cfiCond114) CFA_SP SP+-4
          CFI (cfiCond114) CFA_XSP16 add(XSP16, 22)
          CFI Block cfiPicker115 Using cfiCommon1
          CFI (cfiPicker115) NoFunction
          CFI (cfiPicker115) Picker
        MOV       R0,A
        CLR       A
        ADDC      A,?V9
        MOV       R1,A
        MOV       DPL,R0
        MOV       DPH,R1
        RET
          CFI EndBlock cfiCond108
          CFI EndBlock cfiCond109
          CFI EndBlock cfiCond110
          CFI EndBlock cfiCond111
          CFI EndBlock cfiCond112
          CFI EndBlock cfiCond113
          CFI EndBlock cfiCond114
          CFI EndBlock cfiPicker115

        RSEG BANKED_CODE:HUGECODE:NOROOT(0)
?Subroutine25:
          CFI Block cfiCond116 Using cfiCommon0
          CFI Function MT_AfIncomingMsg
          CFI Conditional ??CrossCallReturnLabel_39
          CFI R6 load(1, XDATA, add(CFA_XSP16, literal(-22)))
          CFI VB load(1, XDATA, add(CFA_XSP16, literal(-21)))
          CFI V0 load(1, XDATA, add(CFA_XSP16, literal(-20)))
          CFI V1 load(1, XDATA, add(CFA_XSP16, literal(-19)))
          CFI V2 load(1, XDATA, add(CFA_XSP16, literal(-18)))
          CFI V3 load(1, XDATA, add(CFA_XSP16, literal(-17)))
          CFI V4 load(1, XDATA, add(CFA_XSP16, literal(-16)))
          CFI V5 load(1, XDATA, add(CFA_XSP16, literal(-15)))
          CFI V6 load(1, XDATA, add(CFA_XSP16, literal(-14)))
          CFI V7 load(1, XDATA, add(CFA_XSP16, literal(-13)))
          CFI V8 load(1, XDATA, add(CFA_XSP16, literal(-12)))
          CFI V9 load(1, XDATA, add(CFA_XSP16, literal(-11)))
          CFI V10 load(1, XDATA, add(CFA_XSP16, literal(-10)))
          CFI V11 load(1, XDATA, add(CFA_XSP16, literal(-9)))
          CFI V12 load(1, XDATA, add(CFA_XSP16, literal(-8)))
          CFI V13 load(1, XDATA, add(CFA_XSP16, literal(-7)))
          CFI R7 load(1, XDATA, add(CFA_XSP16, literal(-6)))
          CFI ?RET_LOW load(1, XDATA, add(CFA_XSP16, literal(-5)))
          CFI ?RET_HIGH load(1, XDATA, add(CFA_XSP16, literal(-4)))
          CFI ?BRET_EXT load(1, XDATA, add(CFA_XSP16, literal(-3)))
          CFI DPL0 load(1, XDATA, add(CFA_XSP16, literal(-2)))
          CFI DPH0 load(1, XDATA, add(CFA_XSP16, literal(-1)))
          CFI CFA_SP SP+-2
          CFI CFA_XSP16 add(XSP16, 22)
          CFI Block cfiCond117 Using cfiCommon0
          CFI (cfiCond117) Function MT_AfIncomingMsg
          CFI (cfiCond117) Conditional ??CrossCallReturnLabel_40
          CFI (cfiCond117) R6 load(1, XDATA, add(CFA_XSP16, literal(-22)))
          CFI (cfiCond117) VB load(1, XDATA, add(CFA_XSP16, literal(-21)))
          CFI (cfiCond117) V0 load(1, XDATA, add(CFA_XSP16, literal(-20)))
          CFI (cfiCond117) V1 load(1, XDATA, add(CFA_XSP16, literal(-19)))
          CFI (cfiCond117) V2 load(1, XDATA, add(CFA_XSP16, literal(-18)))
          CFI (cfiCond117) V3 load(1, XDATA, add(CFA_XSP16, literal(-17)))
          CFI (cfiCond117) V4 load(1, XDATA, add(CFA_XSP16, literal(-16)))
          CFI (cfiCond117) V5 load(1, XDATA, add(CFA_XSP16, literal(-15)))
          CFI (cfiCond117) V6 load(1, XDATA, add(CFA_XSP16, literal(-14)))
          CFI (cfiCond117) V7 load(1, XDATA, add(CFA_XSP16, literal(-13)))
          CFI (cfiCond117) V8 load(1, XDATA, add(CFA_XSP16, literal(-12)))
          CFI (cfiCond117) V9 load(1, XDATA, add(CFA_XSP16, literal(-11)))
          CFI (cfiCond117) V10 load(1, XDATA, add(CFA_XSP16, literal(-10)))
          CFI (cfiCond117) V11 load(1, XDATA, add(CFA_XSP16, literal(-9)))
          CFI (cfiCond117) V12 load(1, XDATA, add(CFA_XSP16, literal(-8)))
          CFI (cfiCond117) V13 load(1, XDATA, add(CFA_XSP16, literal(-7)))
          CFI (cfiCond117) R7 load(1, XDATA, add(CFA_XSP16, literal(-6)))
          CFI (cfiCond117) ?RET_LOW load(1, XDATA, add(CFA_XSP16, literal(-5)))
          CFI (cfiCond117) ?RET_HIGH load(1, XDATA, add(CFA_XSP16, literal(-4)))
          CFI (cfiCond117) ?BRET_EXT load(1, XDATA, add(CFA_XSP16, literal(-3)))
          CFI (cfiCond117) DPL0 load(1, XDATA, add(CFA_XSP16, literal(-2)))
          CFI (cfiCond117) DPH0 load(1, XDATA, add(CFA_XSP16, literal(-1)))
          CFI (cfiCond117) CFA_SP SP+-2
          CFI (cfiCond117) CFA_XSP16 add(XSP16, 22)
          CFI Block cfiPicker118 Using cfiCommon1
          CFI (cfiPicker118) NoFunction
          CFI (cfiPicker118) Picker
        LCALL     ?Subroutine41 & 0xFFFF
??CrossCallReturnLabel_77:
        INC       DPTR
        INC       DPTR
        INC       DPTR
        MOV       A,?V0
        MOVX      @DPTR,A
        RET
          CFI EndBlock cfiCond116
          CFI EndBlock cfiCond117
          CFI EndBlock cfiPicker118

        RSEG BANKED_CODE:HUGECODE:NOROOT(0)
?Subroutine24:
          CFI Block cfiCond119 Using cfiCommon0
          CFI Function MT_AfIncomingMsg
          CFI Conditional ??CrossCallReturnLabel_37
          CFI R6 load(1, XDATA, add(CFA_XSP16, literal(-22)))
          CFI VB load(1, XDATA, add(CFA_XSP16, literal(-21)))
          CFI V0 load(1, XDATA, add(CFA_XSP16, literal(-20)))
          CFI V1 load(1, XDATA, add(CFA_XSP16, literal(-19)))
          CFI V2 load(1, XDATA, add(CFA_XSP16, literal(-18)))
          CFI V3 load(1, XDATA, add(CFA_XSP16, literal(-17)))
          CFI V4 load(1, XDATA, add(CFA_XSP16, literal(-16)))
          CFI V5 load(1, XDATA, add(CFA_XSP16, literal(-15)))
          CFI V6 load(1, XDATA, add(CFA_XSP16, literal(-14)))
          CFI V7 load(1, XDATA, add(CFA_XSP16, literal(-13)))
          CFI V8 load(1, XDATA, add(CFA_XSP16, literal(-12)))
          CFI V9 load(1, XDATA, add(CFA_XSP16, literal(-11)))
          CFI V10 load(1, XDATA, add(CFA_XSP16, literal(-10)))
          CFI V11 load(1, XDATA, add(CFA_XSP16, literal(-9)))
          CFI V12 load(1, XDATA, add(CFA_XSP16, literal(-8)))
          CFI V13 load(1, XDATA, add(CFA_XSP16, literal(-7)))
          CFI R7 load(1, XDATA, add(CFA_XSP16, literal(-6)))
          CFI ?RET_LOW load(1, XDATA, add(CFA_XSP16, literal(-5)))
          CFI ?RET_HIGH load(1, XDATA, add(CFA_XSP16, literal(-4)))
          CFI ?BRET_EXT load(1, XDATA, add(CFA_XSP16, literal(-3)))
          CFI DPL0 load(1, XDATA, add(CFA_XSP16, literal(-2)))
          CFI DPH0 load(1, XDATA, add(CFA_XSP16, literal(-1)))
          CFI CFA_SP SP+-2
          CFI CFA_XSP16 add(XSP16, 22)
          CFI Block cfiCond120 Using cfiCommon0
          CFI (cfiCond120) Function MT_AfIncomingMsg
          CFI (cfiCond120) Conditional ??CrossCallReturnLabel_38
          CFI (cfiCond120) R6 load(1, XDATA, add(CFA_XSP16, literal(-22)))
          CFI (cfiCond120) VB load(1, XDATA, add(CFA_XSP16, literal(-21)))
          CFI (cfiCond120) V0 load(1, XDATA, add(CFA_XSP16, literal(-20)))
          CFI (cfiCond120) V1 load(1, XDATA, add(CFA_XSP16, literal(-19)))
          CFI (cfiCond120) V2 load(1, XDATA, add(CFA_XSP16, literal(-18)))
          CFI (cfiCond120) V3 load(1, XDATA, add(CFA_XSP16, literal(-17)))
          CFI (cfiCond120) V4 load(1, XDATA, add(CFA_XSP16, literal(-16)))
          CFI (cfiCond120) V5 load(1, XDATA, add(CFA_XSP16, literal(-15)))
          CFI (cfiCond120) V6 load(1, XDATA, add(CFA_XSP16, literal(-14)))
          CFI (cfiCond120) V7 load(1, XDATA, add(CFA_XSP16, literal(-13)))
          CFI (cfiCond120) V8 load(1, XDATA, add(CFA_XSP16, literal(-12)))
          CFI (cfiCond120) V9 load(1, XDATA, add(CFA_XSP16, literal(-11)))
          CFI (cfiCond120) V10 load(1, XDATA, add(CFA_XSP16, literal(-10)))
          CFI (cfiCond120) V11 load(1, XDATA, add(CFA_XSP16, literal(-9)))
          CFI (cfiCond120) V12 load(1, XDATA, add(CFA_XSP16, literal(-8)))
          CFI (cfiCond120) V13 load(1, XDATA, add(CFA_XSP16, literal(-7)))
          CFI (cfiCond120) R7 load(1, XDATA, add(CFA_XSP16, literal(-6)))
          CFI (cfiCond120) ?RET_LOW load(1, XDATA, add(CFA_XSP16, literal(-5)))
          CFI (cfiCond120) ?RET_HIGH load(1, XDATA, add(CFA_XSP16, literal(-4)))
          CFI (cfiCond120) ?BRET_EXT load(1, XDATA, add(CFA_XSP16, literal(-3)))
          CFI (cfiCond120) DPL0 load(1, XDATA, add(CFA_XSP16, literal(-2)))
          CFI (cfiCond120) DPH0 load(1, XDATA, add(CFA_XSP16, literal(-1)))
          CFI (cfiCond120) CFA_SP SP+-2
          CFI (cfiCond120) CFA_XSP16 add(XSP16, 22)
          CFI Block cfiPicker121 Using cfiCommon1
          CFI (cfiPicker121) NoFunction
          CFI (cfiPicker121) Picker
        LCALL     ?Subroutine38 & 0xFFFF
??CrossCallReturnLabel_109:
        RET
          CFI EndBlock cfiCond119
          CFI EndBlock cfiCond120
          CFI EndBlock cfiPicker121

        RSEG BANKED_CODE:HUGECODE:NOROOT(0)
?Subroutine38:
          CFI Block cfiCond122 Using cfiCommon0
          CFI Function MT_AfIncomingMsg
          CFI Conditional ??CrossCallReturnLabel_109, ??CrossCallReturnLabel_37
          CFI R6 load(1, XDATA, add(CFA_XSP16, literal(-22)))
          CFI VB load(1, XDATA, add(CFA_XSP16, literal(-21)))
          CFI V0 load(1, XDATA, add(CFA_XSP16, literal(-20)))
          CFI V1 load(1, XDATA, add(CFA_XSP16, literal(-19)))
          CFI V2 load(1, XDATA, add(CFA_XSP16, literal(-18)))
          CFI V3 load(1, XDATA, add(CFA_XSP16, literal(-17)))
          CFI V4 load(1, XDATA, add(CFA_XSP16, literal(-16)))
          CFI V5 load(1, XDATA, add(CFA_XSP16, literal(-15)))
          CFI V6 load(1, XDATA, add(CFA_XSP16, literal(-14)))
          CFI V7 load(1, XDATA, add(CFA_XSP16, literal(-13)))
          CFI V8 load(1, XDATA, add(CFA_XSP16, literal(-12)))
          CFI V9 load(1, XDATA, add(CFA_XSP16, literal(-11)))
          CFI V10 load(1, XDATA, add(CFA_XSP16, literal(-10)))
          CFI V11 load(1, XDATA, add(CFA_XSP16, literal(-9)))
          CFI V12 load(1, XDATA, add(CFA_XSP16, literal(-8)))
          CFI V13 load(1, XDATA, add(CFA_XSP16, literal(-7)))
          CFI R7 load(1, XDATA, add(CFA_XSP16, literal(-6)))
          CFI ?RET_LOW load(1, XDATA, add(CFA_XSP16, literal(-5)))
          CFI ?RET_HIGH load(1, XDATA, add(CFA_XSP16, literal(-4)))
          CFI ?BRET_EXT load(1, XDATA, add(CFA_XSP16, literal(-3)))
          CFI DPL0 load(1, XDATA, add(CFA_XSP16, literal(-2)))
          CFI DPH0 load(1, XDATA, add(CFA_XSP16, literal(-1)))
          CFI CFA_SP SP+-4
          CFI CFA_XSP16 add(XSP16, 22)
          CFI Block cfiCond123 Using cfiCommon0
          CFI (cfiCond123) Function MT_AfIncomingMsg
          CFI (cfiCond123) Conditional ??CrossCallReturnLabel_109, ??CrossCallReturnLabel_38
          CFI (cfiCond123) R6 load(1, XDATA, add(CFA_XSP16, literal(-22)))
          CFI (cfiCond123) VB load(1, XDATA, add(CFA_XSP16, literal(-21)))
          CFI (cfiCond123) V0 load(1, XDATA, add(CFA_XSP16, literal(-20)))
          CFI (cfiCond123) V1 load(1, XDATA, add(CFA_XSP16, literal(-19)))
          CFI (cfiCond123) V2 load(1, XDATA, add(CFA_XSP16, literal(-18)))
          CFI (cfiCond123) V3 load(1, XDATA, add(CFA_XSP16, literal(-17)))
          CFI (cfiCond123) V4 load(1, XDATA, add(CFA_XSP16, literal(-16)))
          CFI (cfiCond123) V5 load(1, XDATA, add(CFA_XSP16, literal(-15)))
          CFI (cfiCond123) V6 load(1, XDATA, add(CFA_XSP16, literal(-14)))
          CFI (cfiCond123) V7 load(1, XDATA, add(CFA_XSP16, literal(-13)))
          CFI (cfiCond123) V8 load(1, XDATA, add(CFA_XSP16, literal(-12)))
          CFI (cfiCond123) V9 load(1, XDATA, add(CFA_XSP16, literal(-11)))
          CFI (cfiCond123) V10 load(1, XDATA, add(CFA_XSP16, literal(-10)))
          CFI (cfiCond123) V11 load(1, XDATA, add(CFA_XSP16, literal(-9)))
          CFI (cfiCond123) V12 load(1, XDATA, add(CFA_XSP16, literal(-8)))
          CFI (cfiCond123) V13 load(1, XDATA, add(CFA_XSP16, literal(-7)))
          CFI (cfiCond123) R7 load(1, XDATA, add(CFA_XSP16, literal(-6)))
          CFI (cfiCond123) ?RET_LOW load(1, XDATA, add(CFA_XSP16, literal(-5)))
          CFI (cfiCond123) ?RET_HIGH load(1, XDATA, add(CFA_XSP16, literal(-4)))
          CFI (cfiCond123) ?BRET_EXT load(1, XDATA, add(CFA_XSP16, literal(-3)))
          CFI (cfiCond123) DPL0 load(1, XDATA, add(CFA_XSP16, literal(-2)))
          CFI (cfiCond123) DPH0 load(1, XDATA, add(CFA_XSP16, literal(-1)))
          CFI (cfiCond123) CFA_SP SP+-4
          CFI (cfiCond123) CFA_XSP16 add(XSP16, 22)
          CFI Block cfiCond124 Using cfiCommon0
          CFI (cfiCond124) Function MT_AfIncomingMsg
          CFI (cfiCond124) Conditional ??CrossCallReturnLabel_108, ??CrossCallReturnLabel_31
          CFI (cfiCond124) R6 load(1, XDATA, add(CFA_XSP16, literal(-22)))
          CFI (cfiCond124) VB load(1, XDATA, add(CFA_XSP16, literal(-21)))
          CFI (cfiCond124) V0 load(1, XDATA, add(CFA_XSP16, literal(-20)))
          CFI (cfiCond124) V1 load(1, XDATA, add(CFA_XSP16, literal(-19)))
          CFI (cfiCond124) V2 load(1, XDATA, add(CFA_XSP16, literal(-18)))
          CFI (cfiCond124) V3 load(1, XDATA, add(CFA_XSP16, literal(-17)))
          CFI (cfiCond124) V4 load(1, XDATA, add(CFA_XSP16, literal(-16)))
          CFI (cfiCond124) V5 load(1, XDATA, add(CFA_XSP16, literal(-15)))
          CFI (cfiCond124) V6 load(1, XDATA, add(CFA_XSP16, literal(-14)))
          CFI (cfiCond124) V7 load(1, XDATA, add(CFA_XSP16, literal(-13)))
          CFI (cfiCond124) V8 load(1, XDATA, add(CFA_XSP16, literal(-12)))
          CFI (cfiCond124) V9 load(1, XDATA, add(CFA_XSP16, literal(-11)))
          CFI (cfiCond124) V10 load(1, XDATA, add(CFA_XSP16, literal(-10)))
          CFI (cfiCond124) V11 load(1, XDATA, add(CFA_XSP16, literal(-9)))
          CFI (cfiCond124) V12 load(1, XDATA, add(CFA_XSP16, literal(-8)))
          CFI (cfiCond124) V13 load(1, XDATA, add(CFA_XSP16, literal(-7)))
          CFI (cfiCond124) R7 load(1, XDATA, add(CFA_XSP16, literal(-6)))
          CFI (cfiCond124) ?RET_LOW load(1, XDATA, add(CFA_XSP16, literal(-5)))
          CFI (cfiCond124) ?RET_HIGH load(1, XDATA, add(CFA_XSP16, literal(-4)))
          CFI (cfiCond124) ?BRET_EXT load(1, XDATA, add(CFA_XSP16, literal(-3)))
          CFI (cfiCond124) DPL0 load(1, XDATA, add(CFA_XSP16, literal(-2)))
          CFI (cfiCond124) DPH0 load(1, XDATA, add(CFA_XSP16, literal(-1)))
          CFI (cfiCond124) CFA_SP SP+-4
          CFI (cfiCond124) CFA_XSP16 add(XSP16, 22)
          CFI Block cfiCond125 Using cfiCommon0
          CFI (cfiCond125) Function MT_AfIncomingMsg
          CFI (cfiCond125) Conditional ??CrossCallReturnLabel_108, ??CrossCallReturnLabel_32
          CFI (cfiCond125) R6 load(1, XDATA, add(CFA_XSP16, literal(-22)))
          CFI (cfiCond125) VB load(1, XDATA, add(CFA_XSP16, literal(-21)))
          CFI (cfiCond125) V0 load(1, XDATA, add(CFA_XSP16, literal(-20)))
          CFI (cfiCond125) V1 load(1, XDATA, add(CFA_XSP16, literal(-19)))
          CFI (cfiCond125) V2 load(1, XDATA, add(CFA_XSP16, literal(-18)))
          CFI (cfiCond125) V3 load(1, XDATA, add(CFA_XSP16, literal(-17)))
          CFI (cfiCond125) V4 load(1, XDATA, add(CFA_XSP16, literal(-16)))
          CFI (cfiCond125) V5 load(1, XDATA, add(CFA_XSP16, literal(-15)))
          CFI (cfiCond125) V6 load(1, XDATA, add(CFA_XSP16, literal(-14)))
          CFI (cfiCond125) V7 load(1, XDATA, add(CFA_XSP16, literal(-13)))
          CFI (cfiCond125) V8 load(1, XDATA, add(CFA_XSP16, literal(-12)))
          CFI (cfiCond125) V9 load(1, XDATA, add(CFA_XSP16, literal(-11)))
          CFI (cfiCond125) V10 load(1, XDATA, add(CFA_XSP16, literal(-10)))
          CFI (cfiCond125) V11 load(1, XDATA, add(CFA_XSP16, literal(-9)))
          CFI (cfiCond125) V12 load(1, XDATA, add(CFA_XSP16, literal(-8)))
          CFI (cfiCond125) V13 load(1, XDATA, add(CFA_XSP16, literal(-7)))
          CFI (cfiCond125) R7 load(1, XDATA, add(CFA_XSP16, literal(-6)))
          CFI (cfiCond125) ?RET_LOW load(1, XDATA, add(CFA_XSP16, literal(-5)))
          CFI (cfiCond125) ?RET_HIGH load(1, XDATA, add(CFA_XSP16, literal(-4)))
          CFI (cfiCond125) ?BRET_EXT load(1, XDATA, add(CFA_XSP16, literal(-3)))
          CFI (cfiCond125) DPL0 load(1, XDATA, add(CFA_XSP16, literal(-2)))
          CFI (cfiCond125) DPH0 load(1, XDATA, add(CFA_XSP16, literal(-1)))
          CFI (cfiCond125) CFA_SP SP+-4
          CFI (cfiCond125) CFA_XSP16 add(XSP16, 22)
          CFI Block cfiPicker126 Using cfiCommon1
          CFI (cfiPicker126) NoFunction
          CFI (cfiPicker126) Picker
        MOV       DPL,A
        CLR       A
        ADDC      A,?V9
        MOV       DPH,A
          CFI EndBlock cfiCond122
          CFI EndBlock cfiCond123
          CFI EndBlock cfiCond124
          CFI EndBlock cfiCond125
          CFI EndBlock cfiPicker126
        REQUIRE ??Subroutine51_0
        ; // Fall through to label ??Subroutine51_0

        RSEG BANKED_CODE:HUGECODE:NOROOT(0)
??Subroutine51_0:
          CFI Block cfiCond127 Using cfiCommon0
          CFI Function MT_AfIncomingMsg
          CFI Conditional ??CrossCallReturnLabel_107, ??CrossCallReturnLabel_0
          CFI R6 load(1, XDATA, add(CFA_XSP16, literal(-22)))
          CFI VB load(1, XDATA, add(CFA_XSP16, literal(-21)))
          CFI V0 load(1, XDATA, add(CFA_XSP16, literal(-20)))
          CFI V1 load(1, XDATA, add(CFA_XSP16, literal(-19)))
          CFI V2 load(1, XDATA, add(CFA_XSP16, literal(-18)))
          CFI V3 load(1, XDATA, add(CFA_XSP16, literal(-17)))
          CFI V4 load(1, XDATA, add(CFA_XSP16, literal(-16)))
          CFI V5 load(1, XDATA, add(CFA_XSP16, literal(-15)))
          CFI V6 load(1, XDATA, add(CFA_XSP16, literal(-14)))
          CFI V7 load(1, XDATA, add(CFA_XSP16, literal(-13)))
          CFI V8 load(1, XDATA, add(CFA_XSP16, literal(-12)))
          CFI V9 load(1, XDATA, add(CFA_XSP16, literal(-11)))
          CFI V10 load(1, XDATA, add(CFA_XSP16, literal(-10)))
          CFI V11 load(1, XDATA, add(CFA_XSP16, literal(-9)))
          CFI V12 load(1, XDATA, add(CFA_XSP16, literal(-8)))
          CFI V13 load(1, XDATA, add(CFA_XSP16, literal(-7)))
          CFI R7 load(1, XDATA, add(CFA_XSP16, literal(-6)))
          CFI ?RET_LOW load(1, XDATA, add(CFA_XSP16, literal(-5)))
          CFI ?RET_HIGH load(1, XDATA, add(CFA_XSP16, literal(-4)))
          CFI ?BRET_EXT load(1, XDATA, add(CFA_XSP16, literal(-3)))
          CFI DPL0 load(1, XDATA, add(CFA_XSP16, literal(-2)))
          CFI DPH0 load(1, XDATA, add(CFA_XSP16, literal(-1)))
          CFI CFA_SP SP+-4
          CFI CFA_XSP16 add(XSP16, 22)
          CFI Block cfiCond128 Using cfiCommon0
          CFI (cfiCond128) Function MT_AfIncomingMsg
          CFI (cfiCond128) Conditional ??CrossCallReturnLabel_107, ??CrossCallReturnLabel_1
          CFI (cfiCond128) R6 load(1, XDATA, add(CFA_XSP16, literal(-22)))
          CFI (cfiCond128) VB load(1, XDATA, add(CFA_XSP16, literal(-21)))
          CFI (cfiCond128) V0 load(1, XDATA, add(CFA_XSP16, literal(-20)))
          CFI (cfiCond128) V1 load(1, XDATA, add(CFA_XSP16, literal(-19)))
          CFI (cfiCond128) V2 load(1, XDATA, add(CFA_XSP16, literal(-18)))
          CFI (cfiCond128) V3 load(1, XDATA, add(CFA_XSP16, literal(-17)))
          CFI (cfiCond128) V4 load(1, XDATA, add(CFA_XSP16, literal(-16)))
          CFI (cfiCond128) V5 load(1, XDATA, add(CFA_XSP16, literal(-15)))
          CFI (cfiCond128) V6 load(1, XDATA, add(CFA_XSP16, literal(-14)))
          CFI (cfiCond128) V7 load(1, XDATA, add(CFA_XSP16, literal(-13)))
          CFI (cfiCond128) V8 load(1, XDATA, add(CFA_XSP16, literal(-12)))
          CFI (cfiCond128) V9 load(1, XDATA, add(CFA_XSP16, literal(-11)))
          CFI (cfiCond128) V10 load(1, XDATA, add(CFA_XSP16, literal(-10)))
          CFI (cfiCond128) V11 load(1, XDATA, add(CFA_XSP16, literal(-9)))
          CFI (cfiCond128) V12 load(1, XDATA, add(CFA_XSP16, literal(-8)))
          CFI (cfiCond128) V13 load(1, XDATA, add(CFA_XSP16, literal(-7)))
          CFI (cfiCond128) R7 load(1, XDATA, add(CFA_XSP16, literal(-6)))
          CFI (cfiCond128) ?RET_LOW load(1, XDATA, add(CFA_XSP16, literal(-5)))
          CFI (cfiCond128) ?RET_HIGH load(1, XDATA, add(CFA_XSP16, literal(-4)))
          CFI (cfiCond128) ?BRET_EXT load(1, XDATA, add(CFA_XSP16, literal(-3)))
          CFI (cfiCond128) DPL0 load(1, XDATA, add(CFA_XSP16, literal(-2)))
          CFI (cfiCond128) DPH0 load(1, XDATA, add(CFA_XSP16, literal(-1)))
          CFI (cfiCond128) CFA_SP SP+-4
          CFI (cfiCond128) CFA_XSP16 add(XSP16, 22)
          CFI Block cfiCond129 Using cfiCommon0
          CFI (cfiCond129) Function MT_AfIncomingMsg
          CFI (cfiCond129) Conditional ??CrossCallReturnLabel_109, ??CrossCallReturnLabel_37
          CFI (cfiCond129) R6 load(1, XDATA, add(CFA_XSP16, literal(-22)))
          CFI (cfiCond129) VB load(1, XDATA, add(CFA_XSP16, literal(-21)))
          CFI (cfiCond129) V0 load(1, XDATA, add(CFA_XSP16, literal(-20)))
          CFI (cfiCond129) V1 load(1, XDATA, add(CFA_XSP16, literal(-19)))
          CFI (cfiCond129) V2 load(1, XDATA, add(CFA_XSP16, literal(-18)))
          CFI (cfiCond129) V3 load(1, XDATA, add(CFA_XSP16, literal(-17)))
          CFI (cfiCond129) V4 load(1, XDATA, add(CFA_XSP16, literal(-16)))
          CFI (cfiCond129) V5 load(1, XDATA, add(CFA_XSP16, literal(-15)))
          CFI (cfiCond129) V6 load(1, XDATA, add(CFA_XSP16, literal(-14)))
          CFI (cfiCond129) V7 load(1, XDATA, add(CFA_XSP16, literal(-13)))
          CFI (cfiCond129) V8 load(1, XDATA, add(CFA_XSP16, literal(-12)))
          CFI (cfiCond129) V9 load(1, XDATA, add(CFA_XSP16, literal(-11)))
          CFI (cfiCond129) V10 load(1, XDATA, add(CFA_XSP16, literal(-10)))
          CFI (cfiCond129) V11 load(1, XDATA, add(CFA_XSP16, literal(-9)))
          CFI (cfiCond129) V12 load(1, XDATA, add(CFA_XSP16, literal(-8)))
          CFI (cfiCond129) V13 load(1, XDATA, add(CFA_XSP16, literal(-7)))
          CFI (cfiCond129) R7 load(1, XDATA, add(CFA_XSP16, literal(-6)))
          CFI (cfiCond129) ?RET_LOW load(1, XDATA, add(CFA_XSP16, literal(-5)))
          CFI (cfiCond129) ?RET_HIGH load(1, XDATA, add(CFA_XSP16, literal(-4)))
          CFI (cfiCond129) ?BRET_EXT load(1, XDATA, add(CFA_XSP16, literal(-3)))
          CFI (cfiCond129) DPL0 load(1, XDATA, add(CFA_XSP16, literal(-2)))
          CFI (cfiCond129) DPH0 load(1, XDATA, add(CFA_XSP16, literal(-1)))
          CFI (cfiCond129) CFA_SP SP+-4
          CFI (cfiCond129) CFA_XSP16 add(XSP16, 22)
          CFI Block cfiCond130 Using cfiCommon0
          CFI (cfiCond130) Function MT_AfIncomingMsg
          CFI (cfiCond130) Conditional ??CrossCallReturnLabel_109, ??CrossCallReturnLabel_38
          CFI (cfiCond130) R6 load(1, XDATA, add(CFA_XSP16, literal(-22)))
          CFI (cfiCond130) VB load(1, XDATA, add(CFA_XSP16, literal(-21)))
          CFI (cfiCond130) V0 load(1, XDATA, add(CFA_XSP16, literal(-20)))
          CFI (cfiCond130) V1 load(1, XDATA, add(CFA_XSP16, literal(-19)))
          CFI (cfiCond130) V2 load(1, XDATA, add(CFA_XSP16, literal(-18)))
          CFI (cfiCond130) V3 load(1, XDATA, add(CFA_XSP16, literal(-17)))
          CFI (cfiCond130) V4 load(1, XDATA, add(CFA_XSP16, literal(-16)))
          CFI (cfiCond130) V5 load(1, XDATA, add(CFA_XSP16, literal(-15)))
          CFI (cfiCond130) V6 load(1, XDATA, add(CFA_XSP16, literal(-14)))
          CFI (cfiCond130) V7 load(1, XDATA, add(CFA_XSP16, literal(-13)))
          CFI (cfiCond130) V8 load(1, XDATA, add(CFA_XSP16, literal(-12)))
          CFI (cfiCond130) V9 load(1, XDATA, add(CFA_XSP16, literal(-11)))
          CFI (cfiCond130) V10 load(1, XDATA, add(CFA_XSP16, literal(-10)))
          CFI (cfiCond130) V11 load(1, XDATA, add(CFA_XSP16, literal(-9)))
          CFI (cfiCond130) V12 load(1, XDATA, add(CFA_XSP16, literal(-8)))
          CFI (cfiCond130) V13 load(1, XDATA, add(CFA_XSP16, literal(-7)))
          CFI (cfiCond130) R7 load(1, XDATA, add(CFA_XSP16, literal(-6)))
          CFI (cfiCond130) ?RET_LOW load(1, XDATA, add(CFA_XSP16, literal(-5)))
          CFI (cfiCond130) ?RET_HIGH load(1, XDATA, add(CFA_XSP16, literal(-4)))
          CFI (cfiCond130) ?BRET_EXT load(1, XDATA, add(CFA_XSP16, literal(-3)))
          CFI (cfiCond130) DPL0 load(1, XDATA, add(CFA_XSP16, literal(-2)))
          CFI (cfiCond130) DPH0 load(1, XDATA, add(CFA_XSP16, literal(-1)))
          CFI (cfiCond130) CFA_SP SP+-4
          CFI (cfiCond130) CFA_XSP16 add(XSP16, 22)
          CFI Block cfiCond131 Using cfiCommon0
          CFI (cfiCond131) Function MT_AfIncomingMsg
          CFI (cfiCond131) Conditional ??CrossCallReturnLabel_108, ??CrossCallReturnLabel_31
          CFI (cfiCond131) R6 load(1, XDATA, add(CFA_XSP16, literal(-22)))
          CFI (cfiCond131) VB load(1, XDATA, add(CFA_XSP16, literal(-21)))
          CFI (cfiCond131) V0 load(1, XDATA, add(CFA_XSP16, literal(-20)))
          CFI (cfiCond131) V1 load(1, XDATA, add(CFA_XSP16, literal(-19)))
          CFI (cfiCond131) V2 load(1, XDATA, add(CFA_XSP16, literal(-18)))
          CFI (cfiCond131) V3 load(1, XDATA, add(CFA_XSP16, literal(-17)))
          CFI (cfiCond131) V4 load(1, XDATA, add(CFA_XSP16, literal(-16)))
          CFI (cfiCond131) V5 load(1, XDATA, add(CFA_XSP16, literal(-15)))
          CFI (cfiCond131) V6 load(1, XDATA, add(CFA_XSP16, literal(-14)))
          CFI (cfiCond131) V7 load(1, XDATA, add(CFA_XSP16, literal(-13)))
          CFI (cfiCond131) V8 load(1, XDATA, add(CFA_XSP16, literal(-12)))
          CFI (cfiCond131) V9 load(1, XDATA, add(CFA_XSP16, literal(-11)))
          CFI (cfiCond131) V10 load(1, XDATA, add(CFA_XSP16, literal(-10)))
          CFI (cfiCond131) V11 load(1, XDATA, add(CFA_XSP16, literal(-9)))
          CFI (cfiCond131) V12 load(1, XDATA, add(CFA_XSP16, literal(-8)))
          CFI (cfiCond131) V13 load(1, XDATA, add(CFA_XSP16, literal(-7)))
          CFI (cfiCond131) R7 load(1, XDATA, add(CFA_XSP16, literal(-6)))
          CFI (cfiCond131) ?RET_LOW load(1, XDATA, add(CFA_XSP16, literal(-5)))
          CFI (cfiCond131) ?RET_HIGH load(1, XDATA, add(CFA_XSP16, literal(-4)))
          CFI (cfiCond131) ?BRET_EXT load(1, XDATA, add(CFA_XSP16, literal(-3)))
          CFI (cfiCond131) DPL0 load(1, XDATA, add(CFA_XSP16, literal(-2)))
          CFI (cfiCond131) DPH0 load(1, XDATA, add(CFA_XSP16, literal(-1)))
          CFI (cfiCond131) CFA_SP SP+-4
          CFI (cfiCond131) CFA_XSP16 add(XSP16, 22)
          CFI Block cfiCond132 Using cfiCommon0
          CFI (cfiCond132) Function MT_AfIncomingMsg
          CFI (cfiCond132) Conditional ??CrossCallReturnLabel_108, ??CrossCallReturnLabel_32
          CFI (cfiCond132) R6 load(1, XDATA, add(CFA_XSP16, literal(-22)))
          CFI (cfiCond132) VB load(1, XDATA, add(CFA_XSP16, literal(-21)))
          CFI (cfiCond132) V0 load(1, XDATA, add(CFA_XSP16, literal(-20)))
          CFI (cfiCond132) V1 load(1, XDATA, add(CFA_XSP16, literal(-19)))
          CFI (cfiCond132) V2 load(1, XDATA, add(CFA_XSP16, literal(-18)))
          CFI (cfiCond132) V3 load(1, XDATA, add(CFA_XSP16, literal(-17)))
          CFI (cfiCond132) V4 load(1, XDATA, add(CFA_XSP16, literal(-16)))
          CFI (cfiCond132) V5 load(1, XDATA, add(CFA_XSP16, literal(-15)))
          CFI (cfiCond132) V6 load(1, XDATA, add(CFA_XSP16, literal(-14)))
          CFI (cfiCond132) V7 load(1, XDATA, add(CFA_XSP16, literal(-13)))
          CFI (cfiCond132) V8 load(1, XDATA, add(CFA_XSP16, literal(-12)))
          CFI (cfiCond132) V9 load(1, XDATA, add(CFA_XSP16, literal(-11)))
          CFI (cfiCond132) V10 load(1, XDATA, add(CFA_XSP16, literal(-10)))
          CFI (cfiCond132) V11 load(1, XDATA, add(CFA_XSP16, literal(-9)))
          CFI (cfiCond132) V12 load(1, XDATA, add(CFA_XSP16, literal(-8)))
          CFI (cfiCond132) V13 load(1, XDATA, add(CFA_XSP16, literal(-7)))
          CFI (cfiCond132) R7 load(1, XDATA, add(CFA_XSP16, literal(-6)))
          CFI (cfiCond132) ?RET_LOW load(1, XDATA, add(CFA_XSP16, literal(-5)))
          CFI (cfiCond132) ?RET_HIGH load(1, XDATA, add(CFA_XSP16, literal(-4)))
          CFI (cfiCond132) ?BRET_EXT load(1, XDATA, add(CFA_XSP16, literal(-3)))
          CFI (cfiCond132) DPL0 load(1, XDATA, add(CFA_XSP16, literal(-2)))
          CFI (cfiCond132) DPH0 load(1, XDATA, add(CFA_XSP16, literal(-1)))
          CFI (cfiCond132) CFA_SP SP+-4
          CFI (cfiCond132) CFA_XSP16 add(XSP16, 22)
          CFI Block cfiPicker133 Using cfiCommon1
          CFI (cfiPicker133) NoFunction
          CFI (cfiPicker133) Picker
        LCALL     ?Subroutine47 & 0xFFFF
??CrossCallReturnLabel_111:
        RET
          CFI EndBlock cfiCond127
          CFI EndBlock cfiCond128
          CFI EndBlock cfiCond129
          CFI EndBlock cfiCond130
          CFI EndBlock cfiCond131
          CFI EndBlock cfiCond132
          CFI EndBlock cfiPicker133

        RSEG BANKED_CODE:HUGECODE:NOROOT(0)
?Subroutine47:
          CFI Block cfiCond134 Using cfiCommon0
          CFI Function MT_AfIncomingMsg
          CFI Conditional ??CrossCallReturnLabel_111, ??CrossCallReturnLabel_109, ??CrossCallReturnLabel_37
          CFI R6 load(1, XDATA, add(CFA_XSP16, literal(-22)))
          CFI VB load(1, XDATA, add(CFA_XSP16, literal(-21)))
          CFI V0 load(1, XDATA, add(CFA_XSP16, literal(-20)))
          CFI V1 load(1, XDATA, add(CFA_XSP16, literal(-19)))
          CFI V2 load(1, XDATA, add(CFA_XSP16, literal(-18)))
          CFI V3 load(1, XDATA, add(CFA_XSP16, literal(-17)))
          CFI V4 load(1, XDATA, add(CFA_XSP16, literal(-16)))
          CFI V5 load(1, XDATA, add(CFA_XSP16, literal(-15)))
          CFI V6 load(1, XDATA, add(CFA_XSP16, literal(-14)))
          CFI V7 load(1, XDATA, add(CFA_XSP16, literal(-13)))
          CFI V8 load(1, XDATA, add(CFA_XSP16, literal(-12)))
          CFI V9 load(1, XDATA, add(CFA_XSP16, literal(-11)))
          CFI V10 load(1, XDATA, add(CFA_XSP16, literal(-10)))
          CFI V11 load(1, XDATA, add(CFA_XSP16, literal(-9)))
          CFI V12 load(1, XDATA, add(CFA_XSP16, literal(-8)))
          CFI V13 load(1, XDATA, add(CFA_XSP16, literal(-7)))
          CFI R7 load(1, XDATA, add(CFA_XSP16, literal(-6)))
          CFI ?RET_LOW load(1, XDATA, add(CFA_XSP16, literal(-5)))
          CFI ?RET_HIGH load(1, XDATA, add(CFA_XSP16, literal(-4)))
          CFI ?BRET_EXT load(1, XDATA, add(CFA_XSP16, literal(-3)))
          CFI DPL0 load(1, XDATA, add(CFA_XSP16, literal(-2)))
          CFI DPH0 load(1, XDATA, add(CFA_XSP16, literal(-1)))
          CFI CFA_SP SP+-6
          CFI CFA_XSP16 add(XSP16, 22)
          CFI Block cfiCond135 Using cfiCommon0
          CFI (cfiCond135) Function MT_AfIncomingMsg
          CFI (cfiCond135) Conditional ??CrossCallReturnLabel_111, ??CrossCallReturnLabel_109, ??CrossCallReturnLabel_38
          CFI (cfiCond135) R6 load(1, XDATA, add(CFA_XSP16, literal(-22)))
          CFI (cfiCond135) VB load(1, XDATA, add(CFA_XSP16, literal(-21)))
          CFI (cfiCond135) V0 load(1, XDATA, add(CFA_XSP16, literal(-20)))
          CFI (cfiCond135) V1 load(1, XDATA, add(CFA_XSP16, literal(-19)))
          CFI (cfiCond135) V2 load(1, XDATA, add(CFA_XSP16, literal(-18)))
          CFI (cfiCond135) V3 load(1, XDATA, add(CFA_XSP16, literal(-17)))
          CFI (cfiCond135) V4 load(1, XDATA, add(CFA_XSP16, literal(-16)))
          CFI (cfiCond135) V5 load(1, XDATA, add(CFA_XSP16, literal(-15)))
          CFI (cfiCond135) V6 load(1, XDATA, add(CFA_XSP16, literal(-14)))
          CFI (cfiCond135) V7 load(1, XDATA, add(CFA_XSP16, literal(-13)))
          CFI (cfiCond135) V8 load(1, XDATA, add(CFA_XSP16, literal(-12)))
          CFI (cfiCond135) V9 load(1, XDATA, add(CFA_XSP16, literal(-11)))
          CFI (cfiCond135) V10 load(1, XDATA, add(CFA_XSP16, literal(-10)))
          CFI (cfiCond135) V11 load(1, XDATA, add(CFA_XSP16, literal(-9)))
          CFI (cfiCond135) V12 load(1, XDATA, add(CFA_XSP16, literal(-8)))
          CFI (cfiCond135) V13 load(1, XDATA, add(CFA_XSP16, literal(-7)))
          CFI (cfiCond135) R7 load(1, XDATA, add(CFA_XSP16, literal(-6)))
          CFI (cfiCond135) ?RET_LOW load(1, XDATA, add(CFA_XSP16, literal(-5)))
          CFI (cfiCond135) ?RET_HIGH load(1, XDATA, add(CFA_XSP16, literal(-4)))
          CFI (cfiCond135) ?BRET_EXT load(1, XDATA, add(CFA_XSP16, literal(-3)))
          CFI (cfiCond135) DPL0 load(1, XDATA, add(CFA_XSP16, literal(-2)))
          CFI (cfiCond135) DPH0 load(1, XDATA, add(CFA_XSP16, literal(-1)))
          CFI (cfiCond135) CFA_SP SP+-6
          CFI (cfiCond135) CFA_XSP16 add(XSP16, 22)
          CFI Block cfiCond136 Using cfiCommon0
          CFI (cfiCond136) Function MT_AfIncomingMsg
          CFI (cfiCond136) Conditional ??CrossCallReturnLabel_111, ??CrossCallReturnLabel_108, ??CrossCallReturnLabel_31
          CFI (cfiCond136) R6 load(1, XDATA, add(CFA_XSP16, literal(-22)))
          CFI (cfiCond136) VB load(1, XDATA, add(CFA_XSP16, literal(-21)))
          CFI (cfiCond136) V0 load(1, XDATA, add(CFA_XSP16, literal(-20)))
          CFI (cfiCond136) V1 load(1, XDATA, add(CFA_XSP16, literal(-19)))
          CFI (cfiCond136) V2 load(1, XDATA, add(CFA_XSP16, literal(-18)))
          CFI (cfiCond136) V3 load(1, XDATA, add(CFA_XSP16, literal(-17)))
          CFI (cfiCond136) V4 load(1, XDATA, add(CFA_XSP16, literal(-16)))
          CFI (cfiCond136) V5 load(1, XDATA, add(CFA_XSP16, literal(-15)))
          CFI (cfiCond136) V6 load(1, XDATA, add(CFA_XSP16, literal(-14)))
          CFI (cfiCond136) V7 load(1, XDATA, add(CFA_XSP16, literal(-13)))
          CFI (cfiCond136) V8 load(1, XDATA, add(CFA_XSP16, literal(-12)))
          CFI (cfiCond136) V9 load(1, XDATA, add(CFA_XSP16, literal(-11)))
          CFI (cfiCond136) V10 load(1, XDATA, add(CFA_XSP16, literal(-10)))
          CFI (cfiCond136) V11 load(1, XDATA, add(CFA_XSP16, literal(-9)))
          CFI (cfiCond136) V12 load(1, XDATA, add(CFA_XSP16, literal(-8)))
          CFI (cfiCond136) V13 load(1, XDATA, add(CFA_XSP16, literal(-7)))
          CFI (cfiCond136) R7 load(1, XDATA, add(CFA_XSP16, literal(-6)))
          CFI (cfiCond136) ?RET_LOW load(1, XDATA, add(CFA_XSP16, literal(-5)))
          CFI (cfiCond136) ?RET_HIGH load(1, XDATA, add(CFA_XSP16, literal(-4)))
          CFI (cfiCond136) ?BRET_EXT load(1, XDATA, add(CFA_XSP16, literal(-3)))
          CFI (cfiCond136) DPL0 load(1, XDATA, add(CFA_XSP16, literal(-2)))
          CFI (cfiCond136) DPH0 load(1, XDATA, add(CFA_XSP16, literal(-1)))
          CFI (cfiCond136) CFA_SP SP+-6
          CFI (cfiCond136) CFA_XSP16 add(XSP16, 22)
          CFI Block cfiCond137 Using cfiCommon0
          CFI (cfiCond137) Function MT_AfIncomingMsg
          CFI (cfiCond137) Conditional ??CrossCallReturnLabel_111, ??CrossCallReturnLabel_108, ??CrossCallReturnLabel_32
          CFI (cfiCond137) R6 load(1, XDATA, add(CFA_XSP16, literal(-22)))
          CFI (cfiCond137) VB load(1, XDATA, add(CFA_XSP16, literal(-21)))
          CFI (cfiCond137) V0 load(1, XDATA, add(CFA_XSP16, literal(-20)))
          CFI (cfiCond137) V1 load(1, XDATA, add(CFA_XSP16, literal(-19)))
          CFI (cfiCond137) V2 load(1, XDATA, add(CFA_XSP16, literal(-18)))
          CFI (cfiCond137) V3 load(1, XDATA, add(CFA_XSP16, literal(-17)))
          CFI (cfiCond137) V4 load(1, XDATA, add(CFA_XSP16, literal(-16)))
          CFI (cfiCond137) V5 load(1, XDATA, add(CFA_XSP16, literal(-15)))
          CFI (cfiCond137) V6 load(1, XDATA, add(CFA_XSP16, literal(-14)))
          CFI (cfiCond137) V7 load(1, XDATA, add(CFA_XSP16, literal(-13)))
          CFI (cfiCond137) V8 load(1, XDATA, add(CFA_XSP16, literal(-12)))
          CFI (cfiCond137) V9 load(1, XDATA, add(CFA_XSP16, literal(-11)))
          CFI (cfiCond137) V10 load(1, XDATA, add(CFA_XSP16, literal(-10)))
          CFI (cfiCond137) V11 load(1, XDATA, add(CFA_XSP16, literal(-9)))
          CFI (cfiCond137) V12 load(1, XDATA, add(CFA_XSP16, literal(-8)))
          CFI (cfiCond137) V13 load(1, XDATA, add(CFA_XSP16, literal(-7)))
          CFI (cfiCond137) R7 load(1, XDATA, add(CFA_XSP16, literal(-6)))
          CFI (cfiCond137) ?RET_LOW load(1, XDATA, add(CFA_XSP16, literal(-5)))
          CFI (cfiCond137) ?RET_HIGH load(1, XDATA, add(CFA_XSP16, literal(-4)))
          CFI (cfiCond137) ?BRET_EXT load(1, XDATA, add(CFA_XSP16, literal(-3)))
          CFI (cfiCond137) DPL0 load(1, XDATA, add(CFA_XSP16, literal(-2)))
          CFI (cfiCond137) DPH0 load(1, XDATA, add(CFA_XSP16, literal(-1)))
          CFI (cfiCond137) CFA_SP SP+-6
          CFI (cfiCond137) CFA_XSP16 add(XSP16, 22)
          CFI Block cfiCond138 Using cfiCommon0
          CFI (cfiCond138) Function MT_AfIncomingMsg
          CFI (cfiCond138) Conditional ??CrossCallReturnLabel_111, ??CrossCallReturnLabel_107, ??CrossCallReturnLabel_0
          CFI (cfiCond138) R6 load(1, XDATA, add(CFA_XSP16, literal(-22)))
          CFI (cfiCond138) VB load(1, XDATA, add(CFA_XSP16, literal(-21)))
          CFI (cfiCond138) V0 load(1, XDATA, add(CFA_XSP16, literal(-20)))
          CFI (cfiCond138) V1 load(1, XDATA, add(CFA_XSP16, literal(-19)))
          CFI (cfiCond138) V2 load(1, XDATA, add(CFA_XSP16, literal(-18)))
          CFI (cfiCond138) V3 load(1, XDATA, add(CFA_XSP16, literal(-17)))
          CFI (cfiCond138) V4 load(1, XDATA, add(CFA_XSP16, literal(-16)))
          CFI (cfiCond138) V5 load(1, XDATA, add(CFA_XSP16, literal(-15)))
          CFI (cfiCond138) V6 load(1, XDATA, add(CFA_XSP16, literal(-14)))
          CFI (cfiCond138) V7 load(1, XDATA, add(CFA_XSP16, literal(-13)))
          CFI (cfiCond138) V8 load(1, XDATA, add(CFA_XSP16, literal(-12)))
          CFI (cfiCond138) V9 load(1, XDATA, add(CFA_XSP16, literal(-11)))
          CFI (cfiCond138) V10 load(1, XDATA, add(CFA_XSP16, literal(-10)))
          CFI (cfiCond138) V11 load(1, XDATA, add(CFA_XSP16, literal(-9)))
          CFI (cfiCond138) V12 load(1, XDATA, add(CFA_XSP16, literal(-8)))
          CFI (cfiCond138) V13 load(1, XDATA, add(CFA_XSP16, literal(-7)))
          CFI (cfiCond138) R7 load(1, XDATA, add(CFA_XSP16, literal(-6)))
          CFI (cfiCond138) ?RET_LOW load(1, XDATA, add(CFA_XSP16, literal(-5)))
          CFI (cfiCond138) ?RET_HIGH load(1, XDATA, add(CFA_XSP16, literal(-4)))
          CFI (cfiCond138) ?BRET_EXT load(1, XDATA, add(CFA_XSP16, literal(-3)))
          CFI (cfiCond138) DPL0 load(1, XDATA, add(CFA_XSP16, literal(-2)))
          CFI (cfiCond138) DPH0 load(1, XDATA, add(CFA_XSP16, literal(-1)))
          CFI (cfiCond138) CFA_SP SP+-6
          CFI (cfiCond138) CFA_XSP16 add(XSP16, 22)
          CFI Block cfiCond139 Using cfiCommon0
          CFI (cfiCond139) Function MT_AfIncomingMsg
          CFI (cfiCond139) Conditional ??CrossCallReturnLabel_111, ??CrossCallReturnLabel_107, ??CrossCallReturnLabel_1
          CFI (cfiCond139) R6 load(1, XDATA, add(CFA_XSP16, literal(-22)))
          CFI (cfiCond139) VB load(1, XDATA, add(CFA_XSP16, literal(-21)))
          CFI (cfiCond139) V0 load(1, XDATA, add(CFA_XSP16, literal(-20)))
          CFI (cfiCond139) V1 load(1, XDATA, add(CFA_XSP16, literal(-19)))
          CFI (cfiCond139) V2 load(1, XDATA, add(CFA_XSP16, literal(-18)))
          CFI (cfiCond139) V3 load(1, XDATA, add(CFA_XSP16, literal(-17)))
          CFI (cfiCond139) V4 load(1, XDATA, add(CFA_XSP16, literal(-16)))
          CFI (cfiCond139) V5 load(1, XDATA, add(CFA_XSP16, literal(-15)))
          CFI (cfiCond139) V6 load(1, XDATA, add(CFA_XSP16, literal(-14)))
          CFI (cfiCond139) V7 load(1, XDATA, add(CFA_XSP16, literal(-13)))
          CFI (cfiCond139) V8 load(1, XDATA, add(CFA_XSP16, literal(-12)))
          CFI (cfiCond139) V9 load(1, XDATA, add(CFA_XSP16, literal(-11)))
          CFI (cfiCond139) V10 load(1, XDATA, add(CFA_XSP16, literal(-10)))
          CFI (cfiCond139) V11 load(1, XDATA, add(CFA_XSP16, literal(-9)))
          CFI (cfiCond139) V12 load(1, XDATA, add(CFA_XSP16, literal(-8)))
          CFI (cfiCond139) V13 load(1, XDATA, add(CFA_XSP16, literal(-7)))
          CFI (cfiCond139) R7 load(1, XDATA, add(CFA_XSP16, literal(-6)))
          CFI (cfiCond139) ?RET_LOW load(1, XDATA, add(CFA_XSP16, literal(-5)))
          CFI (cfiCond139) ?RET_HIGH load(1, XDATA, add(CFA_XSP16, literal(-4)))
          CFI (cfiCond139) ?BRET_EXT load(1, XDATA, add(CFA_XSP16, literal(-3)))
          CFI (cfiCond139) DPL0 load(1, XDATA, add(CFA_XSP16, literal(-2)))
          CFI (cfiCond139) DPH0 load(1, XDATA, add(CFA_XSP16, literal(-1)))
          CFI (cfiCond139) CFA_SP SP+-6
          CFI (cfiCond139) CFA_XSP16 add(XSP16, 22)
          CFI Block cfiCond140 Using cfiCommon0
          CFI (cfiCond140) Function MT_AfIncomingMsg
          CFI (cfiCond140) Conditional ??CrossCallReturnLabel_110, ??CrossCallReturnLabel_70, ??CrossCallReturnLabel_21
          CFI (cfiCond140) R6 load(1, XDATA, add(CFA_XSP16, literal(-22)))
          CFI (cfiCond140) VB load(1, XDATA, add(CFA_XSP16, literal(-21)))
          CFI (cfiCond140) V0 load(1, XDATA, add(CFA_XSP16, literal(-20)))
          CFI (cfiCond140) V1 load(1, XDATA, add(CFA_XSP16, literal(-19)))
          CFI (cfiCond140) V2 load(1, XDATA, add(CFA_XSP16, literal(-18)))
          CFI (cfiCond140) V3 load(1, XDATA, add(CFA_XSP16, literal(-17)))
          CFI (cfiCond140) V4 load(1, XDATA, add(CFA_XSP16, literal(-16)))
          CFI (cfiCond140) V5 load(1, XDATA, add(CFA_XSP16, literal(-15)))
          CFI (cfiCond140) V6 load(1, XDATA, add(CFA_XSP16, literal(-14)))
          CFI (cfiCond140) V7 load(1, XDATA, add(CFA_XSP16, literal(-13)))
          CFI (cfiCond140) V8 load(1, XDATA, add(CFA_XSP16, literal(-12)))
          CFI (cfiCond140) V9 load(1, XDATA, add(CFA_XSP16, literal(-11)))
          CFI (cfiCond140) V10 load(1, XDATA, add(CFA_XSP16, literal(-10)))
          CFI (cfiCond140) V11 load(1, XDATA, add(CFA_XSP16, literal(-9)))
          CFI (cfiCond140) V12 load(1, XDATA, add(CFA_XSP16, literal(-8)))
          CFI (cfiCond140) V13 load(1, XDATA, add(CFA_XSP16, literal(-7)))
          CFI (cfiCond140) R7 load(1, XDATA, add(CFA_XSP16, literal(-6)))
          CFI (cfiCond140) ?RET_LOW load(1, XDATA, add(CFA_XSP16, literal(-5)))
          CFI (cfiCond140) ?RET_HIGH load(1, XDATA, add(CFA_XSP16, literal(-4)))
          CFI (cfiCond140) ?BRET_EXT load(1, XDATA, add(CFA_XSP16, literal(-3)))
          CFI (cfiCond140) DPL0 load(1, XDATA, add(CFA_XSP16, literal(-2)))
          CFI (cfiCond140) DPH0 load(1, XDATA, add(CFA_XSP16, literal(-1)))
          CFI (cfiCond140) CFA_SP SP+-6
          CFI (cfiCond140) CFA_XSP16 add(XSP16, 22)
          CFI Block cfiCond141 Using cfiCommon0
          CFI (cfiCond141) Function MT_AfIncomingMsg
          CFI (cfiCond141) Conditional ??CrossCallReturnLabel_110, ??CrossCallReturnLabel_70, ??CrossCallReturnLabel_22
          CFI (cfiCond141) R6 load(1, XDATA, add(CFA_XSP16, literal(-22)))
          CFI (cfiCond141) VB load(1, XDATA, add(CFA_XSP16, literal(-21)))
          CFI (cfiCond141) V0 load(1, XDATA, add(CFA_XSP16, literal(-20)))
          CFI (cfiCond141) V1 load(1, XDATA, add(CFA_XSP16, literal(-19)))
          CFI (cfiCond141) V2 load(1, XDATA, add(CFA_XSP16, literal(-18)))
          CFI (cfiCond141) V3 load(1, XDATA, add(CFA_XSP16, literal(-17)))
          CFI (cfiCond141) V4 load(1, XDATA, add(CFA_XSP16, literal(-16)))
          CFI (cfiCond141) V5 load(1, XDATA, add(CFA_XSP16, literal(-15)))
          CFI (cfiCond141) V6 load(1, XDATA, add(CFA_XSP16, literal(-14)))
          CFI (cfiCond141) V7 load(1, XDATA, add(CFA_XSP16, literal(-13)))
          CFI (cfiCond141) V8 load(1, XDATA, add(CFA_XSP16, literal(-12)))
          CFI (cfiCond141) V9 load(1, XDATA, add(CFA_XSP16, literal(-11)))
          CFI (cfiCond141) V10 load(1, XDATA, add(CFA_XSP16, literal(-10)))
          CFI (cfiCond141) V11 load(1, XDATA, add(CFA_XSP16, literal(-9)))
          CFI (cfiCond141) V12 load(1, XDATA, add(CFA_XSP16, literal(-8)))
          CFI (cfiCond141) V13 load(1, XDATA, add(CFA_XSP16, literal(-7)))
          CFI (cfiCond141) R7 load(1, XDATA, add(CFA_XSP16, literal(-6)))
          CFI (cfiCond141) ?RET_LOW load(1, XDATA, add(CFA_XSP16, literal(-5)))
          CFI (cfiCond141) ?RET_HIGH load(1, XDATA, add(CFA_XSP16, literal(-4)))
          CFI (cfiCond141) ?BRET_EXT load(1, XDATA, add(CFA_XSP16, literal(-3)))
          CFI (cfiCond141) DPL0 load(1, XDATA, add(CFA_XSP16, literal(-2)))
          CFI (cfiCond141) DPH0 load(1, XDATA, add(CFA_XSP16, literal(-1)))
          CFI (cfiCond141) CFA_SP SP+-6
          CFI (cfiCond141) CFA_XSP16 add(XSP16, 22)
          CFI Block cfiCond142 Using cfiCommon0
          CFI (cfiCond142) Function MT_AfIncomingMsg
          CFI (cfiCond142) Conditional ??CrossCallReturnLabel_110, ??CrossCallReturnLabel_69, ??CrossCallReturnLabel_2
          CFI (cfiCond142) R6 load(1, XDATA, add(CFA_XSP16, literal(-22)))
          CFI (cfiCond142) VB load(1, XDATA, add(CFA_XSP16, literal(-21)))
          CFI (cfiCond142) V0 load(1, XDATA, add(CFA_XSP16, literal(-20)))
          CFI (cfiCond142) V1 load(1, XDATA, add(CFA_XSP16, literal(-19)))
          CFI (cfiCond142) V2 load(1, XDATA, add(CFA_XSP16, literal(-18)))
          CFI (cfiCond142) V3 load(1, XDATA, add(CFA_XSP16, literal(-17)))
          CFI (cfiCond142) V4 load(1, XDATA, add(CFA_XSP16, literal(-16)))
          CFI (cfiCond142) V5 load(1, XDATA, add(CFA_XSP16, literal(-15)))
          CFI (cfiCond142) V6 load(1, XDATA, add(CFA_XSP16, literal(-14)))
          CFI (cfiCond142) V7 load(1, XDATA, add(CFA_XSP16, literal(-13)))
          CFI (cfiCond142) V8 load(1, XDATA, add(CFA_XSP16, literal(-12)))
          CFI (cfiCond142) V9 load(1, XDATA, add(CFA_XSP16, literal(-11)))
          CFI (cfiCond142) V10 load(1, XDATA, add(CFA_XSP16, literal(-10)))
          CFI (cfiCond142) V11 load(1, XDATA, add(CFA_XSP16, literal(-9)))
          CFI (cfiCond142) V12 load(1, XDATA, add(CFA_XSP16, literal(-8)))
          CFI (cfiCond142) V13 load(1, XDATA, add(CFA_XSP16, literal(-7)))
          CFI (cfiCond142) R7 load(1, XDATA, add(CFA_XSP16, literal(-6)))
          CFI (cfiCond142) ?RET_LOW load(1, XDATA, add(CFA_XSP16, literal(-5)))
          CFI (cfiCond142) ?RET_HIGH load(1, XDATA, add(CFA_XSP16, literal(-4)))
          CFI (cfiCond142) ?BRET_EXT load(1, XDATA, add(CFA_XSP16, literal(-3)))
          CFI (cfiCond142) DPL0 load(1, XDATA, add(CFA_XSP16, literal(-2)))
          CFI (cfiCond142) DPH0 load(1, XDATA, add(CFA_XSP16, literal(-1)))
          CFI (cfiCond142) CFA_SP SP+-6
          CFI (cfiCond142) CFA_XSP16 add(XSP16, 22)
          CFI Block cfiCond143 Using cfiCommon0
          CFI (cfiCond143) Function MT_AfIncomingMsg
          CFI (cfiCond143) Conditional ??CrossCallReturnLabel_110, ??CrossCallReturnLabel_69, ??CrossCallReturnLabel_3
          CFI (cfiCond143) R6 load(1, XDATA, add(CFA_XSP16, literal(-22)))
          CFI (cfiCond143) VB load(1, XDATA, add(CFA_XSP16, literal(-21)))
          CFI (cfiCond143) V0 load(1, XDATA, add(CFA_XSP16, literal(-20)))
          CFI (cfiCond143) V1 load(1, XDATA, add(CFA_XSP16, literal(-19)))
          CFI (cfiCond143) V2 load(1, XDATA, add(CFA_XSP16, literal(-18)))
          CFI (cfiCond143) V3 load(1, XDATA, add(CFA_XSP16, literal(-17)))
          CFI (cfiCond143) V4 load(1, XDATA, add(CFA_XSP16, literal(-16)))
          CFI (cfiCond143) V5 load(1, XDATA, add(CFA_XSP16, literal(-15)))
          CFI (cfiCond143) V6 load(1, XDATA, add(CFA_XSP16, literal(-14)))
          CFI (cfiCond143) V7 load(1, XDATA, add(CFA_XSP16, literal(-13)))
          CFI (cfiCond143) V8 load(1, XDATA, add(CFA_XSP16, literal(-12)))
          CFI (cfiCond143) V9 load(1, XDATA, add(CFA_XSP16, literal(-11)))
          CFI (cfiCond143) V10 load(1, XDATA, add(CFA_XSP16, literal(-10)))
          CFI (cfiCond143) V11 load(1, XDATA, add(CFA_XSP16, literal(-9)))
          CFI (cfiCond143) V12 load(1, XDATA, add(CFA_XSP16, literal(-8)))
          CFI (cfiCond143) V13 load(1, XDATA, add(CFA_XSP16, literal(-7)))
          CFI (cfiCond143) R7 load(1, XDATA, add(CFA_XSP16, literal(-6)))
          CFI (cfiCond143) ?RET_LOW load(1, XDATA, add(CFA_XSP16, literal(-5)))
          CFI (cfiCond143) ?RET_HIGH load(1, XDATA, add(CFA_XSP16, literal(-4)))
          CFI (cfiCond143) ?BRET_EXT load(1, XDATA, add(CFA_XSP16, literal(-3)))
          CFI (cfiCond143) DPL0 load(1, XDATA, add(CFA_XSP16, literal(-2)))
          CFI (cfiCond143) DPH0 load(1, XDATA, add(CFA_XSP16, literal(-1)))
          CFI (cfiCond143) CFA_SP SP+-6
          CFI (cfiCond143) CFA_XSP16 add(XSP16, 22)
          CFI Block cfiPicker144 Using cfiCommon1
          CFI (cfiPicker144) NoFunction
          CFI (cfiPicker144) Picker
        MOVX      A,@DPTR
        MOV       DPL,?V2
        MOV       DPH,?V3
        INC       DPTR
        RET
          CFI EndBlock cfiCond134
          CFI EndBlock cfiCond135
          CFI EndBlock cfiCond136
          CFI EndBlock cfiCond137
          CFI EndBlock cfiCond138
          CFI EndBlock cfiCond139
          CFI EndBlock cfiCond140
          CFI EndBlock cfiCond141
          CFI EndBlock cfiCond142
          CFI EndBlock cfiCond143
          CFI EndBlock cfiPicker144

        RSEG BANKED_CODE:HUGECODE:NOROOT(0)
?Subroutine21:
          CFI Block cfiCond145 Using cfiCommon0
          CFI Function MT_AfIncomingMsg
          CFI Conditional ??CrossCallReturnLabel_112
          CFI R6 load(1, XDATA, add(CFA_XSP16, literal(-22)))
          CFI VB load(1, XDATA, add(CFA_XSP16, literal(-21)))
          CFI V0 load(1, XDATA, add(CFA_XSP16, literal(-20)))
          CFI V1 load(1, XDATA, add(CFA_XSP16, literal(-19)))
          CFI V2 load(1, XDATA, add(CFA_XSP16, literal(-18)))
          CFI V3 load(1, XDATA, add(CFA_XSP16, literal(-17)))
          CFI V4 load(1, XDATA, add(CFA_XSP16, literal(-16)))
          CFI V5 load(1, XDATA, add(CFA_XSP16, literal(-15)))
          CFI V6 load(1, XDATA, add(CFA_XSP16, literal(-14)))
          CFI V7 load(1, XDATA, add(CFA_XSP16, literal(-13)))
          CFI V8 load(1, XDATA, add(CFA_XSP16, literal(-12)))
          CFI V9 load(1, XDATA, add(CFA_XSP16, literal(-11)))
          CFI V10 load(1, XDATA, add(CFA_XSP16, literal(-10)))
          CFI V11 load(1, XDATA, add(CFA_XSP16, literal(-9)))
          CFI V12 load(1, XDATA, add(CFA_XSP16, literal(-8)))
          CFI V13 load(1, XDATA, add(CFA_XSP16, literal(-7)))
          CFI R7 load(1, XDATA, add(CFA_XSP16, literal(-6)))
          CFI ?RET_LOW load(1, XDATA, add(CFA_XSP16, literal(-5)))
          CFI ?RET_HIGH load(1, XDATA, add(CFA_XSP16, literal(-4)))
          CFI ?BRET_EXT load(1, XDATA, add(CFA_XSP16, literal(-3)))
          CFI DPL0 load(1, XDATA, add(CFA_XSP16, literal(-2)))
          CFI DPH0 load(1, XDATA, add(CFA_XSP16, literal(-1)))
          CFI CFA_SP SP+-2
          CFI CFA_XSP16 add(XSP16, 22)
          CFI Block cfiCond146 Using cfiCommon0
          CFI (cfiCond146) Function MT_AfIncomingMsg
          CFI (cfiCond146) Conditional ??CrossCallReturnLabel_113
          CFI (cfiCond146) R6 load(1, XDATA, add(CFA_XSP16, literal(-22)))
          CFI (cfiCond146) VB load(1, XDATA, add(CFA_XSP16, literal(-21)))
          CFI (cfiCond146) V0 load(1, XDATA, add(CFA_XSP16, literal(-20)))
          CFI (cfiCond146) V1 load(1, XDATA, add(CFA_XSP16, literal(-19)))
          CFI (cfiCond146) V2 load(1, XDATA, add(CFA_XSP16, literal(-18)))
          CFI (cfiCond146) V3 load(1, XDATA, add(CFA_XSP16, literal(-17)))
          CFI (cfiCond146) V4 load(1, XDATA, add(CFA_XSP16, literal(-16)))
          CFI (cfiCond146) V5 load(1, XDATA, add(CFA_XSP16, literal(-15)))
          CFI (cfiCond146) V6 load(1, XDATA, add(CFA_XSP16, literal(-14)))
          CFI (cfiCond146) V7 load(1, XDATA, add(CFA_XSP16, literal(-13)))
          CFI (cfiCond146) V8 load(1, XDATA, add(CFA_XSP16, literal(-12)))
          CFI (cfiCond146) V9 load(1, XDATA, add(CFA_XSP16, literal(-11)))
          CFI (cfiCond146) V10 load(1, XDATA, add(CFA_XSP16, literal(-10)))
          CFI (cfiCond146) V11 load(1, XDATA, add(CFA_XSP16, literal(-9)))
          CFI (cfiCond146) V12 load(1, XDATA, add(CFA_XSP16, literal(-8)))
          CFI (cfiCond146) V13 load(1, XDATA, add(CFA_XSP16, literal(-7)))
          CFI (cfiCond146) R7 load(1, XDATA, add(CFA_XSP16, literal(-6)))
          CFI (cfiCond146) ?RET_LOW load(1, XDATA, add(CFA_XSP16, literal(-5)))
          CFI (cfiCond146) ?RET_HIGH load(1, XDATA, add(CFA_XSP16, literal(-4)))
          CFI (cfiCond146) ?BRET_EXT load(1, XDATA, add(CFA_XSP16, literal(-3)))
          CFI (cfiCond146) DPL0 load(1, XDATA, add(CFA_XSP16, literal(-2)))
          CFI (cfiCond146) DPH0 load(1, XDATA, add(CFA_XSP16, literal(-1)))
          CFI (cfiCond146) CFA_SP SP+-2
          CFI (cfiCond146) CFA_XSP16 add(XSP16, 22)
          CFI Block cfiPicker147 Using cfiCommon1
          CFI (cfiPicker147) NoFunction
          CFI (cfiPicker147) Picker
        LCALL     ?Subroutine40 & 0xFFFF
??CrossCallReturnLabel_75:
          CFI EndBlock cfiCond145
          CFI EndBlock cfiCond146
          CFI EndBlock cfiPicker147
        REQUIRE ??Subroutine52_0
        ; // Fall through to label ??Subroutine52_0

        RSEG BANKED_CODE:HUGECODE:NOROOT(0)
??Subroutine52_0:
          CFI Block cfiCond148 Using cfiCommon0
          CFI Function MT_AfIncomingMsg
          CFI Conditional ??CrossCallReturnLabel_114
          CFI R6 load(1, XDATA, add(CFA_XSP16, literal(-22)))
          CFI VB load(1, XDATA, add(CFA_XSP16, literal(-21)))
          CFI V0 load(1, XDATA, add(CFA_XSP16, literal(-20)))
          CFI V1 load(1, XDATA, add(CFA_XSP16, literal(-19)))
          CFI V2 load(1, XDATA, add(CFA_XSP16, literal(-18)))
          CFI V3 load(1, XDATA, add(CFA_XSP16, literal(-17)))
          CFI V4 load(1, XDATA, add(CFA_XSP16, literal(-16)))
          CFI V5 load(1, XDATA, add(CFA_XSP16, literal(-15)))
          CFI V6 load(1, XDATA, add(CFA_XSP16, literal(-14)))
          CFI V7 load(1, XDATA, add(CFA_XSP16, literal(-13)))
          CFI V8 load(1, XDATA, add(CFA_XSP16, literal(-12)))
          CFI V9 load(1, XDATA, add(CFA_XSP16, literal(-11)))
          CFI V10 load(1, XDATA, add(CFA_XSP16, literal(-10)))
          CFI V11 load(1, XDATA, add(CFA_XSP16, literal(-9)))
          CFI V12 load(1, XDATA, add(CFA_XSP16, literal(-8)))
          CFI V13 load(1, XDATA, add(CFA_XSP16, literal(-7)))
          CFI R7 load(1, XDATA, add(CFA_XSP16, literal(-6)))
          CFI ?RET_LOW load(1, XDATA, add(CFA_XSP16, literal(-5)))
          CFI ?RET_HIGH load(1, XDATA, add(CFA_XSP16, literal(-4)))
          CFI ?BRET_EXT load(1, XDATA, add(CFA_XSP16, literal(-3)))
          CFI DPL0 load(1, XDATA, add(CFA_XSP16, literal(-2)))
          CFI DPH0 load(1, XDATA, add(CFA_XSP16, literal(-1)))
          CFI CFA_SP SP+-2
          CFI CFA_XSP16 add(XSP16, 22)
          CFI Block cfiCond149 Using cfiCommon0
          CFI (cfiCond149) Function MT_AfIncomingMsg
          CFI (cfiCond149) Conditional ??CrossCallReturnLabel_112
          CFI (cfiCond149) R6 load(1, XDATA, add(CFA_XSP16, literal(-22)))
          CFI (cfiCond149) VB load(1, XDATA, add(CFA_XSP16, literal(-21)))
          CFI (cfiCond149) V0 load(1, XDATA, add(CFA_XSP16, literal(-20)))
          CFI (cfiCond149) V1 load(1, XDATA, add(CFA_XSP16, literal(-19)))
          CFI (cfiCond149) V2 load(1, XDATA, add(CFA_XSP16, literal(-18)))
          CFI (cfiCond149) V3 load(1, XDATA, add(CFA_XSP16, literal(-17)))
          CFI (cfiCond149) V4 load(1, XDATA, add(CFA_XSP16, literal(-16)))
          CFI (cfiCond149) V5 load(1, XDATA, add(CFA_XSP16, literal(-15)))
          CFI (cfiCond149) V6 load(1, XDATA, add(CFA_XSP16, literal(-14)))
          CFI (cfiCond149) V7 load(1, XDATA, add(CFA_XSP16, literal(-13)))
          CFI (cfiCond149) V8 load(1, XDATA, add(CFA_XSP16, literal(-12)))
          CFI (cfiCond149) V9 load(1, XDATA, add(CFA_XSP16, literal(-11)))
          CFI (cfiCond149) V10 load(1, XDATA, add(CFA_XSP16, literal(-10)))
          CFI (cfiCond149) V11 load(1, XDATA, add(CFA_XSP16, literal(-9)))
          CFI (cfiCond149) V12 load(1, XDATA, add(CFA_XSP16, literal(-8)))
          CFI (cfiCond149) V13 load(1, XDATA, add(CFA_XSP16, literal(-7)))
          CFI (cfiCond149) R7 load(1, XDATA, add(CFA_XSP16, literal(-6)))
          CFI (cfiCond149) ?RET_LOW load(1, XDATA, add(CFA_XSP16, literal(-5)))
          CFI (cfiCond149) ?RET_HIGH load(1, XDATA, add(CFA_XSP16, literal(-4)))
          CFI (cfiCond149) ?BRET_EXT load(1, XDATA, add(CFA_XSP16, literal(-3)))
          CFI (cfiCond149) DPL0 load(1, XDATA, add(CFA_XSP16, literal(-2)))
          CFI (cfiCond149) DPH0 load(1, XDATA, add(CFA_XSP16, literal(-1)))
          CFI (cfiCond149) CFA_SP SP+-2
          CFI (cfiCond149) CFA_XSP16 add(XSP16, 22)
          CFI Block cfiCond150 Using cfiCommon0
          CFI (cfiCond150) Function MT_AfIncomingMsg
          CFI (cfiCond150) Conditional ??CrossCallReturnLabel_113
          CFI (cfiCond150) R6 load(1, XDATA, add(CFA_XSP16, literal(-22)))
          CFI (cfiCond150) VB load(1, XDATA, add(CFA_XSP16, literal(-21)))
          CFI (cfiCond150) V0 load(1, XDATA, add(CFA_XSP16, literal(-20)))
          CFI (cfiCond150) V1 load(1, XDATA, add(CFA_XSP16, literal(-19)))
          CFI (cfiCond150) V2 load(1, XDATA, add(CFA_XSP16, literal(-18)))
          CFI (cfiCond150) V3 load(1, XDATA, add(CFA_XSP16, literal(-17)))
          CFI (cfiCond150) V4 load(1, XDATA, add(CFA_XSP16, literal(-16)))
          CFI (cfiCond150) V5 load(1, XDATA, add(CFA_XSP16, literal(-15)))
          CFI (cfiCond150) V6 load(1, XDATA, add(CFA_XSP16, literal(-14)))
          CFI (cfiCond150) V7 load(1, XDATA, add(CFA_XSP16, literal(-13)))
          CFI (cfiCond150) V8 load(1, XDATA, add(CFA_XSP16, literal(-12)))
          CFI (cfiCond150) V9 load(1, XDATA, add(CFA_XSP16, literal(-11)))
          CFI (cfiCond150) V10 load(1, XDATA, add(CFA_XSP16, literal(-10)))
          CFI (cfiCond150) V11 load(1, XDATA, add(CFA_XSP16, literal(-9)))
          CFI (cfiCond150) V12 load(1, XDATA, add(CFA_XSP16, literal(-8)))
          CFI (cfiCond150) V13 load(1, XDATA, add(CFA_XSP16, literal(-7)))
          CFI (cfiCond150) R7 load(1, XDATA, add(CFA_XSP16, literal(-6)))
          CFI (cfiCond150) ?RET_LOW load(1, XDATA, add(CFA_XSP16, literal(-5)))
          CFI (cfiCond150) ?RET_HIGH load(1, XDATA, add(CFA_XSP16, literal(-4)))
          CFI (cfiCond150) ?BRET_EXT load(1, XDATA, add(CFA_XSP16, literal(-3)))
          CFI (cfiCond150) DPL0 load(1, XDATA, add(CFA_XSP16, literal(-2)))
          CFI (cfiCond150) DPH0 load(1, XDATA, add(CFA_XSP16, literal(-1)))
          CFI (cfiCond150) CFA_SP SP+-2
          CFI (cfiCond150) CFA_XSP16 add(XSP16, 22)
          CFI Block cfiPicker151 Using cfiCommon1
          CFI (cfiPicker151) NoFunction
          CFI (cfiPicker151) Picker
        MOVX      A,@DPTR
        MOV       DPL,R2
        MOV       DPH,R3
        INC       DPTR
        RET
          CFI EndBlock cfiCond148
          CFI EndBlock cfiCond149
          CFI EndBlock cfiCond150
          CFI EndBlock cfiPicker151

        RSEG BANKED_CODE:HUGECODE:NOROOT(0)
?Subroutine40:
          CFI Block cfiCond152 Using cfiCommon0
          CFI Function MT_AfReflectError
          CFI Conditional ??CrossCallReturnLabel_73
          CFI DPL0 Frame(CFA_SP, 4)
          CFI DPH0 Frame(CFA_SP, 5)
          CFI CFA_SP SP+-7
          CFI CFA_XSP16 add(XSP16, 6)
          CFI Block cfiCond153 Using cfiCommon0
          CFI (cfiCond153) Function MT_AfIncomingMsg
          CFI (cfiCond153) Conditional ??CrossCallReturnLabel_74
          CFI (cfiCond153) R6 load(1, XDATA, add(CFA_XSP16, literal(-22)))
          CFI (cfiCond153) VB load(1, XDATA, add(CFA_XSP16, literal(-21)))
          CFI (cfiCond153) V0 load(1, XDATA, add(CFA_XSP16, literal(-20)))
          CFI (cfiCond153) V1 load(1, XDATA, add(CFA_XSP16, literal(-19)))
          CFI (cfiCond153) V2 load(1, XDATA, add(CFA_XSP16, literal(-18)))
          CFI (cfiCond153) V3 load(1, XDATA, add(CFA_XSP16, literal(-17)))
          CFI (cfiCond153) V4 load(1, XDATA, add(CFA_XSP16, literal(-16)))
          CFI (cfiCond153) V5 load(1, XDATA, add(CFA_XSP16, literal(-15)))
          CFI (cfiCond153) V6 load(1, XDATA, add(CFA_XSP16, literal(-14)))
          CFI (cfiCond153) V7 load(1, XDATA, add(CFA_XSP16, literal(-13)))
          CFI (cfiCond153) V8 load(1, XDATA, add(CFA_XSP16, literal(-12)))
          CFI (cfiCond153) V9 load(1, XDATA, add(CFA_XSP16, literal(-11)))
          CFI (cfiCond153) V10 load(1, XDATA, add(CFA_XSP16, literal(-10)))
          CFI (cfiCond153) V11 load(1, XDATA, add(CFA_XSP16, literal(-9)))
          CFI (cfiCond153) V12 load(1, XDATA, add(CFA_XSP16, literal(-8)))
          CFI (cfiCond153) V13 load(1, XDATA, add(CFA_XSP16, literal(-7)))
          CFI (cfiCond153) R7 load(1, XDATA, add(CFA_XSP16, literal(-6)))
          CFI (cfiCond153) ?RET_LOW load(1, XDATA, add(CFA_XSP16, literal(-5)))
          CFI (cfiCond153) ?RET_HIGH load(1, XDATA, add(CFA_XSP16, literal(-4)))
          CFI (cfiCond153) ?BRET_EXT load(1, XDATA, add(CFA_XSP16, literal(-3)))
          CFI (cfiCond153) DPL0 load(1, XDATA, add(CFA_XSP16, literal(-2)))
          CFI (cfiCond153) DPH0 load(1, XDATA, add(CFA_XSP16, literal(-1)))
          CFI (cfiCond153) CFA_SP SP+-2
          CFI (cfiCond153) CFA_XSP16 add(XSP16, 22)
          CFI Block cfiCond154 Using cfiCommon0
          CFI (cfiCond154) Function MT_AfIncomingMsg
          CFI (cfiCond154) Conditional ??CrossCallReturnLabel_75, ??CrossCallReturnLabel_112
          CFI (cfiCond154) R6 load(1, XDATA, add(CFA_XSP16, literal(-22)))
          CFI (cfiCond154) VB load(1, XDATA, add(CFA_XSP16, literal(-21)))
          CFI (cfiCond154) V0 load(1, XDATA, add(CFA_XSP16, literal(-20)))
          CFI (cfiCond154) V1 load(1, XDATA, add(CFA_XSP16, literal(-19)))
          CFI (cfiCond154) V2 load(1, XDATA, add(CFA_XSP16, literal(-18)))
          CFI (cfiCond154) V3 load(1, XDATA, add(CFA_XSP16, literal(-17)))
          CFI (cfiCond154) V4 load(1, XDATA, add(CFA_XSP16, literal(-16)))
          CFI (cfiCond154) V5 load(1, XDATA, add(CFA_XSP16, literal(-15)))
          CFI (cfiCond154) V6 load(1, XDATA, add(CFA_XSP16, literal(-14)))
          CFI (cfiCond154) V7 load(1, XDATA, add(CFA_XSP16, literal(-13)))
          CFI (cfiCond154) V8 load(1, XDATA, add(CFA_XSP16, literal(-12)))
          CFI (cfiCond154) V9 load(1, XDATA, add(CFA_XSP16, literal(-11)))
          CFI (cfiCond154) V10 load(1, XDATA, add(CFA_XSP16, literal(-10)))
          CFI (cfiCond154) V11 load(1, XDATA, add(CFA_XSP16, literal(-9)))
          CFI (cfiCond154) V12 load(1, XDATA, add(CFA_XSP16, literal(-8)))
          CFI (cfiCond154) V13 load(1, XDATA, add(CFA_XSP16, literal(-7)))
          CFI (cfiCond154) R7 load(1, XDATA, add(CFA_XSP16, literal(-6)))
          CFI (cfiCond154) ?RET_LOW load(1, XDATA, add(CFA_XSP16, literal(-5)))
          CFI (cfiCond154) ?RET_HIGH load(1, XDATA, add(CFA_XSP16, literal(-4)))
          CFI (cfiCond154) ?BRET_EXT load(1, XDATA, add(CFA_XSP16, literal(-3)))
          CFI (cfiCond154) DPL0 load(1, XDATA, add(CFA_XSP16, literal(-2)))
          CFI (cfiCond154) DPH0 load(1, XDATA, add(CFA_XSP16, literal(-1)))
          CFI (cfiCond154) CFA_SP SP+-4
          CFI (cfiCond154) CFA_XSP16 add(XSP16, 22)
          CFI Block cfiCond155 Using cfiCommon0
          CFI (cfiCond155) Function MT_AfIncomingMsg
          CFI (cfiCond155) Conditional ??CrossCallReturnLabel_75, ??CrossCallReturnLabel_113
          CFI (cfiCond155) R6 load(1, XDATA, add(CFA_XSP16, literal(-22)))
          CFI (cfiCond155) VB load(1, XDATA, add(CFA_XSP16, literal(-21)))
          CFI (cfiCond155) V0 load(1, XDATA, add(CFA_XSP16, literal(-20)))
          CFI (cfiCond155) V1 load(1, XDATA, add(CFA_XSP16, literal(-19)))
          CFI (cfiCond155) V2 load(1, XDATA, add(CFA_XSP16, literal(-18)))
          CFI (cfiCond155) V3 load(1, XDATA, add(CFA_XSP16, literal(-17)))
          CFI (cfiCond155) V4 load(1, XDATA, add(CFA_XSP16, literal(-16)))
          CFI (cfiCond155) V5 load(1, XDATA, add(CFA_XSP16, literal(-15)))
          CFI (cfiCond155) V6 load(1, XDATA, add(CFA_XSP16, literal(-14)))
          CFI (cfiCond155) V7 load(1, XDATA, add(CFA_XSP16, literal(-13)))
          CFI (cfiCond155) V8 load(1, XDATA, add(CFA_XSP16, literal(-12)))
          CFI (cfiCond155) V9 load(1, XDATA, add(CFA_XSP16, literal(-11)))
          CFI (cfiCond155) V10 load(1, XDATA, add(CFA_XSP16, literal(-10)))
          CFI (cfiCond155) V11 load(1, XDATA, add(CFA_XSP16, literal(-9)))
          CFI (cfiCond155) V12 load(1, XDATA, add(CFA_XSP16, literal(-8)))
          CFI (cfiCond155) V13 load(1, XDATA, add(CFA_XSP16, literal(-7)))
          CFI (cfiCond155) R7 load(1, XDATA, add(CFA_XSP16, literal(-6)))
          CFI (cfiCond155) ?RET_LOW load(1, XDATA, add(CFA_XSP16, literal(-5)))
          CFI (cfiCond155) ?RET_HIGH load(1, XDATA, add(CFA_XSP16, literal(-4)))
          CFI (cfiCond155) ?BRET_EXT load(1, XDATA, add(CFA_XSP16, literal(-3)))
          CFI (cfiCond155) DPL0 load(1, XDATA, add(CFA_XSP16, literal(-2)))
          CFI (cfiCond155) DPH0 load(1, XDATA, add(CFA_XSP16, literal(-1)))
          CFI (cfiCond155) CFA_SP SP+-4
          CFI (cfiCond155) CFA_XSP16 add(XSP16, 22)
          CFI Block cfiCond156 Using cfiCommon0
          CFI (cfiCond156) Function MT_AfIncomingMsg
          CFI (cfiCond156) Conditional ??CrossCallReturnLabel_76, ??CrossCallReturnLabel_0
          CFI (cfiCond156) R6 load(1, XDATA, add(CFA_XSP16, literal(-22)))
          CFI (cfiCond156) VB load(1, XDATA, add(CFA_XSP16, literal(-21)))
          CFI (cfiCond156) V0 load(1, XDATA, add(CFA_XSP16, literal(-20)))
          CFI (cfiCond156) V1 load(1, XDATA, add(CFA_XSP16, literal(-19)))
          CFI (cfiCond156) V2 load(1, XDATA, add(CFA_XSP16, literal(-18)))
          CFI (cfiCond156) V3 load(1, XDATA, add(CFA_XSP16, literal(-17)))
          CFI (cfiCond156) V4 load(1, XDATA, add(CFA_XSP16, literal(-16)))
          CFI (cfiCond156) V5 load(1, XDATA, add(CFA_XSP16, literal(-15)))
          CFI (cfiCond156) V6 load(1, XDATA, add(CFA_XSP16, literal(-14)))
          CFI (cfiCond156) V7 load(1, XDATA, add(CFA_XSP16, literal(-13)))
          CFI (cfiCond156) V8 load(1, XDATA, add(CFA_XSP16, literal(-12)))
          CFI (cfiCond156) V9 load(1, XDATA, add(CFA_XSP16, literal(-11)))
          CFI (cfiCond156) V10 load(1, XDATA, add(CFA_XSP16, literal(-10)))
          CFI (cfiCond156) V11 load(1, XDATA, add(CFA_XSP16, literal(-9)))
          CFI (cfiCond156) V12 load(1, XDATA, add(CFA_XSP16, literal(-8)))
          CFI (cfiCond156) V13 load(1, XDATA, add(CFA_XSP16, literal(-7)))
          CFI (cfiCond156) R7 load(1, XDATA, add(CFA_XSP16, literal(-6)))
          CFI (cfiCond156) ?RET_LOW load(1, XDATA, add(CFA_XSP16, literal(-5)))
          CFI (cfiCond156) ?RET_HIGH load(1, XDATA, add(CFA_XSP16, literal(-4)))
          CFI (cfiCond156) ?BRET_EXT load(1, XDATA, add(CFA_XSP16, literal(-3)))
          CFI (cfiCond156) DPL0 load(1, XDATA, add(CFA_XSP16, literal(-2)))
          CFI (cfiCond156) DPH0 load(1, XDATA, add(CFA_XSP16, literal(-1)))
          CFI (cfiCond156) CFA_SP SP+-4
          CFI (cfiCond156) CFA_XSP16 add(XSP16, 22)
          CFI Block cfiCond157 Using cfiCommon0
          CFI (cfiCond157) Function MT_AfIncomingMsg
          CFI (cfiCond157) Conditional ??CrossCallReturnLabel_76, ??CrossCallReturnLabel_1
          CFI (cfiCond157) R6 load(1, XDATA, add(CFA_XSP16, literal(-22)))
          CFI (cfiCond157) VB load(1, XDATA, add(CFA_XSP16, literal(-21)))
          CFI (cfiCond157) V0 load(1, XDATA, add(CFA_XSP16, literal(-20)))
          CFI (cfiCond157) V1 load(1, XDATA, add(CFA_XSP16, literal(-19)))
          CFI (cfiCond157) V2 load(1, XDATA, add(CFA_XSP16, literal(-18)))
          CFI (cfiCond157) V3 load(1, XDATA, add(CFA_XSP16, literal(-17)))
          CFI (cfiCond157) V4 load(1, XDATA, add(CFA_XSP16, literal(-16)))
          CFI (cfiCond157) V5 load(1, XDATA, add(CFA_XSP16, literal(-15)))
          CFI (cfiCond157) V6 load(1, XDATA, add(CFA_XSP16, literal(-14)))
          CFI (cfiCond157) V7 load(1, XDATA, add(CFA_XSP16, literal(-13)))
          CFI (cfiCond157) V8 load(1, XDATA, add(CFA_XSP16, literal(-12)))
          CFI (cfiCond157) V9 load(1, XDATA, add(CFA_XSP16, literal(-11)))
          CFI (cfiCond157) V10 load(1, XDATA, add(CFA_XSP16, literal(-10)))
          CFI (cfiCond157) V11 load(1, XDATA, add(CFA_XSP16, literal(-9)))
          CFI (cfiCond157) V12 load(1, XDATA, add(CFA_XSP16, literal(-8)))
          CFI (cfiCond157) V13 load(1, XDATA, add(CFA_XSP16, literal(-7)))
          CFI (cfiCond157) R7 load(1, XDATA, add(CFA_XSP16, literal(-6)))
          CFI (cfiCond157) ?RET_LOW load(1, XDATA, add(CFA_XSP16, literal(-5)))
          CFI (cfiCond157) ?RET_HIGH load(1, XDATA, add(CFA_XSP16, literal(-4)))
          CFI (cfiCond157) ?BRET_EXT load(1, XDATA, add(CFA_XSP16, literal(-3)))
          CFI (cfiCond157) DPL0 load(1, XDATA, add(CFA_XSP16, literal(-2)))
          CFI (cfiCond157) DPH0 load(1, XDATA, add(CFA_XSP16, literal(-1)))
          CFI (cfiCond157) CFA_SP SP+-4
          CFI (cfiCond157) CFA_XSP16 add(XSP16, 22)
          CFI Block cfiPicker158 Using cfiCommon1
          CFI (cfiPicker158) NoFunction
          CFI (cfiPicker158) Picker
        MOVX      @DPTR,A
        MOV       DPL,R0
        MOV       DPH,R1
        INC       DPTR
        RET
          CFI EndBlock cfiCond152
          CFI EndBlock cfiCond153
          CFI EndBlock cfiCond154
          CFI EndBlock cfiCond155
          CFI EndBlock cfiCond156
          CFI EndBlock cfiCond157
          CFI EndBlock cfiPicker158

        RSEG BANKED_CODE:HUGECODE:NOROOT(0)
?Subroutine19:
          CFI Block cfiCond159 Using cfiCommon0
          CFI Function MT_AfIncomingMsg
          CFI Conditional ??CrossCallReturnLabel_31
          CFI R6 load(1, XDATA, add(CFA_XSP16, literal(-22)))
          CFI VB load(1, XDATA, add(CFA_XSP16, literal(-21)))
          CFI V0 load(1, XDATA, add(CFA_XSP16, literal(-20)))
          CFI V1 load(1, XDATA, add(CFA_XSP16, literal(-19)))
          CFI V2 load(1, XDATA, add(CFA_XSP16, literal(-18)))
          CFI V3 load(1, XDATA, add(CFA_XSP16, literal(-17)))
          CFI V4 load(1, XDATA, add(CFA_XSP16, literal(-16)))
          CFI V5 load(1, XDATA, add(CFA_XSP16, literal(-15)))
          CFI V6 load(1, XDATA, add(CFA_XSP16, literal(-14)))
          CFI V7 load(1, XDATA, add(CFA_XSP16, literal(-13)))
          CFI V8 load(1, XDATA, add(CFA_XSP16, literal(-12)))
          CFI V9 load(1, XDATA, add(CFA_XSP16, literal(-11)))
          CFI V10 load(1, XDATA, add(CFA_XSP16, literal(-10)))
          CFI V11 load(1, XDATA, add(CFA_XSP16, literal(-9)))
          CFI V12 load(1, XDATA, add(CFA_XSP16, literal(-8)))
          CFI V13 load(1, XDATA, add(CFA_XSP16, literal(-7)))
          CFI R7 load(1, XDATA, add(CFA_XSP16, literal(-6)))
          CFI ?RET_LOW load(1, XDATA, add(CFA_XSP16, literal(-5)))
          CFI ?RET_HIGH load(1, XDATA, add(CFA_XSP16, literal(-4)))
          CFI ?BRET_EXT load(1, XDATA, add(CFA_XSP16, literal(-3)))
          CFI DPL0 load(1, XDATA, add(CFA_XSP16, literal(-2)))
          CFI DPH0 load(1, XDATA, add(CFA_XSP16, literal(-1)))
          CFI CFA_SP SP+-2
          CFI CFA_XSP16 add(XSP16, 22)
          CFI Block cfiCond160 Using cfiCommon0
          CFI (cfiCond160) Function MT_AfIncomingMsg
          CFI (cfiCond160) Conditional ??CrossCallReturnLabel_32
          CFI (cfiCond160) R6 load(1, XDATA, add(CFA_XSP16, literal(-22)))
          CFI (cfiCond160) VB load(1, XDATA, add(CFA_XSP16, literal(-21)))
          CFI (cfiCond160) V0 load(1, XDATA, add(CFA_XSP16, literal(-20)))
          CFI (cfiCond160) V1 load(1, XDATA, add(CFA_XSP16, literal(-19)))
          CFI (cfiCond160) V2 load(1, XDATA, add(CFA_XSP16, literal(-18)))
          CFI (cfiCond160) V3 load(1, XDATA, add(CFA_XSP16, literal(-17)))
          CFI (cfiCond160) V4 load(1, XDATA, add(CFA_XSP16, literal(-16)))
          CFI (cfiCond160) V5 load(1, XDATA, add(CFA_XSP16, literal(-15)))
          CFI (cfiCond160) V6 load(1, XDATA, add(CFA_XSP16, literal(-14)))
          CFI (cfiCond160) V7 load(1, XDATA, add(CFA_XSP16, literal(-13)))
          CFI (cfiCond160) V8 load(1, XDATA, add(CFA_XSP16, literal(-12)))
          CFI (cfiCond160) V9 load(1, XDATA, add(CFA_XSP16, literal(-11)))
          CFI (cfiCond160) V10 load(1, XDATA, add(CFA_XSP16, literal(-10)))
          CFI (cfiCond160) V11 load(1, XDATA, add(CFA_XSP16, literal(-9)))
          CFI (cfiCond160) V12 load(1, XDATA, add(CFA_XSP16, literal(-8)))
          CFI (cfiCond160) V13 load(1, XDATA, add(CFA_XSP16, literal(-7)))
          CFI (cfiCond160) R7 load(1, XDATA, add(CFA_XSP16, literal(-6)))
          CFI (cfiCond160) ?RET_LOW load(1, XDATA, add(CFA_XSP16, literal(-5)))
          CFI (cfiCond160) ?RET_HIGH load(1, XDATA, add(CFA_XSP16, literal(-4)))
          CFI (cfiCond160) ?BRET_EXT load(1, XDATA, add(CFA_XSP16, literal(-3)))
          CFI (cfiCond160) DPL0 load(1, XDATA, add(CFA_XSP16, literal(-2)))
          CFI (cfiCond160) DPH0 load(1, XDATA, add(CFA_XSP16, literal(-1)))
          CFI (cfiCond160) CFA_SP SP+-2
          CFI (cfiCond160) CFA_XSP16 add(XSP16, 22)
          CFI Block cfiPicker161 Using cfiCommon1
          CFI (cfiPicker161) NoFunction
          CFI (cfiPicker161) Picker
        LCALL     ?Subroutine38 & 0xFFFF
??CrossCallReturnLabel_108:
        INC       DPTR
        MOVX      @DPTR,A
        RET
          CFI EndBlock cfiCond159
          CFI EndBlock cfiCond160
          CFI EndBlock cfiPicker161

        RSEG BANKED_CODE:HUGECODE:NOROOT(0)
?Subroutine18:
          CFI Block cfiCond162 Using cfiCommon0
          CFI Function MT_AfIncomingMsg
          CFI Conditional ??CrossCallReturnLabel_29
          CFI R6 load(1, XDATA, add(CFA_XSP16, literal(-22)))
          CFI VB load(1, XDATA, add(CFA_XSP16, literal(-21)))
          CFI V0 load(1, XDATA, add(CFA_XSP16, literal(-20)))
          CFI V1 load(1, XDATA, add(CFA_XSP16, literal(-19)))
          CFI V2 load(1, XDATA, add(CFA_XSP16, literal(-18)))
          CFI V3 load(1, XDATA, add(CFA_XSP16, literal(-17)))
          CFI V4 load(1, XDATA, add(CFA_XSP16, literal(-16)))
          CFI V5 load(1, XDATA, add(CFA_XSP16, literal(-15)))
          CFI V6 load(1, XDATA, add(CFA_XSP16, literal(-14)))
          CFI V7 load(1, XDATA, add(CFA_XSP16, literal(-13)))
          CFI V8 load(1, XDATA, add(CFA_XSP16, literal(-12)))
          CFI V9 load(1, XDATA, add(CFA_XSP16, literal(-11)))
          CFI V10 load(1, XDATA, add(CFA_XSP16, literal(-10)))
          CFI V11 load(1, XDATA, add(CFA_XSP16, literal(-9)))
          CFI V12 load(1, XDATA, add(CFA_XSP16, literal(-8)))
          CFI V13 load(1, XDATA, add(CFA_XSP16, literal(-7)))
          CFI R7 load(1, XDATA, add(CFA_XSP16, literal(-6)))
          CFI ?RET_LOW load(1, XDATA, add(CFA_XSP16, literal(-5)))
          CFI ?RET_HIGH load(1, XDATA, add(CFA_XSP16, literal(-4)))
          CFI ?BRET_EXT load(1, XDATA, add(CFA_XSP16, literal(-3)))
          CFI DPL0 load(1, XDATA, add(CFA_XSP16, literal(-2)))
          CFI DPH0 load(1, XDATA, add(CFA_XSP16, literal(-1)))
          CFI CFA_SP SP+-2
          CFI CFA_XSP16 add(XSP16, 22)
          CFI Block cfiCond163 Using cfiCommon0
          CFI (cfiCond163) Function MT_AfIncomingMsg
          CFI (cfiCond163) Conditional ??CrossCallReturnLabel_30
          CFI (cfiCond163) R6 load(1, XDATA, add(CFA_XSP16, literal(-22)))
          CFI (cfiCond163) VB load(1, XDATA, add(CFA_XSP16, literal(-21)))
          CFI (cfiCond163) V0 load(1, XDATA, add(CFA_XSP16, literal(-20)))
          CFI (cfiCond163) V1 load(1, XDATA, add(CFA_XSP16, literal(-19)))
          CFI (cfiCond163) V2 load(1, XDATA, add(CFA_XSP16, literal(-18)))
          CFI (cfiCond163) V3 load(1, XDATA, add(CFA_XSP16, literal(-17)))
          CFI (cfiCond163) V4 load(1, XDATA, add(CFA_XSP16, literal(-16)))
          CFI (cfiCond163) V5 load(1, XDATA, add(CFA_XSP16, literal(-15)))
          CFI (cfiCond163) V6 load(1, XDATA, add(CFA_XSP16, literal(-14)))
          CFI (cfiCond163) V7 load(1, XDATA, add(CFA_XSP16, literal(-13)))
          CFI (cfiCond163) V8 load(1, XDATA, add(CFA_XSP16, literal(-12)))
          CFI (cfiCond163) V9 load(1, XDATA, add(CFA_XSP16, literal(-11)))
          CFI (cfiCond163) V10 load(1, XDATA, add(CFA_XSP16, literal(-10)))
          CFI (cfiCond163) V11 load(1, XDATA, add(CFA_XSP16, literal(-9)))
          CFI (cfiCond163) V12 load(1, XDATA, add(CFA_XSP16, literal(-8)))
          CFI (cfiCond163) V13 load(1, XDATA, add(CFA_XSP16, literal(-7)))
          CFI (cfiCond163) R7 load(1, XDATA, add(CFA_XSP16, literal(-6)))
          CFI (cfiCond163) ?RET_LOW load(1, XDATA, add(CFA_XSP16, literal(-5)))
          CFI (cfiCond163) ?RET_HIGH load(1, XDATA, add(CFA_XSP16, literal(-4)))
          CFI (cfiCond163) ?BRET_EXT load(1, XDATA, add(CFA_XSP16, literal(-3)))
          CFI (cfiCond163) DPL0 load(1, XDATA, add(CFA_XSP16, literal(-2)))
          CFI (cfiCond163) DPH0 load(1, XDATA, add(CFA_XSP16, literal(-1)))
          CFI (cfiCond163) CFA_SP SP+-2
          CFI (cfiCond163) CFA_XSP16 add(XSP16, 22)
          CFI Block cfiPicker164 Using cfiCommon1
          CFI (cfiPicker164) NoFunction
          CFI (cfiPicker164) Picker
        LCALL     ?Subroutine39 & 0xFFFF
??CrossCallReturnLabel_72:
        INC       DPTR
        RET
          CFI EndBlock cfiCond162
          CFI EndBlock cfiCond163
          CFI EndBlock cfiPicker164

        RSEG BANKED_CODE:HUGECODE:NOROOT(0)
?Subroutine17:
          CFI Block cfiCond165 Using cfiCommon0
          CFI Function MT_AfIncomingMsg
          CFI Conditional ??CrossCallReturnLabel_27
          CFI R6 load(1, XDATA, add(CFA_XSP16, literal(-22)))
          CFI VB load(1, XDATA, add(CFA_XSP16, literal(-21)))
          CFI V0 load(1, XDATA, add(CFA_XSP16, literal(-20)))
          CFI V1 load(1, XDATA, add(CFA_XSP16, literal(-19)))
          CFI V2 load(1, XDATA, add(CFA_XSP16, literal(-18)))
          CFI V3 load(1, XDATA, add(CFA_XSP16, literal(-17)))
          CFI V4 load(1, XDATA, add(CFA_XSP16, literal(-16)))
          CFI V5 load(1, XDATA, add(CFA_XSP16, literal(-15)))
          CFI V6 load(1, XDATA, add(CFA_XSP16, literal(-14)))
          CFI V7 load(1, XDATA, add(CFA_XSP16, literal(-13)))
          CFI V8 load(1, XDATA, add(CFA_XSP16, literal(-12)))
          CFI V9 load(1, XDATA, add(CFA_XSP16, literal(-11)))
          CFI V10 load(1, XDATA, add(CFA_XSP16, literal(-10)))
          CFI V11 load(1, XDATA, add(CFA_XSP16, literal(-9)))
          CFI V12 load(1, XDATA, add(CFA_XSP16, literal(-8)))
          CFI V13 load(1, XDATA, add(CFA_XSP16, literal(-7)))
          CFI R7 load(1, XDATA, add(CFA_XSP16, literal(-6)))
          CFI ?RET_LOW load(1, XDATA, add(CFA_XSP16, literal(-5)))
          CFI ?RET_HIGH load(1, XDATA, add(CFA_XSP16, literal(-4)))
          CFI ?BRET_EXT load(1, XDATA, add(CFA_XSP16, literal(-3)))
          CFI DPL0 load(1, XDATA, add(CFA_XSP16, literal(-2)))
          CFI DPH0 load(1, XDATA, add(CFA_XSP16, literal(-1)))
          CFI CFA_SP SP+-2
          CFI CFA_XSP16 add(XSP16, 22)
          CFI Block cfiCond166 Using cfiCommon0
          CFI (cfiCond166) Function MT_AfIncomingMsg
          CFI (cfiCond166) Conditional ??CrossCallReturnLabel_28
          CFI (cfiCond166) R6 load(1, XDATA, add(CFA_XSP16, literal(-22)))
          CFI (cfiCond166) VB load(1, XDATA, add(CFA_XSP16, literal(-21)))
          CFI (cfiCond166) V0 load(1, XDATA, add(CFA_XSP16, literal(-20)))
          CFI (cfiCond166) V1 load(1, XDATA, add(CFA_XSP16, literal(-19)))
          CFI (cfiCond166) V2 load(1, XDATA, add(CFA_XSP16, literal(-18)))
          CFI (cfiCond166) V3 load(1, XDATA, add(CFA_XSP16, literal(-17)))
          CFI (cfiCond166) V4 load(1, XDATA, add(CFA_XSP16, literal(-16)))
          CFI (cfiCond166) V5 load(1, XDATA, add(CFA_XSP16, literal(-15)))
          CFI (cfiCond166) V6 load(1, XDATA, add(CFA_XSP16, literal(-14)))
          CFI (cfiCond166) V7 load(1, XDATA, add(CFA_XSP16, literal(-13)))
          CFI (cfiCond166) V8 load(1, XDATA, add(CFA_XSP16, literal(-12)))
          CFI (cfiCond166) V9 load(1, XDATA, add(CFA_XSP16, literal(-11)))
          CFI (cfiCond166) V10 load(1, XDATA, add(CFA_XSP16, literal(-10)))
          CFI (cfiCond166) V11 load(1, XDATA, add(CFA_XSP16, literal(-9)))
          CFI (cfiCond166) V12 load(1, XDATA, add(CFA_XSP16, literal(-8)))
          CFI (cfiCond166) V13 load(1, XDATA, add(CFA_XSP16, literal(-7)))
          CFI (cfiCond166) R7 load(1, XDATA, add(CFA_XSP16, literal(-6)))
          CFI (cfiCond166) ?RET_LOW load(1, XDATA, add(CFA_XSP16, literal(-5)))
          CFI (cfiCond166) ?RET_HIGH load(1, XDATA, add(CFA_XSP16, literal(-4)))
          CFI (cfiCond166) ?BRET_EXT load(1, XDATA, add(CFA_XSP16, literal(-3)))
          CFI (cfiCond166) DPL0 load(1, XDATA, add(CFA_XSP16, literal(-2)))
          CFI (cfiCond166) DPH0 load(1, XDATA, add(CFA_XSP16, literal(-1)))
          CFI (cfiCond166) CFA_SP SP+-2
          CFI (cfiCond166) CFA_XSP16 add(XSP16, 22)
          CFI Block cfiPicker167 Using cfiCommon1
          CFI (cfiPicker167) NoFunction
          CFI (cfiPicker167) Picker
        LCALL     ?Subroutine45 & 0xFFFF
??CrossCallReturnLabel_86:
        LCALL     ?Subroutine39 & 0xFFFF
??CrossCallReturnLabel_71:
        MOVX      @DPTR,A
        RET
          CFI EndBlock cfiCond165
          CFI EndBlock cfiCond166
          CFI EndBlock cfiPicker167

        RSEG BANKED_CODE:HUGECODE:NOROOT(0)
?Subroutine39:
          CFI Block cfiCond168 Using cfiCommon0
          CFI Function MT_AfIncomingMsg
          CFI Conditional ??CrossCallReturnLabel_72, ??CrossCallReturnLabel_29
          CFI R6 load(1, XDATA, add(CFA_XSP16, literal(-22)))
          CFI VB load(1, XDATA, add(CFA_XSP16, literal(-21)))
          CFI V0 load(1, XDATA, add(CFA_XSP16, literal(-20)))
          CFI V1 load(1, XDATA, add(CFA_XSP16, literal(-19)))
          CFI V2 load(1, XDATA, add(CFA_XSP16, literal(-18)))
          CFI V3 load(1, XDATA, add(CFA_XSP16, literal(-17)))
          CFI V4 load(1, XDATA, add(CFA_XSP16, literal(-16)))
          CFI V5 load(1, XDATA, add(CFA_XSP16, literal(-15)))
          CFI V6 load(1, XDATA, add(CFA_XSP16, literal(-14)))
          CFI V7 load(1, XDATA, add(CFA_XSP16, literal(-13)))
          CFI V8 load(1, XDATA, add(CFA_XSP16, literal(-12)))
          CFI V9 load(1, XDATA, add(CFA_XSP16, literal(-11)))
          CFI V10 load(1, XDATA, add(CFA_XSP16, literal(-10)))
          CFI V11 load(1, XDATA, add(CFA_XSP16, literal(-9)))
          CFI V12 load(1, XDATA, add(CFA_XSP16, literal(-8)))
          CFI V13 load(1, XDATA, add(CFA_XSP16, literal(-7)))
          CFI R7 load(1, XDATA, add(CFA_XSP16, literal(-6)))
          CFI ?RET_LOW load(1, XDATA, add(CFA_XSP16, literal(-5)))
          CFI ?RET_HIGH load(1, XDATA, add(CFA_XSP16, literal(-4)))
          CFI ?BRET_EXT load(1, XDATA, add(CFA_XSP16, literal(-3)))
          CFI DPL0 load(1, XDATA, add(CFA_XSP16, literal(-2)))
          CFI DPH0 load(1, XDATA, add(CFA_XSP16, literal(-1)))
          CFI CFA_SP SP+-4
          CFI CFA_XSP16 add(XSP16, 22)
          CFI Block cfiCond169 Using cfiCommon0
          CFI (cfiCond169) Function MT_AfIncomingMsg
          CFI (cfiCond169) Conditional ??CrossCallReturnLabel_72, ??CrossCallReturnLabel_30
          CFI (cfiCond169) R6 load(1, XDATA, add(CFA_XSP16, literal(-22)))
          CFI (cfiCond169) VB load(1, XDATA, add(CFA_XSP16, literal(-21)))
          CFI (cfiCond169) V0 load(1, XDATA, add(CFA_XSP16, literal(-20)))
          CFI (cfiCond169) V1 load(1, XDATA, add(CFA_XSP16, literal(-19)))
          CFI (cfiCond169) V2 load(1, XDATA, add(CFA_XSP16, literal(-18)))
          CFI (cfiCond169) V3 load(1, XDATA, add(CFA_XSP16, literal(-17)))
          CFI (cfiCond169) V4 load(1, XDATA, add(CFA_XSP16, literal(-16)))
          CFI (cfiCond169) V5 load(1, XDATA, add(CFA_XSP16, literal(-15)))
          CFI (cfiCond169) V6 load(1, XDATA, add(CFA_XSP16, literal(-14)))
          CFI (cfiCond169) V7 load(1, XDATA, add(CFA_XSP16, literal(-13)))
          CFI (cfiCond169) V8 load(1, XDATA, add(CFA_XSP16, literal(-12)))
          CFI (cfiCond169) V9 load(1, XDATA, add(CFA_XSP16, literal(-11)))
          CFI (cfiCond169) V10 load(1, XDATA, add(CFA_XSP16, literal(-10)))
          CFI (cfiCond169) V11 load(1, XDATA, add(CFA_XSP16, literal(-9)))
          CFI (cfiCond169) V12 load(1, XDATA, add(CFA_XSP16, literal(-8)))
          CFI (cfiCond169) V13 load(1, XDATA, add(CFA_XSP16, literal(-7)))
          CFI (cfiCond169) R7 load(1, XDATA, add(CFA_XSP16, literal(-6)))
          CFI (cfiCond169) ?RET_LOW load(1, XDATA, add(CFA_XSP16, literal(-5)))
          CFI (cfiCond169) ?RET_HIGH load(1, XDATA, add(CFA_XSP16, literal(-4)))
          CFI (cfiCond169) ?BRET_EXT load(1, XDATA, add(CFA_XSP16, literal(-3)))
          CFI (cfiCond169) DPL0 load(1, XDATA, add(CFA_XSP16, literal(-2)))
          CFI (cfiCond169) DPH0 load(1, XDATA, add(CFA_XSP16, literal(-1)))
          CFI (cfiCond169) CFA_SP SP+-4
          CFI (cfiCond169) CFA_XSP16 add(XSP16, 22)
          CFI Block cfiCond170 Using cfiCommon0
          CFI (cfiCond170) Function MT_AfIncomingMsg
          CFI (cfiCond170) Conditional ??CrossCallReturnLabel_71, ??CrossCallReturnLabel_27
          CFI (cfiCond170) R6 load(1, XDATA, add(CFA_XSP16, literal(-22)))
          CFI (cfiCond170) VB load(1, XDATA, add(CFA_XSP16, literal(-21)))
          CFI (cfiCond170) V0 load(1, XDATA, add(CFA_XSP16, literal(-20)))
          CFI (cfiCond170) V1 load(1, XDATA, add(CFA_XSP16, literal(-19)))
          CFI (cfiCond170) V2 load(1, XDATA, add(CFA_XSP16, literal(-18)))
          CFI (cfiCond170) V3 load(1, XDATA, add(CFA_XSP16, literal(-17)))
          CFI (cfiCond170) V4 load(1, XDATA, add(CFA_XSP16, literal(-16)))
          CFI (cfiCond170) V5 load(1, XDATA, add(CFA_XSP16, literal(-15)))
          CFI (cfiCond170) V6 load(1, XDATA, add(CFA_XSP16, literal(-14)))
          CFI (cfiCond170) V7 load(1, XDATA, add(CFA_XSP16, literal(-13)))
          CFI (cfiCond170) V8 load(1, XDATA, add(CFA_XSP16, literal(-12)))
          CFI (cfiCond170) V9 load(1, XDATA, add(CFA_XSP16, literal(-11)))
          CFI (cfiCond170) V10 load(1, XDATA, add(CFA_XSP16, literal(-10)))
          CFI (cfiCond170) V11 load(1, XDATA, add(CFA_XSP16, literal(-9)))
          CFI (cfiCond170) V12 load(1, XDATA, add(CFA_XSP16, literal(-8)))
          CFI (cfiCond170) V13 load(1, XDATA, add(CFA_XSP16, literal(-7)))
          CFI (cfiCond170) R7 load(1, XDATA, add(CFA_XSP16, literal(-6)))
          CFI (cfiCond170) ?RET_LOW load(1, XDATA, add(CFA_XSP16, literal(-5)))
          CFI (cfiCond170) ?RET_HIGH load(1, XDATA, add(CFA_XSP16, literal(-4)))
          CFI (cfiCond170) ?BRET_EXT load(1, XDATA, add(CFA_XSP16, literal(-3)))
          CFI (cfiCond170) DPL0 load(1, XDATA, add(CFA_XSP16, literal(-2)))
          CFI (cfiCond170) DPH0 load(1, XDATA, add(CFA_XSP16, literal(-1)))
          CFI (cfiCond170) CFA_SP SP+-4
          CFI (cfiCond170) CFA_XSP16 add(XSP16, 22)
          CFI Block cfiCond171 Using cfiCommon0
          CFI (cfiCond171) Function MT_AfIncomingMsg
          CFI (cfiCond171) Conditional ??CrossCallReturnLabel_71, ??CrossCallReturnLabel_28
          CFI (cfiCond171) R6 load(1, XDATA, add(CFA_XSP16, literal(-22)))
          CFI (cfiCond171) VB load(1, XDATA, add(CFA_XSP16, literal(-21)))
          CFI (cfiCond171) V0 load(1, XDATA, add(CFA_XSP16, literal(-20)))
          CFI (cfiCond171) V1 load(1, XDATA, add(CFA_XSP16, literal(-19)))
          CFI (cfiCond171) V2 load(1, XDATA, add(CFA_XSP16, literal(-18)))
          CFI (cfiCond171) V3 load(1, XDATA, add(CFA_XSP16, literal(-17)))
          CFI (cfiCond171) V4 load(1, XDATA, add(CFA_XSP16, literal(-16)))
          CFI (cfiCond171) V5 load(1, XDATA, add(CFA_XSP16, literal(-15)))
          CFI (cfiCond171) V6 load(1, XDATA, add(CFA_XSP16, literal(-14)))
          CFI (cfiCond171) V7 load(1, XDATA, add(CFA_XSP16, literal(-13)))
          CFI (cfiCond171) V8 load(1, XDATA, add(CFA_XSP16, literal(-12)))
          CFI (cfiCond171) V9 load(1, XDATA, add(CFA_XSP16, literal(-11)))
          CFI (cfiCond171) V10 load(1, XDATA, add(CFA_XSP16, literal(-10)))
          CFI (cfiCond171) V11 load(1, XDATA, add(CFA_XSP16, literal(-9)))
          CFI (cfiCond171) V12 load(1, XDATA, add(CFA_XSP16, literal(-8)))
          CFI (cfiCond171) V13 load(1, XDATA, add(CFA_XSP16, literal(-7)))
          CFI (cfiCond171) R7 load(1, XDATA, add(CFA_XSP16, literal(-6)))
          CFI (cfiCond171) ?RET_LOW load(1, XDATA, add(CFA_XSP16, literal(-5)))
          CFI (cfiCond171) ?RET_HIGH load(1, XDATA, add(CFA_XSP16, literal(-4)))
          CFI (cfiCond171) ?BRET_EXT load(1, XDATA, add(CFA_XSP16, literal(-3)))
          CFI (cfiCond171) DPL0 load(1, XDATA, add(CFA_XSP16, literal(-2)))
          CFI (cfiCond171) DPH0 load(1, XDATA, add(CFA_XSP16, literal(-1)))
          CFI (cfiCond171) CFA_SP SP+-4
          CFI (cfiCond171) CFA_XSP16 add(XSP16, 22)
          CFI Block cfiPicker172 Using cfiCommon1
          CFI (cfiPicker172) NoFunction
          CFI (cfiPicker172) Picker
        MOVX      A,@DPTR
        MOV       DPL,R2
        MOV       DPH,R3
        INC       DPTR
        INC       DPTR
        INC       DPTR
        INC       DPTR
        RET
          CFI EndBlock cfiCond168
          CFI EndBlock cfiCond169
          CFI EndBlock cfiCond170
          CFI EndBlock cfiCond171
          CFI EndBlock cfiPicker172

        RSEG BANKED_CODE:HUGECODE:NOROOT(0)
?Subroutine14:
          CFI Block cfiCond173 Using cfiCommon0
          CFI Function MT_AfIncomingMsg
          CFI Conditional ??CrossCallReturnLabel_21
          CFI R6 load(1, XDATA, add(CFA_XSP16, literal(-22)))
          CFI VB load(1, XDATA, add(CFA_XSP16, literal(-21)))
          CFI V0 load(1, XDATA, add(CFA_XSP16, literal(-20)))
          CFI V1 load(1, XDATA, add(CFA_XSP16, literal(-19)))
          CFI V2 load(1, XDATA, add(CFA_XSP16, literal(-18)))
          CFI V3 load(1, XDATA, add(CFA_XSP16, literal(-17)))
          CFI V4 load(1, XDATA, add(CFA_XSP16, literal(-16)))
          CFI V5 load(1, XDATA, add(CFA_XSP16, literal(-15)))
          CFI V6 load(1, XDATA, add(CFA_XSP16, literal(-14)))
          CFI V7 load(1, XDATA, add(CFA_XSP16, literal(-13)))
          CFI V8 load(1, XDATA, add(CFA_XSP16, literal(-12)))
          CFI V9 load(1, XDATA, add(CFA_XSP16, literal(-11)))
          CFI V10 load(1, XDATA, add(CFA_XSP16, literal(-10)))
          CFI V11 load(1, XDATA, add(CFA_XSP16, literal(-9)))
          CFI V12 load(1, XDATA, add(CFA_XSP16, literal(-8)))
          CFI V13 load(1, XDATA, add(CFA_XSP16, literal(-7)))
          CFI R7 load(1, XDATA, add(CFA_XSP16, literal(-6)))
          CFI ?RET_LOW load(1, XDATA, add(CFA_XSP16, literal(-5)))
          CFI ?RET_HIGH load(1, XDATA, add(CFA_XSP16, literal(-4)))
          CFI ?BRET_EXT load(1, XDATA, add(CFA_XSP16, literal(-3)))
          CFI DPL0 load(1, XDATA, add(CFA_XSP16, literal(-2)))
          CFI DPH0 load(1, XDATA, add(CFA_XSP16, literal(-1)))
          CFI CFA_SP SP+-2
          CFI CFA_XSP16 add(XSP16, 22)
          CFI Block cfiCond174 Using cfiCommon0
          CFI (cfiCond174) Function MT_AfIncomingMsg
          CFI (cfiCond174) Conditional ??CrossCallReturnLabel_22
          CFI (cfiCond174) R6 load(1, XDATA, add(CFA_XSP16, literal(-22)))
          CFI (cfiCond174) VB load(1, XDATA, add(CFA_XSP16, literal(-21)))
          CFI (cfiCond174) V0 load(1, XDATA, add(CFA_XSP16, literal(-20)))
          CFI (cfiCond174) V1 load(1, XDATA, add(CFA_XSP16, literal(-19)))
          CFI (cfiCond174) V2 load(1, XDATA, add(CFA_XSP16, literal(-18)))
          CFI (cfiCond174) V3 load(1, XDATA, add(CFA_XSP16, literal(-17)))
          CFI (cfiCond174) V4 load(1, XDATA, add(CFA_XSP16, literal(-16)))
          CFI (cfiCond174) V5 load(1, XDATA, add(CFA_XSP16, literal(-15)))
          CFI (cfiCond174) V6 load(1, XDATA, add(CFA_XSP16, literal(-14)))
          CFI (cfiCond174) V7 load(1, XDATA, add(CFA_XSP16, literal(-13)))
          CFI (cfiCond174) V8 load(1, XDATA, add(CFA_XSP16, literal(-12)))
          CFI (cfiCond174) V9 load(1, XDATA, add(CFA_XSP16, literal(-11)))
          CFI (cfiCond174) V10 load(1, XDATA, add(CFA_XSP16, literal(-10)))
          CFI (cfiCond174) V11 load(1, XDATA, add(CFA_XSP16, literal(-9)))
          CFI (cfiCond174) V12 load(1, XDATA, add(CFA_XSP16, literal(-8)))
          CFI (cfiCond174) V13 load(1, XDATA, add(CFA_XSP16, literal(-7)))
          CFI (cfiCond174) R7 load(1, XDATA, add(CFA_XSP16, literal(-6)))
          CFI (cfiCond174) ?RET_LOW load(1, XDATA, add(CFA_XSP16, literal(-5)))
          CFI (cfiCond174) ?RET_HIGH load(1, XDATA, add(CFA_XSP16, literal(-4)))
          CFI (cfiCond174) ?BRET_EXT load(1, XDATA, add(CFA_XSP16, literal(-3)))
          CFI (cfiCond174) DPL0 load(1, XDATA, add(CFA_XSP16, literal(-2)))
          CFI (cfiCond174) DPH0 load(1, XDATA, add(CFA_XSP16, literal(-1)))
          CFI (cfiCond174) CFA_SP SP+-2
          CFI (cfiCond174) CFA_XSP16 add(XSP16, 22)
          CFI Block cfiPicker175 Using cfiCommon1
          CFI (cfiPicker175) NoFunction
          CFI (cfiPicker175) Picker
        LCALL     ?Subroutine46 & 0xFFFF
??CrossCallReturnLabel_91:
        LCALL     ?Subroutine37 & 0xFFFF
??CrossCallReturnLabel_70:
        RET
          CFI EndBlock cfiCond173
          CFI EndBlock cfiCond174
          CFI EndBlock cfiPicker175

        RSEG BANKED_CODE:HUGECODE:NOROOT(0)
?Subroutine37:
          CFI Block cfiCond176 Using cfiCommon0
          CFI Function MT_AfIncomingMsg
          CFI Conditional ??CrossCallReturnLabel_70, ??CrossCallReturnLabel_21
          CFI R6 load(1, XDATA, add(CFA_XSP16, literal(-22)))
          CFI VB load(1, XDATA, add(CFA_XSP16, literal(-21)))
          CFI V0 load(1, XDATA, add(CFA_XSP16, literal(-20)))
          CFI V1 load(1, XDATA, add(CFA_XSP16, literal(-19)))
          CFI V2 load(1, XDATA, add(CFA_XSP16, literal(-18)))
          CFI V3 load(1, XDATA, add(CFA_XSP16, literal(-17)))
          CFI V4 load(1, XDATA, add(CFA_XSP16, literal(-16)))
          CFI V5 load(1, XDATA, add(CFA_XSP16, literal(-15)))
          CFI V6 load(1, XDATA, add(CFA_XSP16, literal(-14)))
          CFI V7 load(1, XDATA, add(CFA_XSP16, literal(-13)))
          CFI V8 load(1, XDATA, add(CFA_XSP16, literal(-12)))
          CFI V9 load(1, XDATA, add(CFA_XSP16, literal(-11)))
          CFI V10 load(1, XDATA, add(CFA_XSP16, literal(-10)))
          CFI V11 load(1, XDATA, add(CFA_XSP16, literal(-9)))
          CFI V12 load(1, XDATA, add(CFA_XSP16, literal(-8)))
          CFI V13 load(1, XDATA, add(CFA_XSP16, literal(-7)))
          CFI R7 load(1, XDATA, add(CFA_XSP16, literal(-6)))
          CFI ?RET_LOW load(1, XDATA, add(CFA_XSP16, literal(-5)))
          CFI ?RET_HIGH load(1, XDATA, add(CFA_XSP16, literal(-4)))
          CFI ?BRET_EXT load(1, XDATA, add(CFA_XSP16, literal(-3)))
          CFI DPL0 load(1, XDATA, add(CFA_XSP16, literal(-2)))
          CFI DPH0 load(1, XDATA, add(CFA_XSP16, literal(-1)))
          CFI CFA_SP SP+-4
          CFI CFA_XSP16 add(XSP16, 22)
          CFI Block cfiCond177 Using cfiCommon0
          CFI (cfiCond177) Function MT_AfIncomingMsg
          CFI (cfiCond177) Conditional ??CrossCallReturnLabel_70, ??CrossCallReturnLabel_22
          CFI (cfiCond177) R6 load(1, XDATA, add(CFA_XSP16, literal(-22)))
          CFI (cfiCond177) VB load(1, XDATA, add(CFA_XSP16, literal(-21)))
          CFI (cfiCond177) V0 load(1, XDATA, add(CFA_XSP16, literal(-20)))
          CFI (cfiCond177) V1 load(1, XDATA, add(CFA_XSP16, literal(-19)))
          CFI (cfiCond177) V2 load(1, XDATA, add(CFA_XSP16, literal(-18)))
          CFI (cfiCond177) V3 load(1, XDATA, add(CFA_XSP16, literal(-17)))
          CFI (cfiCond177) V4 load(1, XDATA, add(CFA_XSP16, literal(-16)))
          CFI (cfiCond177) V5 load(1, XDATA, add(CFA_XSP16, literal(-15)))
          CFI (cfiCond177) V6 load(1, XDATA, add(CFA_XSP16, literal(-14)))
          CFI (cfiCond177) V7 load(1, XDATA, add(CFA_XSP16, literal(-13)))
          CFI (cfiCond177) V8 load(1, XDATA, add(CFA_XSP16, literal(-12)))
          CFI (cfiCond177) V9 load(1, XDATA, add(CFA_XSP16, literal(-11)))
          CFI (cfiCond177) V10 load(1, XDATA, add(CFA_XSP16, literal(-10)))
          CFI (cfiCond177) V11 load(1, XDATA, add(CFA_XSP16, literal(-9)))
          CFI (cfiCond177) V12 load(1, XDATA, add(CFA_XSP16, literal(-8)))
          CFI (cfiCond177) V13 load(1, XDATA, add(CFA_XSP16, literal(-7)))
          CFI (cfiCond177) R7 load(1, XDATA, add(CFA_XSP16, literal(-6)))
          CFI (cfiCond177) ?RET_LOW load(1, XDATA, add(CFA_XSP16, literal(-5)))
          CFI (cfiCond177) ?RET_HIGH load(1, XDATA, add(CFA_XSP16, literal(-4)))
          CFI (cfiCond177) ?BRET_EXT load(1, XDATA, add(CFA_XSP16, literal(-3)))
          CFI (cfiCond177) DPL0 load(1, XDATA, add(CFA_XSP16, literal(-2)))
          CFI (cfiCond177) DPH0 load(1, XDATA, add(CFA_XSP16, literal(-1)))
          CFI (cfiCond177) CFA_SP SP+-4
          CFI (cfiCond177) CFA_XSP16 add(XSP16, 22)
          CFI Block cfiCond178 Using cfiCommon0
          CFI (cfiCond178) Function MT_AfIncomingMsg
          CFI (cfiCond178) Conditional ??CrossCallReturnLabel_69, ??CrossCallReturnLabel_2
          CFI (cfiCond178) R6 load(1, XDATA, add(CFA_XSP16, literal(-22)))
          CFI (cfiCond178) VB load(1, XDATA, add(CFA_XSP16, literal(-21)))
          CFI (cfiCond178) V0 load(1, XDATA, add(CFA_XSP16, literal(-20)))
          CFI (cfiCond178) V1 load(1, XDATA, add(CFA_XSP16, literal(-19)))
          CFI (cfiCond178) V2 load(1, XDATA, add(CFA_XSP16, literal(-18)))
          CFI (cfiCond178) V3 load(1, XDATA, add(CFA_XSP16, literal(-17)))
          CFI (cfiCond178) V4 load(1, XDATA, add(CFA_XSP16, literal(-16)))
          CFI (cfiCond178) V5 load(1, XDATA, add(CFA_XSP16, literal(-15)))
          CFI (cfiCond178) V6 load(1, XDATA, add(CFA_XSP16, literal(-14)))
          CFI (cfiCond178) V7 load(1, XDATA, add(CFA_XSP16, literal(-13)))
          CFI (cfiCond178) V8 load(1, XDATA, add(CFA_XSP16, literal(-12)))
          CFI (cfiCond178) V9 load(1, XDATA, add(CFA_XSP16, literal(-11)))
          CFI (cfiCond178) V10 load(1, XDATA, add(CFA_XSP16, literal(-10)))
          CFI (cfiCond178) V11 load(1, XDATA, add(CFA_XSP16, literal(-9)))
          CFI (cfiCond178) V12 load(1, XDATA, add(CFA_XSP16, literal(-8)))
          CFI (cfiCond178) V13 load(1, XDATA, add(CFA_XSP16, literal(-7)))
          CFI (cfiCond178) R7 load(1, XDATA, add(CFA_XSP16, literal(-6)))
          CFI (cfiCond178) ?RET_LOW load(1, XDATA, add(CFA_XSP16, literal(-5)))
          CFI (cfiCond178) ?RET_HIGH load(1, XDATA, add(CFA_XSP16, literal(-4)))
          CFI (cfiCond178) ?BRET_EXT load(1, XDATA, add(CFA_XSP16, literal(-3)))
          CFI (cfiCond178) DPL0 load(1, XDATA, add(CFA_XSP16, literal(-2)))
          CFI (cfiCond178) DPH0 load(1, XDATA, add(CFA_XSP16, literal(-1)))
          CFI (cfiCond178) CFA_SP SP+-4
          CFI (cfiCond178) CFA_XSP16 add(XSP16, 22)
          CFI Block cfiCond179 Using cfiCommon0
          CFI (cfiCond179) Function MT_AfIncomingMsg
          CFI (cfiCond179) Conditional ??CrossCallReturnLabel_69, ??CrossCallReturnLabel_3
          CFI (cfiCond179) R6 load(1, XDATA, add(CFA_XSP16, literal(-22)))
          CFI (cfiCond179) VB load(1, XDATA, add(CFA_XSP16, literal(-21)))
          CFI (cfiCond179) V0 load(1, XDATA, add(CFA_XSP16, literal(-20)))
          CFI (cfiCond179) V1 load(1, XDATA, add(CFA_XSP16, literal(-19)))
          CFI (cfiCond179) V2 load(1, XDATA, add(CFA_XSP16, literal(-18)))
          CFI (cfiCond179) V3 load(1, XDATA, add(CFA_XSP16, literal(-17)))
          CFI (cfiCond179) V4 load(1, XDATA, add(CFA_XSP16, literal(-16)))
          CFI (cfiCond179) V5 load(1, XDATA, add(CFA_XSP16, literal(-15)))
          CFI (cfiCond179) V6 load(1, XDATA, add(CFA_XSP16, literal(-14)))
          CFI (cfiCond179) V7 load(1, XDATA, add(CFA_XSP16, literal(-13)))
          CFI (cfiCond179) V8 load(1, XDATA, add(CFA_XSP16, literal(-12)))
          CFI (cfiCond179) V9 load(1, XDATA, add(CFA_XSP16, literal(-11)))
          CFI (cfiCond179) V10 load(1, XDATA, add(CFA_XSP16, literal(-10)))
          CFI (cfiCond179) V11 load(1, XDATA, add(CFA_XSP16, literal(-9)))
          CFI (cfiCond179) V12 load(1, XDATA, add(CFA_XSP16, literal(-8)))
          CFI (cfiCond179) V13 load(1, XDATA, add(CFA_XSP16, literal(-7)))
          CFI (cfiCond179) R7 load(1, XDATA, add(CFA_XSP16, literal(-6)))
          CFI (cfiCond179) ?RET_LOW load(1, XDATA, add(CFA_XSP16, literal(-5)))
          CFI (cfiCond179) ?RET_HIGH load(1, XDATA, add(CFA_XSP16, literal(-4)))
          CFI (cfiCond179) ?BRET_EXT load(1, XDATA, add(CFA_XSP16, literal(-3)))
          CFI (cfiCond179) DPL0 load(1, XDATA, add(CFA_XSP16, literal(-2)))
          CFI (cfiCond179) DPH0 load(1, XDATA, add(CFA_XSP16, literal(-1)))
          CFI (cfiCond179) CFA_SP SP+-4
          CFI (cfiCond179) CFA_XSP16 add(XSP16, 22)
          CFI Block cfiPicker180 Using cfiCommon1
          CFI (cfiPicker180) NoFunction
          CFI (cfiPicker180) Picker
        LCALL     ?Subroutine47 & 0xFFFF
??CrossCallReturnLabel_110:
        INC       DPTR
        INC       DPTR
        INC       DPTR
        RET
          CFI EndBlock cfiCond176
          CFI EndBlock cfiCond177
          CFI EndBlock cfiCond178
          CFI EndBlock cfiCond179
          CFI EndBlock cfiPicker180

        RSEG BANKED_CODE:HUGECODE:NOROOT(0)
?Subroutine12:
          CFI Block cfiCond181 Using cfiCommon0
          CFI Function MT_AfExec
          CFI Conditional ??CrossCallReturnLabel_118
          CFI R6 load(1, XDATA, add(CFA_XSP16, literal(-9)))
          CFI VB load(1, XDATA, add(CFA_XSP16, literal(-8)))
          CFI V0 load(1, XDATA, add(CFA_XSP16, literal(-7)))
          CFI R7 load(1, XDATA, add(CFA_XSP16, literal(-6)))
          CFI ?RET_LOW load(1, XDATA, add(CFA_XSP16, literal(-5)))
          CFI ?RET_HIGH load(1, XDATA, add(CFA_XSP16, literal(-4)))
          CFI ?BRET_EXT load(1, XDATA, add(CFA_XSP16, literal(-3)))
          CFI DPL0 load(1, XDATA, add(CFA_XSP16, literal(-2)))
          CFI DPH0 load(1, XDATA, add(CFA_XSP16, literal(-1)))
          CFI CFA_SP SP+-2
          CFI CFA_XSP16 add(XSP16, 9)
          CFI Block cfiCond182 Using cfiCommon0
          CFI (cfiCond182) Function MT_AfDataStore
          CFI (cfiCond182) Conditional ??CrossCallReturnLabel_119
          CFI (cfiCond182) R6 load(1, XDATA, add(CFA_XSP16, literal(-14)))
          CFI (cfiCond182) VB load(1, XDATA, add(CFA_XSP16, literal(-13)))
          CFI (cfiCond182) V0 load(1, XDATA, add(CFA_XSP16, literal(-12)))
          CFI (cfiCond182) V1 load(1, XDATA, add(CFA_XSP16, literal(-11)))
          CFI (cfiCond182) V2 load(1, XDATA, add(CFA_XSP16, literal(-10)))
          CFI (cfiCond182) V3 load(1, XDATA, add(CFA_XSP16, literal(-9)))
          CFI (cfiCond182) V4 load(1, XDATA, add(CFA_XSP16, literal(-8)))
          CFI (cfiCond182) V5 load(1, XDATA, add(CFA_XSP16, literal(-7)))
          CFI (cfiCond182) R7 load(1, XDATA, add(CFA_XSP16, literal(-6)))
          CFI (cfiCond182) ?RET_LOW load(1, XDATA, add(CFA_XSP16, literal(-5)))
          CFI (cfiCond182) ?RET_HIGH load(1, XDATA, add(CFA_XSP16, literal(-4)))
          CFI (cfiCond182) ?BRET_EXT load(1, XDATA, add(CFA_XSP16, literal(-3)))
          CFI (cfiCond182) DPL0 load(1, XDATA, add(CFA_XSP16, literal(-2)))
          CFI (cfiCond182) DPH0 load(1, XDATA, add(CFA_XSP16, literal(-1)))
          CFI (cfiCond182) CFA_SP SP+-2
          CFI (cfiCond182) CFA_XSP16 add(XSP16, 15)
          CFI Block cfiPicker183 Using cfiCommon1
          CFI (cfiPicker183) NoFunction
          CFI (cfiPicker183) Picker
        MOV       DPTR,#pMtAfDataReq
          CFI EndBlock cfiCond181
          CFI EndBlock cfiCond182
          CFI EndBlock cfiPicker183
        REQUIRE ??Subroutine53_0
        ; // Fall through to label ??Subroutine53_0

        RSEG BANKED_CODE:HUGECODE:NOROOT(0)
??Subroutine53_0:
          CFI Block cfiCond184 Using cfiCommon0
          CFI Function MT_AfExec
          CFI Conditional ??CrossCallReturnLabel_115
          CFI R6 load(1, XDATA, add(CFA_XSP16, literal(-9)))
          CFI VB load(1, XDATA, add(CFA_XSP16, literal(-8)))
          CFI V0 load(1, XDATA, add(CFA_XSP16, literal(-7)))
          CFI R7 load(1, XDATA, add(CFA_XSP16, literal(-6)))
          CFI ?RET_LOW load(1, XDATA, add(CFA_XSP16, literal(-5)))
          CFI ?RET_HIGH load(1, XDATA, add(CFA_XSP16, literal(-4)))
          CFI ?BRET_EXT load(1, XDATA, add(CFA_XSP16, literal(-3)))
          CFI DPL0 load(1, XDATA, add(CFA_XSP16, literal(-2)))
          CFI DPH0 load(1, XDATA, add(CFA_XSP16, literal(-1)))
          CFI CFA_SP SP+-2
          CFI CFA_XSP16 add(XSP16, 9)
          CFI Block cfiCond185 Using cfiCommon0
          CFI (cfiCond185) Function MT_AfIncomingMsg
          CFI (cfiCond185) Conditional ??CrossCallReturnLabel_116
          CFI (cfiCond185) R6 load(1, XDATA, add(CFA_XSP16, literal(-22)))
          CFI (cfiCond185) VB load(1, XDATA, add(CFA_XSP16, literal(-21)))
          CFI (cfiCond185) V0 load(1, XDATA, add(CFA_XSP16, literal(-20)))
          CFI (cfiCond185) V1 load(1, XDATA, add(CFA_XSP16, literal(-19)))
          CFI (cfiCond185) V2 load(1, XDATA, add(CFA_XSP16, literal(-18)))
          CFI (cfiCond185) V3 load(1, XDATA, add(CFA_XSP16, literal(-17)))
          CFI (cfiCond185) V4 load(1, XDATA, add(CFA_XSP16, literal(-16)))
          CFI (cfiCond185) V5 load(1, XDATA, add(CFA_XSP16, literal(-15)))
          CFI (cfiCond185) V6 load(1, XDATA, add(CFA_XSP16, literal(-14)))
          CFI (cfiCond185) V7 load(1, XDATA, add(CFA_XSP16, literal(-13)))
          CFI (cfiCond185) V8 load(1, XDATA, add(CFA_XSP16, literal(-12)))
          CFI (cfiCond185) V9 load(1, XDATA, add(CFA_XSP16, literal(-11)))
          CFI (cfiCond185) V10 load(1, XDATA, add(CFA_XSP16, literal(-10)))
          CFI (cfiCond185) V11 load(1, XDATA, add(CFA_XSP16, literal(-9)))
          CFI (cfiCond185) V12 load(1, XDATA, add(CFA_XSP16, literal(-8)))
          CFI (cfiCond185) V13 load(1, XDATA, add(CFA_XSP16, literal(-7)))
          CFI (cfiCond185) R7 load(1, XDATA, add(CFA_XSP16, literal(-6)))
          CFI (cfiCond185) ?RET_LOW load(1, XDATA, add(CFA_XSP16, literal(-5)))
          CFI (cfiCond185) ?RET_HIGH load(1, XDATA, add(CFA_XSP16, literal(-4)))
          CFI (cfiCond185) ?BRET_EXT load(1, XDATA, add(CFA_XSP16, literal(-3)))
          CFI (cfiCond185) DPL0 load(1, XDATA, add(CFA_XSP16, literal(-2)))
          CFI (cfiCond185) DPH0 load(1, XDATA, add(CFA_XSP16, literal(-1)))
          CFI (cfiCond185) CFA_SP SP+-2
          CFI (cfiCond185) CFA_XSP16 add(XSP16, 22)
          CFI Block cfiCond186 Using cfiCommon0
          CFI (cfiCond186) Function MT_AfIncomingMsg
          CFI (cfiCond186) Conditional ??CrossCallReturnLabel_117
          CFI (cfiCond186) R6 load(1, XDATA, add(CFA_XSP16, literal(-22)))
          CFI (cfiCond186) VB load(1, XDATA, add(CFA_XSP16, literal(-21)))
          CFI (cfiCond186) V0 load(1, XDATA, add(CFA_XSP16, literal(-20)))
          CFI (cfiCond186) V1 load(1, XDATA, add(CFA_XSP16, literal(-19)))
          CFI (cfiCond186) V2 load(1, XDATA, add(CFA_XSP16, literal(-18)))
          CFI (cfiCond186) V3 load(1, XDATA, add(CFA_XSP16, literal(-17)))
          CFI (cfiCond186) V4 load(1, XDATA, add(CFA_XSP16, literal(-16)))
          CFI (cfiCond186) V5 load(1, XDATA, add(CFA_XSP16, literal(-15)))
          CFI (cfiCond186) V6 load(1, XDATA, add(CFA_XSP16, literal(-14)))
          CFI (cfiCond186) V7 load(1, XDATA, add(CFA_XSP16, literal(-13)))
          CFI (cfiCond186) V8 load(1, XDATA, add(CFA_XSP16, literal(-12)))
          CFI (cfiCond186) V9 load(1, XDATA, add(CFA_XSP16, literal(-11)))
          CFI (cfiCond186) V10 load(1, XDATA, add(CFA_XSP16, literal(-10)))
          CFI (cfiCond186) V11 load(1, XDATA, add(CFA_XSP16, literal(-9)))
          CFI (cfiCond186) V12 load(1, XDATA, add(CFA_XSP16, literal(-8)))
          CFI (cfiCond186) V13 load(1, XDATA, add(CFA_XSP16, literal(-7)))
          CFI (cfiCond186) R7 load(1, XDATA, add(CFA_XSP16, literal(-6)))
          CFI (cfiCond186) ?RET_LOW load(1, XDATA, add(CFA_XSP16, literal(-5)))
          CFI (cfiCond186) ?RET_HIGH load(1, XDATA, add(CFA_XSP16, literal(-4)))
          CFI (cfiCond186) ?BRET_EXT load(1, XDATA, add(CFA_XSP16, literal(-3)))
          CFI (cfiCond186) DPL0 load(1, XDATA, add(CFA_XSP16, literal(-2)))
          CFI (cfiCond186) DPH0 load(1, XDATA, add(CFA_XSP16, literal(-1)))
          CFI (cfiCond186) CFA_SP SP+-2
          CFI (cfiCond186) CFA_XSP16 add(XSP16, 25)
          CFI Block cfiCond187 Using cfiCommon0
          CFI (cfiCond187) Function MT_AfExec
          CFI (cfiCond187) Conditional ??CrossCallReturnLabel_118
          CFI (cfiCond187) R6 load(1, XDATA, add(CFA_XSP16, literal(-9)))
          CFI (cfiCond187) VB load(1, XDATA, add(CFA_XSP16, literal(-8)))
          CFI (cfiCond187) V0 load(1, XDATA, add(CFA_XSP16, literal(-7)))
          CFI (cfiCond187) R7 load(1, XDATA, add(CFA_XSP16, literal(-6)))
          CFI (cfiCond187) ?RET_LOW load(1, XDATA, add(CFA_XSP16, literal(-5)))
          CFI (cfiCond187) ?RET_HIGH load(1, XDATA, add(CFA_XSP16, literal(-4)))
          CFI (cfiCond187) ?BRET_EXT load(1, XDATA, add(CFA_XSP16, literal(-3)))
          CFI (cfiCond187) DPL0 load(1, XDATA, add(CFA_XSP16, literal(-2)))
          CFI (cfiCond187) DPH0 load(1, XDATA, add(CFA_XSP16, literal(-1)))
          CFI (cfiCond187) CFA_SP SP+-2
          CFI (cfiCond187) CFA_XSP16 add(XSP16, 9)
          CFI Block cfiCond188 Using cfiCommon0
          CFI (cfiCond188) Function MT_AfDataStore
          CFI (cfiCond188) Conditional ??CrossCallReturnLabel_119
          CFI (cfiCond188) R6 load(1, XDATA, add(CFA_XSP16, literal(-14)))
          CFI (cfiCond188) VB load(1, XDATA, add(CFA_XSP16, literal(-13)))
          CFI (cfiCond188) V0 load(1, XDATA, add(CFA_XSP16, literal(-12)))
          CFI (cfiCond188) V1 load(1, XDATA, add(CFA_XSP16, literal(-11)))
          CFI (cfiCond188) V2 load(1, XDATA, add(CFA_XSP16, literal(-10)))
          CFI (cfiCond188) V3 load(1, XDATA, add(CFA_XSP16, literal(-9)))
          CFI (cfiCond188) V4 load(1, XDATA, add(CFA_XSP16, literal(-8)))
          CFI (cfiCond188) V5 load(1, XDATA, add(CFA_XSP16, literal(-7)))
          CFI (cfiCond188) R7 load(1, XDATA, add(CFA_XSP16, literal(-6)))
          CFI (cfiCond188) ?RET_LOW load(1, XDATA, add(CFA_XSP16, literal(-5)))
          CFI (cfiCond188) ?RET_HIGH load(1, XDATA, add(CFA_XSP16, literal(-4)))
          CFI (cfiCond188) ?BRET_EXT load(1, XDATA, add(CFA_XSP16, literal(-3)))
          CFI (cfiCond188) DPL0 load(1, XDATA, add(CFA_XSP16, literal(-2)))
          CFI (cfiCond188) DPH0 load(1, XDATA, add(CFA_XSP16, literal(-1)))
          CFI (cfiCond188) CFA_SP SP+-2
          CFI (cfiCond188) CFA_XSP16 add(XSP16, 15)
          CFI Block cfiPicker189 Using cfiCommon1
          CFI (cfiPicker189) NoFunction
          CFI (cfiPicker189) Picker
        MOVX      A,@DPTR
        MOV       R2,A
        INC       DPTR
        MOVX      A,@DPTR
        MOV       R3,A
        RET
          CFI EndBlock cfiCond184
          CFI EndBlock cfiCond185
          CFI EndBlock cfiCond186
          CFI EndBlock cfiCond187
          CFI EndBlock cfiCond188
          CFI EndBlock cfiPicker189

        RSEG BANKED_CODE:HUGECODE:NOROOT(0)
?Subroutine11:
          CFI Block cfiCond190 Using cfiCommon0
          CFI Function MT_AfIncomingMsg
          CFI Conditional ??CrossCallReturnLabel_17
          CFI R6 load(1, XDATA, add(CFA_XSP16, literal(-22)))
          CFI VB load(1, XDATA, add(CFA_XSP16, literal(-21)))
          CFI V0 load(1, XDATA, add(CFA_XSP16, literal(-20)))
          CFI V1 load(1, XDATA, add(CFA_XSP16, literal(-19)))
          CFI V2 load(1, XDATA, add(CFA_XSP16, literal(-18)))
          CFI V3 load(1, XDATA, add(CFA_XSP16, literal(-17)))
          CFI V4 load(1, XDATA, add(CFA_XSP16, literal(-16)))
          CFI V5 load(1, XDATA, add(CFA_XSP16, literal(-15)))
          CFI V6 load(1, XDATA, add(CFA_XSP16, literal(-14)))
          CFI V7 load(1, XDATA, add(CFA_XSP16, literal(-13)))
          CFI V8 load(1, XDATA, add(CFA_XSP16, literal(-12)))
          CFI V9 load(1, XDATA, add(CFA_XSP16, literal(-11)))
          CFI V10 load(1, XDATA, add(CFA_XSP16, literal(-10)))
          CFI V11 load(1, XDATA, add(CFA_XSP16, literal(-9)))
          CFI V12 load(1, XDATA, add(CFA_XSP16, literal(-8)))
          CFI V13 load(1, XDATA, add(CFA_XSP16, literal(-7)))
          CFI R7 load(1, XDATA, add(CFA_XSP16, literal(-6)))
          CFI ?RET_LOW load(1, XDATA, add(CFA_XSP16, literal(-5)))
          CFI ?RET_HIGH load(1, XDATA, add(CFA_XSP16, literal(-4)))
          CFI ?BRET_EXT load(1, XDATA, add(CFA_XSP16, literal(-3)))
          CFI DPL0 load(1, XDATA, add(CFA_XSP16, literal(-2)))
          CFI DPH0 load(1, XDATA, add(CFA_XSP16, literal(-1)))
          CFI CFA_SP SP+-2
          CFI CFA_XSP16 add(XSP16, 22)
          CFI Block cfiCond191 Using cfiCommon0
          CFI (cfiCond191) Function MT_AfIncomingMsg
          CFI (cfiCond191) Conditional ??CrossCallReturnLabel_18
          CFI (cfiCond191) R6 load(1, XDATA, add(CFA_XSP16, literal(-22)))
          CFI (cfiCond191) VB load(1, XDATA, add(CFA_XSP16, literal(-21)))
          CFI (cfiCond191) V0 load(1, XDATA, add(CFA_XSP16, literal(-20)))
          CFI (cfiCond191) V1 load(1, XDATA, add(CFA_XSP16, literal(-19)))
          CFI (cfiCond191) V2 load(1, XDATA, add(CFA_XSP16, literal(-18)))
          CFI (cfiCond191) V3 load(1, XDATA, add(CFA_XSP16, literal(-17)))
          CFI (cfiCond191) V4 load(1, XDATA, add(CFA_XSP16, literal(-16)))
          CFI (cfiCond191) V5 load(1, XDATA, add(CFA_XSP16, literal(-15)))
          CFI (cfiCond191) V6 load(1, XDATA, add(CFA_XSP16, literal(-14)))
          CFI (cfiCond191) V7 load(1, XDATA, add(CFA_XSP16, literal(-13)))
          CFI (cfiCond191) V8 load(1, XDATA, add(CFA_XSP16, literal(-12)))
          CFI (cfiCond191) V9 load(1, XDATA, add(CFA_XSP16, literal(-11)))
          CFI (cfiCond191) V10 load(1, XDATA, add(CFA_XSP16, literal(-10)))
          CFI (cfiCond191) V11 load(1, XDATA, add(CFA_XSP16, literal(-9)))
          CFI (cfiCond191) V12 load(1, XDATA, add(CFA_XSP16, literal(-8)))
          CFI (cfiCond191) V13 load(1, XDATA, add(CFA_XSP16, literal(-7)))
          CFI (cfiCond191) R7 load(1, XDATA, add(CFA_XSP16, literal(-6)))
          CFI (cfiCond191) ?RET_LOW load(1, XDATA, add(CFA_XSP16, literal(-5)))
          CFI (cfiCond191) ?RET_HIGH load(1, XDATA, add(CFA_XSP16, literal(-4)))
          CFI (cfiCond191) ?BRET_EXT load(1, XDATA, add(CFA_XSP16, literal(-3)))
          CFI (cfiCond191) DPL0 load(1, XDATA, add(CFA_XSP16, literal(-2)))
          CFI (cfiCond191) DPH0 load(1, XDATA, add(CFA_XSP16, literal(-1)))
          CFI (cfiCond191) CFA_SP SP+-2
          CFI (cfiCond191) CFA_XSP16 add(XSP16, 22)
          CFI Block cfiPicker192 Using cfiCommon1
          CFI (cfiPicker192) NoFunction
          CFI (cfiPicker192) Picker
        MOV       A,?V8
        ADD       A,#0x22
        LCALL     ?Subroutine46 & 0xFFFF
??CrossCallReturnLabel_90:
        MOVX      A,@DPTR
        MOV       ?V4,A
        INC       DPTR
        MOVX      A,@DPTR
        MOV       ?V5,A
        MOV       ?V6,#0x0
        MOV       R0,#?V4
        RET
          CFI EndBlock cfiCond190
          CFI EndBlock cfiCond191
          CFI EndBlock cfiPicker192

        RSEG BANKED_CODE:HUGECODE:NOROOT(0)
?Subroutine4:
          CFI Block cfiCond193 Using cfiCommon0
          CFI Function MT_AfIncomingMsg
          CFI Conditional ??CrossCallReturnLabel_2
          CFI R6 load(1, XDATA, add(CFA_XSP16, literal(-22)))
          CFI VB load(1, XDATA, add(CFA_XSP16, literal(-21)))
          CFI V0 load(1, XDATA, add(CFA_XSP16, literal(-20)))
          CFI V1 load(1, XDATA, add(CFA_XSP16, literal(-19)))
          CFI V2 load(1, XDATA, add(CFA_XSP16, literal(-18)))
          CFI V3 load(1, XDATA, add(CFA_XSP16, literal(-17)))
          CFI V4 load(1, XDATA, add(CFA_XSP16, literal(-16)))
          CFI V5 load(1, XDATA, add(CFA_XSP16, literal(-15)))
          CFI V6 load(1, XDATA, add(CFA_XSP16, literal(-14)))
          CFI V7 load(1, XDATA, add(CFA_XSP16, literal(-13)))
          CFI V8 load(1, XDATA, add(CFA_XSP16, literal(-12)))
          CFI V9 load(1, XDATA, add(CFA_XSP16, literal(-11)))
          CFI V10 load(1, XDATA, add(CFA_XSP16, literal(-10)))
          CFI V11 load(1, XDATA, add(CFA_XSP16, literal(-9)))
          CFI V12 load(1, XDATA, add(CFA_XSP16, literal(-8)))
          CFI V13 load(1, XDATA, add(CFA_XSP16, literal(-7)))
          CFI R7 load(1, XDATA, add(CFA_XSP16, literal(-6)))
          CFI ?RET_LOW load(1, XDATA, add(CFA_XSP16, literal(-5)))
          CFI ?RET_HIGH load(1, XDATA, add(CFA_XSP16, literal(-4)))
          CFI ?BRET_EXT load(1, XDATA, add(CFA_XSP16, literal(-3)))
          CFI DPL0 load(1, XDATA, add(CFA_XSP16, literal(-2)))
          CFI DPH0 load(1, XDATA, add(CFA_XSP16, literal(-1)))
          CFI CFA_SP SP+-2
          CFI CFA_XSP16 add(XSP16, 22)
          CFI Block cfiCond194 Using cfiCommon0
          CFI (cfiCond194) Function MT_AfIncomingMsg
          CFI (cfiCond194) Conditional ??CrossCallReturnLabel_3
          CFI (cfiCond194) R6 load(1, XDATA, add(CFA_XSP16, literal(-22)))
          CFI (cfiCond194) VB load(1, XDATA, add(CFA_XSP16, literal(-21)))
          CFI (cfiCond194) V0 load(1, XDATA, add(CFA_XSP16, literal(-20)))
          CFI (cfiCond194) V1 load(1, XDATA, add(CFA_XSP16, literal(-19)))
          CFI (cfiCond194) V2 load(1, XDATA, add(CFA_XSP16, literal(-18)))
          CFI (cfiCond194) V3 load(1, XDATA, add(CFA_XSP16, literal(-17)))
          CFI (cfiCond194) V4 load(1, XDATA, add(CFA_XSP16, literal(-16)))
          CFI (cfiCond194) V5 load(1, XDATA, add(CFA_XSP16, literal(-15)))
          CFI (cfiCond194) V6 load(1, XDATA, add(CFA_XSP16, literal(-14)))
          CFI (cfiCond194) V7 load(1, XDATA, add(CFA_XSP16, literal(-13)))
          CFI (cfiCond194) V8 load(1, XDATA, add(CFA_XSP16, literal(-12)))
          CFI (cfiCond194) V9 load(1, XDATA, add(CFA_XSP16, literal(-11)))
          CFI (cfiCond194) V10 load(1, XDATA, add(CFA_XSP16, literal(-10)))
          CFI (cfiCond194) V11 load(1, XDATA, add(CFA_XSP16, literal(-9)))
          CFI (cfiCond194) V12 load(1, XDATA, add(CFA_XSP16, literal(-8)))
          CFI (cfiCond194) V13 load(1, XDATA, add(CFA_XSP16, literal(-7)))
          CFI (cfiCond194) R7 load(1, XDATA, add(CFA_XSP16, literal(-6)))
          CFI (cfiCond194) ?RET_LOW load(1, XDATA, add(CFA_XSP16, literal(-5)))
          CFI (cfiCond194) ?RET_HIGH load(1, XDATA, add(CFA_XSP16, literal(-4)))
          CFI (cfiCond194) ?BRET_EXT load(1, XDATA, add(CFA_XSP16, literal(-3)))
          CFI (cfiCond194) DPL0 load(1, XDATA, add(CFA_XSP16, literal(-2)))
          CFI (cfiCond194) DPH0 load(1, XDATA, add(CFA_XSP16, literal(-1)))
          CFI (cfiCond194) CFA_SP SP+-2
          CFI (cfiCond194) CFA_XSP16 add(XSP16, 22)
          CFI Block cfiPicker195 Using cfiCommon1
          CFI (cfiPicker195) NoFunction
          CFI (cfiPicker195) Picker
        LCALL     ?Subroutine37 & 0xFFFF
??CrossCallReturnLabel_69:
        INC       DPTR
        INC       DPTR
        INC       DPTR
        INC       DPTR
        INC       DPTR
        RET
          CFI EndBlock cfiCond193
          CFI EndBlock cfiCond194
          CFI EndBlock cfiPicker195

        RSEG BANKED_CODE:HUGECODE:NOROOT(0)
?Subroutine3:
          CFI Block cfiCond196 Using cfiCommon0
          CFI Function MT_AfIncomingMsg
          CFI Conditional ??CrossCallReturnLabel_0
          CFI R6 load(1, XDATA, add(CFA_XSP16, literal(-22)))
          CFI VB load(1, XDATA, add(CFA_XSP16, literal(-21)))
          CFI V0 load(1, XDATA, add(CFA_XSP16, literal(-20)))
          CFI V1 load(1, XDATA, add(CFA_XSP16, literal(-19)))
          CFI V2 load(1, XDATA, add(CFA_XSP16, literal(-18)))
          CFI V3 load(1, XDATA, add(CFA_XSP16, literal(-17)))
          CFI V4 load(1, XDATA, add(CFA_XSP16, literal(-16)))
          CFI V5 load(1, XDATA, add(CFA_XSP16, literal(-15)))
          CFI V6 load(1, XDATA, add(CFA_XSP16, literal(-14)))
          CFI V7 load(1, XDATA, add(CFA_XSP16, literal(-13)))
          CFI V8 load(1, XDATA, add(CFA_XSP16, literal(-12)))
          CFI V9 load(1, XDATA, add(CFA_XSP16, literal(-11)))
          CFI V10 load(1, XDATA, add(CFA_XSP16, literal(-10)))
          CFI V11 load(1, XDATA, add(CFA_XSP16, literal(-9)))
          CFI V12 load(1, XDATA, add(CFA_XSP16, literal(-8)))
          CFI V13 load(1, XDATA, add(CFA_XSP16, literal(-7)))
          CFI R7 load(1, XDATA, add(CFA_XSP16, literal(-6)))
          CFI ?RET_LOW load(1, XDATA, add(CFA_XSP16, literal(-5)))
          CFI ?RET_HIGH load(1, XDATA, add(CFA_XSP16, literal(-4)))
          CFI ?BRET_EXT load(1, XDATA, add(CFA_XSP16, literal(-3)))
          CFI DPL0 load(1, XDATA, add(CFA_XSP16, literal(-2)))
          CFI DPH0 load(1, XDATA, add(CFA_XSP16, literal(-1)))
          CFI CFA_SP SP+-2
          CFI CFA_XSP16 add(XSP16, 22)
          CFI Block cfiCond197 Using cfiCommon0
          CFI (cfiCond197) Function MT_AfIncomingMsg
          CFI (cfiCond197) Conditional ??CrossCallReturnLabel_1
          CFI (cfiCond197) R6 load(1, XDATA, add(CFA_XSP16, literal(-22)))
          CFI (cfiCond197) VB load(1, XDATA, add(CFA_XSP16, literal(-21)))
          CFI (cfiCond197) V0 load(1, XDATA, add(CFA_XSP16, literal(-20)))
          CFI (cfiCond197) V1 load(1, XDATA, add(CFA_XSP16, literal(-19)))
          CFI (cfiCond197) V2 load(1, XDATA, add(CFA_XSP16, literal(-18)))
          CFI (cfiCond197) V3 load(1, XDATA, add(CFA_XSP16, literal(-17)))
          CFI (cfiCond197) V4 load(1, XDATA, add(CFA_XSP16, literal(-16)))
          CFI (cfiCond197) V5 load(1, XDATA, add(CFA_XSP16, literal(-15)))
          CFI (cfiCond197) V6 load(1, XDATA, add(CFA_XSP16, literal(-14)))
          CFI (cfiCond197) V7 load(1, XDATA, add(CFA_XSP16, literal(-13)))
          CFI (cfiCond197) V8 load(1, XDATA, add(CFA_XSP16, literal(-12)))
          CFI (cfiCond197) V9 load(1, XDATA, add(CFA_XSP16, literal(-11)))
          CFI (cfiCond197) V10 load(1, XDATA, add(CFA_XSP16, literal(-10)))
          CFI (cfiCond197) V11 load(1, XDATA, add(CFA_XSP16, literal(-9)))
          CFI (cfiCond197) V12 load(1, XDATA, add(CFA_XSP16, literal(-8)))
          CFI (cfiCond197) V13 load(1, XDATA, add(CFA_XSP16, literal(-7)))
          CFI (cfiCond197) R7 load(1, XDATA, add(CFA_XSP16, literal(-6)))
          CFI (cfiCond197) ?RET_LOW load(1, XDATA, add(CFA_XSP16, literal(-5)))
          CFI (cfiCond197) ?RET_HIGH load(1, XDATA, add(CFA_XSP16, literal(-4)))
          CFI (cfiCond197) ?BRET_EXT load(1, XDATA, add(CFA_XSP16, literal(-3)))
          CFI (cfiCond197) DPL0 load(1, XDATA, add(CFA_XSP16, literal(-2)))
          CFI (cfiCond197) DPH0 load(1, XDATA, add(CFA_XSP16, literal(-1)))
          CFI (cfiCond197) CFA_SP SP+-2
          CFI (cfiCond197) CFA_XSP16 add(XSP16, 22)
          CFI Block cfiPicker198 Using cfiCommon1
          CFI (cfiPicker198) NoFunction
          CFI (cfiPicker198) Picker
        LCALL     ?Subroutine45 & 0xFFFF
??CrossCallReturnLabel_85:
        MOVX      A,@DPTR
        MOV       DPL,?V2
        MOV       DPH,?V3
        LCALL     ?Subroutine40 & 0xFFFF
??CrossCallReturnLabel_76:
        LCALL     ??Subroutine51_0 & 0xFFFF
??CrossCallReturnLabel_107:
        MOVX      @DPTR,A
        RET
          CFI EndBlock cfiCond196
          CFI EndBlock cfiCond197
          CFI EndBlock cfiPicker198
//  832 
//  833 /**************************************************************************************************
//  834  * @fn          MT_AfDataRetrieve
//  835  *
//  836  * @brief   Process AF Data Retrieve command to incrementally read out a very large
//  837  *          incoming AF message.
//  838  *
//  839  * input parameters
//  840  *
//  841  * @param pBuf - pointer to the received buffer
//  842  *
//  843  * output parameters
//  844  *
//  845  * @param rtrn - AF-Status of the operation.
//  846  *
//  847  * @return      None.
//  848  **************************************************************************************************
//  849  */

        RSEG BANKED_CODE:HUGECODE:NOROOT(0)
//  850 static void MT_AfDataRetrieve(uint8 *pBuf)
MT_AfDataRetrieve:
          CFI Block cfiBlock199 Using cfiCommon0
          CFI Function MT_AfDataRetrieve
        CODE
//  851 {
        FUNCALL MT_AfDataRetrieve, osal_build_uint32
        LOCFRAME ISTACK, 0, STACK
        LOCFRAME PSTACK, 0, STACK
        LOCFRAME XSTACK, 19, STACK
        LOCFRAME IOVERLAY, 0, STATIC
        LOCFRAME DOVERLAY, 0, STATIC
        ARGFRAME ISTACK, 0, STACK
        ARGFRAME PSTACK, 0, STACK
        ARGFRAME XSTACK, 19, STACK
        ARGFRAME IOVERLAY, 0, STATIC
        ARGFRAME DOVERLAY, 0, STATIC
        FUNCALL MT_AfDataRetrieve, osal_build_uint16
        LOCFRAME ISTACK, 0, STACK
        LOCFRAME PSTACK, 0, STACK
        LOCFRAME XSTACK, 19, STACK
        LOCFRAME IOVERLAY, 0, STATIC
        LOCFRAME DOVERLAY, 0, STATIC
        ARGFRAME ISTACK, 0, STACK
        ARGFRAME PSTACK, 0, STACK
        ARGFRAME XSTACK, 19, STACK
        ARGFRAME IOVERLAY, 0, STATIC
        ARGFRAME DOVERLAY, 0, STATIC
        FUNCALL MT_AfDataRetrieve, osal_mem_free
        LOCFRAME ISTACK, 0, STACK
        LOCFRAME PSTACK, 0, STACK
        LOCFRAME XSTACK, 19, STACK
        LOCFRAME IOVERLAY, 0, STATIC
        LOCFRAME DOVERLAY, 0, STATIC
        ARGFRAME ISTACK, 0, STACK
        ARGFRAME PSTACK, 0, STACK
        ARGFRAME XSTACK, 19, STACK
        ARGFRAME IOVERLAY, 0, STATIC
        ARGFRAME DOVERLAY, 0, STATIC
        FUNCALL MT_AfDataRetrieve, MT_BuildAndSendZToolResponse
        LOCFRAME ISTACK, 0, STACK
        LOCFRAME PSTACK, 0, STACK
        LOCFRAME XSTACK, 19, STACK
        LOCFRAME IOVERLAY, 0, STATIC
        LOCFRAME DOVERLAY, 0, STATIC
        ARGFRAME ISTACK, 0, STACK
        ARGFRAME PSTACK, 0, STACK
        ARGFRAME XSTACK, 19, STACK
        ARGFRAME IOVERLAY, 0, STATIC
        ARGFRAME DOVERLAY, 0, STATIC
        FUNCALL MT_AfDataRetrieve, osal_mem_alloc
        LOCFRAME ISTACK, 0, STACK
        LOCFRAME PSTACK, 0, STACK
        LOCFRAME XSTACK, 19, STACK
        LOCFRAME IOVERLAY, 0, STATIC
        LOCFRAME DOVERLAY, 0, STATIC
        ARGFRAME ISTACK, 0, STACK
        ARGFRAME PSTACK, 0, STACK
        ARGFRAME XSTACK, 19, STACK
        ARGFRAME IOVERLAY, 0, STATIC
        ARGFRAME DOVERLAY, 0, STATIC
        FUNCALL MT_AfDataRetrieve, osal_memcpy
        LOCFRAME ISTACK, 0, STACK
        LOCFRAME PSTACK, 0, STACK
        LOCFRAME XSTACK, 22, STACK
        LOCFRAME IOVERLAY, 0, STATIC
        LOCFRAME DOVERLAY, 0, STATIC
        ARGFRAME ISTACK, 0, STACK
        ARGFRAME PSTACK, 0, STACK
        ARGFRAME XSTACK, 22, STACK
        ARGFRAME IOVERLAY, 0, STATIC
        ARGFRAME DOVERLAY, 0, STATIC
        FUNCALL MT_AfDataRetrieve, MT_BuildAndSendZToolResponse
        LOCFRAME ISTACK, 0, STACK
        LOCFRAME PSTACK, 0, STACK
        LOCFRAME XSTACK, 19, STACK
        LOCFRAME IOVERLAY, 0, STATIC
        LOCFRAME DOVERLAY, 0, STATIC
        ARGFRAME ISTACK, 0, STACK
        ARGFRAME PSTACK, 0, STACK
        ARGFRAME XSTACK, 19, STACK
        ARGFRAME IOVERLAY, 0, STATIC
        ARGFRAME DOVERLAY, 0, STATIC
        FUNCALL MT_AfDataRetrieve, osal_mem_free
        LOCFRAME ISTACK, 0, STACK
        LOCFRAME PSTACK, 0, STACK
        LOCFRAME XSTACK, 19, STACK
        LOCFRAME IOVERLAY, 0, STATIC
        LOCFRAME DOVERLAY, 0, STATIC
        ARGFRAME ISTACK, 0, STACK
        ARGFRAME PSTACK, 0, STACK
        ARGFRAME XSTACK, 19, STACK
        ARGFRAME IOVERLAY, 0, STATIC
        ARGFRAME DOVERLAY, 0, STATIC
        REQUIRE ?V0
        REQUIRE ?V1
        REQUIRE ?V2
        REQUIRE ?V3
        REQUIRE ?V4
        REQUIRE ?V5
        REQUIRE ?V6
        REQUIRE ?V7
        REQUIRE ?V8
        REQUIRE ?V9
        REQUIRE ?V10
        MOV       A,#-0x13
        LCALL     ?BANKED_ENTER_XDATA
          CFI DPH0 load(1, XDATA, add(CFA_XSP16, literal(-1)))
          CFI DPL0 load(1, XDATA, add(CFA_XSP16, literal(-2)))
          CFI ?BRET_EXT load(1, XDATA, add(CFA_XSP16, literal(-3)))
          CFI ?RET_HIGH load(1, XDATA, add(CFA_XSP16, literal(-4)))
          CFI ?RET_LOW load(1, XDATA, add(CFA_XSP16, literal(-5)))
          CFI R7 load(1, XDATA, add(CFA_XSP16, literal(-6)))
          CFI V10 load(1, XDATA, add(CFA_XSP16, literal(-7)))
          CFI V9 load(1, XDATA, add(CFA_XSP16, literal(-8)))
          CFI V8 load(1, XDATA, add(CFA_XSP16, literal(-9)))
          CFI V7 load(1, XDATA, add(CFA_XSP16, literal(-10)))
          CFI V6 load(1, XDATA, add(CFA_XSP16, literal(-11)))
          CFI V5 load(1, XDATA, add(CFA_XSP16, literal(-12)))
          CFI V4 load(1, XDATA, add(CFA_XSP16, literal(-13)))
          CFI V3 load(1, XDATA, add(CFA_XSP16, literal(-14)))
          CFI V2 load(1, XDATA, add(CFA_XSP16, literal(-15)))
          CFI V1 load(1, XDATA, add(CFA_XSP16, literal(-16)))
          CFI V0 load(1, XDATA, add(CFA_XSP16, literal(-17)))
          CFI VB load(1, XDATA, add(CFA_XSP16, literal(-18)))
          CFI R6 load(1, XDATA, add(CFA_XSP16, literal(-19)))
          CFI CFA_SP SP+0
          CFI CFA_XSP16 add(XSP16, 19)
        ; Saved register size: 19
        ; Auto size: 0
        MOV       A,R2
        MOV       R6,A
        MOV       A,R3
        MOV       R7,A
//  852   #define MT_AF_RTV_HDR_SZ  2
//  853 
//  854   uint32 timestamp;
//  855   mtAfInMsgList_t *pPrev, *pItem = pMtAfInMsgList;
        MOV       DPTR,#pMtAfInMsgList
        MOVX      A,@DPTR
        MOV       ?V2,A
        INC       DPTR
        MOVX      A,@DPTR
        MOV       ?V3,A
//  856   uint8 rtrn = afStatus_FAILED;
        MOV       ?V1,#0x1
//  857   uint8 len = 0;
        MOV       ?V0,#0x0
//  858 
//  859   pBuf += MT_RPC_FRAME_HDR_SZ;
        MOV       A,R6
        ADD       A,#0x3
        MOV       R6,A
        JNC       ??MT_AfDataRetrieve_0
        INC       R7
//  860   timestamp = osal_build_uint32( pBuf, 4 );
??MT_AfDataRetrieve_0:
        ; Setup parameters for call to function osal_build_uint32
        MOV       R1,#0x4
        MOV       R2,A
        MOV       A,R7
        MOV       R3,A
        LCALL     `??osal_build_uint32::?relay`; Banked call to: osal_build_uint32
        MOV       ?V4,R2
        MOV       ?V5,R3
        MOV       ?V6,R4
        MOV       ?V7,R5
        SJMP      ??MT_AfDataRetrieve_1
//  861 
//  862   while (pItem != NULL)
//  863   {
//  864     pPrev = pItem;
//  865     if (pItem->timestamp == timestamp)
//  866     {
//  867       break;
//  868     }
//  869     pItem = pItem->next;
??MT_AfDataRetrieve_2:
        MOV       DPL,?V2
        MOV       DPH,?V3
        MOVX      A,@DPTR
        MOV       ?V2,A
        INC       DPTR
        MOVX      A,@DPTR
        MOV       ?V3,A
??MT_AfDataRetrieve_1:
        MOV       A,?V2
        ORL       A,?V3
        JZ        ??MT_AfDataRetrieve_3
        MOV       ?V8,?V2
        MOV       ?V9,?V3
        MOV       DPL,?V2
        MOV       DPH,?V3
        INC       DPTR
        INC       DPTR
        INC       DPTR
        INC       DPTR
        MOV       R0,#?V4
        LCALL     ?L_EQ_X
        JNZ       ??MT_AfDataRetrieve_2
//  870   }
//  871 
//  872   if (pItem != NULL)
//  873   {
//  874     uint16 idx;
//  875     uint8 *pRsp;
//  876 
//  877     pBuf += 4;
        MOV       A,R6
        ADD       A,#0x4
        MOV       R6,A
        JNC       ??MT_AfDataRetrieve_4
        INC       R7
//  878     idx = osal_build_uint16( pBuf );
??MT_AfDataRetrieve_4:
        ; Setup parameters for call to function osal_build_uint16
        MOV       R2,A
        MOV       A,R7
        MOV       R3,A
        LCALL     `??osal_build_uint16::?relay`; Banked call to: osal_build_uint16
        MOV       ?V6,R2
        MOV       ?V7,R3
//  879     len = pBuf[2];
        MOV       DPL,R6
        MOV       DPH,R7
        INC       DPTR
        INC       DPTR
        MOVX      A,@DPTR
        MOV       ?V0,A
//  880 
//  881     if (len == 0)  // Indication to delete the afIncomingMSGPacket.
        JNZ       ??MT_AfDataRetrieve_5
//  882     {
//  883       if (pMtAfInMsgList == pItem)
        LCALL     ?Subroutine23 & 0xFFFF
??CrossCallReturnLabel_124:
        MOV       A,?V2
        XRL       A,R0
        JNZ       ??MT_AfDataRetrieve_6
        MOV       A,?V3
        XRL       A,R1
??MT_AfDataRetrieve_6:
        MOV       DPL,?V2
        MOV       DPH,?V3
        JNZ       ??MT_AfDataRetrieve_7
//  884       {
//  885         pMtAfInMsgList = pItem->next;
        LCALL     ?Subroutine22 & 0xFFFF
//  886       }
??CrossCallReturnLabel_36:
        SJMP      ??MT_AfDataRetrieve_8
//  887       else
//  888       {
//  889         pPrev->next = pItem->next;
??MT_AfDataRetrieve_7:
        LCALL     ??Subroutine54_0 & 0xFFFF
//  890       }
??CrossCallReturnLabel_121:
        MOV       DPL,?V8
        MOV       DPH,?V9
??MT_AfDataRetrieve_8:
        MOV       A,R0
        MOVX      @DPTR,A
        INC       DPTR
        MOV       A,R1
        MOVX      @DPTR,A
//  891       (void)osal_mem_free(pItem);
        ; Setup parameters for call to function osal_mem_free
        MOV       R2,?V2
        MOV       R3,?V3
        LCALL     `??osal_mem_free::?relay`; Banked call to: osal_mem_free
//  892       rtrn = afStatus_SUCCESS;
        MOV       ?V1,#0x0
//  893     }
//  894     else if ((pRsp = osal_mem_alloc(len + MT_AF_RTV_HDR_SZ)) == NULL)
//  895     {
//  896       rtrn = afStatus_MEM_FAIL;
//  897       len = 0;
//  898     }
//  899     else
//  900     {
//  901       pRsp[0] = ZSuccess;
//  902       pRsp[1] = len;
//  903       (void)osal_memcpy(pRsp + MT_AF_RTV_HDR_SZ, pItem->data+idx, len);
//  904       MT_BuildAndSendZToolResponse(((uint8)MT_RPC_CMD_SRSP | (uint8)MT_RPC_SYS_AF),
//  905                                            MT_AF_DATA_RETRIEVE, len + MT_AF_RTV_HDR_SZ, pRsp);
//  906       (void)osal_mem_free(pRsp);
//  907       return;
//  908     }
//  909   }
//  910 
//  911   pBuf[0] = rtrn;
??MT_AfDataRetrieve_3:
        MOV       DPL,R6
        MOV       DPH,R7
        MOV       A,?V1
        MOVX      @DPTR,A
//  912   pBuf[1] = len;
        INC       DPTR
        MOV       A,?V0
        MOVX      @DPTR,A
//  913   MT_BuildAndSendZToolResponse(((uint8)MT_RPC_CMD_SRSP | (uint8)MT_RPC_SYS_AF),
//  914                                        MT_AF_DATA_RETRIEVE, MT_AF_RTV_HDR_SZ, pBuf);
        ; Setup parameters for call to function MT_BuildAndSendZToolResponse
        MOV       A,R6
        MOV       R4,A
        MOV       A,R7
        MOV       R5,A
        MOV       R3,#0x2
        MOV       R2,#0x12
        MOV       R1,#0x64
        LCALL     `??MT_BuildAndSendZToolResponse::?relay`; Banked call to: MT_BuildAndSendZToolResponse
//  915 }
??MT_AfDataRetrieve_9:
        MOV       R7,#0xb
        LJMP      ?BANKED_LEAVE_XDATA
??MT_AfDataRetrieve_5:
        ; Setup parameters for call to function osal_mem_alloc
        ADD       A,#0x2
        MOV       R2,A
        CLR       A
        ADDC      A,#0x0
        MOV       R3,A
        LCALL     `??osal_mem_alloc::?relay`; Banked call to: osal_mem_alloc
        MOV       ?V4,R2
        MOV       ?V5,R3
        MOV       A,R2
        ORL       A,?V5
        JNZ       ??MT_AfDataRetrieve_10
        MOV       ?V1,#0x10
        MOV       ?V0,#0x0
        SJMP      ??MT_AfDataRetrieve_3
??MT_AfDataRetrieve_10:
        MOV       DPL,R2
        MOV       DPH,R3
        CLR       A
        MOVX      @DPTR,A
        INC       DPTR
        MOV       A,?V0
        LCALL     ?Subroutine41 & 0xFFFF
??CrossCallReturnLabel_78:
        MOVX      A,@DPTR
        ADD       A,?V6
        MOV       ?V8,A
        INC       DPTR
        MOVX      A,@DPTR
        ADDC      A,?V7
        MOV       ?V9,A
        MOV       ?V10,#0x0
        MOV       R0,#?V8
        LCALL     ?PUSH_XSTACK_I_THREE
          CFI CFA_XSP16 add(XSP16, 22)
        MOV       R4,?V0
        MOV       R5,#0x0
        MOV       A,R2
        ADD       A,#0x2
        MOV       R2,A
        CLR       A
        ADDC      A,?V5
        MOV       R3,A
        LCALL     `??osal_memcpy::?relay`; Banked call to: osal_memcpy
        MOV       A,#0x3
        LCALL     ?DEALLOC_XSTACK8
          CFI CFA_XSP16 add(XSP16, 19)
        ; Setup parameters for call to function MT_BuildAndSendZToolResponse
        MOV       R4,?V4
        MOV       R5,?V5
        MOV       A,#0x2
        ADD       A,?V0
        MOV       R3,A
        MOV       R2,#0x12
        MOV       R1,#0x64
        LCALL     `??MT_BuildAndSendZToolResponse::?relay`; Banked call to: MT_BuildAndSendZToolResponse
        ; Setup parameters for call to function osal_mem_free
        MOV       R2,?V4
        MOV       R3,?V5
        LCALL     `??osal_mem_free::?relay`; Banked call to: osal_mem_free
        SJMP      ??MT_AfDataRetrieve_9
          CFI EndBlock cfiBlock199

        RSEG BANKED_CODE:HUGECODE:NOROOT(0)
?Subroutine41:
          CFI Block cfiCond200 Using cfiCommon0
          CFI Function MT_AfIncomingMsg
          CFI Conditional ??CrossCallReturnLabel_77, ??CrossCallReturnLabel_39
          CFI R6 load(1, XDATA, add(CFA_XSP16, literal(-22)))
          CFI VB load(1, XDATA, add(CFA_XSP16, literal(-21)))
          CFI V0 load(1, XDATA, add(CFA_XSP16, literal(-20)))
          CFI V1 load(1, XDATA, add(CFA_XSP16, literal(-19)))
          CFI V2 load(1, XDATA, add(CFA_XSP16, literal(-18)))
          CFI V3 load(1, XDATA, add(CFA_XSP16, literal(-17)))
          CFI V4 load(1, XDATA, add(CFA_XSP16, literal(-16)))
          CFI V5 load(1, XDATA, add(CFA_XSP16, literal(-15)))
          CFI V6 load(1, XDATA, add(CFA_XSP16, literal(-14)))
          CFI V7 load(1, XDATA, add(CFA_XSP16, literal(-13)))
          CFI V8 load(1, XDATA, add(CFA_XSP16, literal(-12)))
          CFI V9 load(1, XDATA, add(CFA_XSP16, literal(-11)))
          CFI V10 load(1, XDATA, add(CFA_XSP16, literal(-10)))
          CFI V11 load(1, XDATA, add(CFA_XSP16, literal(-9)))
          CFI V12 load(1, XDATA, add(CFA_XSP16, literal(-8)))
          CFI V13 load(1, XDATA, add(CFA_XSP16, literal(-7)))
          CFI R7 load(1, XDATA, add(CFA_XSP16, literal(-6)))
          CFI ?RET_LOW load(1, XDATA, add(CFA_XSP16, literal(-5)))
          CFI ?RET_HIGH load(1, XDATA, add(CFA_XSP16, literal(-4)))
          CFI ?BRET_EXT load(1, XDATA, add(CFA_XSP16, literal(-3)))
          CFI DPL0 load(1, XDATA, add(CFA_XSP16, literal(-2)))
          CFI DPH0 load(1, XDATA, add(CFA_XSP16, literal(-1)))
          CFI CFA_SP SP+-4
          CFI CFA_XSP16 add(XSP16, 22)
          CFI Block cfiCond201 Using cfiCommon0
          CFI (cfiCond201) Function MT_AfIncomingMsg
          CFI (cfiCond201) Conditional ??CrossCallReturnLabel_77, ??CrossCallReturnLabel_40
          CFI (cfiCond201) R6 load(1, XDATA, add(CFA_XSP16, literal(-22)))
          CFI (cfiCond201) VB load(1, XDATA, add(CFA_XSP16, literal(-21)))
          CFI (cfiCond201) V0 load(1, XDATA, add(CFA_XSP16, literal(-20)))
          CFI (cfiCond201) V1 load(1, XDATA, add(CFA_XSP16, literal(-19)))
          CFI (cfiCond201) V2 load(1, XDATA, add(CFA_XSP16, literal(-18)))
          CFI (cfiCond201) V3 load(1, XDATA, add(CFA_XSP16, literal(-17)))
          CFI (cfiCond201) V4 load(1, XDATA, add(CFA_XSP16, literal(-16)))
          CFI (cfiCond201) V5 load(1, XDATA, add(CFA_XSP16, literal(-15)))
          CFI (cfiCond201) V6 load(1, XDATA, add(CFA_XSP16, literal(-14)))
          CFI (cfiCond201) V7 load(1, XDATA, add(CFA_XSP16, literal(-13)))
          CFI (cfiCond201) V8 load(1, XDATA, add(CFA_XSP16, literal(-12)))
          CFI (cfiCond201) V9 load(1, XDATA, add(CFA_XSP16, literal(-11)))
          CFI (cfiCond201) V10 load(1, XDATA, add(CFA_XSP16, literal(-10)))
          CFI (cfiCond201) V11 load(1, XDATA, add(CFA_XSP16, literal(-9)))
          CFI (cfiCond201) V12 load(1, XDATA, add(CFA_XSP16, literal(-8)))
          CFI (cfiCond201) V13 load(1, XDATA, add(CFA_XSP16, literal(-7)))
          CFI (cfiCond201) R7 load(1, XDATA, add(CFA_XSP16, literal(-6)))
          CFI (cfiCond201) ?RET_LOW load(1, XDATA, add(CFA_XSP16, literal(-5)))
          CFI (cfiCond201) ?RET_HIGH load(1, XDATA, add(CFA_XSP16, literal(-4)))
          CFI (cfiCond201) ?BRET_EXT load(1, XDATA, add(CFA_XSP16, literal(-3)))
          CFI (cfiCond201) DPL0 load(1, XDATA, add(CFA_XSP16, literal(-2)))
          CFI (cfiCond201) DPH0 load(1, XDATA, add(CFA_XSP16, literal(-1)))
          CFI (cfiCond201) CFA_SP SP+-4
          CFI (cfiCond201) CFA_XSP16 add(XSP16, 22)
          CFI Block cfiCond202 Using cfiCommon0
          CFI (cfiCond202) Function MT_AfDataRetrieve
          CFI (cfiCond202) Conditional ??CrossCallReturnLabel_78
          CFI (cfiCond202) R6 load(1, XDATA, add(CFA_XSP16, literal(-19)))
          CFI (cfiCond202) VB load(1, XDATA, add(CFA_XSP16, literal(-18)))
          CFI (cfiCond202) V0 load(1, XDATA, add(CFA_XSP16, literal(-17)))
          CFI (cfiCond202) V1 load(1, XDATA, add(CFA_XSP16, literal(-16)))
          CFI (cfiCond202) V2 load(1, XDATA, add(CFA_XSP16, literal(-15)))
          CFI (cfiCond202) V3 load(1, XDATA, add(CFA_XSP16, literal(-14)))
          CFI (cfiCond202) V4 load(1, XDATA, add(CFA_XSP16, literal(-13)))
          CFI (cfiCond202) V5 load(1, XDATA, add(CFA_XSP16, literal(-12)))
          CFI (cfiCond202) V6 load(1, XDATA, add(CFA_XSP16, literal(-11)))
          CFI (cfiCond202) V7 load(1, XDATA, add(CFA_XSP16, literal(-10)))
          CFI (cfiCond202) V8 load(1, XDATA, add(CFA_XSP16, literal(-9)))
          CFI (cfiCond202) V9 load(1, XDATA, add(CFA_XSP16, literal(-8)))
          CFI (cfiCond202) V10 load(1, XDATA, add(CFA_XSP16, literal(-7)))
          CFI (cfiCond202) R7 load(1, XDATA, add(CFA_XSP16, literal(-6)))
          CFI (cfiCond202) ?RET_LOW load(1, XDATA, add(CFA_XSP16, literal(-5)))
          CFI (cfiCond202) ?RET_HIGH load(1, XDATA, add(CFA_XSP16, literal(-4)))
          CFI (cfiCond202) ?BRET_EXT load(1, XDATA, add(CFA_XSP16, literal(-3)))
          CFI (cfiCond202) DPL0 load(1, XDATA, add(CFA_XSP16, literal(-2)))
          CFI (cfiCond202) DPH0 load(1, XDATA, add(CFA_XSP16, literal(-1)))
          CFI (cfiCond202) CFA_SP SP+-2
          CFI (cfiCond202) CFA_XSP16 add(XSP16, 19)
          CFI Block cfiPicker203 Using cfiCommon1
          CFI (cfiPicker203) NoFunction
          CFI (cfiPicker203) Picker
        MOVX      @DPTR,A
        ; Setup parameters for call to function osal_memcpy
        MOV       DPL,?V2
        MOV       DPH,?V3
        INC       DPTR
        INC       DPTR
        RET
          CFI EndBlock cfiCond200
          CFI EndBlock cfiCond201
          CFI EndBlock cfiCond202
          CFI EndBlock cfiPicker203

        RSEG BANKED_CODE:HUGECODE:NOROOT(0)
?Subroutine23:
          CFI Block cfiCond204 Using cfiCommon0
          CFI Function MT_AfExec
          CFI Conditional ??CrossCallReturnLabel_122
          CFI R6 load(1, XDATA, add(CFA_XSP16, literal(-9)))
          CFI VB load(1, XDATA, add(CFA_XSP16, literal(-8)))
          CFI V0 load(1, XDATA, add(CFA_XSP16, literal(-7)))
          CFI R7 load(1, XDATA, add(CFA_XSP16, literal(-6)))
          CFI ?RET_LOW load(1, XDATA, add(CFA_XSP16, literal(-5)))
          CFI ?RET_HIGH load(1, XDATA, add(CFA_XSP16, literal(-4)))
          CFI ?BRET_EXT load(1, XDATA, add(CFA_XSP16, literal(-3)))
          CFI DPL0 load(1, XDATA, add(CFA_XSP16, literal(-2)))
          CFI DPH0 load(1, XDATA, add(CFA_XSP16, literal(-1)))
          CFI CFA_SP SP+-2
          CFI CFA_XSP16 add(XSP16, 9)
          CFI Block cfiCond205 Using cfiCommon0
          CFI (cfiCond205) Function MT_AfIncomingMsg
          CFI (cfiCond205) Conditional ??CrossCallReturnLabel_123
          CFI (cfiCond205) R6 load(1, XDATA, add(CFA_XSP16, literal(-22)))
          CFI (cfiCond205) VB load(1, XDATA, add(CFA_XSP16, literal(-21)))
          CFI (cfiCond205) V0 load(1, XDATA, add(CFA_XSP16, literal(-20)))
          CFI (cfiCond205) V1 load(1, XDATA, add(CFA_XSP16, literal(-19)))
          CFI (cfiCond205) V2 load(1, XDATA, add(CFA_XSP16, literal(-18)))
          CFI (cfiCond205) V3 load(1, XDATA, add(CFA_XSP16, literal(-17)))
          CFI (cfiCond205) V4 load(1, XDATA, add(CFA_XSP16, literal(-16)))
          CFI (cfiCond205) V5 load(1, XDATA, add(CFA_XSP16, literal(-15)))
          CFI (cfiCond205) V6 load(1, XDATA, add(CFA_XSP16, literal(-14)))
          CFI (cfiCond205) V7 load(1, XDATA, add(CFA_XSP16, literal(-13)))
          CFI (cfiCond205) V8 load(1, XDATA, add(CFA_XSP16, literal(-12)))
          CFI (cfiCond205) V9 load(1, XDATA, add(CFA_XSP16, literal(-11)))
          CFI (cfiCond205) V10 load(1, XDATA, add(CFA_XSP16, literal(-10)))
          CFI (cfiCond205) V11 load(1, XDATA, add(CFA_XSP16, literal(-9)))
          CFI (cfiCond205) V12 load(1, XDATA, add(CFA_XSP16, literal(-8)))
          CFI (cfiCond205) V13 load(1, XDATA, add(CFA_XSP16, literal(-7)))
          CFI (cfiCond205) R7 load(1, XDATA, add(CFA_XSP16, literal(-6)))
          CFI (cfiCond205) ?RET_LOW load(1, XDATA, add(CFA_XSP16, literal(-5)))
          CFI (cfiCond205) ?RET_HIGH load(1, XDATA, add(CFA_XSP16, literal(-4)))
          CFI (cfiCond205) ?BRET_EXT load(1, XDATA, add(CFA_XSP16, literal(-3)))
          CFI (cfiCond205) DPL0 load(1, XDATA, add(CFA_XSP16, literal(-2)))
          CFI (cfiCond205) DPH0 load(1, XDATA, add(CFA_XSP16, literal(-1)))
          CFI (cfiCond205) CFA_SP SP+-2
          CFI (cfiCond205) CFA_XSP16 add(XSP16, 22)
          CFI Block cfiCond206 Using cfiCommon0
          CFI (cfiCond206) Function MT_AfDataRetrieve
          CFI (cfiCond206) Conditional ??CrossCallReturnLabel_124
          CFI (cfiCond206) R6 load(1, XDATA, add(CFA_XSP16, literal(-19)))
          CFI (cfiCond206) VB load(1, XDATA, add(CFA_XSP16, literal(-18)))
          CFI (cfiCond206) V0 load(1, XDATA, add(CFA_XSP16, literal(-17)))
          CFI (cfiCond206) V1 load(1, XDATA, add(CFA_XSP16, literal(-16)))
          CFI (cfiCond206) V2 load(1, XDATA, add(CFA_XSP16, literal(-15)))
          CFI (cfiCond206) V3 load(1, XDATA, add(CFA_XSP16, literal(-14)))
          CFI (cfiCond206) V4 load(1, XDATA, add(CFA_XSP16, literal(-13)))
          CFI (cfiCond206) V5 load(1, XDATA, add(CFA_XSP16, literal(-12)))
          CFI (cfiCond206) V6 load(1, XDATA, add(CFA_XSP16, literal(-11)))
          CFI (cfiCond206) V7 load(1, XDATA, add(CFA_XSP16, literal(-10)))
          CFI (cfiCond206) V8 load(1, XDATA, add(CFA_XSP16, literal(-9)))
          CFI (cfiCond206) V9 load(1, XDATA, add(CFA_XSP16, literal(-8)))
          CFI (cfiCond206) V10 load(1, XDATA, add(CFA_XSP16, literal(-7)))
          CFI (cfiCond206) R7 load(1, XDATA, add(CFA_XSP16, literal(-6)))
          CFI (cfiCond206) ?RET_LOW load(1, XDATA, add(CFA_XSP16, literal(-5)))
          CFI (cfiCond206) ?RET_HIGH load(1, XDATA, add(CFA_XSP16, literal(-4)))
          CFI (cfiCond206) ?BRET_EXT load(1, XDATA, add(CFA_XSP16, literal(-3)))
          CFI (cfiCond206) DPL0 load(1, XDATA, add(CFA_XSP16, literal(-2)))
          CFI (cfiCond206) DPH0 load(1, XDATA, add(CFA_XSP16, literal(-1)))
          CFI (cfiCond206) CFA_SP SP+-2
          CFI (cfiCond206) CFA_XSP16 add(XSP16, 19)
          CFI Block cfiPicker207 Using cfiCommon1
          CFI (cfiPicker207) NoFunction
          CFI (cfiPicker207) Picker
        MOV       DPTR,#pMtAfInMsgList
          CFI EndBlock cfiCond204
          CFI EndBlock cfiCond205
          CFI EndBlock cfiCond206
          CFI EndBlock cfiPicker207
        REQUIRE ??Subroutine54_0
        ; // Fall through to label ??Subroutine54_0

        RSEG BANKED_CODE:HUGECODE:NOROOT(0)
??Subroutine54_0:
          CFI Block cfiCond208 Using cfiCommon0
          CFI Function MT_AfExec
          CFI Conditional ??CrossCallReturnLabel_120
          CFI R6 load(1, XDATA, add(CFA_XSP16, literal(-9)))
          CFI VB load(1, XDATA, add(CFA_XSP16, literal(-8)))
          CFI V0 load(1, XDATA, add(CFA_XSP16, literal(-7)))
          CFI R7 load(1, XDATA, add(CFA_XSP16, literal(-6)))
          CFI ?RET_LOW load(1, XDATA, add(CFA_XSP16, literal(-5)))
          CFI ?RET_HIGH load(1, XDATA, add(CFA_XSP16, literal(-4)))
          CFI ?BRET_EXT load(1, XDATA, add(CFA_XSP16, literal(-3)))
          CFI DPL0 load(1, XDATA, add(CFA_XSP16, literal(-2)))
          CFI DPH0 load(1, XDATA, add(CFA_XSP16, literal(-1)))
          CFI CFA_SP SP+-2
          CFI CFA_XSP16 add(XSP16, 9)
          CFI Block cfiCond209 Using cfiCommon0
          CFI (cfiCond209) Function MT_AfDataRetrieve
          CFI (cfiCond209) Conditional ??CrossCallReturnLabel_121
          CFI (cfiCond209) R6 load(1, XDATA, add(CFA_XSP16, literal(-19)))
          CFI (cfiCond209) VB load(1, XDATA, add(CFA_XSP16, literal(-18)))
          CFI (cfiCond209) V0 load(1, XDATA, add(CFA_XSP16, literal(-17)))
          CFI (cfiCond209) V1 load(1, XDATA, add(CFA_XSP16, literal(-16)))
          CFI (cfiCond209) V2 load(1, XDATA, add(CFA_XSP16, literal(-15)))
          CFI (cfiCond209) V3 load(1, XDATA, add(CFA_XSP16, literal(-14)))
          CFI (cfiCond209) V4 load(1, XDATA, add(CFA_XSP16, literal(-13)))
          CFI (cfiCond209) V5 load(1, XDATA, add(CFA_XSP16, literal(-12)))
          CFI (cfiCond209) V6 load(1, XDATA, add(CFA_XSP16, literal(-11)))
          CFI (cfiCond209) V7 load(1, XDATA, add(CFA_XSP16, literal(-10)))
          CFI (cfiCond209) V8 load(1, XDATA, add(CFA_XSP16, literal(-9)))
          CFI (cfiCond209) V9 load(1, XDATA, add(CFA_XSP16, literal(-8)))
          CFI (cfiCond209) V10 load(1, XDATA, add(CFA_XSP16, literal(-7)))
          CFI (cfiCond209) R7 load(1, XDATA, add(CFA_XSP16, literal(-6)))
          CFI (cfiCond209) ?RET_LOW load(1, XDATA, add(CFA_XSP16, literal(-5)))
          CFI (cfiCond209) ?RET_HIGH load(1, XDATA, add(CFA_XSP16, literal(-4)))
          CFI (cfiCond209) ?BRET_EXT load(1, XDATA, add(CFA_XSP16, literal(-3)))
          CFI (cfiCond209) DPL0 load(1, XDATA, add(CFA_XSP16, literal(-2)))
          CFI (cfiCond209) DPH0 load(1, XDATA, add(CFA_XSP16, literal(-1)))
          CFI (cfiCond209) CFA_SP SP+-2
          CFI (cfiCond209) CFA_XSP16 add(XSP16, 19)
          CFI Block cfiCond210 Using cfiCommon0
          CFI (cfiCond210) Function MT_AfExec
          CFI (cfiCond210) Conditional ??CrossCallReturnLabel_122
          CFI (cfiCond210) R6 load(1, XDATA, add(CFA_XSP16, literal(-9)))
          CFI (cfiCond210) VB load(1, XDATA, add(CFA_XSP16, literal(-8)))
          CFI (cfiCond210) V0 load(1, XDATA, add(CFA_XSP16, literal(-7)))
          CFI (cfiCond210) R7 load(1, XDATA, add(CFA_XSP16, literal(-6)))
          CFI (cfiCond210) ?RET_LOW load(1, XDATA, add(CFA_XSP16, literal(-5)))
          CFI (cfiCond210) ?RET_HIGH load(1, XDATA, add(CFA_XSP16, literal(-4)))
          CFI (cfiCond210) ?BRET_EXT load(1, XDATA, add(CFA_XSP16, literal(-3)))
          CFI (cfiCond210) DPL0 load(1, XDATA, add(CFA_XSP16, literal(-2)))
          CFI (cfiCond210) DPH0 load(1, XDATA, add(CFA_XSP16, literal(-1)))
          CFI (cfiCond210) CFA_SP SP+-2
          CFI (cfiCond210) CFA_XSP16 add(XSP16, 9)
          CFI Block cfiCond211 Using cfiCommon0
          CFI (cfiCond211) Function MT_AfIncomingMsg
          CFI (cfiCond211) Conditional ??CrossCallReturnLabel_123
          CFI (cfiCond211) R6 load(1, XDATA, add(CFA_XSP16, literal(-22)))
          CFI (cfiCond211) VB load(1, XDATA, add(CFA_XSP16, literal(-21)))
          CFI (cfiCond211) V0 load(1, XDATA, add(CFA_XSP16, literal(-20)))
          CFI (cfiCond211) V1 load(1, XDATA, add(CFA_XSP16, literal(-19)))
          CFI (cfiCond211) V2 load(1, XDATA, add(CFA_XSP16, literal(-18)))
          CFI (cfiCond211) V3 load(1, XDATA, add(CFA_XSP16, literal(-17)))
          CFI (cfiCond211) V4 load(1, XDATA, add(CFA_XSP16, literal(-16)))
          CFI (cfiCond211) V5 load(1, XDATA, add(CFA_XSP16, literal(-15)))
          CFI (cfiCond211) V6 load(1, XDATA, add(CFA_XSP16, literal(-14)))
          CFI (cfiCond211) V7 load(1, XDATA, add(CFA_XSP16, literal(-13)))
          CFI (cfiCond211) V8 load(1, XDATA, add(CFA_XSP16, literal(-12)))
          CFI (cfiCond211) V9 load(1, XDATA, add(CFA_XSP16, literal(-11)))
          CFI (cfiCond211) V10 load(1, XDATA, add(CFA_XSP16, literal(-10)))
          CFI (cfiCond211) V11 load(1, XDATA, add(CFA_XSP16, literal(-9)))
          CFI (cfiCond211) V12 load(1, XDATA, add(CFA_XSP16, literal(-8)))
          CFI (cfiCond211) V13 load(1, XDATA, add(CFA_XSP16, literal(-7)))
          CFI (cfiCond211) R7 load(1, XDATA, add(CFA_XSP16, literal(-6)))
          CFI (cfiCond211) ?RET_LOW load(1, XDATA, add(CFA_XSP16, literal(-5)))
          CFI (cfiCond211) ?RET_HIGH load(1, XDATA, add(CFA_XSP16, literal(-4)))
          CFI (cfiCond211) ?BRET_EXT load(1, XDATA, add(CFA_XSP16, literal(-3)))
          CFI (cfiCond211) DPL0 load(1, XDATA, add(CFA_XSP16, literal(-2)))
          CFI (cfiCond211) DPH0 load(1, XDATA, add(CFA_XSP16, literal(-1)))
          CFI (cfiCond211) CFA_SP SP+-2
          CFI (cfiCond211) CFA_XSP16 add(XSP16, 22)
          CFI Block cfiCond212 Using cfiCommon0
          CFI (cfiCond212) Function MT_AfDataRetrieve
          CFI (cfiCond212) Conditional ??CrossCallReturnLabel_124
          CFI (cfiCond212) R6 load(1, XDATA, add(CFA_XSP16, literal(-19)))
          CFI (cfiCond212) VB load(1, XDATA, add(CFA_XSP16, literal(-18)))
          CFI (cfiCond212) V0 load(1, XDATA, add(CFA_XSP16, literal(-17)))
          CFI (cfiCond212) V1 load(1, XDATA, add(CFA_XSP16, literal(-16)))
          CFI (cfiCond212) V2 load(1, XDATA, add(CFA_XSP16, literal(-15)))
          CFI (cfiCond212) V3 load(1, XDATA, add(CFA_XSP16, literal(-14)))
          CFI (cfiCond212) V4 load(1, XDATA, add(CFA_XSP16, literal(-13)))
          CFI (cfiCond212) V5 load(1, XDATA, add(CFA_XSP16, literal(-12)))
          CFI (cfiCond212) V6 load(1, XDATA, add(CFA_XSP16, literal(-11)))
          CFI (cfiCond212) V7 load(1, XDATA, add(CFA_XSP16, literal(-10)))
          CFI (cfiCond212) V8 load(1, XDATA, add(CFA_XSP16, literal(-9)))
          CFI (cfiCond212) V9 load(1, XDATA, add(CFA_XSP16, literal(-8)))
          CFI (cfiCond212) V10 load(1, XDATA, add(CFA_XSP16, literal(-7)))
          CFI (cfiCond212) R7 load(1, XDATA, add(CFA_XSP16, literal(-6)))
          CFI (cfiCond212) ?RET_LOW load(1, XDATA, add(CFA_XSP16, literal(-5)))
          CFI (cfiCond212) ?RET_HIGH load(1, XDATA, add(CFA_XSP16, literal(-4)))
          CFI (cfiCond212) ?BRET_EXT load(1, XDATA, add(CFA_XSP16, literal(-3)))
          CFI (cfiCond212) DPL0 load(1, XDATA, add(CFA_XSP16, literal(-2)))
          CFI (cfiCond212) DPH0 load(1, XDATA, add(CFA_XSP16, literal(-1)))
          CFI (cfiCond212) CFA_SP SP+-2
          CFI (cfiCond212) CFA_XSP16 add(XSP16, 19)
          CFI Block cfiPicker213 Using cfiCommon1
          CFI (cfiPicker213) NoFunction
          CFI (cfiPicker213) Picker
        MOVX      A,@DPTR
        MOV       R0,A
        INC       DPTR
        MOVX      A,@DPTR
        MOV       R1,A
        RET
          CFI EndBlock cfiCond208
          CFI EndBlock cfiCond209
          CFI EndBlock cfiCond210
          CFI EndBlock cfiCond211
          CFI EndBlock cfiCond212
          CFI EndBlock cfiPicker213

        RSEG BANKED_CODE:HUGECODE:NOROOT(0)
?Subroutine22:
          CFI Block cfiCond214 Using cfiCommon0
          CFI Function MT_AfExec
          CFI Conditional ??CrossCallReturnLabel_35
          CFI R6 load(1, XDATA, add(CFA_XSP16, literal(-9)))
          CFI VB load(1, XDATA, add(CFA_XSP16, literal(-8)))
          CFI V0 load(1, XDATA, add(CFA_XSP16, literal(-7)))
          CFI R7 load(1, XDATA, add(CFA_XSP16, literal(-6)))
          CFI ?RET_LOW load(1, XDATA, add(CFA_XSP16, literal(-5)))
          CFI ?RET_HIGH load(1, XDATA, add(CFA_XSP16, literal(-4)))
          CFI ?BRET_EXT load(1, XDATA, add(CFA_XSP16, literal(-3)))
          CFI DPL0 load(1, XDATA, add(CFA_XSP16, literal(-2)))
          CFI DPH0 load(1, XDATA, add(CFA_XSP16, literal(-1)))
          CFI CFA_SP SP+-2
          CFI CFA_XSP16 add(XSP16, 9)
          CFI Block cfiCond215 Using cfiCommon0
          CFI (cfiCond215) Function MT_AfDataRetrieve
          CFI (cfiCond215) Conditional ??CrossCallReturnLabel_36
          CFI (cfiCond215) R6 load(1, XDATA, add(CFA_XSP16, literal(-19)))
          CFI (cfiCond215) VB load(1, XDATA, add(CFA_XSP16, literal(-18)))
          CFI (cfiCond215) V0 load(1, XDATA, add(CFA_XSP16, literal(-17)))
          CFI (cfiCond215) V1 load(1, XDATA, add(CFA_XSP16, literal(-16)))
          CFI (cfiCond215) V2 load(1, XDATA, add(CFA_XSP16, literal(-15)))
          CFI (cfiCond215) V3 load(1, XDATA, add(CFA_XSP16, literal(-14)))
          CFI (cfiCond215) V4 load(1, XDATA, add(CFA_XSP16, literal(-13)))
          CFI (cfiCond215) V5 load(1, XDATA, add(CFA_XSP16, literal(-12)))
          CFI (cfiCond215) V6 load(1, XDATA, add(CFA_XSP16, literal(-11)))
          CFI (cfiCond215) V7 load(1, XDATA, add(CFA_XSP16, literal(-10)))
          CFI (cfiCond215) V8 load(1, XDATA, add(CFA_XSP16, literal(-9)))
          CFI (cfiCond215) V9 load(1, XDATA, add(CFA_XSP16, literal(-8)))
          CFI (cfiCond215) V10 load(1, XDATA, add(CFA_XSP16, literal(-7)))
          CFI (cfiCond215) R7 load(1, XDATA, add(CFA_XSP16, literal(-6)))
          CFI (cfiCond215) ?RET_LOW load(1, XDATA, add(CFA_XSP16, literal(-5)))
          CFI (cfiCond215) ?RET_HIGH load(1, XDATA, add(CFA_XSP16, literal(-4)))
          CFI (cfiCond215) ?BRET_EXT load(1, XDATA, add(CFA_XSP16, literal(-3)))
          CFI (cfiCond215) DPL0 load(1, XDATA, add(CFA_XSP16, literal(-2)))
          CFI (cfiCond215) DPH0 load(1, XDATA, add(CFA_XSP16, literal(-1)))
          CFI (cfiCond215) CFA_SP SP+-2
          CFI (cfiCond215) CFA_XSP16 add(XSP16, 19)
          CFI Block cfiPicker216 Using cfiCommon1
          CFI (cfiPicker216) NoFunction
          CFI (cfiPicker216) Picker
        MOVX      A,@DPTR
        MOV       R0,A
        INC       DPTR
        MOVX      A,@DPTR
        MOV       R1,A
        MOV       DPTR,#pMtAfInMsgList
        RET
          CFI EndBlock cfiCond214
          CFI EndBlock cfiCond215
          CFI EndBlock cfiPicker216
//  916 
//  917 /**************************************************************************************************
//  918  * @fn          MT_AfDataStore
//  919  *
//  920  * @brief   Process AF Data Store command to incrementally store the data buffer for very large
//  921  *          outgoing AF message.
//  922  *
//  923  * input parameters
//  924  *
//  925  * @param pBuf - pointer to the received buffer
//  926  *
//  927  * output parameters
//  928  *
//  929  * @param rtrn - AF-Status of the operation.
//  930  *
//  931  * @return      None.
//  932  **************************************************************************************************
//  933  */

        RSEG BANKED_CODE:HUGECODE:NOROOT(0)
//  934 static void MT_AfDataStore(uint8 *pBuf)
MT_AfDataStore:
          CFI Block cfiBlock217 Using cfiCommon0
          CFI Function MT_AfDataStore
        CODE
//  935 {
        FUNCALL MT_AfDataStore, osal_build_uint16
        LOCFRAME ISTACK, 0, STACK
        LOCFRAME PSTACK, 0, STACK
        LOCFRAME XSTACK, 15, STACK
        LOCFRAME IOVERLAY, 0, STATIC
        LOCFRAME DOVERLAY, 0, STATIC
        ARGFRAME ISTACK, 0, STACK
        ARGFRAME PSTACK, 0, STACK
        ARGFRAME XSTACK, 15, STACK
        ARGFRAME IOVERLAY, 0, STATIC
        ARGFRAME DOVERLAY, 0, STATIC
        FUNCALL MT_AfDataStore, AF_DataRequest
        LOCFRAME ISTACK, 0, STACK
        LOCFRAME PSTACK, 0, STACK
        LOCFRAME XSTACK, 24, STACK
        LOCFRAME IOVERLAY, 0, STATIC
        LOCFRAME DOVERLAY, 0, STATIC
        ARGFRAME ISTACK, 0, STACK
        ARGFRAME PSTACK, 0, STACK
        ARGFRAME XSTACK, 24, STACK
        ARGFRAME IOVERLAY, 0, STATIC
        ARGFRAME DOVERLAY, 0, STATIC
        FUNCALL MT_AfDataStore, osal_mem_free
        LOCFRAME ISTACK, 0, STACK
        LOCFRAME PSTACK, 0, STACK
        LOCFRAME XSTACK, 15, STACK
        LOCFRAME IOVERLAY, 0, STATIC
        LOCFRAME DOVERLAY, 0, STATIC
        ARGFRAME ISTACK, 0, STACK
        ARGFRAME PSTACK, 0, STACK
        ARGFRAME XSTACK, 15, STACK
        ARGFRAME IOVERLAY, 0, STATIC
        ARGFRAME DOVERLAY, 0, STATIC
        FUNCALL MT_AfDataStore, osal_memcpy
        LOCFRAME ISTACK, 0, STACK
        LOCFRAME PSTACK, 0, STACK
        LOCFRAME XSTACK, 18, STACK
        LOCFRAME IOVERLAY, 0, STATIC
        LOCFRAME DOVERLAY, 0, STATIC
        ARGFRAME ISTACK, 0, STACK
        ARGFRAME PSTACK, 0, STACK
        ARGFRAME XSTACK, 18, STACK
        ARGFRAME IOVERLAY, 0, STATIC
        ARGFRAME DOVERLAY, 0, STATIC
        FUNCALL MT_AfDataStore, MT_BuildAndSendZToolResponse
        LOCFRAME ISTACK, 0, STACK
        LOCFRAME PSTACK, 0, STACK
        LOCFRAME XSTACK, 15, STACK
        LOCFRAME IOVERLAY, 0, STATIC
        LOCFRAME DOVERLAY, 0, STATIC
        ARGFRAME ISTACK, 0, STACK
        ARGFRAME PSTACK, 0, STACK
        ARGFRAME XSTACK, 15, STACK
        ARGFRAME IOVERLAY, 0, STATIC
        ARGFRAME DOVERLAY, 0, STATIC
        REQUIRE ?V0
        REQUIRE ?V1
        REQUIRE ?V2
        REQUIRE ?V4
        REQUIRE ?V5
        MOV       A,#-0xe
        LCALL     ?BANKED_ENTER_XDATA
          CFI DPH0 load(1, XDATA, add(CFA_XSP16, literal(-1)))
          CFI DPL0 load(1, XDATA, add(CFA_XSP16, literal(-2)))
          CFI ?BRET_EXT load(1, XDATA, add(CFA_XSP16, literal(-3)))
          CFI ?RET_HIGH load(1, XDATA, add(CFA_XSP16, literal(-4)))
          CFI ?RET_LOW load(1, XDATA, add(CFA_XSP16, literal(-5)))
          CFI R7 load(1, XDATA, add(CFA_XSP16, literal(-6)))
          CFI V5 load(1, XDATA, add(CFA_XSP16, literal(-7)))
          CFI V4 load(1, XDATA, add(CFA_XSP16, literal(-8)))
          CFI V3 load(1, XDATA, add(CFA_XSP16, literal(-9)))
          CFI V2 load(1, XDATA, add(CFA_XSP16, literal(-10)))
          CFI V1 load(1, XDATA, add(CFA_XSP16, literal(-11)))
          CFI V0 load(1, XDATA, add(CFA_XSP16, literal(-12)))
          CFI VB load(1, XDATA, add(CFA_XSP16, literal(-13)))
          CFI R6 load(1, XDATA, add(CFA_XSP16, literal(-14)))
          CFI CFA_SP SP+0
          CFI CFA_XSP16 add(XSP16, 14)
        ; Saved register size: 14
        ; Auto size: 1
        MOV       A,#-0x1
        LCALL     ?ALLOC_XSTACK8
          CFI CFA_XSP16 add(XSP16, 15)
        MOV       A,R2
        MOV       R6,A
        MOV       A,R3
        MOV       R7,A
//  936   uint16 idx;
//  937   uint8 len, rtrn = afStatus_FAILED;
        MOV       DPL,?XSP + 0
        MOV       DPH,?XSP + 1
        MOV       A,#0x1
        MOVX      @DPTR,A
//  938 
//  939   pBuf += MT_RPC_FRAME_HDR_SZ;
        MOV       A,R6
        ADD       A,#0x3
        MOV       R6,A
        JNC       ??MT_AfDataStore_0
        INC       R7
//  940   idx = osal_build_uint16( pBuf );
??MT_AfDataStore_0:
        ; Setup parameters for call to function osal_build_uint16
        MOV       R2,A
        MOV       A,R7
        MOV       R3,A
        LCALL     `??osal_build_uint16::?relay`; Banked call to: osal_build_uint16
        MOV       ?V4,R2
        MOV       ?V5,R3
//  941   len = pBuf[2];
        MOV       DPL,R6
        MOV       DPH,R7
        INC       DPTR
        INC       DPTR
        MOVX      A,@DPTR
        MOV       R2,A
//  942   pBuf += 3;
        MOV       A,R6
        ADD       A,#0x3
        MOV       R6,A
        JNC       ??MT_AfDataStore_1
        INC       R7
//  943 
//  944   if (pMtAfDataReq == NULL)
??MT_AfDataStore_1:
        LCALL     ?Subroutine2 & 0xFFFF
??CrossCallReturnLabel_106:
        JNZ       ??MT_AfDataStore_2
//  945   {
//  946     rtrn = afStatus_MEM_FAIL;
        MOV       DPL,?XSP + 0
        MOV       DPH,?XSP + 1
        MOV       A,#0x10
        LJMP      ??MT_AfDataStore_3 & 0xFFFF
//  947   }
//  948   else if (len == 0)  // Indication to send the message.
??MT_AfDataStore_2:
        MOV       A,R2
        JNZ       ??MT_AfDataStore_4
//  949   {
//  950     rtrn = AF_DataRequest(&(pMtAfDataReq->dstAddr), pMtAfDataReq->epDesc, pMtAfDataReq->cId,
//  951                             pMtAfDataReq->dataLen,  pMtAfDataReq->data,
//  952                           &(pMtAfDataReq->transId), pMtAfDataReq->txOpts, pMtAfDataReq->radius);
        ; Setup parameters for call to function AF_DataRequest
        LCALL     ?Subroutine16 & 0xFFFF
??CrossCallReturnLabel_26:
        MOVX      A,@DPTR
        MOV       ?V0,A
        MOV       R0,#?V0
        LCALL     ?PUSH_XSTACK_I_ONE
          CFI CFA_XSP16 add(XSP16, 16)
        MOV       DPTR,#pMtAfDataReq
        MOVX      A,@DPTR
        ADD       A,#0x14
        MOV       ?V0,A
        INC       DPTR
        MOVX      A,@DPTR
        ADDC      A,#0x0
        MOV       ?V1,A
        MOV       R0,#?V0
        LCALL     ?PUSH_XSTACK_I_TWO
          CFI CFA_XSP16 add(XSP16, 18)
        LCALL     ?Subroutine7 & 0xFFFF
??CrossCallReturnLabel_9:
        LCALL     ?PUSH_XSTACK8_X_TWO
          CFI CFA_XSP16 add(XSP16, 20)
        MOV       DPTR,#pMtAfDataReq + 1
        LCALL     ?Subroutine15 & 0xFFFF
??CrossCallReturnLabel_24:
        LCALL     ?PUSH_XSTACK8_X_TWO
          CFI CFA_XSP16 add(XSP16, 22)
        LCALL     ?Subroutine9 & 0xFFFF
??CrossCallReturnLabel_14:
        LCALL     ?PUSH_XSTACK8_X_TWO
          CFI CFA_XSP16 add(XSP16, 24)
        LCALL     ?Subroutine10 & 0xFFFF
??CrossCallReturnLabel_16:
        MOVX      A,@DPTR
        MOV       R1,A
        LCALL     ?Subroutine8 & 0xFFFF
??CrossCallReturnLabel_12:
        MOVX      A,@DPTR
        MOV       R4,A
        INC       DPTR
        MOVX      A,@DPTR
        MOV       R5,A
        LCALL     ?Subroutine20 & 0xFFFF
??CrossCallReturnLabel_34:
        LCALL     `??AF_DataRequest::?relay`; Banked call to: AF_DataRequest
        MOV       A,#0x9
        LCALL     ?DEALLOC_XSTACK8
          CFI CFA_XSP16 add(XSP16, 15)
        MOV       A,R1
        MOV       DPL,?XSP + 0
        MOV       DPH,?XSP + 1
        MOVX      @DPTR,A
//  953     (void)osal_mem_free(pMtAfDataReq);
        ; Setup parameters for call to function osal_mem_free
        LCALL     ?Subroutine12 & 0xFFFF
??CrossCallReturnLabel_119:
        LCALL     `??osal_mem_free::?relay`; Banked call to: osal_mem_free
//  954     pMtAfDataReq = NULL;
        MOV       DPTR,#pMtAfDataReq
        CLR       A
        MOVX      @DPTR,A
        INC       DPTR
        SJMP      ??MT_AfDataStore_3
//  955   }
//  956   else
//  957   {
//  958     (void)osal_memcpy(pMtAfDataReq->data+idx, pBuf, len);
??MT_AfDataStore_4:
        ; Setup parameters for call to function osal_memcpy
        MOV       ?V0,R6
        MOV       ?V1,R7
        MOV       ?V2,#0x0
        MOV       R0,#?V0
        LCALL     ?PUSH_XSTACK_I_THREE
          CFI CFA_XSP16 add(XSP16, 18)
        MOV       A,R2
        MOV       R4,A
        MOV       R5,#0x0
        LCALL     ?Subroutine7 & 0xFFFF
??CrossCallReturnLabel_10:
        MOVX      A,@DPTR
        ADD       A,?V4
        MOV       R2,A
        INC       DPTR
        MOVX      A,@DPTR
        ADDC      A,?V5
        MOV       R3,A
        LCALL     `??osal_memcpy::?relay`; Banked call to: osal_memcpy
        MOV       A,#0x3
        LCALL     ?DEALLOC_XSTACK8
          CFI CFA_XSP16 add(XSP16, 15)
//  959     rtrn = afStatus_SUCCESS;
        MOV       DPL,?XSP + 0
        MOV       DPH,?XSP + 1
        CLR       A
//  960   }
??MT_AfDataStore_3:
        LCALL     ?Subroutine30 & 0xFFFF
//  961 
//  962   MT_BuildAndSendZToolResponse(((uint8)MT_RPC_CMD_SRSP | (uint8)MT_RPC_SYS_AF),
//  963                                                                 MT_AF_DATA_STORE, 1, &rtrn);
??CrossCallReturnLabel_50:
        MOV       R3,#0x1
        MOV       R2,#0x11
        MOV       R1,#0x64
        LCALL     `??MT_BuildAndSendZToolResponse::?relay`; Banked call to: MT_BuildAndSendZToolResponse
//  964 }
        MOV       A,#0x1
        LJMP      ?Subroutine0 & 0xFFFF
          CFI EndBlock cfiBlock217

        RSEG BANKED_CODE:HUGECODE:NOROOT(0)
?Subroutine20:
          CFI Block cfiCond218 Using cfiCommon0
          CFI Function MT_AfDataRequest
          CFI Conditional ??CrossCallReturnLabel_33
          CFI R6 load(1, XDATA, add(CFA_XSP16, literal(-21)))
          CFI VB load(1, XDATA, add(CFA_XSP16, literal(-20)))
          CFI V0 load(1, XDATA, add(CFA_XSP16, literal(-19)))
          CFI V1 load(1, XDATA, add(CFA_XSP16, literal(-18)))
          CFI V2 load(1, XDATA, add(CFA_XSP16, literal(-17)))
          CFI V3 load(1, XDATA, add(CFA_XSP16, literal(-16)))
          CFI V4 load(1, XDATA, add(CFA_XSP16, literal(-15)))
          CFI V5 load(1, XDATA, add(CFA_XSP16, literal(-14)))
          CFI V6 load(1, XDATA, add(CFA_XSP16, literal(-13)))
          CFI V7 load(1, XDATA, add(CFA_XSP16, literal(-12)))
          CFI V8 load(1, XDATA, add(CFA_XSP16, literal(-11)))
          CFI V9 load(1, XDATA, add(CFA_XSP16, literal(-10)))
          CFI V10 load(1, XDATA, add(CFA_XSP16, literal(-9)))
          CFI V11 load(1, XDATA, add(CFA_XSP16, literal(-8)))
          CFI V12 load(1, XDATA, add(CFA_XSP16, literal(-7)))
          CFI R7 load(1, XDATA, add(CFA_XSP16, literal(-6)))
          CFI ?RET_LOW load(1, XDATA, add(CFA_XSP16, literal(-5)))
          CFI ?RET_HIGH load(1, XDATA, add(CFA_XSP16, literal(-4)))
          CFI ?BRET_EXT load(1, XDATA, add(CFA_XSP16, literal(-3)))
          CFI DPL0 load(1, XDATA, add(CFA_XSP16, literal(-2)))
          CFI DPH0 load(1, XDATA, add(CFA_XSP16, literal(-1)))
          CFI CFA_SP SP+-2
          CFI CFA_XSP16 add(XSP16, 38)
          CFI Block cfiCond219 Using cfiCommon0
          CFI (cfiCond219) Function MT_AfDataStore
          CFI (cfiCond219) Conditional ??CrossCallReturnLabel_34
          CFI (cfiCond219) R6 load(1, XDATA, add(CFA_XSP16, literal(-14)))
          CFI (cfiCond219) VB load(1, XDATA, add(CFA_XSP16, literal(-13)))
          CFI (cfiCond219) V0 load(1, XDATA, add(CFA_XSP16, literal(-12)))
          CFI (cfiCond219) V1 load(1, XDATA, add(CFA_XSP16, literal(-11)))
          CFI (cfiCond219) V2 load(1, XDATA, add(CFA_XSP16, literal(-10)))
          CFI (cfiCond219) V3 load(1, XDATA, add(CFA_XSP16, literal(-9)))
          CFI (cfiCond219) V4 load(1, XDATA, add(CFA_XSP16, literal(-8)))
          CFI (cfiCond219) V5 load(1, XDATA, add(CFA_XSP16, literal(-7)))
          CFI (cfiCond219) R7 load(1, XDATA, add(CFA_XSP16, literal(-6)))
          CFI (cfiCond219) ?RET_LOW load(1, XDATA, add(CFA_XSP16, literal(-5)))
          CFI (cfiCond219) ?RET_HIGH load(1, XDATA, add(CFA_XSP16, literal(-4)))
          CFI (cfiCond219) ?BRET_EXT load(1, XDATA, add(CFA_XSP16, literal(-3)))
          CFI (cfiCond219) DPL0 load(1, XDATA, add(CFA_XSP16, literal(-2)))
          CFI (cfiCond219) DPH0 load(1, XDATA, add(CFA_XSP16, literal(-1)))
          CFI (cfiCond219) CFA_SP SP+-2
          CFI (cfiCond219) CFA_XSP16 add(XSP16, 24)
          CFI Block cfiPicker220 Using cfiCommon1
          CFI (cfiPicker220) NoFunction
          CFI (cfiPicker220) Picker
        MOV       DPTR,#pMtAfDataReq
        MOVX      A,@DPTR
        ADD       A,#0x2
        MOV       R2,A
        INC       DPTR
        MOVX      A,@DPTR
        ADDC      A,#0x0
        MOV       R3,A
        RET
          CFI EndBlock cfiCond218
          CFI EndBlock cfiCond219
          CFI EndBlock cfiPicker220

        RSEG BANKED_CODE:HUGECODE:NOROOT(0)
?Subroutine16:
          CFI Block cfiCond221 Using cfiCommon0
          CFI Function MT_AfDataRequest
          CFI Conditional ??CrossCallReturnLabel_25
          CFI R6 load(1, XDATA, add(CFA_XSP16, literal(-21)))
          CFI VB load(1, XDATA, add(CFA_XSP16, literal(-20)))
          CFI V0 load(1, XDATA, add(CFA_XSP16, literal(-19)))
          CFI V1 load(1, XDATA, add(CFA_XSP16, literal(-18)))
          CFI V2 load(1, XDATA, add(CFA_XSP16, literal(-17)))
          CFI V3 load(1, XDATA, add(CFA_XSP16, literal(-16)))
          CFI V4 load(1, XDATA, add(CFA_XSP16, literal(-15)))
          CFI V5 load(1, XDATA, add(CFA_XSP16, literal(-14)))
          CFI V6 load(1, XDATA, add(CFA_XSP16, literal(-13)))
          CFI V7 load(1, XDATA, add(CFA_XSP16, literal(-12)))
          CFI V8 load(1, XDATA, add(CFA_XSP16, literal(-11)))
          CFI V9 load(1, XDATA, add(CFA_XSP16, literal(-10)))
          CFI V10 load(1, XDATA, add(CFA_XSP16, literal(-9)))
          CFI V11 load(1, XDATA, add(CFA_XSP16, literal(-8)))
          CFI V12 load(1, XDATA, add(CFA_XSP16, literal(-7)))
          CFI R7 load(1, XDATA, add(CFA_XSP16, literal(-6)))
          CFI ?RET_LOW load(1, XDATA, add(CFA_XSP16, literal(-5)))
          CFI ?RET_HIGH load(1, XDATA, add(CFA_XSP16, literal(-4)))
          CFI ?BRET_EXT load(1, XDATA, add(CFA_XSP16, literal(-3)))
          CFI DPL0 load(1, XDATA, add(CFA_XSP16, literal(-2)))
          CFI DPH0 load(1, XDATA, add(CFA_XSP16, literal(-1)))
          CFI CFA_SP SP+-2
          CFI CFA_XSP16 add(XSP16, 35)
          CFI Block cfiCond222 Using cfiCommon0
          CFI (cfiCond222) Function MT_AfDataStore
          CFI (cfiCond222) Conditional ??CrossCallReturnLabel_26
          CFI (cfiCond222) R6 load(1, XDATA, add(CFA_XSP16, literal(-14)))
          CFI (cfiCond222) VB load(1, XDATA, add(CFA_XSP16, literal(-13)))
          CFI (cfiCond222) V0 load(1, XDATA, add(CFA_XSP16, literal(-12)))
          CFI (cfiCond222) V1 load(1, XDATA, add(CFA_XSP16, literal(-11)))
          CFI (cfiCond222) V2 load(1, XDATA, add(CFA_XSP16, literal(-10)))
          CFI (cfiCond222) V3 load(1, XDATA, add(CFA_XSP16, literal(-9)))
          CFI (cfiCond222) V4 load(1, XDATA, add(CFA_XSP16, literal(-8)))
          CFI (cfiCond222) V5 load(1, XDATA, add(CFA_XSP16, literal(-7)))
          CFI (cfiCond222) R7 load(1, XDATA, add(CFA_XSP16, literal(-6)))
          CFI (cfiCond222) ?RET_LOW load(1, XDATA, add(CFA_XSP16, literal(-5)))
          CFI (cfiCond222) ?RET_HIGH load(1, XDATA, add(CFA_XSP16, literal(-4)))
          CFI (cfiCond222) ?BRET_EXT load(1, XDATA, add(CFA_XSP16, literal(-3)))
          CFI (cfiCond222) DPL0 load(1, XDATA, add(CFA_XSP16, literal(-2)))
          CFI (cfiCond222) DPH0 load(1, XDATA, add(CFA_XSP16, literal(-1)))
          CFI (cfiCond222) CFA_SP SP+-2
          CFI (cfiCond222) CFA_XSP16 add(XSP16, 15)
          CFI Block cfiPicker223 Using cfiCommon1
          CFI (cfiPicker223) NoFunction
          CFI (cfiPicker223) Picker
        MOVX      A,@DPTR
        XCH       A,R0
        ADD       A,#0x16
        MOV       DPL,A
        CLR       A
        ADDC      A,R0
        MOV       DPH,A
        RET
          CFI EndBlock cfiCond221
          CFI EndBlock cfiCond222
          CFI EndBlock cfiPicker223

        RSEG BANKED_CODE:HUGECODE:NOROOT(0)
?Subroutine15:
          CFI Block cfiCond224 Using cfiCommon0
          CFI Function MT_AfDataRequest
          CFI Conditional ??CrossCallReturnLabel_23
          CFI R6 load(1, XDATA, add(CFA_XSP16, literal(-21)))
          CFI VB load(1, XDATA, add(CFA_XSP16, literal(-20)))
          CFI V0 load(1, XDATA, add(CFA_XSP16, literal(-19)))
          CFI V1 load(1, XDATA, add(CFA_XSP16, literal(-18)))
          CFI V2 load(1, XDATA, add(CFA_XSP16, literal(-17)))
          CFI V3 load(1, XDATA, add(CFA_XSP16, literal(-16)))
          CFI V4 load(1, XDATA, add(CFA_XSP16, literal(-15)))
          CFI V5 load(1, XDATA, add(CFA_XSP16, literal(-14)))
          CFI V6 load(1, XDATA, add(CFA_XSP16, literal(-13)))
          CFI V7 load(1, XDATA, add(CFA_XSP16, literal(-12)))
          CFI V8 load(1, XDATA, add(CFA_XSP16, literal(-11)))
          CFI V9 load(1, XDATA, add(CFA_XSP16, literal(-10)))
          CFI V10 load(1, XDATA, add(CFA_XSP16, literal(-9)))
          CFI V11 load(1, XDATA, add(CFA_XSP16, literal(-8)))
          CFI V12 load(1, XDATA, add(CFA_XSP16, literal(-7)))
          CFI R7 load(1, XDATA, add(CFA_XSP16, literal(-6)))
          CFI ?RET_LOW load(1, XDATA, add(CFA_XSP16, literal(-5)))
          CFI ?RET_HIGH load(1, XDATA, add(CFA_XSP16, literal(-4)))
          CFI ?BRET_EXT load(1, XDATA, add(CFA_XSP16, literal(-3)))
          CFI DPL0 load(1, XDATA, add(CFA_XSP16, literal(-2)))
          CFI DPH0 load(1, XDATA, add(CFA_XSP16, literal(-1)))
          CFI CFA_SP SP+-2
          CFI CFA_XSP16 add(XSP16, 35)
          CFI Block cfiCond225 Using cfiCommon0
          CFI (cfiCond225) Function MT_AfDataStore
          CFI (cfiCond225) Conditional ??CrossCallReturnLabel_24
          CFI (cfiCond225) R6 load(1, XDATA, add(CFA_XSP16, literal(-14)))
          CFI (cfiCond225) VB load(1, XDATA, add(CFA_XSP16, literal(-13)))
          CFI (cfiCond225) V0 load(1, XDATA, add(CFA_XSP16, literal(-12)))
          CFI (cfiCond225) V1 load(1, XDATA, add(CFA_XSP16, literal(-11)))
          CFI (cfiCond225) V2 load(1, XDATA, add(CFA_XSP16, literal(-10)))
          CFI (cfiCond225) V3 load(1, XDATA, add(CFA_XSP16, literal(-9)))
          CFI (cfiCond225) V4 load(1, XDATA, add(CFA_XSP16, literal(-8)))
          CFI (cfiCond225) V5 load(1, XDATA, add(CFA_XSP16, literal(-7)))
          CFI (cfiCond225) R7 load(1, XDATA, add(CFA_XSP16, literal(-6)))
          CFI (cfiCond225) ?RET_LOW load(1, XDATA, add(CFA_XSP16, literal(-5)))
          CFI (cfiCond225) ?RET_HIGH load(1, XDATA, add(CFA_XSP16, literal(-4)))
          CFI (cfiCond225) ?BRET_EXT load(1, XDATA, add(CFA_XSP16, literal(-3)))
          CFI (cfiCond225) DPL0 load(1, XDATA, add(CFA_XSP16, literal(-2)))
          CFI (cfiCond225) DPH0 load(1, XDATA, add(CFA_XSP16, literal(-1)))
          CFI (cfiCond225) CFA_SP SP+-2
          CFI (cfiCond225) CFA_XSP16 add(XSP16, 20)
          CFI Block cfiPicker226 Using cfiCommon1
          CFI (cfiPicker226) NoFunction
          CFI (cfiPicker226) Picker
        MOVX      A,@DPTR
        XCH       A,R0
        ADD       A,#0x12
        MOV       DPL,A
        CLR       A
        ADDC      A,R0
        MOV       DPH,A
        RET
          CFI EndBlock cfiCond224
          CFI EndBlock cfiCond225
          CFI EndBlock cfiPicker226

        RSEG BANKED_CODE:HUGECODE:NOROOT(0)
?Subroutine10:
          CFI Block cfiCond227 Using cfiCommon0
          CFI Function MT_AfDataRequest
          CFI Conditional ??CrossCallReturnLabel_15
          CFI R6 load(1, XDATA, add(CFA_XSP16, literal(-21)))
          CFI VB load(1, XDATA, add(CFA_XSP16, literal(-20)))
          CFI V0 load(1, XDATA, add(CFA_XSP16, literal(-19)))
          CFI V1 load(1, XDATA, add(CFA_XSP16, literal(-18)))
          CFI V2 load(1, XDATA, add(CFA_XSP16, literal(-17)))
          CFI V3 load(1, XDATA, add(CFA_XSP16, literal(-16)))
          CFI V4 load(1, XDATA, add(CFA_XSP16, literal(-15)))
          CFI V5 load(1, XDATA, add(CFA_XSP16, literal(-14)))
          CFI V6 load(1, XDATA, add(CFA_XSP16, literal(-13)))
          CFI V7 load(1, XDATA, add(CFA_XSP16, literal(-12)))
          CFI V8 load(1, XDATA, add(CFA_XSP16, literal(-11)))
          CFI V9 load(1, XDATA, add(CFA_XSP16, literal(-10)))
          CFI V10 load(1, XDATA, add(CFA_XSP16, literal(-9)))
          CFI V11 load(1, XDATA, add(CFA_XSP16, literal(-8)))
          CFI V12 load(1, XDATA, add(CFA_XSP16, literal(-7)))
          CFI R7 load(1, XDATA, add(CFA_XSP16, literal(-6)))
          CFI ?RET_LOW load(1, XDATA, add(CFA_XSP16, literal(-5)))
          CFI ?RET_HIGH load(1, XDATA, add(CFA_XSP16, literal(-4)))
          CFI ?BRET_EXT load(1, XDATA, add(CFA_XSP16, literal(-3)))
          CFI DPL0 load(1, XDATA, add(CFA_XSP16, literal(-2)))
          CFI DPH0 load(1, XDATA, add(CFA_XSP16, literal(-1)))
          CFI CFA_SP SP+-2
          CFI CFA_XSP16 add(XSP16, 35)
          CFI Block cfiCond228 Using cfiCommon0
          CFI (cfiCond228) Function MT_AfDataStore
          CFI (cfiCond228) Conditional ??CrossCallReturnLabel_16
          CFI (cfiCond228) R6 load(1, XDATA, add(CFA_XSP16, literal(-14)))
          CFI (cfiCond228) VB load(1, XDATA, add(CFA_XSP16, literal(-13)))
          CFI (cfiCond228) V0 load(1, XDATA, add(CFA_XSP16, literal(-12)))
          CFI (cfiCond228) V1 load(1, XDATA, add(CFA_XSP16, literal(-11)))
          CFI (cfiCond228) V2 load(1, XDATA, add(CFA_XSP16, literal(-10)))
          CFI (cfiCond228) V3 load(1, XDATA, add(CFA_XSP16, literal(-9)))
          CFI (cfiCond228) V4 load(1, XDATA, add(CFA_XSP16, literal(-8)))
          CFI (cfiCond228) V5 load(1, XDATA, add(CFA_XSP16, literal(-7)))
          CFI (cfiCond228) R7 load(1, XDATA, add(CFA_XSP16, literal(-6)))
          CFI (cfiCond228) ?RET_LOW load(1, XDATA, add(CFA_XSP16, literal(-5)))
          CFI (cfiCond228) ?RET_HIGH load(1, XDATA, add(CFA_XSP16, literal(-4)))
          CFI (cfiCond228) ?BRET_EXT load(1, XDATA, add(CFA_XSP16, literal(-3)))
          CFI (cfiCond228) DPL0 load(1, XDATA, add(CFA_XSP16, literal(-2)))
          CFI (cfiCond228) DPH0 load(1, XDATA, add(CFA_XSP16, literal(-1)))
          CFI (cfiCond228) CFA_SP SP+-2
          CFI (cfiCond228) CFA_XSP16 add(XSP16, 24)
          CFI Block cfiPicker229 Using cfiCommon1
          CFI (cfiPicker229) NoFunction
          CFI (cfiPicker229) Picker
        LCALL     ?Subroutine36 & 0xFFFF
??CrossCallReturnLabel_68:
        ADD       A,#0x15
        MOV       DPL,A
        CLR       A
        ADDC      A,R0
        MOV       DPH,A
        RET
          CFI EndBlock cfiCond227
          CFI EndBlock cfiCond228
          CFI EndBlock cfiPicker229

        RSEG BANKED_CODE:HUGECODE:NOROOT(0)
?Subroutine36:
          CFI Block cfiCond230 Using cfiCommon0
          CFI Function MT_AfDataRequest
          CFI Conditional ??CrossCallReturnLabel_64
          CFI R6 load(1, XDATA, add(CFA_XSP16, literal(-21)))
          CFI VB load(1, XDATA, add(CFA_XSP16, literal(-20)))
          CFI V0 load(1, XDATA, add(CFA_XSP16, literal(-19)))
          CFI V1 load(1, XDATA, add(CFA_XSP16, literal(-18)))
          CFI V2 load(1, XDATA, add(CFA_XSP16, literal(-17)))
          CFI V3 load(1, XDATA, add(CFA_XSP16, literal(-16)))
          CFI V4 load(1, XDATA, add(CFA_XSP16, literal(-15)))
          CFI V5 load(1, XDATA, add(CFA_XSP16, literal(-14)))
          CFI V6 load(1, XDATA, add(CFA_XSP16, literal(-13)))
          CFI V7 load(1, XDATA, add(CFA_XSP16, literal(-12)))
          CFI V8 load(1, XDATA, add(CFA_XSP16, literal(-11)))
          CFI V9 load(1, XDATA, add(CFA_XSP16, literal(-10)))
          CFI V10 load(1, XDATA, add(CFA_XSP16, literal(-9)))
          CFI V11 load(1, XDATA, add(CFA_XSP16, literal(-8)))
          CFI V12 load(1, XDATA, add(CFA_XSP16, literal(-7)))
          CFI R7 load(1, XDATA, add(CFA_XSP16, literal(-6)))
          CFI ?RET_LOW load(1, XDATA, add(CFA_XSP16, literal(-5)))
          CFI ?RET_HIGH load(1, XDATA, add(CFA_XSP16, literal(-4)))
          CFI ?BRET_EXT load(1, XDATA, add(CFA_XSP16, literal(-3)))
          CFI DPL0 load(1, XDATA, add(CFA_XSP16, literal(-2)))
          CFI DPH0 load(1, XDATA, add(CFA_XSP16, literal(-1)))
          CFI CFA_XSP16 add(XSP16, 35)
          CFI Block cfiCond231 Using cfiCommon0
          CFI (cfiCond231) Function MT_AfExec
          CFI (cfiCond231) Conditional ??CrossCallReturnLabel_65, ??CrossCallReturnLabel_7
          CFI (cfiCond231) R6 load(1, XDATA, add(CFA_XSP16, literal(-9)))
          CFI (cfiCond231) VB load(1, XDATA, add(CFA_XSP16, literal(-8)))
          CFI (cfiCond231) V0 load(1, XDATA, add(CFA_XSP16, literal(-7)))
          CFI (cfiCond231) R7 load(1, XDATA, add(CFA_XSP16, literal(-6)))
          CFI (cfiCond231) ?RET_LOW load(1, XDATA, add(CFA_XSP16, literal(-5)))
          CFI (cfiCond231) ?RET_HIGH load(1, XDATA, add(CFA_XSP16, literal(-4)))
          CFI (cfiCond231) ?BRET_EXT load(1, XDATA, add(CFA_XSP16, literal(-3)))
          CFI (cfiCond231) DPL0 load(1, XDATA, add(CFA_XSP16, literal(-2)))
          CFI (cfiCond231) DPH0 load(1, XDATA, add(CFA_XSP16, literal(-1)))
          CFI (cfiCond231) CFA_SP SP+-4
          CFI (cfiCond231) CFA_XSP16 add(XSP16, 9)
          CFI Block cfiCond232 Using cfiCommon0
          CFI (cfiCond232) Function MT_AfDataRequest
          CFI (cfiCond232) Conditional ??CrossCallReturnLabel_65, ??CrossCallReturnLabel_6
          CFI (cfiCond232) R6 load(1, XDATA, add(CFA_XSP16, literal(-21)))
          CFI (cfiCond232) VB load(1, XDATA, add(CFA_XSP16, literal(-20)))
          CFI (cfiCond232) V0 load(1, XDATA, add(CFA_XSP16, literal(-19)))
          CFI (cfiCond232) V1 load(1, XDATA, add(CFA_XSP16, literal(-18)))
          CFI (cfiCond232) V2 load(1, XDATA, add(CFA_XSP16, literal(-17)))
          CFI (cfiCond232) V3 load(1, XDATA, add(CFA_XSP16, literal(-16)))
          CFI (cfiCond232) V4 load(1, XDATA, add(CFA_XSP16, literal(-15)))
          CFI (cfiCond232) V5 load(1, XDATA, add(CFA_XSP16, literal(-14)))
          CFI (cfiCond232) V6 load(1, XDATA, add(CFA_XSP16, literal(-13)))
          CFI (cfiCond232) V7 load(1, XDATA, add(CFA_XSP16, literal(-12)))
          CFI (cfiCond232) V8 load(1, XDATA, add(CFA_XSP16, literal(-11)))
          CFI (cfiCond232) V9 load(1, XDATA, add(CFA_XSP16, literal(-10)))
          CFI (cfiCond232) V10 load(1, XDATA, add(CFA_XSP16, literal(-9)))
          CFI (cfiCond232) V11 load(1, XDATA, add(CFA_XSP16, literal(-8)))
          CFI (cfiCond232) V12 load(1, XDATA, add(CFA_XSP16, literal(-7)))
          CFI (cfiCond232) R7 load(1, XDATA, add(CFA_XSP16, literal(-6)))
          CFI (cfiCond232) ?RET_LOW load(1, XDATA, add(CFA_XSP16, literal(-5)))
          CFI (cfiCond232) ?RET_HIGH load(1, XDATA, add(CFA_XSP16, literal(-4)))
          CFI (cfiCond232) ?BRET_EXT load(1, XDATA, add(CFA_XSP16, literal(-3)))
          CFI (cfiCond232) DPL0 load(1, XDATA, add(CFA_XSP16, literal(-2)))
          CFI (cfiCond232) DPH0 load(1, XDATA, add(CFA_XSP16, literal(-1)))
          CFI (cfiCond232) CFA_SP SP+-4
          CFI (cfiCond232) CFA_XSP16 add(XSP16, 35)
          CFI Block cfiCond233 Using cfiCommon0
          CFI (cfiCond233) Function MT_AfDataRequest
          CFI (cfiCond233) Conditional ??CrossCallReturnLabel_68, ??CrossCallReturnLabel_15
          CFI (cfiCond233) R6 load(1, XDATA, add(CFA_XSP16, literal(-21)))
          CFI (cfiCond233) VB load(1, XDATA, add(CFA_XSP16, literal(-20)))
          CFI (cfiCond233) V0 load(1, XDATA, add(CFA_XSP16, literal(-19)))
          CFI (cfiCond233) V1 load(1, XDATA, add(CFA_XSP16, literal(-18)))
          CFI (cfiCond233) V2 load(1, XDATA, add(CFA_XSP16, literal(-17)))
          CFI (cfiCond233) V3 load(1, XDATA, add(CFA_XSP16, literal(-16)))
          CFI (cfiCond233) V4 load(1, XDATA, add(CFA_XSP16, literal(-15)))
          CFI (cfiCond233) V5 load(1, XDATA, add(CFA_XSP16, literal(-14)))
          CFI (cfiCond233) V6 load(1, XDATA, add(CFA_XSP16, literal(-13)))
          CFI (cfiCond233) V7 load(1, XDATA, add(CFA_XSP16, literal(-12)))
          CFI (cfiCond233) V8 load(1, XDATA, add(CFA_XSP16, literal(-11)))
          CFI (cfiCond233) V9 load(1, XDATA, add(CFA_XSP16, literal(-10)))
          CFI (cfiCond233) V10 load(1, XDATA, add(CFA_XSP16, literal(-9)))
          CFI (cfiCond233) V11 load(1, XDATA, add(CFA_XSP16, literal(-8)))
          CFI (cfiCond233) V12 load(1, XDATA, add(CFA_XSP16, literal(-7)))
          CFI (cfiCond233) R7 load(1, XDATA, add(CFA_XSP16, literal(-6)))
          CFI (cfiCond233) ?RET_LOW load(1, XDATA, add(CFA_XSP16, literal(-5)))
          CFI (cfiCond233) ?RET_HIGH load(1, XDATA, add(CFA_XSP16, literal(-4)))
          CFI (cfiCond233) ?BRET_EXT load(1, XDATA, add(CFA_XSP16, literal(-3)))
          CFI (cfiCond233) DPL0 load(1, XDATA, add(CFA_XSP16, literal(-2)))
          CFI (cfiCond233) DPH0 load(1, XDATA, add(CFA_XSP16, literal(-1)))
          CFI (cfiCond233) CFA_SP SP+-4
          CFI (cfiCond233) CFA_XSP16 add(XSP16, 35)
          CFI Block cfiCond234 Using cfiCommon0
          CFI (cfiCond234) Function MT_AfDataStore
          CFI (cfiCond234) Conditional ??CrossCallReturnLabel_68, ??CrossCallReturnLabel_16
          CFI (cfiCond234) R6 load(1, XDATA, add(CFA_XSP16, literal(-14)))
          CFI (cfiCond234) VB load(1, XDATA, add(CFA_XSP16, literal(-13)))
          CFI (cfiCond234) V0 load(1, XDATA, add(CFA_XSP16, literal(-12)))
          CFI (cfiCond234) V1 load(1, XDATA, add(CFA_XSP16, literal(-11)))
          CFI (cfiCond234) V2 load(1, XDATA, add(CFA_XSP16, literal(-10)))
          CFI (cfiCond234) V3 load(1, XDATA, add(CFA_XSP16, literal(-9)))
          CFI (cfiCond234) V4 load(1, XDATA, add(CFA_XSP16, literal(-8)))
          CFI (cfiCond234) V5 load(1, XDATA, add(CFA_XSP16, literal(-7)))
          CFI (cfiCond234) R7 load(1, XDATA, add(CFA_XSP16, literal(-6)))
          CFI (cfiCond234) ?RET_LOW load(1, XDATA, add(CFA_XSP16, literal(-5)))
          CFI (cfiCond234) ?RET_HIGH load(1, XDATA, add(CFA_XSP16, literal(-4)))
          CFI (cfiCond234) ?BRET_EXT load(1, XDATA, add(CFA_XSP16, literal(-3)))
          CFI (cfiCond234) DPL0 load(1, XDATA, add(CFA_XSP16, literal(-2)))
          CFI (cfiCond234) DPH0 load(1, XDATA, add(CFA_XSP16, literal(-1)))
          CFI (cfiCond234) CFA_SP SP+-4
          CFI (cfiCond234) CFA_XSP16 add(XSP16, 24)
          CFI Block cfiCond235 Using cfiCommon0
          CFI (cfiCond235) Function MT_AfDataRequest
          CFI (cfiCond235) Conditional ??CrossCallReturnLabel_67, ??CrossCallReturnLabel_13
          CFI (cfiCond235) R6 load(1, XDATA, add(CFA_XSP16, literal(-21)))
          CFI (cfiCond235) VB load(1, XDATA, add(CFA_XSP16, literal(-20)))
          CFI (cfiCond235) V0 load(1, XDATA, add(CFA_XSP16, literal(-19)))
          CFI (cfiCond235) V1 load(1, XDATA, add(CFA_XSP16, literal(-18)))
          CFI (cfiCond235) V2 load(1, XDATA, add(CFA_XSP16, literal(-17)))
          CFI (cfiCond235) V3 load(1, XDATA, add(CFA_XSP16, literal(-16)))
          CFI (cfiCond235) V4 load(1, XDATA, add(CFA_XSP16, literal(-15)))
          CFI (cfiCond235) V5 load(1, XDATA, add(CFA_XSP16, literal(-14)))
          CFI (cfiCond235) V6 load(1, XDATA, add(CFA_XSP16, literal(-13)))
          CFI (cfiCond235) V7 load(1, XDATA, add(CFA_XSP16, literal(-12)))
          CFI (cfiCond235) V8 load(1, XDATA, add(CFA_XSP16, literal(-11)))
          CFI (cfiCond235) V9 load(1, XDATA, add(CFA_XSP16, literal(-10)))
          CFI (cfiCond235) V10 load(1, XDATA, add(CFA_XSP16, literal(-9)))
          CFI (cfiCond235) V11 load(1, XDATA, add(CFA_XSP16, literal(-8)))
          CFI (cfiCond235) V12 load(1, XDATA, add(CFA_XSP16, literal(-7)))
          CFI (cfiCond235) R7 load(1, XDATA, add(CFA_XSP16, literal(-6)))
          CFI (cfiCond235) ?RET_LOW load(1, XDATA, add(CFA_XSP16, literal(-5)))
          CFI (cfiCond235) ?RET_HIGH load(1, XDATA, add(CFA_XSP16, literal(-4)))
          CFI (cfiCond235) ?BRET_EXT load(1, XDATA, add(CFA_XSP16, literal(-3)))
          CFI (cfiCond235) DPL0 load(1, XDATA, add(CFA_XSP16, literal(-2)))
          CFI (cfiCond235) DPH0 load(1, XDATA, add(CFA_XSP16, literal(-1)))
          CFI (cfiCond235) CFA_SP SP+-4
          CFI (cfiCond235) CFA_XSP16 add(XSP16, 35)
          CFI Block cfiCond236 Using cfiCommon0
          CFI (cfiCond236) Function MT_AfDataStore
          CFI (cfiCond236) Conditional ??CrossCallReturnLabel_67, ??CrossCallReturnLabel_14
          CFI (cfiCond236) R6 load(1, XDATA, add(CFA_XSP16, literal(-14)))
          CFI (cfiCond236) VB load(1, XDATA, add(CFA_XSP16, literal(-13)))
          CFI (cfiCond236) V0 load(1, XDATA, add(CFA_XSP16, literal(-12)))
          CFI (cfiCond236) V1 load(1, XDATA, add(CFA_XSP16, literal(-11)))
          CFI (cfiCond236) V2 load(1, XDATA, add(CFA_XSP16, literal(-10)))
          CFI (cfiCond236) V3 load(1, XDATA, add(CFA_XSP16, literal(-9)))
          CFI (cfiCond236) V4 load(1, XDATA, add(CFA_XSP16, literal(-8)))
          CFI (cfiCond236) V5 load(1, XDATA, add(CFA_XSP16, literal(-7)))
          CFI (cfiCond236) R7 load(1, XDATA, add(CFA_XSP16, literal(-6)))
          CFI (cfiCond236) ?RET_LOW load(1, XDATA, add(CFA_XSP16, literal(-5)))
          CFI (cfiCond236) ?RET_HIGH load(1, XDATA, add(CFA_XSP16, literal(-4)))
          CFI (cfiCond236) ?BRET_EXT load(1, XDATA, add(CFA_XSP16, literal(-3)))
          CFI (cfiCond236) DPL0 load(1, XDATA, add(CFA_XSP16, literal(-2)))
          CFI (cfiCond236) DPH0 load(1, XDATA, add(CFA_XSP16, literal(-1)))
          CFI (cfiCond236) CFA_SP SP+-4
          CFI (cfiCond236) CFA_XSP16 add(XSP16, 22)
          CFI Block cfiCond237 Using cfiCommon0
          CFI (cfiCond237) Function MT_AfDataRequest
          CFI (cfiCond237) Conditional ??CrossCallReturnLabel_66, ??CrossCallReturnLabel_11
          CFI (cfiCond237) R6 load(1, XDATA, add(CFA_XSP16, literal(-21)))
          CFI (cfiCond237) VB load(1, XDATA, add(CFA_XSP16, literal(-20)))
          CFI (cfiCond237) V0 load(1, XDATA, add(CFA_XSP16, literal(-19)))
          CFI (cfiCond237) V1 load(1, XDATA, add(CFA_XSP16, literal(-18)))
          CFI (cfiCond237) V2 load(1, XDATA, add(CFA_XSP16, literal(-17)))
          CFI (cfiCond237) V3 load(1, XDATA, add(CFA_XSP16, literal(-16)))
          CFI (cfiCond237) V4 load(1, XDATA, add(CFA_XSP16, literal(-15)))
          CFI (cfiCond237) V5 load(1, XDATA, add(CFA_XSP16, literal(-14)))
          CFI (cfiCond237) V6 load(1, XDATA, add(CFA_XSP16, literal(-13)))
          CFI (cfiCond237) V7 load(1, XDATA, add(CFA_XSP16, literal(-12)))
          CFI (cfiCond237) V8 load(1, XDATA, add(CFA_XSP16, literal(-11)))
          CFI (cfiCond237) V9 load(1, XDATA, add(CFA_XSP16, literal(-10)))
          CFI (cfiCond237) V10 load(1, XDATA, add(CFA_XSP16, literal(-9)))
          CFI (cfiCond237) V11 load(1, XDATA, add(CFA_XSP16, literal(-8)))
          CFI (cfiCond237) V12 load(1, XDATA, add(CFA_XSP16, literal(-7)))
          CFI (cfiCond237) R7 load(1, XDATA, add(CFA_XSP16, literal(-6)))
          CFI (cfiCond237) ?RET_LOW load(1, XDATA, add(CFA_XSP16, literal(-5)))
          CFI (cfiCond237) ?RET_HIGH load(1, XDATA, add(CFA_XSP16, literal(-4)))
          CFI (cfiCond237) ?BRET_EXT load(1, XDATA, add(CFA_XSP16, literal(-3)))
          CFI (cfiCond237) DPL0 load(1, XDATA, add(CFA_XSP16, literal(-2)))
          CFI (cfiCond237) DPH0 load(1, XDATA, add(CFA_XSP16, literal(-1)))
          CFI (cfiCond237) CFA_SP SP+-4
          CFI (cfiCond237) CFA_XSP16 add(XSP16, 35)
          CFI Block cfiCond238 Using cfiCommon0
          CFI (cfiCond238) Function MT_AfDataStore
          CFI (cfiCond238) Conditional ??CrossCallReturnLabel_66, ??CrossCallReturnLabel_12
          CFI (cfiCond238) R6 load(1, XDATA, add(CFA_XSP16, literal(-14)))
          CFI (cfiCond238) VB load(1, XDATA, add(CFA_XSP16, literal(-13)))
          CFI (cfiCond238) V0 load(1, XDATA, add(CFA_XSP16, literal(-12)))
          CFI (cfiCond238) V1 load(1, XDATA, add(CFA_XSP16, literal(-11)))
          CFI (cfiCond238) V2 load(1, XDATA, add(CFA_XSP16, literal(-10)))
          CFI (cfiCond238) V3 load(1, XDATA, add(CFA_XSP16, literal(-9)))
          CFI (cfiCond238) V4 load(1, XDATA, add(CFA_XSP16, literal(-8)))
          CFI (cfiCond238) V5 load(1, XDATA, add(CFA_XSP16, literal(-7)))
          CFI (cfiCond238) R7 load(1, XDATA, add(CFA_XSP16, literal(-6)))
          CFI (cfiCond238) ?RET_LOW load(1, XDATA, add(CFA_XSP16, literal(-5)))
          CFI (cfiCond238) ?RET_HIGH load(1, XDATA, add(CFA_XSP16, literal(-4)))
          CFI (cfiCond238) ?BRET_EXT load(1, XDATA, add(CFA_XSP16, literal(-3)))
          CFI (cfiCond238) DPL0 load(1, XDATA, add(CFA_XSP16, literal(-2)))
          CFI (cfiCond238) DPH0 load(1, XDATA, add(CFA_XSP16, literal(-1)))
          CFI (cfiCond238) CFA_SP SP+-4
          CFI (cfiCond238) CFA_XSP16 add(XSP16, 24)
          CFI Block cfiPicker239 Using cfiCommon1
          CFI (cfiPicker239) NoFunction
          CFI (cfiPicker239) Picker
        MOV       DPTR,#pMtAfDataReq
        MOVX      A,@DPTR
        MOV       R0,A
        INC       DPTR
        MOVX      A,@DPTR
        XCH       A,R0
        RET
          CFI EndBlock cfiCond230
          CFI EndBlock cfiCond231
          CFI EndBlock cfiCond232
          CFI EndBlock cfiCond233
          CFI EndBlock cfiCond234
          CFI EndBlock cfiCond235
          CFI EndBlock cfiCond236
          CFI EndBlock cfiCond237
          CFI EndBlock cfiCond238
          CFI EndBlock cfiPicker239

        RSEG BANKED_CODE:HUGECODE:NOROOT(0)
?Subroutine9:
          CFI Block cfiCond240 Using cfiCommon0
          CFI Function MT_AfDataRequest
          CFI Conditional ??CrossCallReturnLabel_13
          CFI R6 load(1, XDATA, add(CFA_XSP16, literal(-21)))
          CFI VB load(1, XDATA, add(CFA_XSP16, literal(-20)))
          CFI V0 load(1, XDATA, add(CFA_XSP16, literal(-19)))
          CFI V1 load(1, XDATA, add(CFA_XSP16, literal(-18)))
          CFI V2 load(1, XDATA, add(CFA_XSP16, literal(-17)))
          CFI V3 load(1, XDATA, add(CFA_XSP16, literal(-16)))
          CFI V4 load(1, XDATA, add(CFA_XSP16, literal(-15)))
          CFI V5 load(1, XDATA, add(CFA_XSP16, literal(-14)))
          CFI V6 load(1, XDATA, add(CFA_XSP16, literal(-13)))
          CFI V7 load(1, XDATA, add(CFA_XSP16, literal(-12)))
          CFI V8 load(1, XDATA, add(CFA_XSP16, literal(-11)))
          CFI V9 load(1, XDATA, add(CFA_XSP16, literal(-10)))
          CFI V10 load(1, XDATA, add(CFA_XSP16, literal(-9)))
          CFI V11 load(1, XDATA, add(CFA_XSP16, literal(-8)))
          CFI V12 load(1, XDATA, add(CFA_XSP16, literal(-7)))
          CFI R7 load(1, XDATA, add(CFA_XSP16, literal(-6)))
          CFI ?RET_LOW load(1, XDATA, add(CFA_XSP16, literal(-5)))
          CFI ?RET_HIGH load(1, XDATA, add(CFA_XSP16, literal(-4)))
          CFI ?BRET_EXT load(1, XDATA, add(CFA_XSP16, literal(-3)))
          CFI DPL0 load(1, XDATA, add(CFA_XSP16, literal(-2)))
          CFI DPH0 load(1, XDATA, add(CFA_XSP16, literal(-1)))
          CFI CFA_SP SP+-2
          CFI CFA_XSP16 add(XSP16, 35)
          CFI Block cfiCond241 Using cfiCommon0
          CFI (cfiCond241) Function MT_AfDataStore
          CFI (cfiCond241) Conditional ??CrossCallReturnLabel_14
          CFI (cfiCond241) R6 load(1, XDATA, add(CFA_XSP16, literal(-14)))
          CFI (cfiCond241) VB load(1, XDATA, add(CFA_XSP16, literal(-13)))
          CFI (cfiCond241) V0 load(1, XDATA, add(CFA_XSP16, literal(-12)))
          CFI (cfiCond241) V1 load(1, XDATA, add(CFA_XSP16, literal(-11)))
          CFI (cfiCond241) V2 load(1, XDATA, add(CFA_XSP16, literal(-10)))
          CFI (cfiCond241) V3 load(1, XDATA, add(CFA_XSP16, literal(-9)))
          CFI (cfiCond241) V4 load(1, XDATA, add(CFA_XSP16, literal(-8)))
          CFI (cfiCond241) V5 load(1, XDATA, add(CFA_XSP16, literal(-7)))
          CFI (cfiCond241) R7 load(1, XDATA, add(CFA_XSP16, literal(-6)))
          CFI (cfiCond241) ?RET_LOW load(1, XDATA, add(CFA_XSP16, literal(-5)))
          CFI (cfiCond241) ?RET_HIGH load(1, XDATA, add(CFA_XSP16, literal(-4)))
          CFI (cfiCond241) ?BRET_EXT load(1, XDATA, add(CFA_XSP16, literal(-3)))
          CFI (cfiCond241) DPL0 load(1, XDATA, add(CFA_XSP16, literal(-2)))
          CFI (cfiCond241) DPH0 load(1, XDATA, add(CFA_XSP16, literal(-1)))
          CFI (cfiCond241) CFA_SP SP+-2
          CFI (cfiCond241) CFA_XSP16 add(XSP16, 22)
          CFI Block cfiPicker242 Using cfiCommon1
          CFI (cfiPicker242) NoFunction
          CFI (cfiPicker242) Picker
        LCALL     ?Subroutine36 & 0xFFFF
??CrossCallReturnLabel_67:
        ADD       A,#0x10
        MOV       DPL,A
        CLR       A
        ADDC      A,R0
        MOV       DPH,A
        RET
          CFI EndBlock cfiCond240
          CFI EndBlock cfiCond241
          CFI EndBlock cfiPicker242

        RSEG BANKED_CODE:HUGECODE:NOROOT(0)
?Subroutine8:
          CFI Block cfiCond243 Using cfiCommon0
          CFI Function MT_AfDataRequest
          CFI Conditional ??CrossCallReturnLabel_11
          CFI R6 load(1, XDATA, add(CFA_XSP16, literal(-21)))
          CFI VB load(1, XDATA, add(CFA_XSP16, literal(-20)))
          CFI V0 load(1, XDATA, add(CFA_XSP16, literal(-19)))
          CFI V1 load(1, XDATA, add(CFA_XSP16, literal(-18)))
          CFI V2 load(1, XDATA, add(CFA_XSP16, literal(-17)))
          CFI V3 load(1, XDATA, add(CFA_XSP16, literal(-16)))
          CFI V4 load(1, XDATA, add(CFA_XSP16, literal(-15)))
          CFI V5 load(1, XDATA, add(CFA_XSP16, literal(-14)))
          CFI V6 load(1, XDATA, add(CFA_XSP16, literal(-13)))
          CFI V7 load(1, XDATA, add(CFA_XSP16, literal(-12)))
          CFI V8 load(1, XDATA, add(CFA_XSP16, literal(-11)))
          CFI V9 load(1, XDATA, add(CFA_XSP16, literal(-10)))
          CFI V10 load(1, XDATA, add(CFA_XSP16, literal(-9)))
          CFI V11 load(1, XDATA, add(CFA_XSP16, literal(-8)))
          CFI V12 load(1, XDATA, add(CFA_XSP16, literal(-7)))
          CFI R7 load(1, XDATA, add(CFA_XSP16, literal(-6)))
          CFI ?RET_LOW load(1, XDATA, add(CFA_XSP16, literal(-5)))
          CFI ?RET_HIGH load(1, XDATA, add(CFA_XSP16, literal(-4)))
          CFI ?BRET_EXT load(1, XDATA, add(CFA_XSP16, literal(-3)))
          CFI DPL0 load(1, XDATA, add(CFA_XSP16, literal(-2)))
          CFI DPH0 load(1, XDATA, add(CFA_XSP16, literal(-1)))
          CFI CFA_SP SP+-2
          CFI CFA_XSP16 add(XSP16, 35)
          CFI Block cfiCond244 Using cfiCommon0
          CFI (cfiCond244) Function MT_AfDataStore
          CFI (cfiCond244) Conditional ??CrossCallReturnLabel_12
          CFI (cfiCond244) R6 load(1, XDATA, add(CFA_XSP16, literal(-14)))
          CFI (cfiCond244) VB load(1, XDATA, add(CFA_XSP16, literal(-13)))
          CFI (cfiCond244) V0 load(1, XDATA, add(CFA_XSP16, literal(-12)))
          CFI (cfiCond244) V1 load(1, XDATA, add(CFA_XSP16, literal(-11)))
          CFI (cfiCond244) V2 load(1, XDATA, add(CFA_XSP16, literal(-10)))
          CFI (cfiCond244) V3 load(1, XDATA, add(CFA_XSP16, literal(-9)))
          CFI (cfiCond244) V4 load(1, XDATA, add(CFA_XSP16, literal(-8)))
          CFI (cfiCond244) V5 load(1, XDATA, add(CFA_XSP16, literal(-7)))
          CFI (cfiCond244) R7 load(1, XDATA, add(CFA_XSP16, literal(-6)))
          CFI (cfiCond244) ?RET_LOW load(1, XDATA, add(CFA_XSP16, literal(-5)))
          CFI (cfiCond244) ?RET_HIGH load(1, XDATA, add(CFA_XSP16, literal(-4)))
          CFI (cfiCond244) ?BRET_EXT load(1, XDATA, add(CFA_XSP16, literal(-3)))
          CFI (cfiCond244) DPL0 load(1, XDATA, add(CFA_XSP16, literal(-2)))
          CFI (cfiCond244) DPH0 load(1, XDATA, add(CFA_XSP16, literal(-1)))
          CFI (cfiCond244) CFA_SP SP+-2
          CFI (cfiCond244) CFA_XSP16 add(XSP16, 24)
          CFI Block cfiPicker245 Using cfiCommon1
          CFI (cfiPicker245) NoFunction
          CFI (cfiPicker245) Picker
        LCALL     ?Subroutine36 & 0xFFFF
??CrossCallReturnLabel_66:
        ADD       A,#0xe
        MOV       DPL,A
        CLR       A
        ADDC      A,R0
        MOV       DPH,A
        RET
          CFI EndBlock cfiCond243
          CFI EndBlock cfiCond244
          CFI EndBlock cfiPicker245

        RSEG BANKED_CODE:HUGECODE:NOROOT(0)
?Subroutine7:
          CFI Block cfiCond246 Using cfiCommon0
          CFI Function MT_AfDataRequest
          CFI Conditional ??CrossCallReturnLabel_8
          CFI R6 load(1, XDATA, add(CFA_XSP16, literal(-21)))
          CFI VB load(1, XDATA, add(CFA_XSP16, literal(-20)))
          CFI V0 load(1, XDATA, add(CFA_XSP16, literal(-19)))
          CFI V1 load(1, XDATA, add(CFA_XSP16, literal(-18)))
          CFI V2 load(1, XDATA, add(CFA_XSP16, literal(-17)))
          CFI V3 load(1, XDATA, add(CFA_XSP16, literal(-16)))
          CFI V4 load(1, XDATA, add(CFA_XSP16, literal(-15)))
          CFI V5 load(1, XDATA, add(CFA_XSP16, literal(-14)))
          CFI V6 load(1, XDATA, add(CFA_XSP16, literal(-13)))
          CFI V7 load(1, XDATA, add(CFA_XSP16, literal(-12)))
          CFI V8 load(1, XDATA, add(CFA_XSP16, literal(-11)))
          CFI V9 load(1, XDATA, add(CFA_XSP16, literal(-10)))
          CFI V10 load(1, XDATA, add(CFA_XSP16, literal(-9)))
          CFI V11 load(1, XDATA, add(CFA_XSP16, literal(-8)))
          CFI V12 load(1, XDATA, add(CFA_XSP16, literal(-7)))
          CFI R7 load(1, XDATA, add(CFA_XSP16, literal(-6)))
          CFI ?RET_LOW load(1, XDATA, add(CFA_XSP16, literal(-5)))
          CFI ?RET_HIGH load(1, XDATA, add(CFA_XSP16, literal(-4)))
          CFI ?BRET_EXT load(1, XDATA, add(CFA_XSP16, literal(-3)))
          CFI DPL0 load(1, XDATA, add(CFA_XSP16, literal(-2)))
          CFI DPH0 load(1, XDATA, add(CFA_XSP16, literal(-1)))
          CFI CFA_SP SP+-2
          CFI CFA_XSP16 add(XSP16, 35)
          CFI Block cfiCond247 Using cfiCommon0
          CFI (cfiCond247) Function MT_AfDataStore
          CFI (cfiCond247) Conditional ??CrossCallReturnLabel_9
          CFI (cfiCond247) R6 load(1, XDATA, add(CFA_XSP16, literal(-14)))
          CFI (cfiCond247) VB load(1, XDATA, add(CFA_XSP16, literal(-13)))
          CFI (cfiCond247) V0 load(1, XDATA, add(CFA_XSP16, literal(-12)))
          CFI (cfiCond247) V1 load(1, XDATA, add(CFA_XSP16, literal(-11)))
          CFI (cfiCond247) V2 load(1, XDATA, add(CFA_XSP16, literal(-10)))
          CFI (cfiCond247) V3 load(1, XDATA, add(CFA_XSP16, literal(-9)))
          CFI (cfiCond247) V4 load(1, XDATA, add(CFA_XSP16, literal(-8)))
          CFI (cfiCond247) V5 load(1, XDATA, add(CFA_XSP16, literal(-7)))
          CFI (cfiCond247) R7 load(1, XDATA, add(CFA_XSP16, literal(-6)))
          CFI (cfiCond247) ?RET_LOW load(1, XDATA, add(CFA_XSP16, literal(-5)))
          CFI (cfiCond247) ?RET_HIGH load(1, XDATA, add(CFA_XSP16, literal(-4)))
          CFI (cfiCond247) ?BRET_EXT load(1, XDATA, add(CFA_XSP16, literal(-3)))
          CFI (cfiCond247) DPL0 load(1, XDATA, add(CFA_XSP16, literal(-2)))
          CFI (cfiCond247) DPH0 load(1, XDATA, add(CFA_XSP16, literal(-1)))
          CFI (cfiCond247) CFA_SP SP+-2
          CFI (cfiCond247) CFA_XSP16 add(XSP16, 18)
          CFI Block cfiCond248 Using cfiCommon0
          CFI (cfiCond248) Function MT_AfDataStore
          CFI (cfiCond248) Conditional ??CrossCallReturnLabel_10
          CFI (cfiCond248) R6 load(1, XDATA, add(CFA_XSP16, literal(-14)))
          CFI (cfiCond248) VB load(1, XDATA, add(CFA_XSP16, literal(-13)))
          CFI (cfiCond248) V0 load(1, XDATA, add(CFA_XSP16, literal(-12)))
          CFI (cfiCond248) V1 load(1, XDATA, add(CFA_XSP16, literal(-11)))
          CFI (cfiCond248) V2 load(1, XDATA, add(CFA_XSP16, literal(-10)))
          CFI (cfiCond248) V3 load(1, XDATA, add(CFA_XSP16, literal(-9)))
          CFI (cfiCond248) V4 load(1, XDATA, add(CFA_XSP16, literal(-8)))
          CFI (cfiCond248) V5 load(1, XDATA, add(CFA_XSP16, literal(-7)))
          CFI (cfiCond248) R7 load(1, XDATA, add(CFA_XSP16, literal(-6)))
          CFI (cfiCond248) ?RET_LOW load(1, XDATA, add(CFA_XSP16, literal(-5)))
          CFI (cfiCond248) ?RET_HIGH load(1, XDATA, add(CFA_XSP16, literal(-4)))
          CFI (cfiCond248) ?BRET_EXT load(1, XDATA, add(CFA_XSP16, literal(-3)))
          CFI (cfiCond248) DPL0 load(1, XDATA, add(CFA_XSP16, literal(-2)))
          CFI (cfiCond248) DPH0 load(1, XDATA, add(CFA_XSP16, literal(-1)))
          CFI (cfiCond248) CFA_SP SP+-2
          CFI (cfiCond248) CFA_XSP16 add(XSP16, 18)
          CFI Block cfiPicker249 Using cfiCommon1
          CFI (cfiPicker249) NoFunction
          CFI (cfiPicker249) Picker
        MOV       DPTR,#pMtAfDataReq
        MOVX      A,@DPTR
        MOV       R0,A
        INC       DPTR
        MOVX      A,@DPTR
        MOV       DPH,A
        MOV       DPL,R0
        RET
          CFI EndBlock cfiCond246
          CFI EndBlock cfiCond247
          CFI EndBlock cfiCond248
          CFI EndBlock cfiPicker249

        RSEG BANK_RELAYS:CODE:REORDER:NOROOT(0)
`??MT_AfExec::?relay`:
        CODE
        LCALL   ?BDISPATCH
        DATA24
        DC24    MT_AfExec

        RSEG BANK_RELAYS:CODE:REORDER:NOROOT(0)
`??MT_AfCommandProcessing::?relay`:
        CODE
        LCALL   ?BDISPATCH
        DATA24
        DC24    MT_AfCommandProcessing

        RSEG BANK_RELAYS:CODE:REORDER:NOROOT(0)
`??MT_AfDataRequest::?relay`:
        CODE
        LCALL   ?BDISPATCH
        DATA24
        DC24    MT_AfDataRequest

        RSEG BANK_RELAYS:CODE:REORDER:NOROOT(0)
`??MT_AfDataRequestSrcRtg::?relay`:
        CODE
        LCALL   ?BDISPATCH
        DATA24
        DC24    MT_AfDataRequestSrcRtg

        RSEG BANK_RELAYS:CODE:REORDER:NOROOT(0)
`??MT_AfDataConfirm::?relay`:
        CODE
        LCALL   ?BDISPATCH
        DATA24
        DC24    MT_AfDataConfirm

        RSEG BANK_RELAYS:CODE:REORDER:NOROOT(0)
`??MT_AfReflectError::?relay`:
        CODE
        LCALL   ?BDISPATCH
        DATA24
        DC24    MT_AfReflectError

        RSEG BANK_RELAYS:CODE:REORDER:NOROOT(0)
`??MT_AfIncomingMsg::?relay`:
        CODE
        LCALL   ?BDISPATCH
        DATA24
        DC24    MT_AfIncomingMsg

        RSEG BANK_RELAYS:CODE:REORDER:NOROOT(0)
`??MT_AfDataRetrieve::?relay`:
        CODE
        LCALL   ?BDISPATCH
        DATA24
        DC24    MT_AfDataRetrieve

        RSEG BANK_RELAYS:CODE:REORDER:NOROOT(0)
`??MT_AfDataStore::?relay`:
        CODE
        LCALL   ?BDISPATCH
        DATA24
        DC24    MT_AfDataStore

        RSEG XDATA_ROM_C:CONST:REORDER:NOROOT(0)
        DATA16
`?<Constant {0, 0}>`:
        DATA8
        DB 0
        DB 0

        RSEG XDATA_ROM_C:CONST:REORDER:NOROOT(0)
        DATA32
__Constant_3e8:
        DD 1000

        END
//  965 
//  966 /**************************************************************************************************
//  967  * @fn          MT_AfAPSF_ConfigSet
//  968  *
//  969  * @brief       This function is the MT proxy for afAPSF_ConfigSet().
//  970  *
//  971  * input parameters
//  972  *
//  973  * @param       pBuf - Pointer to the received buffer.
//  974  *
//  975  * output parameters
//  976  *
//  977  * None.
//  978  *
//  979  * @return      None.
//  980  */
//  981 static void MT_AfAPSF_ConfigSet(uint8 *pBuf)
//  982 {
//  983   afAPSF_Config_t cfg = { pBuf[MT_RPC_POS_DAT0+1], pBuf[MT_RPC_POS_DAT0+2] };
//  984   afStatus_t rtrn = afAPSF_ConfigSet(pBuf[MT_RPC_POS_DAT0], &cfg);
//  985 
//  986   MT_BuildAndSendZToolResponse(((uint8)MT_RPC_CMD_SRSP | (uint8)MT_RPC_SYS_AF),
//  987                                        MT_AF_APSF_CONFIG_SET, 1, (uint8 *)&rtrn);
//  988 }
//  989 
//  990 /**************************************************************************************************
//  991  * @fn          MT_AfAPSF_ConfigGet
//  992  *
//  993  * @brief       This function is the MT proxy for afAPSF_ConfigGet().
//  994  *
//  995  * input parameters
//  996  *
//  997  * @param       pBuf - Pointer to the received buffer.
//  998  *
//  999  * output parameters
// 1000  *
// 1001  * None.
// 1002  *
// 1003  * @return      None.
// 1004  */
// 1005 static void MT_AfAPSF_ConfigGet(uint8 *pBuf)
// 1006 {
// 1007   afAPSF_Config_t cfg = { 0, 0 };
// 1008   uint8 buf[2];
// 1009 
// 1010   afAPSF_ConfigGet( pBuf[MT_RPC_POS_DAT0], &cfg );
// 1011 
// 1012   buf[0] = cfg.frameDelay;
// 1013   buf[1] = cfg.windowSize;
// 1014 
// 1015   MT_BuildAndSendZToolResponse(((uint8)MT_RPC_CMD_SRSP | (uint8)MT_RPC_SYS_AF),
// 1016                                        MT_AF_APSF_CONFIG_GET, 3, buf );
// 1017 }
// 1018 
// 1019 /***************************************************************************************************
// 1020 ***************************************************************************************************/
// 
// 3 609 bytes in segment BANKED_CODE
//    54 bytes in segment BANK_RELAYS
//     6 bytes in segment XDATA_ROM_C
//     4 bytes in segment XDATA_Z
// 
//    54 bytes of CODE     memory
//     2 bytes of CONST    memory (+ 4 bytes shared)
// 3 609 bytes of HUGECODE memory
//     4 bytes of XDATA    memory
//
//Errors: none
//Warnings: none
