###############################################################################
#
# IAR C/C++ Compiler V10.10.1.4655 for 8051               16/Feb/2018  21:40:12
# Copyright 2004-2017 IAR Systems AB.
# Evaluation license - IAR Embedded Workbench for 8051, Evaluation version 10.10
#
#    Core               =  plain
#    Code model         =  banked
#    Data model         =  large
#    Calling convention =  xdata reentrant
#    Constant location  =  data_rom
#    Dptr setup         =  1,16
#                          
#    Source file        =  
#        C:\Texas Instruments\Z-Stack Home
#        1.2.2a.44539\Components\stack\zdo\ZDProfile.c
#    Command line       =  
#        -f C:\Users\Oskar\AppData\Local\Temp\EW20AE.tmp ("C:\Texas
#        Instruments\Z-Stack Home
#        1.2.2a.44539\Components\stack\zdo\ZDProfile.c" -D FEATURE_SYSTEM_STATS
#        -D POWER_SAVING -D xTC_LINKKEY_JOIN -lC "C:\Texas Instruments\Z-Stack
#        Home 1.2.2a.44539\Projects\zstack\ZNP\CC253x\CC2530-Debug\List" -lA
#        "C:\Texas Instruments\Z-Stack Home
#        1.2.2a.44539\Projects\zstack\ZNP\CC253x\CC2530-Debug\List"
#        --diag_suppress Pe001,Pa010 -o "C:\Texas Instruments\Z-Stack Home
#        1.2.2a.44539\Projects\zstack\ZNP\CC253x\CC2530-Debug\Obj" -e --debug
#        --core=plain --dptr=16,1 --data_model=large --code_model=banked
#        --calling_convention=xdata_reentrant --place_constants=data_rom
#        --nr_virtual_regs 16 -f "C:\Texas Instruments\Z-Stack Home
#        1.2.2a.44539\Projects\zstack\ZNP\CC253x\..\Source\znp.cfg"
#        (-DMAC_CFG_APP_PENDING_QUEUE=TRUE
#        "-DZSTACK_DEVICE_BUILD=(DEVICE_BUILD_COORDINATOR | DEVICE_BUILD_ROUTER
#        | DEVICE_BUILD_ENDDEVICE)" -DNWK_AUTO_POLL -DZNP_RUN_WDOG=FALSE
#        -DZNP_UART_BAUD=HAL_UART_BR_115200 -DZIGBEEPRO -DZIGBEE_FRAGMENTATION
#        -DINTER_PAN -DOSAL_CLOCK -DOSAL_SAPI=FALSE -DSAPI_CB_FUNC=FALSE
#        -DHOLD_AUTO_START -DNV_RESTORE -DNV_INIT -DNUM_DISC_ATTEMPTS=0
#        -DMT_UTIL_FUNC -DMT_SYS_FUNC -DMT_AF_FUNC -DMT_SAPI_FUNC
#        -DMT_SAPI_CB_FUNC -DMT_ZDO_CB_FUNC -DMT_ZDO_FUNC -DMT_ZDO_MGMT
#        -DMT_ZDO_EXTENSIONS -DMT_APP_FUNC) -f "C:\Texas Instruments\Z-Stack
#        Home
#        1.2.2a.44539\Projects\zstack\ZNP\CC253x\..\..\Tools\CC2530DB\f8wConfig.cfg"
#        (-DZIGBEEPRO -DSECURE=1 -DZG_SECURE_DYNAMIC=0 -DREFLECTOR
#        -DDEFAULT_CHANLIST=0x00000800 -DZDAPP_CONFIG_PAN_ID=0xFFFF
#        -DNWK_START_DELAY=100 -DEXTENDED_JOINING_RANDOM_MASK=0x007F
#        -DBEACON_REQUEST_DELAY=100 -DBEACON_REQ_DELAY_MASK=0x00FF
#        -DLINK_STATUS_JITTER_MASK=0x007F -DROUTE_EXPIRY_TIME=30
#        -DAPSC_ACK_WAIT_DURATION_POLLED=3000 -DNWK_INDIRECT_MSG_TIMEOUT=7
#        -DMAX_RREQ_ENTRIES=8 -DAPSC_MAX_FRAME_RETRIES=3
#        -DNWK_MAX_DATA_RETRIES=2 -DMAX_POLL_FAILURE_RETRIES=2 -DMAX_BCAST=9
#        -DAPS_MAX_GROUPS=16 -DMAX_RTG_ENTRIES=40 -DNWK_MAX_BINDING_ENTRIES=4
#        -DMAX_BINDING_CLUSTER_IDS=4 "-DDEFAULT_KEY={0x01, 0x03, 0x05, 0x07,
#        0x09, 0x0B, 0x0D, 0x0F, 0x00, 0x02, 0x04, 0x06, 0x08, 0x0A, 0x0C,
#        0x0D}" -DMAC_MAX_FRAME_SIZE=116 -DZDNWKMGR_MIN_TRANSMISSIONS=20
#        "-DCONST=const __code" -DGENERIC=__generic -DRFD_RCVC_ALWAYS_ON=FALSE
#        -DPOLL_RATE=1000 -DQUEUED_POLL_RATE=100 -DRESPONSE_POLL_RATE=100
#        -DREJOIN_POLL_RATE=440 -DREJOIN_BACKOFF=900000 -DREJOIN_SCAN=900000)
#        -f "C:\Texas Instruments\Z-Stack Home
#        1.2.2a.44539\Projects\zstack\ZNP\CC253x\..\..\Tools\CC2530DB\f8wZCL.cfg"
#        -I "C:\Texas Instruments\Z-Stack Home
#        1.2.2a.44539\Projects\zstack\ZNP\CC253x\" -I "C:\Texas
#        Instruments\Z-Stack Home
#        1.2.2a.44539\Projects\zstack\ZNP\CC253x\Source\" -I "C:\Texas
#        Instruments\Z-Stack Home
#        1.2.2a.44539\Projects\zstack\ZNP\CC253x\..\Source\" -I "C:\Texas
#        Instruments\Z-Stack Home
#        1.2.2a.44539\Projects\zstack\ZNP\CC253x\..\..\SE\Source\" -I "C:\Texas
#        Instruments\Z-Stack Home
#        1.2.2a.44539\Projects\zstack\ZNP\CC253x\..\..\ZMain\TI2530ZNP\" -I
#        "C:\Texas Instruments\Z-Stack Home
#        1.2.2a.44539\Projects\zstack\ZNP\CC253x\..\..\..\..\Components\hal\include\"
#        -I "C:\Texas Instruments\Z-Stack Home
#        1.2.2a.44539\Projects\zstack\ZNP\CC253x\..\..\..\..\Components\hal\target\CC2530ZNP\"
#        -I "C:\Texas Instruments\Z-Stack Home
#        1.2.2a.44539\Projects\zstack\ZNP\CC253x\..\..\..\..\Components\mac\include\"
#        -I "C:\Texas Instruments\Z-Stack Home
#        1.2.2a.44539\Projects\zstack\ZNP\CC253x\..\..\..\..\Components\mac\high_level\"
#        -I "C:\Texas Instruments\Z-Stack Home
#        1.2.2a.44539\Projects\zstack\ZNP\CC253x\..\..\..\..\Components\mac\low_level\srf04\"
#        -I "C:\Texas Instruments\Z-Stack Home
#        1.2.2a.44539\Projects\zstack\ZNP\CC253x\..\..\..\..\Components\mac\low_level\srf04\single_chip\"
#        -I "C:\Texas Instruments\Z-Stack Home
#        1.2.2a.44539\Projects\zstack\ZNP\CC253x\..\..\..\..\Components\mt\" -I
#        "C:\Texas Instruments\Z-Stack Home
#        1.2.2a.44539\Projects\zstack\ZNP\CC253x\..\..\..\..\Components\osal\include\"
#        -I "C:\Texas Instruments\Z-Stack Home
#        1.2.2a.44539\Projects\zstack\ZNP\CC253x\..\..\..\..\Components\services\ecc\binary163\"
#        -I "C:\Texas Instruments\Z-Stack Home
#        1.2.2a.44539\Projects\zstack\ZNP\CC253x\..\..\..\..\Components\services\ecc\binary283\"
#        -I "C:\Texas Instruments\Z-Stack Home
#        1.2.2a.44539\Projects\zstack\ZNP\CC253x\..\..\..\..\Components\services\saddr\"
#        -I "C:\Texas Instruments\Z-Stack Home
#        1.2.2a.44539\Projects\zstack\ZNP\CC253x\..\..\..\..\Components\services\sdata\"
#        -I "C:\Texas Instruments\Z-Stack Home
#        1.2.2a.44539\Projects\zstack\ZNP\CC253x\..\..\..\..\Components\stack\af\"
#        -I "C:\Texas Instruments\Z-Stack Home
#        1.2.2a.44539\Projects\zstack\ZNP\CC253x\..\..\..\..\Components\stack\nwk\"
#        -I "C:\Texas Instruments\Z-Stack Home
#        1.2.2a.44539\Projects\zstack\ZNP\CC253x\..\..\..\..\Components\stack\sapi\"
#        -I "C:\Texas Instruments\Z-Stack Home
#        1.2.2a.44539\Projects\zstack\ZNP\CC253x\..\..\..\..\Components\stack\sec\"
#        -I "C:\Texas Instruments\Z-Stack Home
#        1.2.2a.44539\Projects\zstack\ZNP\CC253x\..\..\..\..\Components\stack\sys\"
#        -I "C:\Texas Instruments\Z-Stack Home
#        1.2.2a.44539\Projects\zstack\ZNP\CC253x\..\..\..\..\Components\stack\zcl\"
#        -I "C:\Texas Instruments\Z-Stack Home
#        1.2.2a.44539\Projects\zstack\ZNP\CC253x\..\..\..\..\Components\stack\zdo\"
#        -I "C:\Texas Instruments\Z-Stack Home
#        1.2.2a.44539\Projects\zstack\ZNP\CC253x\..\..\..\..\Components\zmac\"
#        -I "C:\Texas Instruments\Z-Stack Home
#        1.2.2a.44539\Projects\zstack\ZNP\CC253x\..\..\..\..\Components\zmac\f8w\"
#        -Ohz --require_prototypes --no_code_motion)
#    Locale             =  German_Germany.1252
#    List file          =  
#        C:\Texas Instruments\Z-Stack Home
#        1.2.2a.44539\Projects\zstack\ZNP\CC253x\CC2530-Debug\List\ZDProfile.lst
#    Object file        =  
#        C:\Texas Instruments\Z-Stack Home
#        1.2.2a.44539\Projects\zstack\ZNP\CC253x\CC2530-Debug\Obj\ZDProfile.r51
#
###############################################################################

C:\Texas Instruments\Z-Stack Home 1.2.2a.44539\Components\stack\zdo\ZDProfile.c
      1          /**************************************************************************************************
      2            Filename:       ZDProfile.c
      3            Revised:        $Date: 2015-10-14 11:48:06 -0700 (Wed, 14 Oct 2015) $
      4            Revision:       $Revision: 44530 $
      5          
      6            Description:    This is the Zigbee Device Profile.
      7          
      8          
      9            Copyright 2004-2015 Texas Instruments Incorporated. All rights reserved.
     10          
     11            IMPORTANT: Your use of this Software is limited to those specific rights
     12            granted under the terms of a software license agreement between the user
     13            who downloaded the software, his/her employer (which must be your employer)
     14            and Texas Instruments Incorporated (the "License").  You may not use this
     15            Software unless you agree to abide by the terms of the License. The License
     16            limits your use, and you acknowledge, that the Software may not be modified,
     17            copied or distributed unless embedded on a Texas Instruments microcontroller
     18            or used solely and exclusively in conjunction with a Texas Instruments radio
     19            frequency transceiver, which is integrated into your product.  Other than for
     20            the foregoing purpose, you may not use, reproduce, copy, prepare derivative
     21            works of, modify, distribute, perform, display or sell this Software and/or
     22            its documentation for any purpose.
     23          
     24            YOU FURTHER ACKNOWLEDGE AND AGREE THAT THE SOFTWARE AND DOCUMENTATION ARE
     25            PROVIDED "AS IS" WITHOUT WARRANTY OF ANY KIND, EITHER EXPRESS OR IMPLIED,
     26            INCLUDING WITHOUT LIMITATION, ANY WARRANTY OF MERCHANTABILITY, TITLE,
     27            NON-INFRINGEMENT AND FITNESS FOR A PARTICULAR PURPOSE. IN NO EVENT SHALL
     28            TEXAS INSTRUMENTS OR ITS LICENSORS BE LIABLE OR OBLIGATED UNDER CONTRACT,
     29            NEGLIGENCE, STRICT LIABILITY, CONTRIBUTION, BREACH OF WARRANTY, OR OTHER
     30            LEGAL EQUITABLE THEORY ANY DIRECT OR INDIRECT DAMAGES OR EXPENSES
     31            INCLUDING BUT NOT LIMITED TO ANY INCIDENTAL, SPECIAL, INDIRECT, PUNITIVE
     32            OR CONSEQUENTIAL DAMAGES, LOST PROFITS OR LOST DATA, COST OF PROCUREMENT
     33            OF SUBSTITUTE GOODS, TECHNOLOGY, SERVICES, OR ANY CLAIMS BY THIRD PARTIES
     34            (INCLUDING BUT NOT LIMITED TO ANY DEFENSE THEREOF), OR OTHER SIMILAR COSTS.
     35          
     36            Should you have any questions regarding your right to use this Software,
     37            contact Texas Instruments Incorporated at www.TI.com.
     38          **************************************************************************************************/
     39          
     40          /*********************************************************************
     41           * INCLUDES
     42           */
     43          #include "ZComDef.h"
     44          #include "OSAL.h"
     45          #include "AF.h"
     46          #include "NLMEDE.h"
     47          #include "nwk_util.h"
     48          #include "APS.h"
     49          
     50          #include "AddrMgr.h"
     51          #include "ZDConfig.h"
     52          #include "ZDProfile.h"
     53          #include "ZDObject.h"
     54          #include "ZDNwkMgr.h"
     55          
     56          #if defined( LCD_SUPPORTED )
     57            #include "OnBoard.h"
     58          #endif
     59          
     60          #include "nwk_util.h"
     61          
     62          #if defined( MT_ZDO_FUNC )
     63            #include "MT_ZDO.h"
     64          #endif
     65          
     66          /*********************************************************************
     67           * MACROS
     68           */
     69          
     70          #define ZADDR_TO_AFADDR( pZADDR, AFADDR ) {                            \
     71            (AFADDR).endPoint = ZDP_AF_ENDPOINT;                                 \
     72            (AFADDR).addrMode = (afAddrMode_t)(pZADDR)->addrMode;                \
     73            (AFADDR).addr.shortAddr = (pZADDR)->addr.shortAddr;                  \
     74          }
     75          
     76          #define FillAndSendBuffer( TRANSSEQ, ADDR, ID, LEN, BUF ) {     \
     77            afStatus_t stat;                                    \
     78            ZDP_TmpBuf = (BUF)+1;                               \
     79            stat = fillAndSend( (TRANSSEQ), (ADDR), (ID), (LEN) );          \
     80            osal_mem_free( (BUF) );                             \
     81            ZDP_TmpBuf = ZDP_Buf+1;                             \
     82            return stat;                                        \
     83          }
     84          
     85          #define FillAndSendTxOptions( TRANSSEQ, ADDR, ID, LEN, TxO ) {  \
     86            afStatus_t stat;                                    \
     87            ZDP_TxOptions = (TxO);                              \
     88            stat = fillAndSend( (TRANSSEQ), (ADDR), (ID), (LEN) );          \
     89            ZDP_TxOptions = AF_TX_OPTIONS_NONE;                 \
     90            return stat;                                        \
     91          }
     92          
     93          #define FillAndSendBufferTxOptions( TRANSSEQ, ADDR, ID, LEN, BUF, TxO ) { \
     94            afStatus_t stat;                                    \
     95            ZDP_TmpBuf = (BUF)+1;                               \
     96            ZDP_TxOptions = (TxO);                              \
     97            stat = fillAndSend( (TRANSSEQ), (ADDR), (ID), (LEN) );          \
     98            osal_mem_free( (BUF) );                             \
     99            ZDP_TmpBuf = ZDP_Buf+1;                             \
    100            ZDP_TxOptions = AF_TX_OPTIONS_NONE;                 \
    101            return stat;                                        \
    102          }
    103          
    104          /*********************************************************************
    105           * CONSTANTS
    106           */
    107          
    108          #define ZDP_BUF_SZ          80
    109          

   \                                 In  segment CODE_C, align 1
    110          CONST byte ZDP_AF_ENDPOINT = 0;
   \                     ZDP_AF_ENDPOINT:
   \   000000   00           DB 0
    111          
    112          // Routing table options
    113          #define ZP_RTG_RECORD       0x04       // Routing table indication that a route record is needed
    114          #define ZP_MTO_ROUTE_RC     0x08       // Concentrator with routing cache
    115          #define ZP_MTO_ROUTE_NRC    0x10       // Concentrator with limited cache
    116          
    117          
    118          /*********************************************************************
    119           * TYPEDEFS
    120           */
    121          typedef struct
    122          {
    123            void *next;
    124            uint8 taskID;
    125            uint16 clusterID;
    126          } ZDO_MsgCB_t;
    127          
    128          
    129          /*********************************************************************
    130           * GLOBAL VARIABLES
    131           */
    132          

   \                                 In  segment XDATA_Z, align 1, keep-with-next
    133          byte ZDP_TransID = 0;
   \                     ZDP_TransID:
   \   000000                DS 1
   \   000001                REQUIRE __INIT_XDATA_Z
    134          
    135          /*********************************************************************
    136           * EXTERNAL VARIABLES
    137           */
    138          
    139          extern endPointDesc_t ZDApp_epDesc;
    140          
    141          /*********************************************************************
    142           * EXTERNAL FUNCTIONS
    143           */
    144          
    145          /*********************************************************************
    146           * LOCAL FUNCTIONS
    147           */
    148          
    149          static afStatus_t fillAndSend( uint8 *transSeq, zAddrType_t *addr, cId_t clusterID, byte len );
    150          uint8 ZDO_SendMsgCBs( zdoIncomingMsg_t *inMsg );
    151          void zdpProcessAddrReq( zdoIncomingMsg_t *inMsg );
    152          
    153          /*********************************************************************
    154           * LOCAL VARIABLES
    155           */
    156          

   \                                 In  segment XDATA_Z, align 1, keep-with-next
    157          static uint8  ZDP_Buf[ ZDP_BUF_SZ ];
   \                     ZDP_Buf:
   \   000000                DS 80
   \   000050                REQUIRE __INIT_XDATA_Z

   \                                 In  segment XDATA_I, align 1, keep-with-next
    158          static uint8 *ZDP_TmpBuf = ZDP_Buf+1;
   \                     ZDP_TmpBuf:
   \   000000                DS 2
   \   000002                REQUIRE `?<Initializer for ZDP_TmpBuf>`
   \   000002                REQUIRE __INIT_XDATA_I
    159          

   \                                 In  segment XDATA_Z, align 1, keep-with-next
    160          byte ZDP_TxOptions = AF_TX_OPTIONS_NONE;
   \                     ZDP_TxOptions:
   \   000000                DS 1
   \   000001                REQUIRE __INIT_XDATA_Z

   \                                 In  segment XDATA_Z, align 1, keep-with-next
    161          ZDO_MsgCB_t *zdoMsgCBs = (ZDO_MsgCB_t *)NULL;
   \                     zdoMsgCBs:
   \   000000                DS 2
   \   000002                REQUIRE __INIT_XDATA_Z
    162          
    163          /*********************************************************************
    164           * ZDO Message Processing table
    165           */
    166          
    167          typedef void (*pfnZDPMsgProcessor)( zdoIncomingMsg_t *inMsg );
    168          
    169          typedef struct
    170          {
    171            uint16                clusterID;
    172            pfnZDPMsgProcessor    pFn;
    173          } zdpMsgProcItem_t;
    174          

   \                                 In  segment CODE_C, align 1
    175          CONST zdpMsgProcItem_t zdpMsgProcs[] =
   \                     zdpMsgProcs:
   \   000000   0000         DW 0
   \   000002   ....         DW `??zdpProcessAddrReq::?relay`
   \   000004   1300         DW 19
   \   000006   ....         DW `??ZDO_ProcessDeviceAnnce::?relay`
   \   000008   1F00         DW 31
   \   00000A   ....         DW `??ZDO_ProcessParentAnnce::?relay`
   \   00000C   1F80         DW 32799
   \   00000E   ....         DW `??ZDO_ProcessParentAnnceRsp::?relay`
   \   000010   0100         DW 1
   \   000012   ....         DW `??zdpProcessAddrReq::?relay`
   \   000014   0200         DW 2
   \   000016   ....         DW `??ZDO_ProcessNodeDescReq::?relay`
   \   000018   0300         DW 3
   \   00001A   ....         DW `??ZDO_ProcessPowerDescReq::?relay`
   \   00001C   0400         DW 4
   \   00001E   ....         DW `??ZDO_ProcessSimpleDescReq::?relay`
   \   000020   0500         DW 5
   \   000022   ....         DW `??ZDO_ProcessActiveEPReq::?relay`
   \   000024   0600         DW 6
   \   000026   ....         DW `??ZDO_ProcessMatchDescReq::?relay`
   \   000028   3000         DW 48
   \   00002A   ....         DW `??ZDO_ProcessMgmtNwkDiscReq::?relay`
   \   00002C   3100         DW 49
   \   00002E   ....         DW `??ZDO_ProcessMgmtLqiReq::?relay`
   \   000030   3200         DW 50
   \   000032   ....         DW `??ZDO_ProcessMgmtRtgReq::?relay`
   \   000034   3300         DW 51
   \   000036   ....         DW `??ZDO_ProcessMgmtBindReq::?relay`
   \   000038   3500         DW 53
   \   00003A   ....         DW `??ZDO_ProcessMgmtDirectJoinReq::?relay`
   \   00003C   3400         DW 52
   \   00003E   ....         DW `??ZDO_ProcessMgmtLeaveReq::?relay`
   \   000040   3600         DW 54
   \   000042   ....         DW `??ZDO_ProcessMgmtPermitJoinReq::?relay`
   \   000044   1100         DW 17
   \   000046   ....         DW `??ZDO_ProcessUserDescReq::?relay`
   \   000048   1400         DW 20
   \   00004A   ....         DW `??ZDO_ProcessUserDescSet::?relay`
   \   00004C   1500         DW 21
   \   00004E   ....         DW `??ZDO_ProcessServerDiscReq::?relay`
   \   000050   FFFF         DW 65535
   \   000052   0000         DW 0H
    176          {
    177          #if ( RFD_RCVC_ALWAYS_ON==TRUE ) || ( ZG_BUILD_RTR_TYPE )
    178            // These aren't processed by sleeping end devices.
    179            { NWK_addr_req,           zdpProcessAddrReq },
    180            { Device_annce,           ZDO_ProcessDeviceAnnce },
    181          #endif
    182          #if ( ZG_BUILD_RTR_TYPE )
    183            // These aren't processed by end devices.
    184            { Parent_annce,           ZDO_ProcessParentAnnce },
    185            { Parent_annce_rsp,       ZDO_ProcessParentAnnceRsp },
    186          #endif
    187            { IEEE_addr_req,          zdpProcessAddrReq },
    188            { Node_Desc_req,          ZDO_ProcessNodeDescReq },
    189            { Power_Desc_req,         ZDO_ProcessPowerDescReq },
    190            { Simple_Desc_req,        ZDO_ProcessSimpleDescReq },
    191            { Active_EP_req,          ZDO_ProcessActiveEPReq },
    192            { Match_Desc_req,         ZDO_ProcessMatchDescReq },
    193          #if defined ( ZDO_MGMT_NWKDISC_RESPONSE )
    194            { Mgmt_NWK_Disc_req,      ZDO_ProcessMgmtNwkDiscReq },
    195          #endif
    196          #if defined ( ZDO_MGMT_LQI_RESPONSE ) && ( ZG_BUILD_RTR_TYPE )
    197            { Mgmt_Lqi_req,           ZDO_ProcessMgmtLqiReq },
    198          #endif
    199          #if defined ( ZDO_MGMT_RTG_RESPONSE ) && ( ZG_BUILD_RTR_TYPE )
    200            { Mgmt_Rtg_req,           ZDO_ProcessMgmtRtgReq },
    201          #endif
    202          #if defined ( ZDO_MGMT_BIND_RESPONSE ) && defined ( REFLECTOR )
    203            { Mgmt_Bind_req,          ZDO_ProcessMgmtBindReq },
    204          #endif
    205          #if defined ( ZDO_MGMT_JOINDIRECT_RESPONSE ) && ( ZG_BUILD_RTR_TYPE )
    206            { Mgmt_Direct_Join_req,   ZDO_ProcessMgmtDirectJoinReq },
    207          #endif
    208          #if defined ( ZDO_MGMT_LEAVE_RESPONSE )
    209            { Mgmt_Leave_req,         ZDO_ProcessMgmtLeaveReq },
    210          #endif
    211          #if defined ( ZDO_MGMT_PERMIT_JOIN_RESPONSE )  && ( ZG_BUILD_RTR_TYPE )
    212            { Mgmt_Permit_Join_req,   ZDO_ProcessMgmtPermitJoinReq },
    213          #endif
    214          #if defined ( ZDO_USERDESC_RESPONSE )
    215            { User_Desc_req,          ZDO_ProcessUserDescReq },
    216          #endif
    217          #if defined ( ZDO_USERDESCSET_RESPONSE )
    218            { User_Desc_set,          ZDO_ProcessUserDescSet },
    219          #endif
    220          #if defined ( ZDO_SERVERDISC_RESPONSE )
    221            { Server_Discovery_req,   ZDO_ProcessServerDiscReq },
    222          #endif
    223            {0xFFFF, NULL} // Last
    224          };
    225          
    226          /*********************************************************************
    227           * @fn          fillAndSend
    228           *
    229           * @brief       Combined to reduce space
    230           *
    231           * @param
    232           * @param
    233           *
    234           * @return      afStatus_t
    235           */

   \                                 In  segment BANKED_CODE, align 1, keep-with-next
    236          static afStatus_t fillAndSend( uint8 *transSeq, zAddrType_t *addr, cId_t clusterID, byte len )
   \                     fillAndSend:
    237          {
   \   000000                REQUIRE ?V0
   \   000000                REQUIRE ?V1
   \   000000                REQUIRE ?V2
   \   000000                REQUIRE ?V3
   \   000000                REQUIRE ?V4
   \   000000                REQUIRE ?V5
   \   000000   74F2         MOV       A,#-0xe
   \   000002   12....       LCALL     ?BANKED_ENTER_XDATA
   \   000005                ; Saved register size: 14
   \   000005                ; Auto size: 12
   \   000005   74F4         MOV       A,#-0xc
   \   000007   12....       LCALL     ?ALLOC_XSTACK8
   \   00000A   8A..         MOV       ?V0,R2
   \   00000C   8B..         MOV       ?V1,R3
   \   00000E   EC           MOV       A,R4
   \   00000F   FE           MOV       R6,A
   \   000010   ED           MOV       A,R5
   \   000011   FF           MOV       R7,A
   \   000012   89..         MOV       ?V4,R1
    238            afAddrType_t afAddr;
    239          
    240            osal_memset( &afAddr, 0, sizeof(afAddrType_t) );
   \   000014                ; Setup parameters for call to function osal_memset
   \   000014   7C0C         MOV       R4,#0xc
   \   000016   7D00         MOV       R5,#0x0
   \   000018   7900         MOV       R1,#0x0
   \   00001A   AA..         MOV       R2,?XSP + 0
   \   00001C   AB..         MOV       R3,?XSP + 1
   \   00001E   12....       LCALL     `??osal_memset::?relay`; Banked call to: osal_memset
    241            ZADDR_TO_AFADDR( addr, afAddr );
   \   000021   7409         MOV       A,#0x9
   \   000023   12....       LCALL     ?XSTACK_DISP0_8
   \   000026   E4           CLR       A
   \   000027   12....       LCALL     ?Subroutine22 & 0xFFFF
   \                     ??CrossCallReturnLabel_23:
   \   00002A   E0           MOVX      A,@DPTR
   \   00002B   C0E0         PUSH      A
   \   00002D   7408         MOV       A,#0x8
   \   00002F   12....       LCALL     ?XSTACK_DISP0_8
   \   000032   D0E0         POP       A
   \   000034   F0           MOVX      @DPTR,A
   \   000035   8E82         MOV       DPL,R6
   \   000037   8F83         MOV       DPH,R7
   \   000039   12....       LCALL     ?Subroutine49 & 0xFFFF
   \                     ??CrossCallReturnLabel_74:
   \   00003C   12....       LCALL     ??Subroutine127_0 & 0xFFFF
    242          
    243            *(ZDP_TmpBuf-1) = *transSeq;
   \                     ??CrossCallReturnLabel_232:
   \   00003F   90....       MOV       DPTR,#ZDP_TmpBuf
   \   000042   E0           MOVX      A,@DPTR
   \   000043   24FF         ADD       A,#-0x1
   \   000045   F5..         MOV       ?V2,A
   \   000047   A3           INC       DPTR
   \   000048   E0           MOVX      A,@DPTR
   \   000049   34FF         ADDC      A,#-0x1
   \   00004B   F5..         MOV       ?V3,A
   \   00004D   85..82       MOV       DPL,?V0
   \   000050   85..83       MOV       DPH,?V1
   \   000053   E0           MOVX      A,@DPTR
   \   000054   85..82       MOV       DPL,?V2
   \   000057   85..83       MOV       DPH,?V3
   \   00005A   F0           MOVX      @DPTR,A
    244          
    245            return AF_DataRequest( &afAddr, &ZDApp_epDesc, clusterID,
    246                                     (uint16)(len+1), (uint8*)(ZDP_TmpBuf-1),
    247                                     transSeq, ZDP_TxOptions,  AF_DEFAULT_RADIUS );
   \   00005B                ; Setup parameters for call to function AF_DataRequest
   \   00005B   75..1E       MOV       ?V5,#0x1e
   \   00005E   78..         MOV       R0,#?V5
   \   000060   12....       LCALL     ?PUSH_XSTACK_I_ONE
   \   000063   78..         MOV       R0,#?V0
   \   000065   12....       LCALL     ?PUSH_XSTACK_I_TWO
   \   000068   78..         MOV       R0,#?V2
   \   00006A   12....       LCALL     ?PUSH_XSTACK_I_TWO
   \   00006D   E5..         MOV       A,?V4
   \   00006F   2401         ADD       A,#0x1
   \   000071   F5..         MOV       ?V0,A
   \   000073   E4           CLR       A
   \   000074   3400         ADDC      A,#0x0
   \   000076   F5..         MOV       ?V1,A
   \   000078   78..         MOV       R0,#?V0
   \   00007A   12....       LCALL     ?PUSH_XSTACK_I_TWO
   \   00007D   7421         MOV       A,#0x21
   \   00007F   12....       LCALL     ?XSTACK_DISP0_8
   \   000082   12....       LCALL     ?PUSH_XSTACK8_X_TWO
   \   000085   90....       MOV       DPTR,#ZDP_TxOptions
   \   000088   E0           MOVX      A,@DPTR
   \   000089   F9           MOV       R1,A
   \   00008A   7C..         MOV       R4,#ZDApp_epDesc & 0xff
   \   00008C   7D..         MOV       R5,#(ZDApp_epDesc >> 8) & 0xff
   \   00008E   7409         MOV       A,#0x9
   \   000090   12....       LCALL     ?XSTACK_DISP101_8
   \   000093   12....       LCALL     `??AF_DataRequest::?relay`; Banked call to: AF_DataRequest
   \   000096   7409         MOV       A,#0x9
   \   000098   12....       LCALL     ?DEALLOC_XSTACK8
   \   00009B   740C         MOV       A,#0xc
   \   00009D   02....       LJMP      ?Subroutine0 & 0xFFFF
    248          
    249          }

   \                                 In  segment BANKED_CODE, align 1, keep-with-next
   \                     ?Subroutine49:
   \   000000   12....       LCALL     ?Subroutine81 & 0xFFFF
   \                     ??CrossCallReturnLabel_293:
   \   000003   85..82       MOV       DPL,?XSP + 0
   \   000006   85..83       MOV       DPH,?XSP + 1
   \   000009   22           RET

   \                                 In  segment BANKED_CODE, align 1, keep-with-next
   \                     ?Subroutine0:
   \   000000   12....       LCALL     ?DEALLOC_XSTACK8
   \   000003                REQUIRE ??Subroutine109_0
   \   000003                ; // Fall through to label ??Subroutine109_0

   \                                 In  segment BANKED_CODE, align 1, keep-with-next
   \                     ??Subroutine109_0:
   \   000000   7F06         MOV       R7,#0x6
   \   000002   02....       LJMP      ?BANKED_LEAVE_XDATA

   \                                 In  segment BANKED_CODE, align 1, keep-with-next
   \                     ??Subroutine112_0:
   \   000000   E0           MOVX      A,@DPTR
   \   000001   F8           MOV       R0,A
   \   000002   A3           INC       DPTR
   \   000003   E0           MOVX      A,@DPTR
   \   000004   22           RET

   \                                 In  segment BANKED_CODE, align 1, keep-with-next
   \                     ?Subroutine104:
   \   000000   F0           MOVX      @DPTR,A
   \   000001   8E82         MOV       DPL,R6
   \   000003   8F83         MOV       DPH,R7
   \   000005   A3           INC       DPTR
   \   000006   A3           INC       DPTR
   \   000007   A3           INC       DPTR
   \   000008   22           RET

   \                                 In  segment BANKED_CODE, align 1, keep-with-next
   \                     ?Subroutine22:
   \   000000   12....       LCALL     ?Subroutine92 & 0xFFFF
   \                     ??CrossCallReturnLabel_157:
   \   000003   A3           INC       DPTR
   \   000004   A3           INC       DPTR
   \   000005   A3           INC       DPTR
   \   000006   A3           INC       DPTR
   \   000007   22           RET

   \                                 In  segment BANKED_CODE, align 1, keep-with-next
   \                     ??Subroutine127_0:
   \   000000   E8           MOV       A,R0
   \   000001   F0           MOVX      @DPTR,A
   \   000002   A3           INC       DPTR
   \   000003   E9           MOV       A,R1
   \   000004   F0           MOVX      @DPTR,A
   \   000005   22           RET

   \                                 In  segment BANKED_CODE, align 1, keep-with-next
   \                     ?Subroutine81:
   \   000000   12....       LCALL     ??Subroutine112_0 & 0xFFFF
   \                     ??CrossCallReturnLabel_303:
   \   000003   F9           MOV       R1,A
   \   000004   22           RET

   \                                 In  segment BANKED_CODE, align 1, keep-with-next
   \                     ?Subroutine92:
   \   000000   12....       LCALL     ?Subroutine104 & 0xFFFF
   \                     ??CrossCallReturnLabel_182:
   \   000003   A3           INC       DPTR
   \   000004   22           RET
    250          
    251          /*********************************************************************
    252           * @fn          ZDP_SendData
    253           *
    254           * @brief       This builds and send a request message that has
    255           *              NWKAddrOfInterest as its only parameter.
    256           *
    257           * @param       dstAddr - destination address
    258           * @param       cmd - clusterID
    259           * @param       dataLen - number of bytes of data
    260           * @param       data - pointer to the data
    261           * @param       SecurityEnable - Security Options
    262           *
    263           * @return      afStatus_t
    264           */

   \                                 In  segment BANKED_CODE, align 1, keep-with-next
    265          afStatus_t ZDP_SendData( uint8 *TransSeq, zAddrType_t *dstAddr, uint16 cmd,
   \                     ZDP_SendData:
    266                                  byte len, uint8 *buf, byte SecurityEnable )
    267          {
   \   000000                REQUIRE ?V0
   \   000000                REQUIRE ?V2
   \   000000                REQUIRE ?V3
   \   000000   74F4         MOV       A,#-0xc
   \   000002   12....       LCALL     ?BANKED_ENTER_XDATA
   \   000005                ; Saved register size: 12
   \   000005                ; Auto size: 0
   \   000005   E9           MOV       A,R1
   \   000006   FF           MOV       R7,A
    268            uint8 *pBuf = ZDP_TmpBuf;
   \   000007   90....       MOV       DPTR,#ZDP_TmpBuf
   \   00000A   12....       LCALL     ??Subroutine115_0 & 0xFFFF
    269            byte cnt = len;
   \                     ??CrossCallReturnLabel_191:
   \   00000D   EF           MOV       A,R7
   \   00000E   FE           MOV       R6,A
   \   00000F   740E         MOV       A,#0xe
   \   000011   12....       LCALL     ?XSTACK_DISP0_8
   \   000014   12....       LCALL     ??Subroutine136_0 & 0xFFFF
   \                     ??CrossCallReturnLabel_281:
   \   000017   801F         SJMP      ??ZDP_SendData_0
    270          
    271            while ( cnt-- )
    272            {
    273              *pBuf++ = *buf++;
   \                     ??ZDP_SendData_1:
   \   000019   8882         MOV       DPL,R0
   \   00001B   8983         MOV       DPH,R1
   \   00001D   E0           MOVX      A,@DPTR
   \   00001E   85..82       MOV       DPL,?V2
   \   000021   85..83       MOV       DPH,?V3
   \   000024   12....       LCALL     ??Subroutine116_0 & 0xFFFF
    274            }
   \                     ??CrossCallReturnLabel_199:
   \   000027   A882         MOV       R0,DPL
   \   000029   A983         MOV       R1,DPH
   \   00002B   85..82       MOV       DPL,?V2
   \   00002E   85..83       MOV       DPH,?V3
   \   000031   A3           INC       DPTR
   \   000032   8582..       MOV       ?V2,DPL
   \   000035   8583..       MOV       ?V3,DPH
   \                     ??ZDP_SendData_0:
   \   000038   74FF         MOV       A,#-0x1
   \   00003A   2E           ADD       A,R6
   \   00003B   FE           MOV       R6,A
   \   00003C   04           INC       A
   \   00003D   70DA         JNZ       ??ZDP_SendData_1
    275          
    276            FillAndSendTxOptions( TransSeq, dstAddr, cmd, len, ((SecurityEnable) ? AF_EN_SECURITY : 0) );
   \   00003F   7410         MOV       A,#0x10
   \   000041   12....       LCALL     ?XSTACK_DISP0_8
   \   000044   E0           MOVX      A,@DPTR
   \   000045   90....       MOV       DPTR,#ZDP_TxOptions
   \   000048   6004         JZ        ??ZDP_SendData_2
   \   00004A   7440         MOV       A,#0x40
   \   00004C   8001         SJMP      ??ZDP_SendData_3
   \                     ??ZDP_SendData_2:
   \   00004E   E4           CLR       A
   \                     ??ZDP_SendData_3:
   \   00004F   F0           MOVX      @DPTR,A
   \   000050                ; Setup parameters for call to function fillAndSend
   \   000050   740C         MOV       A,#0xc
   \   000052   12....       LCALL     ?XSTACK_DISP0_8
   \   000055   12....       LCALL     ?PUSH_XSTACK8_X_TWO
   \   000058   EF           MOV       A,R7
   \   000059   F9           MOV       R1,A
   \   00005A   12....       LCALL     `??fillAndSend::?relay`; Banked call to: fillAndSend
   \   00005D   7402         MOV       A,#0x2
   \   00005F   12....       LCALL     ?DEALLOC_XSTACK8
   \   000062   E9           MOV       A,R1
   \   000063   F9           MOV       R1,A
   \   000064   90....       MOV       DPTR,#ZDP_TxOptions
   \   000067   E4           CLR       A
   \   000068   F0           MOVX      @DPTR,A
   \   000069   02....       LJMP      ??Subroutine108_0 & 0xFFFF
    277          }

   \                                 In  segment BANKED_CODE, align 1, keep-with-next
   \                     ??Subroutine108_0:
   \   000000   7F04         MOV       R7,#0x4
   \   000002   02....       LJMP      ?BANKED_LEAVE_XDATA

   \                                 In  segment BANKED_CODE, align 1, keep-with-next
   \                     ??Subroutine115_0:
   \   000000   E0           MOVX      A,@DPTR
   \   000001   F5..         MOV       ?V2,A
   \   000003   A3           INC       DPTR
   \   000004   E0           MOVX      A,@DPTR
   \   000005   F5..         MOV       ?V3,A
   \   000007   22           RET

   \                                 In  segment BANKED_CODE, align 1, keep-with-next
   \                     ??Subroutine116_0:
   \   000000   12....       LCALL     ?Subroutine91 & 0xFFFF
   \                     ??CrossCallReturnLabel_260:
   \   000003   22           RET

   \                                 In  segment BANKED_CODE, align 1, keep-with-next
   \                     ?Subroutine91:
   \   000000   12....       LCALL     ?Subroutine103 & 0xFFFF
   \                     ??CrossCallReturnLabel_265:
   \   000003   A3           INC       DPTR
   \   000004   22           RET

   \                                 In  segment BANKED_CODE, align 1, keep-with-next
   \                     ?Subroutine103:
   \   000000   F0           MOVX      @DPTR,A
   \   000001                ; Setup parameters for call to function osal_memcpy
   \   000001                ; Setup parameters for call to function osal_memcpy
   \   000001   8882         MOV       DPL,R0
   \   000003   8983         MOV       DPH,R1
   \   000005   22           RET

   \                                 In  segment BANKED_CODE, align 1, keep-with-next
   \                     ??Subroutine136_0:
   \   000000   12....       LCALL     ?Subroutine81 & 0xFFFF
   \                     ??CrossCallReturnLabel_297:
   \   000003   22           RET
    278          
    279          /*********************************************************************
    280           * @fn          ZDP_NWKAddrOfInterestReq
    281           *
    282           * @brief       This builds and send a request message that has
    283           *              NWKAddrOfInterest as its only parameter.
    284           *
    285           * @param       dstAddr - destination address
    286           * @param       nwkAddr - 16 bit address
    287           * @param       SecurityEnable - Security Options
    288           *
    289           * @return      afStatus_t
    290           */

   \                                 In  segment BANKED_CODE, align 1, keep-with-next
    291          afStatus_t ZDP_NWKAddrOfInterestReq( zAddrType_t *dstAddr, uint16 nwkAddr,
   \                     ZDP_NWKAddrOfInterestReq:
    292                                               byte cmd, byte SecurityEnable )
    293          {
   \   000000                REQUIRE ?V0
   \   000000                REQUIRE ?V1
   \   000000   74F6         MOV       A,#-0xa
   \   000002   12....       LCALL     ?BANKED_ENTER_XDATA
   \   000005                ; Saved register size: 10
   \   000005                ; Auto size: 0
   \   000005   E9           MOV       A,R1
   \   000006   FE           MOV       R6,A
    294            (void)SecurityEnable;  // Intentionally unreferenced parameter
    295          
    296            ZDP_TmpBuf[0] = LO_UINT16( nwkAddr );
   \   000007   12....       LCALL     ?Subroutine19 & 0xFFFF
    297            ZDP_TmpBuf[1] = HI_UINT16( nwkAddr );
   \                     ??CrossCallReturnLabel_17:
   \   00000A   F0           MOVX      @DPTR,A
    298          
    299            return fillAndSend( &ZDP_TransID, dstAddr, cmd, 2 );
   \   00000B                ; Setup parameters for call to function fillAndSend
   \   00000B   EE           MOV       A,R6
   \   00000C   F5..         MOV       ?V0,A
   \   00000E   75..00       MOV       ?V1,#0x0
   \   000011   78..         MOV       R0,#?V0
   \   000013   12....       LCALL     ?PUSH_XSTACK_I_TWO
   \   000016   7902         MOV       R1,#0x2
   \   000018   02....       LJMP      ?Subroutine8 & 0xFFFF
    300          }

   \                                 In  segment BANKED_CODE, align 1, keep-with-next
   \                     ?Subroutine19:
   \   000000   12....       LCALL     ?Subroutine102 & 0xFFFF
   \                     ??CrossCallReturnLabel_179:
   \   000003   EC           MOV       A,R4
   \   000004   12....       LCALL     ?Subroutine78 & 0xFFFF
   \                     ??CrossCallReturnLabel_131:
   \   000007   ED           MOV       A,R5
   \   000008   22           RET

   \                                 In  segment BANKED_CODE, align 1, keep-with-next
   \                     ??Subroutine111_0:
   \   000000   12....       LCALL     ?DEALLOC_XSTACK8
   \   000003   7F02         MOV       R7,#0x2
   \   000005   02....       LJMP      ?BANKED_LEAVE_XDATA

   \                                 In  segment BANKED_CODE, align 1, keep-with-next
   \                     ?Subroutine105:
   \   000000   90....       MOV       DPTR,#ZDP_TmpBuf
   \   000003                REQUIRE ??Subroutine112_0
   \   000003                ; // Fall through to label ??Subroutine112_0

   \                                 In  segment BANKED_CODE, align 1, keep-with-next
   \                     ?Subroutine8:
   \   000000   EA           MOV       A,R2
   \   000001   FC           MOV       R4,A
   \   000002   EB           MOV       A,R3
   \   000003   FD           MOV       R5,A
   \   000004   7A..         MOV       R2,#ZDP_TransID & 0xff
   \   000006   7B..         MOV       R3,#(ZDP_TransID >> 8) & 0xff
   \   000008                REQUIRE ??Subroutine118_0
   \   000008                ; // Fall through to label ??Subroutine118_0

   \                                 In  segment BANKED_CODE, align 1, keep-with-next
   \                     ??Subroutine118_0:
   \   000000   12....       LCALL     `??fillAndSend::?relay`; Banked call to: fillAndSend
   \   000003   7402         MOV       A,#0x2
   \   000005   02....       LJMP      ??Subroutine111_0 & 0xFFFF

   \                                 In  segment BANKED_CODE, align 1, keep-with-next
   \                     ?Subroutine78:
   \   000000   F0           MOVX      @DPTR,A
   \   000001   12....       LCALL     ?Subroutine102 & 0xFFFF
   \                     ??CrossCallReturnLabel_180:
   \   000004   A3           INC       DPTR
   \   000005   22           RET

   \                                 In  segment BANKED_CODE, align 1, keep-with-next
   \                     ?Subroutine102:
   \   000000   12....       LCALL     ?Subroutine105 & 0xFFFF
   \                     ??CrossCallReturnLabel_302:
   \   000003   F583         MOV       DPH,A
   \   000005   8882         MOV       DPL,R0
   \   000007   22           RET
    301          
    302          /*********************************************************************
    303           * Address Requests
    304           */
    305          
    306          /*********************************************************************
    307           * @fn          ZDP_NwkAddrReq
    308           *
    309           * @brief       This builds and send a NWK_addr_req message.  This
    310           *              function sends a broadcast message looking for a 16
    311           *              bit address with a 64 bit address as bait.
    312           *
    313           * @param       IEEEAddress - looking for this device
    314           * @param       SecurityEnable - Security Options
    315           *
    316           * @return      afStatus_t
    317           */

   \                                 In  segment BANKED_CODE, align 1, keep-with-next
    318          afStatus_t ZDP_NwkAddrReq( uint8 *IEEEAddress, byte ReqType,
   \                     ZDP_NwkAddrReq:
    319                                     byte StartIndex, byte SecurityEnable )
    320          {
   \   000000                REQUIRE ?V0
   \   000000                REQUIRE ?V1
   \   000000                REQUIRE ?V2
   \   000000                REQUIRE ?V3
   \   000000   74F4         MOV       A,#-0xc
   \   000002   12....       LCALL     ?BANKED_ENTER_XDATA
   \   000005                ; Saved register size: 12
   \   000005                ; Auto size: 9
   \   000005   74F7         MOV       A,#-0x9
   \   000007   12....       LCALL     ?ALLOC_XSTACK8
   \   00000A   EA           MOV       A,R2
   \   00000B   FE           MOV       R6,A
   \   00000C   EB           MOV       A,R3
   \   00000D   FF           MOV       R7,A
   \   00000E   89..         MOV       ?V2,R1
   \   000010   8C..         MOV       ?V3,R4
    321            uint8 *pBuf = ZDP_TmpBuf;
   \   000012   90....       MOV       DPTR,#ZDP_TmpBuf
   \   000015   12....       LCALL     ?Subroutine44 & 0xFFFF
    322            byte len = Z_EXTADDR_LEN + 1 + 1;  // IEEEAddress + ReqType + StartIndex.
    323            zAddrType_t dstAddr;
    324          
    325            (void)SecurityEnable;  // Intentionally unreferenced parameter
    326          
    327            if ( osal_ExtAddrEqual( saveExtAddr, IEEEAddress ) == FALSE )
   \                     ??CrossCallReturnLabel_64:
   \   000018                ; Setup parameters for call to function sAddrExtCmp
   \   000018   EE           MOV       A,R6
   \   000019   FC           MOV       R4,A
   \   00001A   EF           MOV       A,R7
   \   00001B   FD           MOV       R5,A
   \   00001C   7A..         MOV       R2,#saveExtAddr & 0xff
   \   00001E   7B..         MOV       R3,#(saveExtAddr >> 8) & 0xff
   \   000020   12....       LCALL     `??sAddrExtCmp::?relay`; Banked call to: sAddrExtCmp
   \   000023   E9           MOV       A,R1
   \   000024   700A         JNZ       ??ZDP_NwkAddrReq_0
    328            {
    329              dstAddr.addrMode = AddrBroadcast;
   \   000026   7408         MOV       A,#0x8
   \   000028   12....       LCALL     ?XSTACK_DISP0_8
   \   00002B   12....       LCALL     ?Subroutine89 & 0xFFFF
    330              dstAddr.addr.shortAddr = NWK_BROADCAST_SHORTADDR_DEVRXON;
    331            }
   \                     ??CrossCallReturnLabel_153:
   \   00002E   8012         SJMP      ??ZDP_NwkAddrReq_1
    332            else
    333            {
    334              dstAddr.addrMode = Addr16Bit;
   \                     ??ZDP_NwkAddrReq_0:
   \   000030   7408         MOV       A,#0x8
   \   000032   12....       LCALL     ?XSTACK_DISP0_8
   \   000035   7402         MOV       A,#0x2
   \   000037   F0           MOVX      @DPTR,A
    335              dstAddr.addr.shortAddr = ZDAppNwkAddr.addr.shortAddr;
   \   000038   90....       MOV       DPTR,#ZDAppNwkAddr
   \   00003B   12....       LCALL     ?Subroutine49 & 0xFFFF
    336            }
   \                     ??CrossCallReturnLabel_75:
   \   00003E   E8           MOV       A,R0
   \   00003F   F0           MOVX      @DPTR,A
   \   000040   A3           INC       DPTR
   \   000041   E9           MOV       A,R1
   \                     ??ZDP_NwkAddrReq_1:
   \   000042   F0           MOVX      @DPTR,A
    337          
    338            pBuf = osal_cpyExtAddr( pBuf, IEEEAddress );
   \   000043                ; Setup parameters for call to function sAddrExtCpy
   \   000043   EE           MOV       A,R6
   \   000044   FC           MOV       R4,A
   \   000045   EF           MOV       A,R7
   \   000046   FD           MOV       R5,A
   \   000047   AA..         MOV       R2,?V0
   \   000049   AB..         MOV       R3,?V1
   \   00004B   12....       LCALL     `??sAddrExtCpy::?relay`; Banked call to: sAddrExtCpy
   \   00004E   8A82         MOV       DPL,R2
   \   000050   8B83         MOV       DPH,R3
    339          
    340            *pBuf++ = ReqType;
   \   000052   E5..         MOV       A,?V2
   \   000054   F0           MOVX      @DPTR,A
    341            *pBuf++ = StartIndex;
   \   000055   A3           INC       DPTR
   \   000056   E5..         MOV       A,?V3
   \   000058   F0           MOVX      @DPTR,A
    342          
    343            return fillAndSend( &ZDP_TransID, &dstAddr, NWK_addr_req, len );
   \   000059                ; Setup parameters for call to function fillAndSend
   \   000059   E4           CLR       A
   \   00005A   F5..         MOV       ?V0,A
   \   00005C   F5..         MOV       ?V1,A
   \   00005E   78..         MOV       R0,#?V0
   \   000060   12....       LCALL     ?PUSH_XSTACK_I_TWO
   \   000063   790A         MOV       R1,#0xa
   \   000065   7402         MOV       A,#0x2
   \   000067   12....       LCALL     ?XSTACK_DISP102_8
   \   00006A                REQUIRE ?Subroutine9
   \   00006A                ; // Fall through to label ?Subroutine9
    344          }

   \                                 In  segment BANKED_CODE, align 1, keep-with-next
   \                     ?Subroutine9:
   \   000000   7A..         MOV       R2,#ZDP_TransID & 0xff
   \   000002   7B..         MOV       R3,#(ZDP_TransID >> 8) & 0xff
   \   000004   12....       LCALL     `??fillAndSend::?relay`; Banked call to: fillAndSend
   \   000007   7402         MOV       A,#0x2
   \   000009   12....       LCALL     ?DEALLOC_XSTACK8
   \   00000C   7409         MOV       A,#0x9
   \   00000E   80..         SJMP      ??Subroutine107_0

   \                                 In  segment BANKED_CODE, align 1, keep-with-next
   \                     ??Subroutine107_0:
   \   000000   12....       LCALL     ?DEALLOC_XSTACK8
   \   000003                REQUIRE ??Subroutine108_0
   \   000003                ; // Fall through to label ??Subroutine108_0

   \                                 In  segment BANKED_CODE, align 1, keep-with-next
   \                     ?Subroutine89:
   \   000000   740F         MOV       A,#0xf
   \   000002   F0           MOVX      @DPTR,A
   \   000003   85..82       MOV       DPL,?XSP + 0
   \   000006   85..83       MOV       DPH,?XSP + 1
   \   000009   74FD         MOV       A,#-0x3
   \   00000B   F0           MOVX      @DPTR,A
   \   00000C   A3           INC       DPTR
   \   00000D   74FF         MOV       A,#-0x1
   \   00000F   22           RET

   \                                 In  segment BANKED_CODE, align 1, keep-with-next
   \                     ?Subroutine44:
   \   000000   E0           MOVX      A,@DPTR
   \   000001   F5..         MOV       ?V0,A
   \   000003   A3           INC       DPTR
   \   000004   E0           MOVX      A,@DPTR
   \   000005   F5..         MOV       ?V1,A
   \   000007   22           RET
    345          
    346          /*********************************************************************
    347           * @fn          ZDP_IEEEAddrReq
    348           *
    349           * @brief       This builds and send a IEEE_addr_req message.  This
    350           *              function sends a unicast message looking for a 64
    351           *              bit IEEE address with a 16 bit address as bait.
    352           *
    353           * @param       ReqType - ZDP_IEEEADDR_REQTYPE_SINGLE or
    354           *                        ZDP_IEEEADDR_REQTYPE_EXTENDED
    355           * @param       SecurityEnable - Security Options
    356           *
    357           * @return      afStatus_t
    358           */

   \                                 In  segment BANKED_CODE, align 1, keep-with-next
    359          afStatus_t ZDP_IEEEAddrReq( uint16 shortAddr, byte ReqType,
   \                     ZDP_IEEEAddrReq:
    360                                      byte StartIndex, byte SecurityEnable )
    361          {
   \   000000                REQUIRE ?V0
   \   000000                REQUIRE ?V1
   \   000000   74F6         MOV       A,#-0xa
   \   000002   12....       LCALL     ?BANKED_ENTER_XDATA
   \   000005                ; Saved register size: 10
   \   000005                ; Auto size: 9
   \   000005   74F7         MOV       A,#-0x9
   \   000007   12....       LCALL     ?ALLOC_XSTACK8
   \   00000A   E9           MOV       A,R1
   \   00000B   FE           MOV       R6,A
   \   00000C   EC           MOV       A,R4
   \   00000D   FF           MOV       R7,A
    362            uint8 *pBuf = ZDP_TmpBuf;
   \   00000E   12....       LCALL     ??Subroutine135_0 & 0xFFFF
    363            byte len = 2 + 1 + 1;  // shortAddr + ReqType + StartIndex.
    364            zAddrType_t dstAddr;
    365          
    366            (void)SecurityEnable;  // Intentionally unreferenced parameter
    367          
    368            dstAddr.addrMode = (afAddrMode_t)Addr16Bit;
   \                     ??CrossCallReturnLabel_291:
   \   000011   7408         MOV       A,#0x8
   \   000013   12....       LCALL     ?XSTACK_DISP0_8
   \   000016   7402         MOV       A,#0x2
   \   000018   F0           MOVX      @DPTR,A
    369            dstAddr.addr.shortAddr = shortAddr;
   \   000019   85..82       MOV       DPL,?XSP + 0
   \   00001C   85..83       MOV       DPH,?XSP + 1
   \   00001F   EA           MOV       A,R2
   \   000020   F0           MOVX      @DPTR,A
   \   000021   A3           INC       DPTR
   \   000022   EB           MOV       A,R3
   \   000023   F0           MOVX      @DPTR,A
    370          
    371            *pBuf++ = LO_UINT16( shortAddr );
   \   000024   EA           MOV       A,R2
   \   000025   8882         MOV       DPL,R0
   \   000027   8983         MOV       DPH,R1
   \   000029   F0           MOVX      @DPTR,A
    372            *pBuf++ = HI_UINT16( shortAddr );
   \   00002A   EB           MOV       A,R3
   \   00002B   12....       LCALL     ?Subroutine39 & 0xFFFF
    373          
    374            *pBuf++ = ReqType;
   \                     ??CrossCallReturnLabel_52:
   \   00002E   F0           MOVX      @DPTR,A
    375            *pBuf++ = StartIndex;
   \   00002F   EF           MOV       A,R7
   \   000030   8882         MOV       DPL,R0
   \   000032   8983         MOV       DPH,R1
   \   000034   A3           INC       DPTR
   \   000035   A3           INC       DPTR
   \   000036   A3           INC       DPTR
   \   000037   F0           MOVX      @DPTR,A
    376          
    377            return fillAndSend( &ZDP_TransID, &dstAddr, IEEE_addr_req, len );
   \   000038                ; Setup parameters for call to function fillAndSend
   \   000038   75..01       MOV       ?V0,#0x1
   \   00003B   75..00       MOV       ?V1,#0x0
   \   00003E   78..         MOV       R0,#?V0
   \   000040   12....       LCALL     ?PUSH_XSTACK_I_TWO
   \   000043   7904         MOV       R1,#0x4
   \   000045   02....       LJMP      ?Subroutine2 & 0xFFFF
    378          }

   \                                 In  segment BANKED_CODE, align 1, keep-with-next
   \                     ?Subroutine39:
   \   000000   A3           INC       DPTR
   \   000001   F0           MOVX      @DPTR,A
   \   000002   EE           MOV       A,R6
   \   000003   8882         MOV       DPL,R0
   \   000005   8983         MOV       DPH,R1
   \   000007   A3           INC       DPTR
   \   000008   A3           INC       DPTR
   \   000009   22           RET

   \                                 In  segment BANKED_CODE, align 1, keep-with-next
   \                     ?Subroutine2:
   \   000000   7402         MOV       A,#0x2
   \   000002   12....       LCALL     ?XSTACK_DISP102_8
   \   000005   7A..         MOV       R2,#ZDP_TransID & 0xff
   \   000007   7B..         MOV       R3,#(ZDP_TransID >> 8) & 0xff
   \   000009   12....       LCALL     `??fillAndSend::?relay`; Banked call to: fillAndSend
   \   00000C   7402         MOV       A,#0x2
   \   00000E   12....       LCALL     ?DEALLOC_XSTACK8
   \   000011                REQUIRE ??Subroutine110_0
   \   000011                ; // Fall through to label ??Subroutine110_0

   \                                 In  segment BANKED_CODE, align 1, keep-with-next
   \                     ??Subroutine110_0:
   \   000000   7409         MOV       A,#0x9
   \   000002                REQUIRE ??Subroutine111_0
   \   000002                ; // Fall through to label ??Subroutine111_0

   \                                 In  segment BANKED_CODE, align 1, keep-with-next
   \                     ??Subroutine135_0:
   \   000000   90....       MOV       DPTR,#ZDP_TmpBuf
   \   000003                REQUIRE ??Subroutine136_0
   \   000003                ; // Fall through to label ??Subroutine136_0
    379          
    380          /*********************************************************************
    381           * @fn          ZDP_MatchDescReq
    382           *
    383           * @brief       This builds and send a Match_Desc_req message.  This
    384           *              function sends a broadcast or unicast message
    385           *              requesting the list of endpoint/interfaces that
    386           *              match profile ID and cluster IDs.
    387           *
    388           * @param       dstAddr - destination address
    389           * @param       nwkAddr - network address of interest
    390           * @param       ProfileID - Profile ID
    391           * @param       NumInClusters - number of input clusters
    392           * @param       InClusterList - input cluster ID list
    393           * @param       NumOutClusters - number of output clusters
    394           * @param       OutClusterList - output cluster ID list
    395           * @param       SecurityEnable - Security Options
    396           *
    397           * @return      afStatus_t
    398           */

   \                                 In  segment BANKED_CODE, align 1, keep-with-next
    399          afStatus_t ZDP_MatchDescReq( zAddrType_t *dstAddr, uint16 nwkAddr,
   \                     ZDP_MatchDescReq:
    400                                          uint16 ProfileID,
    401                                          byte NumInClusters, cId_t *InClusterList,
    402                                          byte NumOutClusters, cId_t *OutClusterList,
    403                                          byte SecurityEnable )
    404          {
   \   000000                REQUIRE ?V0
   \   000000                REQUIRE ?V1
   \   000000                REQUIRE ?V2
   \   000000                REQUIRE ?V3
   \   000000                REQUIRE ?V4
   \   000000                REQUIRE ?V5
   \   000000   74F2         MOV       A,#-0xe
   \   000002   12....       LCALL     ?BANKED_ENTER_XDATA
   \   000005                ; Saved register size: 14
   \   000005                ; Auto size: 0
   \   000005   12....       LCALL     ?Subroutine57 & 0xFFFF
    405            uint8 *pBuf = ZDP_TmpBuf;
   \                     ??CrossCallReturnLabel_278:
   \   000008   7412         MOV       A,#0x12
   \   00000A   12....       LCALL     ?XSTACK_DISP0_8
   \   00000D   E0           MOVX      A,@DPTR
   \   00000E   F5..         MOV       ?V0,A
    406            // nwkAddr+ProfileID+NumInClusters+NumOutClusters.
    407            byte i, len = 2 + 2 + 1 + 1;  // nwkAddr+ProfileID+NumInClusters+NumOutClusters.
    408          
    409            (void)SecurityEnable;  // Intentionally unreferenced parameter
    410          
    411            len += (NumInClusters + NumOutClusters) * sizeof(uint16);
   \   000010   EE           MOV       A,R6
   \   000011   25..         ADD       A,?V0
   \   000013   C3           CLR       C
   \   000014   33           RLC       A
   \   000015   2406         ADD       A,#0x6
   \   000017   FF           MOV       R7,A
    412          
    413            if ( len >= ZDP_BUF_SZ-1 )
   \   000018   C3           CLR       C
   \   000019   944F         SUBB      A,#0x4f
   \   00001B   4005         JC        ??ZDP_MatchDescReq_0
    414            {
    415              return afStatus_MEM_FAIL;
   \   00001D   7910         MOV       R1,#0x10
   \   00001F   02....       LJMP      ??ZDP_MatchDescReq_1 & 0xFFFF
    416            }
    417          
    418            // The spec changed in Zigbee 2007 (2.4.3.1.7.1) to not allow sending
    419            // this command to 0xFFFF.  So, here we will filter this and replace
    420            // with 0xFFFD to only send to devices with RX ON.  This includes the
    421            // network address of interest.
    422            if ( ((dstAddr->addrMode == AddrBroadcast) || (dstAddr->addrMode == Addr16Bit))
    423                && (dstAddr->addr.shortAddr == NWK_BROADCAST_SHORTADDR_DEVALL) )
   \                     ??ZDP_MatchDescReq_0:
   \   000022   8A82         MOV       DPL,R2
   \   000024   8B83         MOV       DPH,R3
   \   000026   A3           INC       DPTR
   \   000027   A3           INC       DPTR
   \   000028   A3           INC       DPTR
   \   000029   A3           INC       DPTR
   \   00002A   A3           INC       DPTR
   \   00002B   A3           INC       DPTR
   \   00002C   A3           INC       DPTR
   \   00002D   A3           INC       DPTR
   \   00002E   E0           MOVX      A,@DPTR
   \   00002F   640F         XRL       A,#0xf
   \   000031   6011         JZ        ??ZDP_MatchDescReq_2
   \   000033   8A82         MOV       DPL,R2
   \   000035   8B83         MOV       DPH,R3
   \   000037   A3           INC       DPTR
   \   000038   A3           INC       DPTR
   \   000039   A3           INC       DPTR
   \   00003A   A3           INC       DPTR
   \   00003B   A3           INC       DPTR
   \   00003C   A3           INC       DPTR
   \   00003D   A3           INC       DPTR
   \   00003E   A3           INC       DPTR
   \   00003F   E0           MOVX      A,@DPTR
   \   000040   6402         XRL       A,#0x2
   \   000042   7018         JNZ       ??ZDP_MatchDescReq_3
   \                     ??ZDP_MatchDescReq_2:
   \   000044   8A82         MOV       DPL,R2
   \   000046   8B83         MOV       DPH,R3
   \   000048   E0           MOVX      A,@DPTR
   \   000049   F4           CPL       A
   \   00004A   7003         JNZ       ??ZDP_MatchDescReq_4
   \   00004C   A3           INC       DPTR
   \   00004D   E0           MOVX      A,@DPTR
   \   00004E   F4           CPL       A
   \                     ??ZDP_MatchDescReq_4:
   \   00004F   700B         JNZ       ??ZDP_MatchDescReq_3
    424            {
    425              dstAddr->addr.shortAddr = NWK_BROADCAST_SHORTADDR_DEVRXON;
   \   000051   8A82         MOV       DPL,R2
   \   000053   8B83         MOV       DPH,R3
   \   000055   74FD         MOV       A,#-0x3
   \   000057   F0           MOVX      @DPTR,A
   \   000058   A3           INC       DPTR
   \   000059   74FF         MOV       A,#-0x1
   \   00005B   F0           MOVX      @DPTR,A
    426            }
    427            if ( nwkAddr == NWK_BROADCAST_SHORTADDR_DEVALL )
   \                     ??ZDP_MatchDescReq_3:
   \   00005C   74FF         MOV       A,#-0x1
   \   00005E   6C           XRL       A,R4
   \   00005F   7003         JNZ       ??ZDP_MatchDescReq_5
   \   000061   74FF         MOV       A,#-0x1
   \   000063   6D           XRL       A,R5
   \                     ??ZDP_MatchDescReq_5:
   \   000064   7004         JNZ       ??ZDP_MatchDescReq_6
    428            {
    429              nwkAddr = NWK_BROADCAST_SHORTADDR_DEVRXON;
   \   000066   7CFD         MOV       R4,#-0x3
   \   000068   7DFF         MOV       R5,#-0x1
    430            }
    431          
    432            *pBuf++ = LO_UINT16( nwkAddr );   // NWKAddrOfInterest
   \                     ??ZDP_MatchDescReq_6:
   \   00006A   EC           MOV       A,R4
   \   00006B   8882         MOV       DPL,R0
   \   00006D   8983         MOV       DPH,R1
   \   00006F   F0           MOVX      @DPTR,A
    433            *pBuf++ = HI_UINT16( nwkAddr );
   \   000070   ED           MOV       A,R5
   \   000071   A3           INC       DPTR
   \   000072   F0           MOVX      @DPTR,A
   \   000073   740E         MOV       A,#0xe
   \   000075   12....       LCALL     ?XSTACK_DISP0_8
   \   000078   12....       LCALL     ?Subroutine52 & 0xFFFF
    434          
    435            *pBuf++ = LO_UINT16( ProfileID );   // Profile ID
   \                     ??CrossCallReturnLabel_76:
   \   00007B   EC           MOV       A,R4
   \   00007C   8882         MOV       DPL,R0
   \   00007E   8983         MOV       DPH,R1
   \   000080   A3           INC       DPTR
   \   000081   A3           INC       DPTR
   \   000082   F0           MOVX      @DPTR,A
    436            *pBuf++ = HI_UINT16( ProfileID );
   \   000083   ED           MOV       A,R5
   \   000084   8882         MOV       DPL,R0
   \   000086   8983         MOV       DPH,R1
   \   000088   A3           INC       DPTR
   \   000089   A3           INC       DPTR
   \   00008A   12....       LCALL     ?Subroutine39 & 0xFFFF
    437          
    438            *pBuf++ = NumInClusters; // Input cluster list
   \                     ??CrossCallReturnLabel_53:
   \   00008D   A3           INC       DPTR
   \   00008E   A3           INC       DPTR
   \   00008F   F0           MOVX      @DPTR,A
   \   000090   E8           MOV       A,R0
   \   000091   2405         ADD       A,#0x5
   \   000093   F8           MOV       R0,A
   \   000094   5001         JNC       ??ZDP_MatchDescReq_7
   \   000096   09           INC       R1
    439            if ( NumInClusters )
   \                     ??ZDP_MatchDescReq_7:
   \   000097   EE           MOV       A,R6
   \   000098   6019         JZ        ??ZDP_MatchDescReq_8
    440            {
    441              for (i=0; i<NumInClusters; ++i)  {
   \   00009A   75..00       MOV       ?V1,#0x0
   \   00009D   7410         MOV       A,#0x10
   \   00009F   12....       LCALL     ?XSTACK_DISP0_8
   \   0000A2   12....       LCALL     ?Subroutine52 & 0xFFFF
    442                *pBuf++ = LO_UINT16( InClusterList[i] );
   \                     ??CrossCallReturnLabel_77:
   \   0000A5   12....       LCALL     ?Subroutine12 & 0xFFFF
    443                *pBuf++ = HI_UINT16( InClusterList[i] );
    444              }
   \                     ??CrossCallReturnLabel_4:
   \   0000A8   5001         JNC       ??ZDP_MatchDescReq_9
   \   0000AA   09           INC       R1
   \                     ??ZDP_MatchDescReq_9:
   \   0000AB   05..         INC       ?V1
   \   0000AD   E5..         MOV       A,?V1
   \   0000AF   C3           CLR       C
   \   0000B0   9E           SUBB      A,R6
   \   0000B1   40F2         JC        ??CrossCallReturnLabel_77
    445            }
    446          
    447            *pBuf++ = NumOutClusters; // Output cluster list
   \                     ??ZDP_MatchDescReq_8:
   \   0000B3   8882         MOV       DPL,R0
   \   0000B5   8983         MOV       DPH,R1
   \   0000B7   E5..         MOV       A,?V0
   \   0000B9   F0           MOVX      @DPTR,A
   \   0000BA   A3           INC       DPTR
   \   0000BB   A882         MOV       R0,DPL
   \   0000BD   A983         MOV       R1,DPH
    448            if ( NumOutClusters )
   \   0000BF   601A         JZ        ??ZDP_MatchDescReq_10
    449            {
    450              for (i=0; i<NumOutClusters; ++i)  {
   \   0000C1   75..00       MOV       ?V1,#0x0
   \   0000C4   7413         MOV       A,#0x13
   \   0000C6   12....       LCALL     ?XSTACK_DISP0_8
   \   0000C9   12....       LCALL     ?Subroutine52 & 0xFFFF
    451                *pBuf++ = LO_UINT16( OutClusterList[i] );
   \                     ??CrossCallReturnLabel_78:
   \   0000CC   12....       LCALL     ?Subroutine12 & 0xFFFF
    452                *pBuf++ = HI_UINT16( OutClusterList[i] );
    453              }
   \                     ??CrossCallReturnLabel_5:
   \   0000CF   5001         JNC       ??ZDP_MatchDescReq_11
   \   0000D1   09           INC       R1
   \                     ??ZDP_MatchDescReq_11:
   \   0000D2   05..         INC       ?V1
   \   0000D4   E5..         MOV       A,?V1
   \   0000D6   C3           CLR       C
   \   0000D7   95..         SUBB      A,?V0
   \   0000D9   40F1         JC        ??CrossCallReturnLabel_78
    454            }
    455          
    456            return fillAndSend( &ZDP_TransID, dstAddr, Match_Desc_req, len );
   \                     ??ZDP_MatchDescReq_10:
   \   0000DB                ; Setup parameters for call to function fillAndSend
   \   0000DB   75..06       MOV       ?V0,#0x6
   \   0000DE   75..00       MOV       ?V1,#0x0
   \   0000E1   78..         MOV       R0,#?V0
   \   0000E3   12....       LCALL     ?PUSH_XSTACK_I_TWO
   \   0000E6   EF           MOV       A,R7
   \   0000E7   F9           MOV       R1,A
   \   0000E8   EA           MOV       A,R2
   \   0000E9   FC           MOV       R4,A
   \   0000EA   EB           MOV       A,R3
   \   0000EB   FD           MOV       R5,A
   \   0000EC   7A..         MOV       R2,#ZDP_TransID & 0xff
   \   0000EE   7B..         MOV       R3,#(ZDP_TransID >> 8) & 0xff
   \   0000F0   12....       LCALL     `??fillAndSend::?relay`; Banked call to: fillAndSend
   \   0000F3   7402         MOV       A,#0x2
   \   0000F5   12....       LCALL     ?DEALLOC_XSTACK8
   \                     ??ZDP_MatchDescReq_1:
   \   0000F8   80..         SJMP      ??Subroutine109_0
    457          }

   \                                 In  segment BANKED_CODE, align 1, keep-with-next
   \                     ?Subroutine12:
   \   000000   E5..         MOV       A,?V1
   \   000002   12....       LCALL     ?Subroutine96 & 0xFFFF
   \                     ??CrossCallReturnLabel_165:
   \   000005   25..         ADD       A,?V2
   \   000007   F5..         MOV       ?V2,A
   \   000009   ED           MOV       A,R5
   \   00000A   35..         ADDC      A,?V3
   \   00000C   F5..         MOV       ?V3,A
   \   00000E   85..82       MOV       DPL,?V2
   \   000011   F583         MOV       DPH,A
   \   000013   12....       LCALL     ?Subroutine83 & 0xFFFF
   \                     ??CrossCallReturnLabel_216:
   \   000016   85..82       MOV       DPL,?V2
   \   000019   85..83       MOV       DPH,?V3
   \   00001C   12....       LCALL     ?Subroutine82 & 0xFFFF
   \                     ??CrossCallReturnLabel_139:
   \   00001F   22           RET

   \                                 In  segment BANKED_CODE, align 1, keep-with-next
   \                     ?Subroutine96:
   \   000000   25E0         ADD       A,0xE0 /* A   */
   \   000002   F5..         MOV       ?V2,A
   \   000004   E4           CLR       A
   \   000005   33           RLC       A
   \   000006   F5..         MOV       ?V3,A
   \   000008   EC           MOV       A,R4
   \   000009   22           RET

   \                                 In  segment BANKED_CODE, align 1, keep-with-next
   \                     ?Subroutine83:
   \   000000   E0           MOVX      A,@DPTR
   \   000001   8882         MOV       DPL,R0
   \   000003   8983         MOV       DPH,R1
   \   000005   F0           MOVX      @DPTR,A
   \   000006   22           RET

   \                                 In  segment BANKED_CODE, align 1, keep-with-next
   \                     ?Subroutine82:
   \   000000   A3           INC       DPTR
   \   000001   12....       LCALL     ?Subroutine100 & 0xFFFF
   \                     ??CrossCallReturnLabel_253:
   \   000004   F0           MOVX      @DPTR,A
   \   000005   E8           MOV       A,R0
   \   000006   2402         ADD       A,#0x2
   \   000008   F8           MOV       R0,A
   \   000009   22           RET

   \                                 In  segment BANKED_CODE, align 1, keep-with-next
   \                     ?Subroutine52:
   \   000000   E0           MOVX      A,@DPTR
   \   000001   FC           MOV       R4,A
   \   000002   A3           INC       DPTR
   \   000003   E0           MOVX      A,@DPTR
   \   000004   FD           MOV       R5,A
   \   000005   22           RET

   \                                 In  segment BANKED_CODE, align 1, keep-with-next
   \                     ?Subroutine100:
   \   000000   E0           MOVX      A,@DPTR
   \   000001   8882         MOV       DPL,R0
   \   000003   8983         MOV       DPH,R1
   \   000005   A3           INC       DPTR
   \   000006   22           RET

   \                                 In  segment BANKED_CODE, align 1, keep-with-next
   \                     ?Subroutine57:
   \   000000   E9           MOV       A,R1
   \   000001   FE           MOV       R6,A
   \   000002                REQUIRE ??Subroutine135_0
   \   000002                ; // Fall through to label ??Subroutine135_0
    458          
    459          /*********************************************************************
    460           * @fn          ZDP_SimpleDescReq
    461           *
    462           * @brief       This builds and send a NWK_Simple_Desc_req
    463           *              message.  This function sends unicast message to the
    464           *              destination device.
    465           *
    466           * @param       dstAddr - destination address
    467           * @param       nwkAddr - 16 bit address
    468           * @param       epIntf - endpoint/interface
    469           * @param       SecurityEnable - Security Options
    470           *
    471           * @return      afStatus_t
    472           */

   \                                 In  segment BANKED_CODE, align 1, keep-with-next
    473          afStatus_t ZDP_SimpleDescReq( zAddrType_t *dstAddr, uint16 nwkAddr,
   \                     ZDP_SimpleDescReq:
    474                                              byte endPoint, byte SecurityEnable )
    475          
    476          {
   \   000000                REQUIRE ?V0
   \   000000                REQUIRE ?V1
   \   000000   74F6         MOV       A,#-0xa
   \   000002   12....       LCALL     ?BANKED_ENTER_XDATA
   \   000005                ; Saved register size: 10
   \   000005                ; Auto size: 0
    477            (void)SecurityEnable;  // Intentionally unreferenced parameter
    478          
    479            ZDP_TmpBuf[0] = LO_UINT16( nwkAddr );
   \   000005   12....       LCALL     ?Subroutine19 & 0xFFFF
    480            ZDP_TmpBuf[1] = HI_UINT16( nwkAddr );
   \                     ??CrossCallReturnLabel_18:
   \   000008   12....       LCALL     ?Subroutine15 & 0xFFFF
    481            ZDP_TmpBuf[2] = endPoint;
    482          
    483            return fillAndSend( &ZDP_TransID, dstAddr, Simple_Desc_req, 3 );
   \                     ??CrossCallReturnLabel_10:
   \   00000B                ; Setup parameters for call to function fillAndSend
   \   00000B   75..04       MOV       ?V0,#0x4
   \   00000E   75..00       MOV       ?V1,#0x0
   \   000011   78..         MOV       R0,#?V0
   \   000013   12....       LCALL     ?PUSH_XSTACK_I_TWO
   \   000016   7903         MOV       R1,#0x3
   \   000018   02....       LJMP      ?Subroutine8 & 0xFFFF
    484          }

   \                                 In  segment BANKED_CODE, align 1, keep-with-next
   \                     ?Subroutine15:
   \   000000   12....       LCALL     ?Subroutine78 & 0xFFFF
   \                     ??CrossCallReturnLabel_132:
   \   000003   A3           INC       DPTR
   \   000004   E9           MOV       A,R1
   \   000005   F0           MOVX      @DPTR,A
   \   000006   22           RET
    485          
    486          /*********************************************************************
    487           * @fn          ZDP_UserDescSet
    488           *
    489           * @brief       This builds and send a User_Desc_set message to set
    490           *              the user descriptor.  This function sends unicast
    491           *              message to the destination device.
    492           *
    493           * @param       dstAddr - destination address
    494           * @param       nwkAddr - 16 bit address
    495           * @param       UserDescriptor - user descriptor
    496           * @param       SecurityEnable - Security Options
    497           *
    498           * @return      afStatus_t
    499           */

   \                                 In  segment BANKED_CODE, align 1, keep-with-next
    500          afStatus_t ZDP_UserDescSet( zAddrType_t *dstAddr, uint16 nwkAddr,
   \                     ZDP_UserDescSet:
    501                                    UserDescriptorFormat_t *UserDescriptor,
    502                                    byte SecurityEnable )
    503          {
   \   000000                REQUIRE ?V0
   \   000000                REQUIRE ?V1
   \   000000                REQUIRE ?V2
   \   000000                REQUIRE ?V4
   \   000000                REQUIRE ?V5
   \   000000                REQUIRE ?V6
   \   000000   74F1         MOV       A,#-0xf
   \   000002   12....       LCALL     ?BANKED_ENTER_XDATA
   \   000005                ; Saved register size: 15
   \   000005                ; Auto size: 0
   \   000005   12....       LCALL     ?Subroutine56 & 0xFFFF
    504            uint8 *pBuf = ZDP_TmpBuf;
   \                     ??CrossCallReturnLabel_89:
   \   000008   740F         MOV       A,#0xf
   \   00000A   12....       LCALL     ?XSTACK_DISP0_8
   \   00000D   12....       LCALL     ?Subroutine42 & 0xFFFF
    505            byte len = (UserDescriptor->len < AF_MAX_USER_DESCRIPTOR_LEN) ?
    506                        UserDescriptor->len : AF_MAX_USER_DESCRIPTOR_LEN;
   \                     ??CrossCallReturnLabel_60:
   \   000010   C3           CLR       C
   \   000011   9410         SUBB      A,#0x10
   \   000013   5005         JNC       ??ZDP_UserDescSet_0
   \   000015   E0           MOVX      A,@DPTR
   \   000016   F5..         MOV       ?V2,A
   \   000018   8003         SJMP      ??ZDP_UserDescSet_1
   \                     ??ZDP_UserDescSet_0:
   \   00001A   75..10       MOV       ?V2,#0x10
    507            byte addrLen = 2;
    508          
    509            (void)SecurityEnable;  // Intentionally unreferenced parameter
    510          
    511            *pBuf++ = LO_UINT16( nwkAddr );
   \                     ??ZDP_UserDescSet_1:
   \   00001D   EC           MOV       A,R4
   \   00001E   85..82       MOV       DPL,?V0
   \   000021   85..83       MOV       DPH,?V1
   \   000024   F0           MOVX      @DPTR,A
    512            *pBuf++ = HI_UINT16( nwkAddr );
   \   000025   ED           MOV       A,R5
   \   000026   12....       LCALL     ?Subroutine35 & 0xFFFF
    513          
    514            *pBuf++ = len;
   \                     ??CrossCallReturnLabel_46:
   \   000029   E5..         MOV       A,?V2
   \   00002B   12....       LCALL     ?Subroutine11 & 0xFFFF
    515            addrLen = 3;
    516          
    517            pBuf = osal_memcpy( pBuf, UserDescriptor->desc, len );
   \                     ??CrossCallReturnLabel_2:
   \   00002E   12....       LCALL     ?PUSH_XSTACK_I_THREE
   \   000031   AC..         MOV       R4,?V2
   \   000033   7D00         MOV       R5,#0x0
   \   000035   E5..         MOV       A,?V0
   \   000037   2403         ADD       A,#0x3
   \   000039   FA           MOV       R2,A
   \   00003A   E4           CLR       A
   \   00003B   35..         ADDC      A,?V1
   \   00003D   FB           MOV       R3,A
   \   00003E   12....       LCALL     `??osal_memcpy::?relay`; Banked call to: osal_memcpy
   \   000041   7403         MOV       A,#0x3
   \   000043   12....       LCALL     ?DEALLOC_XSTACK8
    518            osal_memset( pBuf, AF_USER_DESCRIPTOR_FILL, AF_MAX_USER_DESCRIPTOR_LEN-len );
   \   000046                ; Setup parameters for call to function osal_memset
   \   000046   A8..         MOV       R0,?V2
   \   000048   7410         MOV       A,#0x10
   \   00004A   C3           CLR       C
   \   00004B   98           SUBB      A,R0
   \   00004C   FC           MOV       R4,A
   \   00004D   95E0         SUBB      A,0xE0 /* A   */
   \   00004F   FD           MOV       R5,A
   \   000050   7920         MOV       R1,#0x20
   \   000052   12....       LCALL     `??osal_memset::?relay`; Banked call to: osal_memset
    519          
    520            return fillAndSend( &ZDP_TransID, dstAddr, User_Desc_set, (AF_MAX_USER_DESCRIPTOR_LEN + addrLen) );
   \   000055                ; Setup parameters for call to function fillAndSend
   \   000055   75..14       MOV       ?V0,#0x14
   \   000058   75..00       MOV       ?V1,#0x0
   \   00005B   78..         MOV       R0,#?V0
   \   00005D   12....       LCALL     ?PUSH_XSTACK_I_TWO
   \   000060   7913         MOV       R1,#0x13
   \   000062   EE           MOV       A,R6
   \   000063   FC           MOV       R4,A
   \   000064   EF           MOV       A,R7
   \   000065   FD           MOV       R5,A
   \   000066   7A..         MOV       R2,#ZDP_TransID & 0xff
   \   000068   7B..         MOV       R3,#(ZDP_TransID >> 8) & 0xff
   \   00006A   12....       LCALL     `??fillAndSend::?relay`; Banked call to: fillAndSend
   \   00006D   7402         MOV       A,#0x2
   \   00006F                REQUIRE ?Subroutine3
   \   00006F                ; // Fall through to label ?Subroutine3
    521          }

   \                                 In  segment BANKED_CODE, align 1, keep-with-next
   \                     ?Subroutine3:
   \   000000   12....       LCALL     ?DEALLOC_XSTACK8
   \   000003   7F07         MOV       R7,#0x7
   \   000005   02....       LJMP      ?BANKED_LEAVE_XDATA

   \                                 In  segment BANKED_CODE, align 1, keep-with-next
   \                     ?Subroutine42:
   \   000000   12....       LCALL     ?Subroutine81 & 0xFFFF
   \                     ??CrossCallReturnLabel_292:
   \   000003   8882         MOV       DPL,R0
   \   000005   8983         MOV       DPH,R1
   \   000007   E0           MOVX      A,@DPTR
   \   000008   22           RET

   \                                 In  segment BANKED_CODE, align 1, keep-with-next
   \                     ?Subroutine56:
   \   000000   EA           MOV       A,R2
   \   000001   FE           MOV       R6,A
   \   000002   EB           MOV       A,R3
   \   000003   FF           MOV       R7,A
   \   000004   90....       MOV       DPTR,#ZDP_TmpBuf
   \   000007   12....       LCALL     ?Subroutine81 & 0xFFFF
   \                     ??CrossCallReturnLabel_294:
   \   00000A   88..         MOV       ?V0,R0
   \   00000C   89..         MOV       ?V1,R1
   \   00000E   22           RET

   \                                 In  segment BANKED_CODE, align 1, keep-with-next
   \                     ?Subroutine11:
   \   000000   12....       LCALL     ?Subroutine91 & 0xFFFF
   \                     ??CrossCallReturnLabel_262:
   \   000003   A982         MOV       R1,DPL
   \   000005   AA83         MOV       R2,DPH
   \   000007   89..         MOV       ?V4,R1
   \   000009   8A..         MOV       ?V5,R2
   \   00000B   75..00       MOV       ?V6,#0x0
   \   00000E   78..         MOV       R0,#?V4
   \   000010   22           RET

   \                                 In  segment BANKED_CODE, align 1, keep-with-next
   \                     ?Subroutine35:
   \   000000   A3           INC       DPTR
   \   000001   12....       LCALL     ?Subroutine95 & 0xFFFF
   \                     ??CrossCallReturnLabel_164:
   \   000004   A3           INC       DPTR
   \   000005   22           RET

   \                                 In  segment BANKED_CODE, align 1, keep-with-next
   \                     ?Subroutine95:
   \   000000   F0           MOVX      @DPTR,A
   \   000001   85..82       MOV       DPL,?V0
   \   000004   85..83       MOV       DPH,?V1
   \   000007   A3           INC       DPTR
   \   000008   22           RET
    522          
    523          /*********************************************************************
    524           * @fn          ZDP_ServerDiscReq
    525           *
    526           * @brief       Build and send a Server_Discovery_req request message.
    527           *
    528           * @param       serverMask - 16-bit bit-mask of server services being sought.
    529           * @param       SecurityEnable - Security Options
    530           *
    531           * @return      afStatus_t
    532           */

   \                                 In  segment BANKED_CODE, align 1, keep-with-next
    533          afStatus_t ZDP_ServerDiscReq( uint16 serverMask, byte SecurityEnable )
   \                     ZDP_ServerDiscReq:
    534          {
   \   000000                REQUIRE ?V0
   \   000000                REQUIRE ?V1
   \   000000   74F6         MOV       A,#-0xa
   \   000002   12....       LCALL     ?BANKED_ENTER_XDATA
   \   000005                ; Saved register size: 10
   \   000005                ; Auto size: 9
   \   000005   74F7         MOV       A,#-0x9
   \   000007   12....       LCALL     ?ALLOC_XSTACK8
   \   00000A   12....       LCALL     ?Subroutine57 & 0xFFFF
    535            uint8 *pBuf = ZDP_TmpBuf;
    536            zAddrType_t dstAddr;
    537          
    538            dstAddr.addrMode = AddrBroadcast;
   \                     ??CrossCallReturnLabel_279:
   \   00000D   7408         MOV       A,#0x8
   \   00000F   12....       LCALL     ?XSTACK_DISP0_8
   \   000012   12....       LCALL     ?Subroutine20 & 0xFFFF
    539            dstAddr.addr.shortAddr = NWK_BROADCAST_SHORTADDR_DEVRXON;
    540          
    541            *pBuf++ = LO_UINT16( serverMask );
   \                     ??CrossCallReturnLabel_19:
   \   000015   EA           MOV       A,R2
   \   000016   8882         MOV       DPL,R0
   \   000018   8983         MOV       DPH,R1
   \   00001A   F0           MOVX      @DPTR,A
    542            *pBuf = HI_UINT16( serverMask );
   \   00001B   EB           MOV       A,R3
   \   00001C   A3           INC       DPTR
   \   00001D   F0           MOVX      @DPTR,A
    543          
    544            FillAndSendTxOptions( &ZDP_TransID, &dstAddr, Server_Discovery_req, 2,
    545                       ((SecurityEnable) ? AF_EN_SECURITY : AF_TX_OPTIONS_NONE) );
   \   00001E   EE           MOV       A,R6
   \   00001F   90....       MOV       DPTR,#ZDP_TxOptions
   \   000022   6004         JZ        ??ZDP_ServerDiscReq_0
   \   000024   7440         MOV       A,#0x40
   \   000026   8001         SJMP      ??ZDP_ServerDiscReq_1
   \                     ??ZDP_ServerDiscReq_0:
   \   000028   E4           CLR       A
   \                     ??ZDP_ServerDiscReq_1:
   \   000029   F0           MOVX      @DPTR,A
   \   00002A                ; Setup parameters for call to function fillAndSend
   \   00002A   75..15       MOV       ?V0,#0x15
   \   00002D   75..00       MOV       ?V1,#0x0
   \   000030   78..         MOV       R0,#?V0
   \   000032   12....       LCALL     ?PUSH_XSTACK_I_TWO
   \   000035   7902         MOV       R1,#0x2
   \   000037   E9           MOV       A,R1
   \   000038   12....       LCALL     ?XSTACK_DISP102_8
   \   00003B   7A..         MOV       R2,#ZDP_TransID & 0xff
   \   00003D   7B..         MOV       R3,#(ZDP_TransID >> 8) & 0xff
   \   00003F   12....       LCALL     `??fillAndSend::?relay`; Banked call to: fillAndSend
   \   000042   7402         MOV       A,#0x2
   \   000044   12....       LCALL     ?DEALLOC_XSTACK8
   \   000047   E9           MOV       A,R1
   \   000048   F9           MOV       R1,A
   \   000049   90....       MOV       DPTR,#ZDP_TxOptions
   \   00004C   E4           CLR       A
   \   00004D   F0           MOVX      @DPTR,A
   \   00004E   02....       LJMP      ??Subroutine110_0 & 0xFFFF
    546          }

   \                                 In  segment BANKED_CODE, align 1, keep-with-next
   \                     ?Subroutine20:
   \   000000   12....       LCALL     ?Subroutine89 & 0xFFFF
   \                     ??CrossCallReturnLabel_154:
   \   000003   F0           MOVX      @DPTR,A
   \   000004   22           RET
    547          
    548          /*********************************************************************
    549           * @fn          ZDP_DeviceAnnce
    550           *
    551           * @brief       This builds and send a Device_Annce message.  This
    552           *              function sends a broadcast message.
    553           *
    554           * @param       nwkAddr - 16 bit address of the device
    555           * @param       IEEEAddr - 64 bit address of the device
    556           * @param       capabilities - device capabilities.  This field is only
    557           *                 sent for v1.1 networks.
    558           * @param       SecurityEnable - Security Options
    559           *
    560           * @return      afStatus_t
    561           */

   \                                 In  segment BANKED_CODE, align 1, keep-with-next
    562          afStatus_t ZDP_DeviceAnnce( uint16 nwkAddr, uint8 *IEEEAddr,
   \                     ZDP_DeviceAnnce:
    563                                        byte capabilities, byte SecurityEnable )
    564          {
   \   000000                REQUIRE ?V0
   \   000000                REQUIRE ?V1
   \   000000   74F6         MOV       A,#-0xa
   \   000002   12....       LCALL     ?BANKED_ENTER_XDATA
   \   000005                ; Saved register size: 10
   \   000005                ; Auto size: 9
   \   000005   74F7         MOV       A,#-0x9
   \   000007   12....       LCALL     ?ALLOC_XSTACK8
   \   00000A   E9           MOV       A,R1
   \   00000B   FE           MOV       R6,A
    565            zAddrType_t dstAddr;
    566            uint8 len;
    567          
    568            (void)SecurityEnable;  // Intentionally unreferenced parameter
    569          
    570            dstAddr.addrMode = (afAddrMode_t)AddrBroadcast;
   \   00000C   7408         MOV       A,#0x8
   \   00000E   12....       LCALL     ?XSTACK_DISP0_8
   \   000011   12....       LCALL     ?Subroutine20 & 0xFFFF
    571            dstAddr.addr.shortAddr = NWK_BROADCAST_SHORTADDR_DEVRXON;
    572          
    573            ZDP_TmpBuf[0] = LO_UINT16( nwkAddr );
   \                     ??CrossCallReturnLabel_20:
   \   000014   12....       LCALL     ?Subroutine46 & 0xFFFF
   \                     ??CrossCallReturnLabel_219:
   \   000017   EA           MOV       A,R2
   \   000018   12....       LCALL     ?Subroutine23 & 0xFFFF
    574            ZDP_TmpBuf[1] = HI_UINT16( nwkAddr );
   \                     ??CrossCallReturnLabel_25:
   \   00001B   EB           MOV       A,R3
   \   00001C   F0           MOVX      @DPTR,A
    575            osal_cpyExtAddr( &ZDP_TmpBuf[2], IEEEAddr );
   \   00001D                ; Setup parameters for call to function sAddrExtCpy
   \   00001D   90....       MOV       DPTR,#ZDP_TmpBuf
   \   000020   E0           MOVX      A,@DPTR
   \   000021   2402         ADD       A,#0x2
   \   000023   FA           MOV       R2,A
   \   000024   A3           INC       DPTR
   \   000025   E0           MOVX      A,@DPTR
   \   000026   3400         ADDC      A,#0x0
   \   000028   FB           MOV       R3,A
   \   000029   12....       LCALL     `??sAddrExtCpy::?relay`; Banked call to: sAddrExtCpy
    576            len = 2 + Z_EXTADDR_LEN;
    577          
    578            ZDP_TmpBuf[10] = capabilities;
   \   00002C   12....       LCALL     ?Subroutine105 & 0xFFFF
   \                     ??CrossCallReturnLabel_300:
   \   00002F   C8           XCH       A,R0
   \   000030   240A         ADD       A,#0xa
   \   000032   F582         MOV       DPL,A
   \   000034   E4           CLR       A
   \   000035   38           ADDC      A,R0
   \   000036   F583         MOV       DPH,A
   \   000038   EE           MOV       A,R6
   \   000039   F0           MOVX      @DPTR,A
    579            len++;
    580          
    581            return fillAndSend( &ZDP_TransID, &dstAddr, Device_annce, len );
   \   00003A                ; Setup parameters for call to function fillAndSend
   \   00003A   75..13       MOV       ?V0,#0x13
   \   00003D   75..00       MOV       ?V1,#0x0
   \   000040   78..         MOV       R0,#?V0
   \   000042   12....       LCALL     ?PUSH_XSTACK_I_TWO
   \   000045   790B         MOV       R1,#0xb
   \   000047   02....       LJMP      ?Subroutine2 & 0xFFFF
    582          }

   \                                 In  segment BANKED_CODE, align 1, keep-with-next
   \                     ?Subroutine46:
   \   000000   90....       MOV       DPTR,#ZDP_TmpBuf
   \   000003   E0           MOVX      A,@DPTR
   \   000004                REQUIRE ??Subroutine122_0
   \   000004                ; // Fall through to label ??Subroutine122_0

   \                                 In  segment BANKED_CODE, align 1, keep-with-next
   \                     ??Subroutine122_0:
   \   000000   F8           MOV       R0,A
   \   000001   A3           INC       DPTR
   \   000002   E0           MOVX      A,@DPTR
   \   000003   F583         MOV       DPH,A
   \   000005   8882         MOV       DPL,R0
   \   000007   22           RET

   \                                 In  segment BANKED_CODE, align 1, keep-with-next
   \                     ?Subroutine23:
   \   000000   12....       LCALL     ?Subroutine78 & 0xFFFF
   \                     ??CrossCallReturnLabel_133:
   \   000003   22           RET
    583          
    584          /*********************************************************************
    585           * @fn          ZDP_ParentAnnce
    586           *
    587           * @brief       This builds and send a Parent_Annce and Parent_Annce_Rsp
    588           *              messages, it will depend on the clusterID parameter.
    589           *
    590           * @param       TransSeq - ZDP Transaction Sequence Number
    591           * @param       dstAddr - destination address
    592           * @param       numberOfChildren - 8 bit number of children
    593           * @param       childInfo - list of children information (ExtAddr and Age)
    594           * @param       clusterID - Parent_annce or Parent_annce_rsp
    595           * @param       SecurityEnable - Security Options
    596           *
    597           * @return      afStatus_t
    598           */

   \                                 In  segment BANKED_CODE, align 1, keep-with-next
    599          afStatus_t ZDP_ParentAnnce( uint8 *TransSeq,
   \                     ZDP_ParentAnnce:
    600                                      zAddrType_t *dstAddr,
    601                                      uint8 numberOfChildren,
    602                                      uint8 *childInfo,
    603                                      cId_t clusterID,
    604                                      uint8 SecurityEnable )
    605          {
   \   000000                REQUIRE ?V0
   \   000000                REQUIRE ?V1
   \   000000                REQUIRE ?V2
   \   000000                REQUIRE ?V3
   \   000000                REQUIRE ?V4
   \   000000                REQUIRE ?V5
   \   000000                REQUIRE ?V6
   \   000000                REQUIRE ?V7
   \   000000                REQUIRE ?V8
   \   000000                REQUIRE ?V10
   \   000000                REQUIRE ?V11
   \   000000   74EC         MOV       A,#-0x14
   \   000002   12....       LCALL     ?BANKED_ENTER_XDATA
   \   000005                ; Saved register size: 20
   \   000005                ; Auto size: 0
   \   000005   8A..         MOV       ?V2,R2
   \   000007   8B..         MOV       ?V3,R3
   \   000009   EC           MOV       A,R4
   \   00000A   FE           MOV       R6,A
   \   00000B   ED           MOV       A,R5
   \   00000C   FF           MOV       R7,A
   \   00000D   89..         MOV       ?V8,R1
    606            uint8 *pBuf = ZDP_TmpBuf;
   \   00000F   12....       LCALL     ??Subroutine123_0 & 0xFFFF
    607            ZDO_ChildInfo_t *pChildInfo;
    608            uint8 i, len;
    609          
    610            (void)SecurityEnable;  // Intentionally unreferenced parameter
    611          
    612            // NumberOfChildren + ( numberOfChildren * ChildInfo).
    613            len = 1 + ( numberOfChildren * sizeof(ZDO_ChildInfo_t) );
   \                     ??CrossCallReturnLabel_227:
   \   000012   75F00C       MOV       B,#0xc
   \   000015   E9           MOV       A,R1
   \   000016   A4           MUL       AB
   \   000017   04           INC       A
   \   000018   F5..         MOV       ?V6,A
    614          
    615            if ( len >= ZDP_BUF_SZ-1 )
   \   00001A   944F         SUBB      A,#0x4f
   \   00001C   4005         JC        ??ZDP_ParentAnnce_0
    616            {
    617              return afStatus_MEM_FAIL;
   \   00001E   7910         MOV       R1,#0x10
   \   000020   02....       LJMP      ??ZDP_ParentAnnce_1 & 0xFFFF
    618            }
    619          
    620            pChildInfo = (ZDO_ChildInfo_t *)childInfo;
    621          
    622            if ( dstAddr->addrMode == AddrBroadcast )
   \                     ??ZDP_ParentAnnce_0:
   \   000023   8E82         MOV       DPL,R6
   \   000025   8F83         MOV       DPH,R7
   \   000027   A3           INC       DPTR
   \   000028   A3           INC       DPTR
   \   000029   A3           INC       DPTR
   \   00002A   A3           INC       DPTR
   \   00002B   A3           INC       DPTR
   \   00002C   A3           INC       DPTR
   \   00002D   A3           INC       DPTR
   \   00002E   A3           INC       DPTR
   \   00002F   E0           MOVX      A,@DPTR
   \   000030   640F         XRL       A,#0xf
   \   000032   700B         JNZ       ??ZDP_ParentAnnce_2
    623            {
    624              // Make sure is sent to 0xFFFC
    625              dstAddr->addr.shortAddr = NWK_BROADCAST_SHORTADDR_DEVZCZR;
   \   000034   8E82         MOV       DPL,R6
   \   000036   8F83         MOV       DPH,R7
   \   000038   74FC         MOV       A,#-0x4
   \   00003A   F0           MOVX      @DPTR,A
   \   00003B   A3           INC       DPTR
   \   00003C   74FF         MOV       A,#-0x1
   \   00003E   F0           MOVX      @DPTR,A
    626            }
    627          
    628            *pBuf++ = numberOfChildren;
   \                     ??ZDP_ParentAnnce_2:
   \   00003F   8A82         MOV       DPL,R2
   \   000041   8B83         MOV       DPH,R3
   \   000043   E9           MOV       A,R1
   \   000044   12....       LCALL     ?Subroutine25 & 0xFFFF
    629          
    630            for ( i = 0; i < numberOfChildren; i++ )
   \                     ??CrossCallReturnLabel_29:
   \   000047   75..00       MOV       ?V7,#0x0
   \   00004A   7414         MOV       A,#0x14
   \   00004C   12....       LCALL     ?XSTACK_DISP0_8
   \   00004F   12....       LCALL     ?Subroutine44 & 0xFFFF
   \                     ??CrossCallReturnLabel_65:
   \   000052   8034         SJMP      ??ZDP_ParentAnnce_3
    631            {
    632              pBuf = osal_cpyExtAddr( pBuf, pChildInfo[i].extAddr );
   \                     ??ZDP_ParentAnnce_4:
   \   000054   E5..         MOV       A,?V7
   \   000056   75F00C       MOV       B,#0xc
   \   000059   A4           MUL       AB
   \   00005A   F8           MOV       R0,A
   \   00005B   A9F0         MOV       R1,B
   \   00005D   E5..         MOV       A,?V0
   \   00005F   28           ADD       A,R0
   \   000060   F5..         MOV       ?V4,A
   \   000062   E5..         MOV       A,?V1
   \   000064   39           ADDC      A,R1
   \   000065   F5..         MOV       ?V5,A
   \   000067                ; Setup parameters for call to function sAddrExtCpy
   \   000067   AC..         MOV       R4,?V4
   \   000069   FD           MOV       R5,A
   \   00006A   12....       LCALL     `??sAddrExtCpy::?relay`; Banked call to: sAddrExtCpy
    633          
    634              pBuf = osal_buffer_uint32( pBuf, pChildInfo[i].age );
   \   00006D                ; Setup parameters for call to function osal_buffer_uint32
   \   00006D   85..82       MOV       DPL,?V4
   \   000070   85..83       MOV       DPH,?V5
   \   000073   A3           INC       DPTR
   \   000074   A3           INC       DPTR
   \   000075   A3           INC       DPTR
   \   000076   A3           INC       DPTR
   \   000077   A3           INC       DPTR
   \   000078   A3           INC       DPTR
   \   000079   A3           INC       DPTR
   \   00007A   A3           INC       DPTR
   \   00007B   12....       LCALL     ?PUSH_XSTACK8_X_FOUR
   \   00007E   12....       LCALL     `??osal_buffer_uint32::?relay`; Banked call to: osal_buffer_uint32
   \   000081   7404         MOV       A,#0x4
   \   000083   12....       LCALL     ?DEALLOC_XSTACK8
    635            }
   \   000086   05..         INC       ?V7
   \                     ??ZDP_ParentAnnce_3:
   \   000088   E5..         MOV       A,?V7
   \   00008A   C3           CLR       C
   \   00008B   95..         SUBB      A,?V8
   \   00008D   40C5         JC        ??ZDP_ParentAnnce_4
    636          
    637            return fillAndSend( TransSeq, dstAddr, clusterID, len );
   \   00008F                ; Setup parameters for call to function fillAndSend
   \   00008F   7416         MOV       A,#0x16
   \   000091   12....       LCALL     ?XSTACK_DISP0_8
   \   000094   12....       LCALL     ?PUSH_XSTACK8_X_TWO
   \   000097   A9..         MOV       R1,?V6
   \   000099   EE           MOV       A,R6
   \   00009A   FC           MOV       R4,A
   \   00009B   EF           MOV       A,R7
   \   00009C   FD           MOV       R5,A
   \   00009D   AA..         MOV       R2,?V2
   \   00009F   AB..         MOV       R3,?V3
   \   0000A1   12....       LCALL     `??fillAndSend::?relay`; Banked call to: fillAndSend
   \   0000A4   7402         MOV       A,#0x2
   \   0000A6   12....       LCALL     ?DEALLOC_XSTACK8
   \                     ??ZDP_ParentAnnce_1:
   \   0000A9   02....       LJMP      ??Subroutine125_0 & 0xFFFF
    638          }

   \                                 In  segment BANKED_CODE, align 1, keep-with-next
   \                     ??Subroutine123_0:
   \   000000   90....       MOV       DPTR,#ZDP_TmpBuf
   \   000003                REQUIRE ??Subroutine124_0
   \   000003                ; // Fall through to label ??Subroutine124_0

   \                                 In  segment BANKED_CODE, align 1, keep-with-next
   \                     ??Subroutine124_0:
   \   000000   E0           MOVX      A,@DPTR
   \   000001   FA           MOV       R2,A
   \   000002   A3           INC       DPTR
   \   000003   E0           MOVX      A,@DPTR
   \   000004   FB           MOV       R3,A
   \   000005   22           RET

   \                                 In  segment BANKED_CODE, align 1, keep-with-next
   \                     ??Subroutine125_0:
   \   000000   7F0C         MOV       R7,#0xc
   \   000002   02....       LJMP      ?BANKED_LEAVE_XDATA

   \                                 In  segment BANKED_CODE, align 1, keep-with-next
   \                     ?Subroutine25:
   \   000000   F0           MOVX      @DPTR,A
   \   000001   A3           INC       DPTR
   \   000002   AA82         MOV       R2,DPL
   \   000004   AB83         MOV       R3,DPH
   \   000006   22           RET
    639          
    640          /*********************************************************************
    641           * Address Responses
    642           */
    643          
    644          /*********************************************************************
    645           * @fn      zdpProcessAddrReq
    646           *
    647           * @brief   Process an incoming NWK_addr_req or IEEE_addr_req message and then
    648           *          build and send a corresponding NWK_addr_rsp or IEEE_addr_rsp msg.
    649           *
    650           * @param   inMsg - incoming message
    651           *
    652           * @return  none
    653           */

   \                                 In  segment BANKED_CODE, align 1, keep-with-next
    654          void zdpProcessAddrReq( zdoIncomingMsg_t *inMsg )
   \                     zdpProcessAddrReq:
    655          {
   \   000000                REQUIRE ?V0
   \   000000                REQUIRE ?V1
   \   000000                REQUIRE ?V2
   \   000000                REQUIRE ?V3
   \   000000                REQUIRE ?V4
   \   000000                REQUIRE ?V5
   \   000000                REQUIRE ?V6
   \   000000                REQUIRE ?V7
   \   000000                REQUIRE ?V8
   \   000000                REQUIRE ?V9
   \   000000   74EE         MOV       A,#-0x12
   \   000002   12....       LCALL     ?BANKED_ENTER_XDATA
   \   000005                ; Saved register size: 18
   \   000005                ; Auto size: 14
   \   000005   74F2         MOV       A,#-0xe
   \   000007   12....       LCALL     ?ALLOC_XSTACK8
   \   00000A   8A..         MOV       ?V0,R2
   \   00000C   8B..         MOV       ?V1,R3
    656            associated_devices_t *pAssoc;
    657            uint8 reqType;
    658            uint16 aoi = INVALID_NODE_ADDR;
   \   00000E   75..FE       MOV       ?V2,#-0x2
   \   000011   75..FF       MOV       ?V3,#-0x1
    659            uint8 *ieee = NULL;
   \   000014   7E00         MOV       R6,#0x0
   \   000016   7F00         MOV       R7,#0x0
    660          
    661            reqType = inMsg->asdu[(inMsg->clusterID == NWK_addr_req) ? Z_EXTADDR_LEN : sizeof( uint16 ) ];
   \   000018   EA           MOV       A,R2
   \   000019   12....       LCALL     ?Subroutine50 & 0xFFFF
   \                     ??CrossCallReturnLabel_189:
   \   00001C   7004         JNZ       ??zdpProcessAddrReq_0
   \   00001E   7808         MOV       R0,#0x8
   \   000020   8002         SJMP      ??zdpProcessAddrReq_1
   \                     ??zdpProcessAddrReq_0:
   \   000022   7802         MOV       R0,#0x2
   \                     ??zdpProcessAddrReq_1:
   \   000024   EA           MOV       A,R2
   \   000025   2413         ADD       A,#0x13
   \   000027   12....       LCALL     ??Subroutine113_0 & 0xFFFF
   \                     ??CrossCallReturnLabel_183:
   \   00002A   28           ADD       A,R0
   \   00002B   FA           MOV       R2,A
   \   00002C   A3           INC       DPTR
   \   00002D   E0           MOVX      A,@DPTR
   \   00002E   3400         ADDC      A,#0x0
   \   000030   8A82         MOV       DPL,R2
   \   000032   F583         MOV       DPH,A
   \   000034   E0           MOVX      A,@DPTR
   \   000035   F5..         MOV       ?V4,A
    662          
    663            if ( inMsg->clusterID == NWK_addr_req )
   \   000037   12....       LCALL     ?Subroutine72 & 0xFFFF
   \                     ??CrossCallReturnLabel_186:
   \   00003A   49           ORL       A,R1
   \   00003B   705A         JNZ       ??zdpProcessAddrReq_2
    664          
    665            {
    666              ieee = inMsg->asdu;
   \   00003D   12....       LCALL     ?Subroutine74 & 0xFFFF
   \                     ??CrossCallReturnLabel_124:
   \   000040   12....       LCALL     ?Subroutine55 & 0xFFFF
    667          
    668              if ( osal_ExtAddrEqual( saveExtAddr, ieee ) )
   \                     ??CrossCallReturnLabel_84:
   \   000043                ; Setup parameters for call to function sAddrExtCmp
   \   000043   EE           MOV       A,R6
   \   000044   FC           MOV       R4,A
   \   000045   EF           MOV       A,R7
   \   000046   FD           MOV       R5,A
   \   000047   7A..         MOV       R2,#saveExtAddr & 0xff
   \   000049   7B..         MOV       R3,#(saveExtAddr >> 8) & 0xff
   \   00004B   12....       LCALL     `??sAddrExtCmp::?relay`; Banked call to: sAddrExtCmp
   \   00004E   E9           MOV       A,R1
   \   00004F   6006         JZ        ??zdpProcessAddrReq_3
    669              {
    670                aoi = ZDAppNwkAddr.addr.shortAddr;
   \   000051   12....       LCALL     ?Subroutine43 & 0xFFFF
    671              }
   \                     ??CrossCallReturnLabel_195:
   \   000054   02....       LJMP      ??zdpProcessAddrReq_4 & 0xFFFF
    672              // Handle response for sleeping end devices
    673              else if ( (ZSTACK_ROUTER_BUILD)
    674                && (((pAssoc = AssocGetWithExt( ieee )) != NULL)
    675                       && (pAssoc->nodeRelation == CHILD_RFD)) )
   \                     ??zdpProcessAddrReq_3:
   \   000057   90....       MOV       DPTR,#zgDeviceLogicalType
   \   00005A   E0           MOVX      A,@DPTR
   \   00005B   6007         JZ        ??zdpProcessAddrReq_5
   \   00005D   6401         XRL       A,#0x1
   \   00005F   6003         JZ        $+5
   \   000061   02....       LJMP      ??zdpProcessAddrReq_6 & 0xFFFF
   \                     ??zdpProcessAddrReq_5:
   \   000064                ; Setup parameters for call to function AssocGetWithExt
   \   000064   EE           MOV       A,R6
   \   000065   FA           MOV       R2,A
   \   000066   EF           MOV       A,R7
   \   000067   FB           MOV       R3,A
   \   000068   12....       LCALL     `??AssocGetWithExt::?relay`; Banked call to: AssocGetWithExt
   \   00006B   8A..         MOV       ?V6,R2
   \   00006D   8B..         MOV       ?V7,R3
   \   00006F   A8..         MOV       R0,?V6
   \   000071   A9..         MOV       R1,?V7
   \   000073   E8           MOV       A,R0
   \   000074   49           ORL       A,R1
   \   000075   7003         JNZ       $+5
   \   000077   02....       LJMP      ??zdpProcessAddrReq_6 & 0xFFFF
   \   00007A   8882         MOV       DPL,R0
   \   00007C   8983         MOV       DPH,R1
   \   00007E   A3           INC       DPTR
   \   00007F   A3           INC       DPTR
   \   000080   A3           INC       DPTR
   \   000081   A3           INC       DPTR
   \   000082   E0           MOVX      A,@DPTR
   \   000083   6401         XRL       A,#0x1
   \   000085   6003         JZ        $+5
   \   000087   02....       LJMP      ??zdpProcessAddrReq_6 & 0xFFFF
    676              {
    677                aoi = pAssoc->shortAddr;
   \   00008A   8882         MOV       DPL,R0
   \   00008C   8983         MOV       DPH,R1
   \   00008E   12....       LCALL     ??Subroutine115_0 & 0xFFFF
    678                if ( reqType != ZDP_ADDR_REQTYPE_SINGLE )
   \                     ??CrossCallReturnLabel_192:
   \   000091   E5..         MOV       A,?V4
   \   000093   707D         JNZ       ??zdpProcessAddrReq_7
   \   000095   807E         SJMP      ??zdpProcessAddrReq_4
    679                  reqType = 0xFF; // Force Invalid
    680              }
    681            }
   \                     ??zdpProcessAddrReq_2:
   \   000097   12....       LCALL     ?Subroutine74 & 0xFFFF
   \                     ??CrossCallReturnLabel_125:
   \   00009A   12....       LCALL     ?Subroutine42 & 0xFFFF
   \                     ??CrossCallReturnLabel_63:
   \   00009D   FA           MOV       R2,A
   \   00009E   A3           INC       DPTR
   \   00009F   E0           MOVX      A,@DPTR
   \   0000A0   F9           MOV       R1,A
   \   0000A1   EA           MOV       A,R2
   \   0000A2   2E           ADD       A,R6
   \   0000A3   F5..         MOV       ?V2,A
   \   0000A5   E4           CLR       A
   \   0000A6   39           ADDC      A,R1
   \   0000A7   F5..         MOV       ?V3,A
    682            else  // if ( inMsg->clusterID == IEEE_addr_req )
    683            {
    684              aoi = BUILD_UINT16( inMsg->asdu[0], inMsg->asdu[1] );
    685          
    686              if ( aoi == ZDAppNwkAddr.addr.shortAddr )
   \   0000A9   90....       MOV       DPTR,#ZDAppNwkAddr
   \   0000AC   E0           MOVX      A,@DPTR
   \   0000AD   65..         XRL       A,?V2
   \   0000AF   7004         JNZ       ??zdpProcessAddrReq_8
   \   0000B1   A3           INC       DPTR
   \   0000B2   E0           MOVX      A,@DPTR
   \   0000B3   65..         XRL       A,?V3
   \                     ??zdpProcessAddrReq_8:
   \   0000B5   7006         JNZ       ??zdpProcessAddrReq_9
    687              {
    688                ieee = saveExtAddr;
   \   0000B7   7E..         MOV       R6,#saveExtAddr & 0xff
   \   0000B9   7F..         MOV       R7,#(saveExtAddr >> 8) & 0xff
   \   0000BB   8058         SJMP      ??zdpProcessAddrReq_4
    689              }
    690              else if ( (ZSTACK_ROUTER_BUILD)
    691                && (((pAssoc = AssocGetWithShort( aoi )) != NULL)
    692                       && (pAssoc->nodeRelation == CHILD_RFD)) )
   \                     ??zdpProcessAddrReq_9:
   \   0000BD   90....       MOV       DPTR,#zgDeviceLogicalType
   \   0000C0   E0           MOVX      A,@DPTR
   \   0000C1   6004         JZ        ??zdpProcessAddrReq_10
   \   0000C3   6401         XRL       A,#0x1
   \   0000C5   705E         JNZ       ??zdpProcessAddrReq_6
   \                     ??zdpProcessAddrReq_10:
   \   0000C7                ; Setup parameters for call to function AssocGetWithShort
   \   0000C7   AB..         MOV       R3,?V3
   \   0000C9   12....       LCALL     `??AssocGetWithShort::?relay`; Banked call to: AssocGetWithShort
   \   0000CC   8A..         MOV       ?V6,R2
   \   0000CE   8B..         MOV       ?V7,R3
   \   0000D0   A8..         MOV       R0,?V6
   \   0000D2   A9..         MOV       R1,?V7
   \   0000D4   E8           MOV       A,R0
   \   0000D5   49           ORL       A,R1
   \   0000D6   604D         JZ        ??zdpProcessAddrReq_6
   \   0000D8   8882         MOV       DPL,R0
   \   0000DA   8983         MOV       DPH,R1
   \   0000DC   A3           INC       DPTR
   \   0000DD   A3           INC       DPTR
   \   0000DE   A3           INC       DPTR
   \   0000DF   A3           INC       DPTR
   \   0000E0   E0           MOVX      A,@DPTR
   \   0000E1   6401         XRL       A,#0x1
   \   0000E3   7040         JNZ       ??zdpProcessAddrReq_6
    693              {
    694                AddrMgrEntry_t addrEntry;
    695                addrEntry.user = ADDRMGR_USER_DEFAULT;
   \   0000E5   7401         MOV       A,#0x1
   \   0000E7   12....       LCALL     ?XSTACK_DISP0_8
   \   0000EA   E4           CLR       A
   \   0000EB   12....       LCALL     ?Subroutine37 & 0xFFFF
    696                addrEntry.index = pAssoc->addrIdx;
   \                     ??CrossCallReturnLabel_50:
   \   0000EE   F8           MOV       R0,A
   \   0000EF   A3           INC       DPTR
   \   0000F0   E0           MOVX      A,@DPTR
   \   0000F1   F9           MOV       R1,A
   \   0000F2   740C         MOV       A,#0xc
   \   0000F4   12....       LCALL     ?XSTACK_DISP0_8
   \   0000F7   12....       LCALL     ??Subroutine127_0 & 0xFFFF
    697                if ( AddrMgrEntryGet( &addrEntry ) )
   \                     ??CrossCallReturnLabel_233:
   \   0000FA                ; Setup parameters for call to function AddrMgrEntryGet
   \   0000FA   7401         MOV       A,#0x1
   \   0000FC   12....       LCALL     ?XSTACK_DISP101_8
   \   0000FF   12....       LCALL     `??AddrMgrEntryGet::?relay`; Banked call to: AddrMgrEntryGet
   \   000102   E9           MOV       A,R1
   \   000103   6009         JZ        ??zdpProcessAddrReq_11
    698                {
    699                  ieee = addrEntry.extAddr;
   \   000105   7404         MOV       A,#0x4
   \   000107   12....       LCALL     ?XSTACK_DISP0_8
   \   00010A   AE82         MOV       R6,DPL
   \   00010C   AF83         MOV       R7,DPH
    700                }
    701          
    702                if ( reqType != ZDP_ADDR_REQTYPE_SINGLE )
   \                     ??zdpProcessAddrReq_11:
   \   00010E   E5..         MOV       A,?V4
   \   000110   6003         JZ        ??zdpProcessAddrReq_4
    703                  reqType = 0xFF; // Force Invalid
   \                     ??zdpProcessAddrReq_7:
   \   000112   75..FF       MOV       ?V4,#-0x1
    704              }
    705            }
    706          
    707            if ( ((aoi != INVALID_NODE_ADDR) && (ieee != NULL)) || (inMsg->wasBroadcast == FALSE) )
   \                     ??zdpProcessAddrReq_4:
   \   000115   74FE         MOV       A,#-0x2
   \   000117   65..         XRL       A,?V2
   \   000119   7004         JNZ       ??zdpProcessAddrReq_12
   \   00011B   74FF         MOV       A,#-0x1
   \   00011D   65..         XRL       A,?V3
   \                     ??zdpProcessAddrReq_12:
   \   00011F   6004         JZ        ??zdpProcessAddrReq_6
   \   000121   EE           MOV       A,R6
   \   000122   4F           ORL       A,R7
   \   000123   700C         JNZ       ??zdpProcessAddrReq_13
   \                     ??zdpProcessAddrReq_6:
   \   000125   E5..         MOV       A,?V0
   \   000127   240B         ADD       A,#0xb
   \   000129   12....       LCALL     ??Subroutine113_0 & 0xFFFF
   \                     ??CrossCallReturnLabel_184:
   \   00012C   6003         JZ        $+5
   \   00012E   02....       LJMP      ??zdpProcessAddrReq_14 & 0xFFFF
    708            {
    709              uint8 stat;
    710              uint8 *pBuf = ZDP_TmpBuf;
   \                     ??zdpProcessAddrReq_13:
   \   000131   12....       LCALL     ??Subroutine123_0 & 0xFFFF
    711              // Status + IEEE-Addr + Nwk-Addr.
    712              uint8 len = 1 + Z_EXTADDR_LEN + 2;
   \                     ??CrossCallReturnLabel_228:
   \   000134   75..0B       MOV       ?V5,#0xb
    713          
    714              // If aoi and iee are both setup, we found results
    715              if ( (aoi != INVALID_NODE_ADDR) && (ieee != NULL) )
   \   000137   74FE         MOV       A,#-0x2
   \   000139   65..         XRL       A,?V2
   \   00013B   7004         JNZ       ??zdpProcessAddrReq_15
   \   00013D   74FF         MOV       A,#-0x1
   \   00013F   65..         XRL       A,?V3
   \                     ??zdpProcessAddrReq_15:
   \   000141   6018         JZ        ??zdpProcessAddrReq_16
   \   000143   EE           MOV       A,R6
   \   000144   4F           ORL       A,R7
   \   000145   6014         JZ        ??zdpProcessAddrReq_16
    716              {
    717                stat = ((reqType == ZDP_ADDR_REQTYPE_SINGLE) || (reqType == ZDP_ADDR_REQTYPE_EXTENDED))
    718                              ? ZDP_SUCCESS : ZDP_INVALID_REQTYPE;
   \   000147   E5..         MOV       A,?V4
   \   000149   6006         JZ        ??zdpProcessAddrReq_17
   \   00014B   7401         MOV       A,#0x1
   \   00014D   65..         XRL       A,?V4
   \   00014F   7005         JNZ       ??zdpProcessAddrReq_18
   \                     ??zdpProcessAddrReq_17:
   \   000151   75..00       MOV       ?V6,#0x0
   \   000154   8018         SJMP      ??zdpProcessAddrReq_19
   \                     ??zdpProcessAddrReq_18:
   \   000156   75..80       MOV       ?V6,#-0x80
   \   000159   8013         SJMP      ??zdpProcessAddrReq_19
    719              }
    720              else
    721              {
    722                // not found and the req was unicast to this device
    723                stat = ZDP_DEVICE_NOT_FOUND;
   \                     ??zdpProcessAddrReq_16:
   \   00015B   75..81       MOV       ?V6,#-0x7f
    724          
    725                // Fill in the missing field with this device's address
    726                if ( inMsg->clusterID == NWK_addr_req )
   \   00015E   E5..         MOV       A,?V0
   \   000160   12....       LCALL     ?Subroutine50 & 0xFFFF
   \                     ??CrossCallReturnLabel_190:
   \   000163   7005         JNZ       ??zdpProcessAddrReq_20
    727                {
    728                  aoi = ZDAppNwkAddr.addr.shortAddr;
   \   000165   12....       LCALL     ?Subroutine43 & 0xFFFF
    729                }
   \                     ??CrossCallReturnLabel_196:
   \   000168   8004         SJMP      ??zdpProcessAddrReq_19
    730                else
    731                {
    732                  ieee = saveExtAddr;
   \                     ??zdpProcessAddrReq_20:
   \   00016A   7E..         MOV       R6,#saveExtAddr & 0xff
   \   00016C   7F..         MOV       R7,#(saveExtAddr >> 8) & 0xff
    733                }
    734              }
    735          
    736              *pBuf++ = stat;
   \                     ??zdpProcessAddrReq_19:
   \   00016E   8A82         MOV       DPL,R2
   \   000170   8B83         MOV       DPH,R3
   \   000172   E5..         MOV       A,?V6
   \   000174   12....       LCALL     ?Subroutine25 & 0xFFFF
    737          
    738              pBuf = osal_cpyExtAddr( pBuf, ieee );
   \                     ??CrossCallReturnLabel_30:
   \   000177                ; Setup parameters for call to function sAddrExtCpy
   \   000177   EE           MOV       A,R6
   \   000178   FC           MOV       R4,A
   \   000179   EF           MOV       A,R7
   \   00017A   FD           MOV       R5,A
   \   00017B   12....       LCALL     `??sAddrExtCpy::?relay`; Banked call to: sAddrExtCpy
   \   00017E   8A..         MOV       ?V8,R2
   \   000180   8B..         MOV       ?V9,R3
   \   000182   AE..         MOV       R6,?V8
   \   000184   AF..         MOV       R7,?V9
    739          
    740              *pBuf++ = LO_UINT16( aoi );
   \   000186   8E82         MOV       DPL,R6
   \   000188   8F83         MOV       DPH,R7
   \   00018A   E5..         MOV       A,?V2
   \   00018C   F0           MOVX      @DPTR,A
    741              *pBuf++ = HI_UINT16( aoi );
   \   00018D   A3           INC       DPTR
   \   00018E   E5..         MOV       A,?V3
   \   000190   F0           MOVX      @DPTR,A
    742          
    743              if ( ZSTACK_ROUTER_BUILD )
   \   000191   90....       MOV       DPTR,#zgDeviceLogicalType
   \   000194   E0           MOVX      A,@DPTR
   \   000195   6007         JZ        ??zdpProcessAddrReq_21
   \   000197   6401         XRL       A,#0x1
   \   000199   6003         JZ        $+5
   \   00019B   02....       LJMP      ??zdpProcessAddrReq_22 & 0xFFFF
    744              {
    745                if ( (reqType == ZDP_ADDR_REQTYPE_EXTENDED) && (aoi == ZDAppNwkAddr.addr.shortAddr)
    746                     && (stat == ZDP_SUCCESS) )
   \                     ??zdpProcessAddrReq_21:
   \   00019E   7401         MOV       A,#0x1
   \   0001A0   65..         XRL       A,?V4
   \   0001A2   6003         JZ        $+5
   \   0001A4   02....       LJMP      ??zdpProcessAddrReq_22 & 0xFFFF
   \   0001A7   90....       MOV       DPTR,#ZDAppNwkAddr
   \   0001AA   E0           MOVX      A,@DPTR
   \   0001AB   65..         XRL       A,?V2
   \   0001AD   7004         JNZ       ??zdpProcessAddrReq_23
   \   0001AF   A3           INC       DPTR
   \   0001B0   E0           MOVX      A,@DPTR
   \   0001B1   65..         XRL       A,?V3
   \                     ??zdpProcessAddrReq_23:
   \   0001B3   6003         JZ        $+5
   \   0001B5   02....       LJMP      ??zdpProcessAddrReq_22 & 0xFFFF
   \   0001B8   E5..         MOV       A,?V6
   \   0001BA   6003         JZ        $+5
   \   0001BC   02....       LJMP      ??zdpProcessAddrReq_22 & 0xFFFF
    747                {
    748                  uint8  cnt = 0;
   \   0001BF   85..82       MOV       DPL,?XSP + 0
   \   0001C2   85..83       MOV       DPH,?XSP + 1
   \   0001C5   E4           CLR       A
   \   0001C6   F0           MOVX      @DPTR,A
    749                  uint16 *list = AssocMakeList( &cnt );
   \   0001C7                ; Setup parameters for call to function AssocMakeList
   \   0001C7   AA..         MOV       R2,?XSP + 0
   \   0001C9   AB..         MOV       R3,?XSP + 1
   \   0001CB   12....       LCALL     `??AssocMakeList::?relay`; Banked call to: AssocMakeList
   \   0001CE   8A..         MOV       ?V2,R2
   \   0001D0   8B..         MOV       ?V3,R3
   \   0001D2   A8..         MOV       R0,?V2
   \   0001D4   A9..         MOV       R1,?V3
    750          
    751                  if ( list != NULL )
   \   0001D6   E8           MOV       A,R0
   \   0001D7   49           ORL       A,R1
   \   0001D8   7003         JNZ       $+5
   \   0001DA   02....       LJMP      ??zdpProcessAddrReq_24 & 0xFFFF
    752                  {
    753                    byte idx = inMsg->asdu[(((inMsg->clusterID == NWK_addr_req) ? Z_EXTADDR_LEN : sizeof( uint16 )) + 1)];
   \   0001DD   E5..         MOV       A,?V0
   \   0001DF   12....       LCALL     ?Subroutine97 & 0xFFFF
   \                     ??CrossCallReturnLabel_167:
   \   0001E2   12....       LCALL     ?Subroutine53 & 0xFFFF
   \                     ??CrossCallReturnLabel_82:
   \   0001E5   7004         JNZ       ??zdpProcessAddrReq_25
   \   0001E7   7A09         MOV       R2,#0x9
   \   0001E9   8002         SJMP      ??zdpProcessAddrReq_26
   \                     ??zdpProcessAddrReq_25:
   \   0001EB   7A03         MOV       R2,#0x3
   \                     ??zdpProcessAddrReq_26:
   \   0001ED   E5..         MOV       A,?V0
   \   0001EF   2413         ADD       A,#0x13
   \   0001F1   12....       LCALL     ??Subroutine113_0 & 0xFFFF
   \                     ??CrossCallReturnLabel_185:
   \   0001F4   2A           ADD       A,R2
   \   0001F5   FC           MOV       R4,A
   \   0001F6   A3           INC       DPTR
   \   0001F7   E0           MOVX      A,@DPTR
   \   0001F8   3400         ADDC      A,#0x0
   \   0001FA   8C82         MOV       DPL,R4
   \   0001FC   F583         MOV       DPH,A
   \   0001FE   E0           MOVX      A,@DPTR
   \   0001FF   F5..         MOV       ?V2,A
    754                    uint16 *pList = list + idx;
   \   000201   25E0         ADD       A,0xE0 /* A   */
   \   000203   FA           MOV       R2,A
   \   000204   E4           CLR       A
   \   000205   33           RLC       A
   \   000206   FB           MOV       R3,A
   \   000207   E8           MOV       A,R0
   \   000208   2A           ADD       A,R2
   \   000209   FC           MOV       R4,A
   \   00020A   E9           MOV       A,R1
   \   00020B   3B           ADDC      A,R3
   \   00020C   FD           MOV       R5,A
    755          
    756                    // NumAssocDev field is only present on success.
    757                    if ( cnt > idx )
   \   00020D   85..82       MOV       DPL,?XSP + 0
   \   000210   85..83       MOV       DPH,?XSP + 1
   \   000213   E0           MOVX      A,@DPTR
   \   000214   FA           MOV       R2,A
   \   000215   E5..         MOV       A,?V2
   \   000217   C3           CLR       C
   \   000218   9A           SUBB      A,R2
   \   000219   500D         JNC       ??zdpProcessAddrReq_27
    758                    {
    759                      cnt -= idx;
   \   00021B   E0           MOVX      A,@DPTR
   \   00021C   C3           CLR       C
   \   00021D   95..         SUBB      A,?V2
   \   00021F   F0           MOVX      @DPTR,A
    760                      len += (cnt * sizeof( uint16 ));
   \   000220   C3           CLR       C
   \   000221   33           RLC       A
   \   000222   240B         ADD       A,#0xb
   \   000224   F5..         MOV       ?V5,A
   \   000226   8002         SJMP      ??zdpProcessAddrReq_28
    761                    }
    762                    else
    763                    {
    764                      cnt = 0;
   \                     ??zdpProcessAddrReq_27:
   \   000228   E4           CLR       A
   \   000229   F0           MOVX      @DPTR,A
    765                    }
    766                    *pBuf++ = cnt;
   \                     ??zdpProcessAddrReq_28:
   \   00022A   12....       LCALL     ?Subroutine36 & 0xFFFF
    767                    len++;
    768          
    769                    // StartIndex field is only present if NumAssocDev field is non-zero.
    770                    *pBuf++ = idx;
   \                     ??CrossCallReturnLabel_48:
   \   00022D   E5..         MOV       A,?V2
   \   00022F   F0           MOVX      @DPTR,A
   \   000230   EE           MOV       A,R6
   \   000231   2404         ADD       A,#0x4
   \   000233   FA           MOV       R2,A
   \   000234   E4           CLR       A
   \   000235   3F           ADDC      A,R7
   \   000236   FB           MOV       R3,A
    771                    len++;
   \   000237   05..         INC       ?V5
   \   000239   05..         INC       ?V5
   \   00023B   8025         SJMP      ??zdpProcessAddrReq_29
    772          
    773                    while ( cnt != 0 )
    774                    {
    775                      *pBuf++ = LO_UINT16( *pList );
   \                     ??zdpProcessAddrReq_30:
   \   00023D   8C82         MOV       DPL,R4
   \   00023F   8D83         MOV       DPH,R5
   \   000241   12....       LCALL     ?Subroutine66 & 0xFFFF
   \                     ??CrossCallReturnLabel_102:
   \   000244   12....       LCALL     ??Subroutine117_0 & 0xFFFF
    776                      *pBuf++ = HI_UINT16( *pList );
   \                     ??CrossCallReturnLabel_202:
   \   000247   12....       LCALL     ?Subroutine65 & 0xFFFF
   \                     ??CrossCallReturnLabel_99:
   \   00024A   F0           MOVX      @DPTR,A
   \   00024B   EA           MOV       A,R2
   \   00024C   2402         ADD       A,#0x2
   \   00024E   FA           MOV       R2,A
   \   00024F   5001         JNC       ??zdpProcessAddrReq_31
   \   000251   0B           INC       R3
    777                      pList++;
   \                     ??zdpProcessAddrReq_31:
   \   000252   EC           MOV       A,R4
   \   000253   2402         ADD       A,#0x2
   \   000255   FC           MOV       R4,A
   \   000256   5001         JNC       ??zdpProcessAddrReq_32
   \   000258   0D           INC       R5
    778                      cnt--;
   \                     ??zdpProcessAddrReq_32:
   \   000259   85..82       MOV       DPL,?XSP + 0
   \   00025C   85..83       MOV       DPH,?XSP + 1
   \   00025F   E0           MOVX      A,@DPTR
   \   000260   14           DEC       A
   \   000261   F0           MOVX      @DPTR,A
    779                    }
   \                     ??zdpProcessAddrReq_29:
   \   000262   85..82       MOV       DPL,?XSP + 0
   \   000265   85..83       MOV       DPH,?XSP + 1
   \   000268   E0           MOVX      A,@DPTR
   \   000269   70D2         JNZ       ??zdpProcessAddrReq_30
    780          
    781                    osal_mem_free( (uint8 *)list );
   \   00026B                ; Setup parameters for call to function osal_mem_free
   \   00026B   E8           MOV       A,R0
   \   00026C   FA           MOV       R2,A
   \   00026D   E9           MOV       A,R1
   \   00026E   FB           MOV       R3,A
   \   00026F   12....       LCALL     `??osal_mem_free::?relay`; Banked call to: osal_mem_free
   \   000272   800B         SJMP      ??zdpProcessAddrReq_22
    782                  }
    783                  else
    784                  {
    785                    // NumAssocDev field is only present on success.
    786                    *pBuf++ = 0;
   \                     ??zdpProcessAddrReq_24:
   \   000274   8E82         MOV       DPL,R6
   \   000276   8F83         MOV       DPH,R7
   \   000278   A3           INC       DPTR
   \   000279   A3           INC       DPTR
   \   00027A   E4           CLR       A
   \   00027B   F0           MOVX      @DPTR,A
    787                    len++;
   \   00027C   75..0C       MOV       ?V5,#0xc
    788                  }
    789                }
    790              }
    791          
    792              ZDP_TxOptions = AF_MSG_ACK_REQUEST;
   \                     ??zdpProcessAddrReq_22:
   \   00027F   90....       MOV       DPTR,#ZDP_TxOptions
   \   000282   7410         MOV       A,#0x10
   \   000284   F0           MOVX      @DPTR,A
    793              fillAndSend( &(inMsg->TransSeq), &(inMsg->srcAddr), (cId_t)(inMsg->clusterID | ZDO_RESPONSE_BIT), len );
   \   000285                ; Setup parameters for call to function fillAndSend
   \   000285   12....       LCALL     ?Subroutine72 & 0xFFFF
   \                     ??CrossCallReturnLabel_187:
   \   000288   F5..         MOV       ?V2,A
   \   00028A   A3           INC       DPTR
   \   00028B   E0           MOVX      A,@DPTR
   \   00028C   4480         ORL       A,#0x80
   \   00028E   F5..         MOV       ?V3,A
   \   000290   78..         MOV       R0,#?V2
   \   000292   12....       LCALL     ?PUSH_XSTACK_I_TWO
   \   000295   A9..         MOV       R1,?V5
   \   000297   12....       LCALL     ?Subroutine68 & 0xFFFF
   \                     ??CrossCallReturnLabel_113:
   \   00029A   12....       LCALL     `??fillAndSend::?relay`; Banked call to: fillAndSend
   \   00029D   7402         MOV       A,#0x2
   \   00029F   12....       LCALL     ?DEALLOC_XSTACK8
    794              ZDP_TxOptions = AF_TX_OPTIONS_NONE;
   \   0002A2   90....       MOV       DPTR,#ZDP_TxOptions
   \   0002A5   E4           CLR       A
   \   0002A6   F0           MOVX      @DPTR,A
    795            }
    796          }
   \                     ??zdpProcessAddrReq_14:
   \   0002A7   740E         MOV       A,#0xe
   \   0002A9   02....       LJMP      ??Subroutine132_0 & 0xFFFF

   \                                 In  segment BANKED_CODE, align 1, keep-with-next
   \                     ?Subroutine74:
   \   000000   E5..         MOV       A,?V0
   \   000002   2413         ADD       A,#0x13
   \   000004   F582         MOV       DPL,A
   \   000006   E4           CLR       A
   \   000007   35..         ADDC      A,?V1
   \   000009   F583         MOV       DPH,A
   \   00000B   22           RET

   \                                 In  segment BANKED_CODE, align 1, keep-with-next
   \                     ?Subroutine72:
   \   000000   E5..         MOV       A,?V0
   \   000002   240C         ADD       A,#0xc
   \   000004                REQUIRE ??Subroutine113_0
   \   000004                ; // Fall through to label ??Subroutine113_0

   \                                 In  segment BANKED_CODE, align 1, keep-with-next
   \                     ??Subroutine113_0:
   \   000000   F582         MOV       DPL,A
   \   000002   E4           CLR       A
   \   000003   35..         ADDC      A,?V1
   \   000005   F583         MOV       DPH,A
   \   000007   E0           MOVX      A,@DPTR
   \   000008   22           RET

   \                                 In  segment BANKED_CODE, align 1, keep-with-next
   \                     ?Subroutine50:
   \   000000   12....       LCALL     ?Subroutine97 & 0xFFFF
   \                     ??CrossCallReturnLabel_168:
   \   000003                REQUIRE ??Subroutine114_0
   \   000003                ; // Fall through to label ??Subroutine114_0

   \                                 In  segment BANKED_CODE, align 1, keep-with-next
   \                     ??Subroutine114_0:
   \   000000   12....       LCALL     ?Subroutine81 & 0xFFFF
   \                     ??CrossCallReturnLabel_295:
   \   000003   E8           MOV       A,R0
   \   000004   49           ORL       A,R1
   \   000005   22           RET

   \                                 In  segment BANKED_CODE, align 1, keep-with-next
   \                     ?Subroutine97:
   \   000000   240C         ADD       A,#0xc
   \   000002   F582         MOV       DPL,A
   \   000004   E4           CLR       A
   \   000005   35..         ADDC      A,?V1
   \   000007   F583         MOV       DPH,A
   \   000009   22           RET

   \                                 In  segment BANKED_CODE, align 1, keep-with-next
   \                     ?Subroutine43:
   \   000000   90....       MOV       DPTR,#ZDAppNwkAddr
   \   000003                REQUIRE ??Subroutine115_0
   \   000003                ; // Fall through to label ??Subroutine115_0

   \                                 In  segment BANKED_CODE, align 1, keep-with-next
   \                     ?Subroutine37:
   \   000000   12....       LCALL     ?Subroutine91 & 0xFFFF
   \                     ??CrossCallReturnLabel_261:
   \   000003   A3           INC       DPTR
   \   000004   E0           MOVX      A,@DPTR
   \   000005   22           RET

   \                                 In  segment BANKED_CODE, align 1, keep-with-next
   \                     ??Subroutine117_0:
   \   000000   F0           MOVX      @DPTR,A
   \   000001   8C82         MOV       DPL,R4
   \   000003   8D83         MOV       DPH,R5
   \   000005   A3           INC       DPTR
   \   000006   22           RET

   \                                 In  segment BANKED_CODE, align 1, keep-with-next
   \                     ?Subroutine68:
   \   000000   E5..         MOV       A,?V0
   \   000002   2402         ADD       A,#0x2
   \   000004   FC           MOV       R4,A
   \   000005   E4           CLR       A
   \   000006   35..         ADDC      A,?V1
   \   000008   FD           MOV       R5,A
   \   000009   E5..         MOV       A,?V0
   \   00000B   240F         ADD       A,#0xf
   \   00000D   FA           MOV       R2,A
   \   00000E   E4           CLR       A
   \   00000F   35..         ADDC      A,?V1
   \   000011   FB           MOV       R3,A
   \   000012   22           RET

   \                                 In  segment BANKED_CODE, align 1, keep-with-next
   \                     ?Subroutine85:
   \   000000   12....       LCALL     ?Subroutine99 & 0xFFFF
   \                     ??CrossCallReturnLabel_174:
   \   000003   A3           INC       DPTR
   \   000004   22           RET

   \                                 In  segment BANKED_CODE, align 1, keep-with-next
   \                     ?Subroutine99:
   \   000000   E0           MOVX      A,@DPTR
   \   000001   8E82         MOV       DPL,R6
   \   000003   8F83         MOV       DPH,R7
   \   000005   22           RET

   \                                 In  segment BANKED_CODE, align 1, keep-with-next
   \                     ?Subroutine66:
   \   000000   12....       LCALL     ?Subroutine101 & 0xFFFF
   \                     ??CrossCallReturnLabel_176:
   \   000003   22           RET

   \                                 In  segment BANKED_CODE, align 1, keep-with-next
   \                     ?Subroutine101:
   \   000000   E0           MOVX      A,@DPTR
   \   000001   8A82         MOV       DPL,R2
   \   000003   8B83         MOV       DPH,R3
   \   000005   22           RET

   \                                 In  segment BANKED_CODE, align 1, keep-with-next
   \                     ?Subroutine65:
   \   000000   12....       LCALL     ?Subroutine88 & 0xFFFF
   \                     ??CrossCallReturnLabel_152:
   \   000003   22           RET

   \                                 In  segment BANKED_CODE, align 1, keep-with-next
   \                     ?Subroutine88:
   \   000000   12....       LCALL     ?Subroutine101 & 0xFFFF
   \                     ??CrossCallReturnLabel_178:
   \   000003   A3           INC       DPTR
   \   000004   22           RET

   \                                 In  segment BANKED_CODE, align 1, keep-with-next
   \                     ?Subroutine36:
   \   000000   12....       LCALL     ?Subroutine85 & 0xFFFF
   \                     ??CrossCallReturnLabel_145:
   \   000003   A3           INC       DPTR
   \   000004   12....       LCALL     ?Subroutine104 & 0xFFFF
   \                     ??CrossCallReturnLabel_181:
   \   000007   22           RET

   \                                 In  segment BANKED_CODE, align 1, keep-with-next
   \                     ?Subroutine55:
   \   000000   E0           MOVX      A,@DPTR
   \   000001   FE           MOV       R6,A
   \   000002   A3           INC       DPTR
   \   000003   E0           MOVX      A,@DPTR
   \   000004   FF           MOV       R7,A
   \   000005   22           RET

   \                                 In  segment BANKED_CODE, align 1, keep-with-next
   \                     ??Subroutine132_0:
   \   000000   12....       LCALL     ?DEALLOC_XSTACK8
   \   000003                REQUIRE ??Subroutine133_0
   \   000003                ; // Fall through to label ??Subroutine133_0

   \                                 In  segment BANKED_CODE, align 1, keep-with-next
   \                     ??Subroutine133_0:
   \   000000   7F0A         MOV       R7,#0xa
   \   000002   02....       LJMP      ?BANKED_LEAVE_XDATA

   \                                 In  segment BANKED_CODE, align 1, keep-with-next
   \                     ?Subroutine53:
   \   000000   E0           MOVX      A,@DPTR
   \   000001   FA           MOV       R2,A
   \   000002   A3           INC       DPTR
   \   000003   E0           MOVX      A,@DPTR
   \   000004   FB           MOV       R3,A
   \   000005   EA           MOV       A,R2
   \   000006   4B           ORL       A,R3
   \   000007   22           RET
    797          
    798          /*********************************************************************
    799           * @fn          ZDP_NodeDescMsg
    800           *
    801           * @brief       Builds and sends a Node Descriptor message, unicast to the
    802           *              specified device.
    803           *
    804           * @param       inMsg - incoming message
    805           * @param       nwkAddr - 16 bit network address for device
    806           * @param       pNodeDesc - pointer to the node descriptor
    807           *
    808           * @return      afStatus_t
    809           */

   \                                 In  segment BANKED_CODE, align 1, keep-with-next
    810          afStatus_t ZDP_NodeDescMsg( zdoIncomingMsg_t *inMsg,
   \                     ZDP_NodeDescMsg:
    811                                     uint16 nwkAddr, NodeDescriptorFormat_t *pNodeDesc )
    812          {
   \   000000                REQUIRE ?V0
   \   000000                REQUIRE ?V1
   \   000000   74F6         MOV       A,#-0xa
   \   000002   12....       LCALL     ?BANKED_ENTER_XDATA
   \   000005                ; Saved register size: 10
   \   000005                ; Auto size: 0
    813            uint8 *pBuf = ZDP_TmpBuf;
   \   000005   90....       MOV       DPTR,#ZDP_TmpBuf
   \   000008   E0           MOVX      A,@DPTR
   \   000009   FE           MOV       R6,A
   \   00000A   A3           INC       DPTR
   \   00000B   E0           MOVX      A,@DPTR
   \   00000C   12....       LCALL     ?Subroutine21 & 0xFFFF
    814            byte len;
    815          
    816            len = 1 + 2 + 13;  // Status + nwkAddr + Node descriptor
    817          
    818            *pBuf++ = ZDP_SUCCESS;
    819          
    820            *pBuf++ = LO_UINT16( nwkAddr );
    821            *pBuf++ = HI_UINT16( nwkAddr );
   \                     ??CrossCallReturnLabel_21:
   \   00000F   12....       LCALL     ?XSTACK_DISP0_8
   \   000012   12....       LCALL     ?Subroutine42 & 0xFFFF
    822          
    823            *pBuf++ = (byte)((pNodeDesc->ComplexDescAvail << 3) |
    824                               (pNodeDesc->UserDescAvail << 4) |
    825                               (pNodeDesc->LogicalType & 0x07));
   \                     ??CrossCallReturnLabel_61:
   \   000015   541F         ANL       A,#0x1f
   \   000017   8E82         MOV       DPL,R6
   \   000019   8F83         MOV       DPH,R7
   \   00001B   A3           INC       DPTR
   \   00001C   A3           INC       DPTR
   \   00001D   12....       LCALL     ?Subroutine38 & 0xFFFF
    826          
    827            *pBuf++ = (byte)((pNodeDesc->FrequencyBand << 3) | (pNodeDesc->APSFlags & 0x07));
   \                     ??CrossCallReturnLabel_197:
   \   000020   12....       LCALL     ?Subroutine59 & 0xFFFF
   \                     ??CrossCallReturnLabel_93:
   \   000023   12....       LCALL     ?Subroutine37 & 0xFFFF
    828            *pBuf++ = pNodeDesc->CapabilityFlags;
   \                     ??CrossCallReturnLabel_51:
   \   000026   8E82         MOV       DPL,R6
   \   000028   8F83         MOV       DPH,R7
   \   00002A   12....       LCALL     ?Subroutine30 & 0xFFFF
    829            *pBuf++ = pNodeDesc->ManufacturerCode[0];
   \                     ??CrossCallReturnLabel_256:
   \   00002D   12....       LCALL     ?Subroutine85 & 0xFFFF
   \                     ??CrossCallReturnLabel_142:
   \   000030   12....       LCALL     ?Subroutine30 & 0xFFFF
    830            *pBuf++ = pNodeDesc->ManufacturerCode[1];
   \                     ??CrossCallReturnLabel_257:
   \   000033   A3           INC       DPTR
   \   000034   12....       LCALL     ?Subroutine99 & 0xFFFF
   \                     ??CrossCallReturnLabel_171:
   \   000037   12....       LCALL     ?Subroutine29 & 0xFFFF
    831            *pBuf++ = pNodeDesc->MaxBufferSize;
   \                     ??CrossCallReturnLabel_38:
   \   00003A   12....       LCALL     ?Subroutine85 & 0xFFFF
   \                     ??CrossCallReturnLabel_143:
   \   00003D   12....       LCALL     ?Subroutine29 & 0xFFFF
    832            *pBuf++ = pNodeDesc->MaxInTransferSize[0];
   \                     ??CrossCallReturnLabel_39:
   \   000040   A3           INC       DPTR
   \   000041   12....       LCALL     ?Subroutine45 & 0xFFFF
   \                     ??CrossCallReturnLabel_68:
   \   000044   12....       LCALL     ?Subroutine24 & 0xFFFF
    833            *pBuf++ = pNodeDesc->MaxInTransferSize[1];
   \                     ??CrossCallReturnLabel_27:
   \   000047   12....       LCALL     ?Subroutine45 & 0xFFFF
   \                     ??CrossCallReturnLabel_69:
   \   00004A   A3           INC       DPTR
   \   00004B   F0           MOVX      @DPTR,A
    834          
    835            *pBuf++ = LO_UINT16( pNodeDesc->ServerMask );
   \   00004C   E8           MOV       A,R0
   \   00004D   2408         ADD       A,#0x8
   \   00004F   FC           MOV       R4,A
   \   000050   E4           CLR       A
   \   000051   39           ADDC      A,R1
   \   000052   FD           MOV       R5,A
   \   000053   8C82         MOV       DPL,R4
   \   000055   8D83         MOV       DPH,R5
   \   000057   E0           MOVX      A,@DPTR
   \   000058   F5..         MOV       ?V0,A
   \   00005A   12....       LCALL     ?Subroutine71 & 0xFFFF
   \                     ??CrossCallReturnLabel_119:
   \   00005D   E5..         MOV       A,?V0
   \   00005F   12....       LCALL     ??Subroutine117_0 & 0xFFFF
    836            *pBuf++ = HI_UINT16( pNodeDesc->ServerMask );
   \                     ??CrossCallReturnLabel_203:
   \   000062   E0           MOVX      A,@DPTR
   \   000063   C0E0         PUSH      A
   \   000065   12....       LCALL     ?Subroutine75 & 0xFFFF
   \                     ??CrossCallReturnLabel_126:
   \   000068   D0E0         POP       A
   \   00006A   12....       LCALL     ?Subroutine24 & 0xFFFF
    837            *pBuf++ = pNodeDesc->MaxOutTransferSize[0];
   \                     ??CrossCallReturnLabel_28:
   \   00006D   A3           INC       DPTR
   \   00006E   A3           INC       DPTR
   \   00006F   A3           INC       DPTR
   \   000070   E0           MOVX      A,@DPTR
   \   000071   C0E0         PUSH      A
   \   000073   EE           MOV       A,R6
   \   000074   240D         ADD       A,#0xd
   \   000076   F582         MOV       DPL,A
   \   000078   E4           CLR       A
   \   000079   3F           ADDC      A,R7
   \   00007A   F583         MOV       DPH,A
   \   00007C   D0E0         POP       A
   \   00007E   F0           MOVX      @DPTR,A
    838            *pBuf++ = pNodeDesc->MaxOutTransferSize[1];
   \   00007F   E8           MOV       A,R0
   \   000080   240B         ADD       A,#0xb
   \   000082   F582         MOV       DPL,A
   \   000084   E4           CLR       A
   \   000085   39           ADDC      A,R1
   \   000086   F583         MOV       DPH,A
   \   000088   E0           MOVX      A,@DPTR
   \   000089   C0E0         PUSH      A
   \   00008B   EE           MOV       A,R6
   \   00008C   240E         ADD       A,#0xe
   \   00008E   F582         MOV       DPL,A
   \   000090   E4           CLR       A
   \   000091   3F           ADDC      A,R7
   \   000092   F583         MOV       DPH,A
   \   000094   D0E0         POP       A
   \   000096   F0           MOVX      @DPTR,A
    839            *pBuf = pNodeDesc->DescriptorCapability;
   \   000097   E8           MOV       A,R0
   \   000098   240C         ADD       A,#0xc
   \   00009A   F582         MOV       DPL,A
   \   00009C   E4           CLR       A
   \   00009D   39           ADDC      A,R1
   \   00009E   F583         MOV       DPH,A
   \   0000A0   E0           MOVX      A,@DPTR
   \   0000A1   C0E0         PUSH      A
   \   0000A3   EE           MOV       A,R6
   \   0000A4   240F         ADD       A,#0xf
   \   0000A6   F582         MOV       DPL,A
   \   0000A8   E4           CLR       A
   \   0000A9   3F           ADDC      A,R7
   \   0000AA   F583         MOV       DPH,A
   \   0000AC   D0E0         POP       A
   \   0000AE   F0           MOVX      @DPTR,A
    840          
    841            return fillAndSend( &(inMsg->TransSeq), &(inMsg->srcAddr), Node_Desc_rsp, len );
   \   0000AF                ; Setup parameters for call to function fillAndSend
   \   0000AF   75..02       MOV       ?V0,#0x2
   \   0000B2   75..80       MOV       ?V1,#-0x80
   \   0000B5   78..         MOV       R0,#?V0
   \   0000B7   12....       LCALL     ?PUSH_XSTACK_I_TWO
   \   0000BA   7910         MOV       R1,#0x10
   \   0000BC   12....       LCALL     ?Subroutine69 & 0xFFFF
   \                     ??CrossCallReturnLabel_115:
   \   0000BF   5001         JNC       ??ZDP_NodeDescMsg_0
   \   0000C1   0B           INC       R3
   \                     ??ZDP_NodeDescMsg_0:
   \   0000C2   80..         SJMP      ??Subroutine118_0
    842          }

   \                                 In  segment BANKED_CODE, align 1, keep-with-next
   \                     ?Subroutine45:
   \   000000   12....       LCALL     ?Subroutine84 & 0xFFFF
   \                     ??CrossCallReturnLabel_140:
   \   000003   A3           INC       DPTR
   \   000004   A3           INC       DPTR
   \   000005   A3           INC       DPTR
   \   000006   A3           INC       DPTR
   \   000007   A3           INC       DPTR
   \   000008   22           RET

   \                                 In  segment BANKED_CODE, align 1, keep-with-next
   \                     ?Subroutine38:
   \   000000   A3           INC       DPTR
   \   000001                REQUIRE ??Subroutine116_0
   \   000001                ; // Fall through to label ??Subroutine116_0

   \                                 In  segment BANKED_CODE, align 1, keep-with-next
   \                     ?Subroutine29:
   \   000000   A3           INC       DPTR
   \   000001   A3           INC       DPTR
   \   000002   A3           INC       DPTR
   \   000003   A3           INC       DPTR
   \   000004   A3           INC       DPTR
   \   000005   A3           INC       DPTR
   \   000006   A3           INC       DPTR
   \   000007   12....       LCALL     ?Subroutine90 & 0xFFFF
   \                     ??CrossCallReturnLabel_155:
   \   00000A   22           RET

   \                                 In  segment BANKED_CODE, align 1, keep-with-next
   \                     ?Subroutine90:
   \   000000   12....       LCALL     ?Subroutine103 & 0xFFFF
   \                     ??CrossCallReturnLabel_266:
   \   000003   A3           INC       DPTR
   \   000004   A3           INC       DPTR
   \   000005   A3           INC       DPTR
   \   000006   A3           INC       DPTR
   \   000007   A3           INC       DPTR
   \   000008   22           RET

   \                                 In  segment BANKED_CODE, align 1, keep-with-next
   \                     ?Subroutine24:
   \   000000   12....       LCALL     ?Subroutine90 & 0xFFFF
   \                     ??CrossCallReturnLabel_156:
   \   000003   A3           INC       DPTR
   \   000004   A3           INC       DPTR
   \   000005   22           RET

   \                                 In  segment BANKED_CODE, align 1, keep-with-next
   \                     ?Subroutine69:
   \   000000   EA           MOV       A,R2
   \   000001   2402         ADD       A,#0x2
   \   000003   FC           MOV       R4,A
   \   000004   E4           CLR       A
   \   000005   3B           ADDC      A,R3
   \   000006   FD           MOV       R5,A
   \   000007   EA           MOV       A,R2
   \   000008   240F         ADD       A,#0xf
   \   00000A   FA           MOV       R2,A
   \   00000B   22           RET

   \                                 In  segment BANKED_CODE, align 1, keep-with-next
   \                     ?Subroutine21:
   \   000000   FF           MOV       R7,A
   \   000001   8E82         MOV       DPL,R6
   \   000003   8F83         MOV       DPH,R7
   \   000005   E4           CLR       A
   \   000006   F0           MOVX      @DPTR,A
   \   000007   EC           MOV       A,R4
   \   000008   A3           INC       DPTR
   \   000009   F0           MOVX      @DPTR,A
   \   00000A   ED           MOV       A,R5
   \   00000B   8E82         MOV       DPL,R6
   \   00000D   8F83         MOV       DPH,R7
   \   00000F   A3           INC       DPTR
   \   000010   A3           INC       DPTR
   \   000011   F0           MOVX      @DPTR,A
   \   000012   740A         MOV       A,#0xa
   \   000014   22           RET

   \                                 In  segment BANKED_CODE, align 1, keep-with-next
   \                     ?Subroutine71:
   \   000000   EE           MOV       A,R6
   \   000001   240B         ADD       A,#0xb
   \   000003   F582         MOV       DPL,A
   \   000005   E4           CLR       A
   \   000006   3F           ADDC      A,R7
   \   000007   F583         MOV       DPH,A
   \   000009   22           RET

   \                                 In  segment BANKED_CODE, align 1, keep-with-next
   \                     ?Subroutine59:
   \   000000   12....       LCALL     ?Subroutine84 & 0xFFFF
   \                     ??CrossCallReturnLabel_141:
   \   000003   22           RET

   \                                 In  segment BANKED_CODE, align 1, keep-with-next
   \                     ?Subroutine84:
   \   000000   12....       LCALL     ?Subroutine99 & 0xFFFF
   \                     ??CrossCallReturnLabel_173:
   \   000003   A3           INC       DPTR
   \   000004   A3           INC       DPTR
   \   000005   A3           INC       DPTR
   \   000006   A3           INC       DPTR
   \   000007   22           RET

   \                                 In  segment BANKED_CODE, align 1, keep-with-next
   \                     ?Subroutine30:
   \   000000   A3           INC       DPTR
   \   000001   A3           INC       DPTR
   \   000002   A3           INC       DPTR
   \   000003                REQUIRE ??Subroutine130_0
   \   000003                ; // Fall through to label ??Subroutine130_0

   \                                 In  segment BANKED_CODE, align 1, keep-with-next
   \                     ??Subroutine130_0:
   \   000000   A3           INC       DPTR
   \   000001   A3           INC       DPTR
   \   000002                REQUIRE ??Subroutine131_0
   \   000002                ; // Fall through to label ??Subroutine131_0

   \                                 In  segment BANKED_CODE, align 1, keep-with-next
   \                     ??Subroutine131_0:
   \   000000   12....       LCALL     ?Subroutine91 & 0xFFFF
   \                     ??CrossCallReturnLabel_263:
   \   000003   A3           INC       DPTR
   \   000004   A3           INC       DPTR
   \   000005   22           RET

   \                                 In  segment BANKED_CODE, align 1, keep-with-next
   \                     ?Subroutine75:
   \   000000   12....       LCALL     ?Subroutine98 & 0xFFFF
   \                     ??CrossCallReturnLabel_170:
   \   000003   22           RET

   \                                 In  segment BANKED_CODE, align 1, keep-with-next
   \                     ?Subroutine98:
   \   000000   EE           MOV       A,R6
   \   000001   240C         ADD       A,#0xc
   \   000003   F582         MOV       DPL,A
   \   000005   E4           CLR       A
   \   000006   3F           ADDC      A,R7
   \   000007   F583         MOV       DPH,A
   \   000009   22           RET
    843          
    844          /*********************************************************************
    845           * @fn          ZDP_PowerDescMsg
    846           *
    847           * @brief       Builds and sends a Power Descriptor message, unicast to the
    848           *              specified device.
    849           *
    850           * @param       inMsg - incoming message (request)
    851           * @param       nwkAddr - 16 bit network address for device
    852           * @param       pPowerDesc - pointer to the node descriptor
    853           *
    854           * @return      afStatus_t
    855           */

   \                                 In  segment BANKED_CODE, align 1, keep-with-next
    856          afStatus_t ZDP_PowerDescMsg( zdoIncomingMsg_t *inMsg,
   \                     ZDP_PowerDescMsg:
    857                               uint16 nwkAddr, NodePowerDescriptorFormat_t *pPowerDesc )
    858          {
   \   000000                REQUIRE ?V0
   \   000000                REQUIRE ?V1
   \   000000   74F6         MOV       A,#-0xa
   \   000002   12....       LCALL     ?BANKED_ENTER_XDATA
   \   000005                ; Saved register size: 10
   \   000005                ; Auto size: 0
    859            uint8 *pBuf = ZDP_TmpBuf;
   \   000005   12....       LCALL     ?Subroutine51 & 0xFFFF
   \                     ??CrossCallReturnLabel_206:
   \   000008   FE           MOV       R6,A
   \   000009   E9           MOV       A,R1
   \   00000A   12....       LCALL     ?Subroutine21 & 0xFFFF
    860            byte len = 1 + 2 + 2;  // Status + nwkAddr + Node Power descriptor.
    861          
    862            *pBuf++ = ZDP_SUCCESS;
    863          
    864            *pBuf++ = LO_UINT16( nwkAddr );
    865            *pBuf++ = HI_UINT16( nwkAddr );
   \                     ??CrossCallReturnLabel_22:
   \   00000D   12....       LCALL     ?XSTACK_DISP0_8
   \   000010   12....       LCALL     ?Subroutine42 & 0xFFFF
    866          
    867            *pBuf++ = (byte)((pPowerDesc->AvailablePowerSources << 4)
    868                              | (pPowerDesc->PowerMode & 0x0F));
   \                     ??CrossCallReturnLabel_62:
   \   000013   8E82         MOV       DPL,R6
   \   000015   8F83         MOV       DPH,R7
   \   000017   A3           INC       DPTR
   \   000018   12....       LCALL     ?Subroutine34 & 0xFFFF
    869            *pBuf++ = (byte)((pPowerDesc->CurrentPowerSourceLevel << 4)
    870                              | (pPowerDesc->CurrentPowerSource & 0x0F));
   \                     ??CrossCallReturnLabel_209:
   \   00001B   F5..         MOV       ?V0,A
   \   00001D   A3           INC       DPTR
   \   00001E   E0           MOVX      A,@DPTR
   \   00001F   F5..         MOV       ?V1,A
   \   000021   540F         ANL       A,#0xf
   \   000023   F9           MOV       R1,A
   \   000024   740C         MOV       A,#0xc
   \   000026   78..         MOV       R0,#?V0
   \   000028   12....       LCALL     ?US_SHR
   \   00002B   E5..         MOV       A,?V0
   \   00002D   C4           SWAP      A
   \   00002E   49           ORL       A,R1
   \   00002F   8E82         MOV       DPL,R6
   \   000031   8F83         MOV       DPH,R7
   \   000033   A3           INC       DPTR
   \   000034   A3           INC       DPTR
   \   000035   A3           INC       DPTR
   \   000036   A3           INC       DPTR
   \   000037   F0           MOVX      @DPTR,A
    871          
    872            return fillAndSend( &(inMsg->TransSeq), &(inMsg->srcAddr), Power_Desc_rsp, len );
   \   000038                ; Setup parameters for call to function fillAndSend
   \   000038   75..03       MOV       ?V0,#0x3
   \   00003B   75..80       MOV       ?V1,#-0x80
   \   00003E   78..         MOV       R0,#?V0
   \   000040   12....       LCALL     ?PUSH_XSTACK_I_TWO
   \   000043   7905         MOV       R1,#0x5
   \   000045   12....       LCALL     ?Subroutine69 & 0xFFFF
   \                     ??CrossCallReturnLabel_116:
   \   000048   5001         JNC       ??ZDP_PowerDescMsg_0
   \   00004A   0B           INC       R3
   \                     ??ZDP_PowerDescMsg_0:
   \   00004B   80..         SJMP      ??Subroutine118_0
    873          }

   \                                 In  segment BANKED_CODE, align 1, keep-with-next
   \                     ?Subroutine51:
   \   000000   90....       MOV       DPTR,#ZDP_TmpBuf
   \   000003                REQUIRE ??Subroutine119_0
   \   000003                ; // Fall through to label ??Subroutine119_0

   \                                 In  segment BANKED_CODE, align 1, keep-with-next
   \                     ??Subroutine119_0:
   \   000000   12....       LCALL     ?Subroutine81 & 0xFFFF
   \                     ??CrossCallReturnLabel_296:
   \   000003   E8           MOV       A,R0
   \   000004   22           RET

   \                                 In  segment BANKED_CODE, align 1, keep-with-next
   \                     ?Subroutine34:
   \   000000   A3           INC       DPTR
   \   000001   A3           INC       DPTR
   \   000002                REQUIRE ??Subroutine120_0
   \   000002                ; // Fall through to label ??Subroutine120_0

   \                                 In  segment BANKED_CODE, align 1, keep-with-next
   \                     ??Subroutine120_0:
   \   000000   12....       LCALL     ?Subroutine103 & 0xFFFF
   \                     ??CrossCallReturnLabel_267:
   \   000003   E0           MOVX      A,@DPTR
   \   000004   22           RET
    874          
    875          /*********************************************************************
    876           * @fn          ZDP_SimpleDescMsg
    877           *
    878           * @brief       Builds and sends a Simple Descriptor message, unicast to the
    879           *              specified device.
    880           *
    881           * @param       inMsg - incoming message (request)
    882           * @param       Status - message status (ZDP_SUCCESS or other)
    883           * @param       pSimpleDesc - pointer to the node descriptor
    884           *
    885           * @return      afStatus_t
    886           */

   \                                 In  segment BANKED_CODE, align 1, keep-with-next
   \                     ?Subroutine26:
   \   000000   A3           INC       DPTR
   \   000001   A3           INC       DPTR
   \   000002                REQUIRE ??Subroutine117_0
   \   000002                ; // Fall through to label ??Subroutine117_0

   \                                 In  segment BANKED_CODE, align 1, keep-with-next
    887          afStatus_t ZDP_SimpleDescMsg( zdoIncomingMsg_t *inMsg, byte Status,
   \                     ZDP_SimpleDescMsg:
    888                                        SimpleDescriptionFormat_t *pSimpleDesc )
    889          {
   \   000000                REQUIRE ?V0
   \   000000                REQUIRE ?V1
   \   000000                REQUIRE ?V2
   \   000000                REQUIRE ?V3
   \   000000                REQUIRE ?V4
   \   000000                REQUIRE ?V5
   \   000000                REQUIRE ?V6
   \   000000                REQUIRE ?V7
   \   000000   74F0         MOV       A,#-0x10
   \   000002   12....       LCALL     ?BANKED_ENTER_XDATA
   \   000005                ; Saved register size: 16
   \   000005                ; Auto size: 0
   \   000005   8A..         MOV       ?V0,R2
   \   000007   8B..         MOV       ?V1,R3
   \   000009   12....       LCALL     ?Subroutine57 & 0xFFFF
    890            uint8 *pBuf = ZDP_TmpBuf;
    891            uint8 i, len;
    892          
    893            if ( Status == ZDP_SUCCESS && pSimpleDesc )
   \                     ??CrossCallReturnLabel_280:
   \   00000C   EE           MOV       A,R6
   \   00000D   702E         JNZ       ??ZDP_SimpleDescMsg_0
   \   00000F   EC           MOV       A,R4
   \   000010   4D           ORL       A,R5
   \   000011   602A         JZ        ??ZDP_SimpleDescMsg_0
    894            {
    895              // Status + NWKAddrOfInterest + desc length + empty simple descriptor.
    896              len = 1 + 2 + 1 + 8;
    897              len += (pSimpleDesc->AppNumInClusters + pSimpleDesc->AppNumOutClusters) * sizeof ( uint16 );
   \   000013   8C82         MOV       DPL,R4
   \   000015   8D83         MOV       DPH,R5
   \   000017   A3           INC       DPTR
   \   000018   A3           INC       DPTR
   \   000019   A3           INC       DPTR
   \   00001A   A3           INC       DPTR
   \   00001B   A3           INC       DPTR
   \   00001C   A3           INC       DPTR
   \   00001D   A3           INC       DPTR
   \   00001E   A3           INC       DPTR
   \   00001F   A3           INC       DPTR
   \   000020   E0           MOVX      A,@DPTR
   \   000021   FA           MOV       R2,A
   \   000022   8C82         MOV       DPL,R4
   \   000024   8D83         MOV       DPH,R5
   \   000026   A3           INC       DPTR
   \   000027   A3           INC       DPTR
   \   000028   A3           INC       DPTR
   \   000029   A3           INC       DPTR
   \   00002A   A3           INC       DPTR
   \   00002B   A3           INC       DPTR
   \   00002C   E0           MOVX      A,@DPTR
   \   00002D   2A           ADD       A,R2
   \   00002E   C3           CLR       C
   \   00002F   33           RLC       A
   \   000030   240C         ADD       A,#0xc
   \   000032   FA           MOV       R2,A
    898            }
    899            else
    900            {
    901              len = 1 + 2 + 1; // Status + desc length
    902            }
    903            if ( len >= ZDP_BUF_SZ-1 )
   \   000033   C3           CLR       C
   \   000034   944F         SUBB      A,#0x4f
   \   000036   4007         JC        ??ZDP_SimpleDescMsg_1
    904            {
    905              return afStatus_MEM_FAIL;
   \   000038   7910         MOV       R1,#0x10
   \   00003A   02....       LJMP      ??ZDP_SimpleDescMsg_2 & 0xFFFF
    906            }
   \                     ??ZDP_SimpleDescMsg_0:
   \   00003D   7A04         MOV       R2,#0x4
    907          
    908            *pBuf++ = Status;
   \                     ??ZDP_SimpleDescMsg_1:
   \   00003F   EE           MOV       A,R6
   \   000040   8882         MOV       DPL,R0
   \   000042   8983         MOV       DPH,R1
   \   000044   F0           MOVX      @DPTR,A
    909          
    910            *pBuf++ = LO_UINT16( ZDAppNwkAddr.addr.shortAddr );
   \   000045   90....       MOV       DPTR,#ZDAppNwkAddr
   \   000048   12....       LCALL     ??Subroutine128_0 & 0xFFFF
   \                     ??CrossCallReturnLabel_244:
   \   00004B   A3           INC       DPTR
   \   00004C   F0           MOVX      @DPTR,A
    911            *pBuf++ = HI_UINT16( ZDAppNwkAddr.addr.shortAddr );
   \   00004D   90....       MOV       DPTR,#ZDAppNwkAddr + 1
   \   000050   12....       LCALL     ??Subroutine129_0 & 0xFFFF
   \                     ??CrossCallReturnLabel_249:
   \   000053   F0           MOVX      @DPTR,A
    912          
    913            if ( len > 4 )
   \   000054   EA           MOV       A,R2
   \   000055   C3           CLR       C
   \   000056   9405         SUBB      A,#0x5
   \   000058   5003         JNC       $+5
   \   00005A   02....       LJMP      ??ZDP_SimpleDescMsg_3 & 0xFFFF
    914            {
    915              *pBuf++ = len - 4;   // Simple descriptor length
   \   00005D   74FC         MOV       A,#-0x4
   \   00005F   2A           ADD       A,R2
   \   000060   8882         MOV       DPL,R0
   \   000062   8983         MOV       DPH,R1
   \   000064   A3           INC       DPTR
   \   000065   A3           INC       DPTR
   \   000066   A3           INC       DPTR
   \   000067   F0           MOVX      @DPTR,A
    916          
    917              *pBuf++ = pSimpleDesc->EndPoint;
   \   000068   8C82         MOV       DPL,R4
   \   00006A   8D83         MOV       DPH,R5
   \   00006C   12....       LCALL     ??Subroutine129_0 & 0xFFFF
   \                     ??CrossCallReturnLabel_250:
   \   00006F   12....       LCALL     ?Subroutine26 & 0xFFFF
    918              *pBuf++ = LO_UINT16( pSimpleDesc->AppProfId );
   \                     ??CrossCallReturnLabel_200:
   \   000072   8582..       MOV       ?V2,DPL
   \   000075   8583..       MOV       ?V3,DPH
   \   000078   12....       LCALL     ??Subroutine128_0 & 0xFFFF
   \                     ??CrossCallReturnLabel_245:
   \   00007B   12....       LCALL     ?Subroutine13 & 0xFFFF
    919              *pBuf++ = HI_UINT16( pSimpleDesc->AppProfId );
   \                     ??CrossCallReturnLabel_6:
   \   00007E   F0           MOVX      @DPTR,A
    920              *pBuf++ = LO_UINT16( pSimpleDesc->AppDeviceId );
   \   00007F   EC           MOV       A,R4
   \   000080   2403         ADD       A,#0x3
   \   000082   12....       LCALL     ?Subroutine77 & 0xFFFF
   \                     ??CrossCallReturnLabel_128:
   \   000085   12....       LCALL     ?Subroutine61 & 0xFFFF
   \                     ??CrossCallReturnLabel_251:
   \   000088   12....       LCALL     ?Subroutine13 & 0xFFFF
    921              *pBuf++ = HI_UINT16( pSimpleDesc->AppDeviceId );
   \                     ??CrossCallReturnLabel_7:
   \   00008B   12....       LCALL     ?Subroutine26 & 0xFFFF
    922          
    923              *pBuf++ = (byte)(pSimpleDesc->AppDevVer & 0x0F);
   \                     ??CrossCallReturnLabel_201:
   \   00008E   A3           INC       DPTR
   \   00008F   A3           INC       DPTR
   \   000090   A3           INC       DPTR
   \   000091   A3           INC       DPTR
   \   000092   E0           MOVX      A,@DPTR
   \   000093   540F         ANL       A,#0xf
   \   000095   8882         MOV       DPL,R0
   \   000097   8983         MOV       DPH,R1
   \   000099   A3           INC       DPTR
   \   00009A   A3           INC       DPTR
   \   00009B   A3           INC       DPTR
   \   00009C   A3           INC       DPTR
   \   00009D   A3           INC       DPTR
   \   00009E   A3           INC       DPTR
   \   00009F   A3           INC       DPTR
   \   0000A0   A3           INC       DPTR
   \   0000A1   A3           INC       DPTR
   \   0000A2   F0           MOVX      @DPTR,A
    924          
    925              *pBuf++ = pSimpleDesc->AppNumInClusters;
   \   0000A3   EC           MOV       A,R4
   \   0000A4   2406         ADD       A,#0x6
   \   0000A6   12....       LCALL     ?Subroutine77 & 0xFFFF
   \                     ??CrossCallReturnLabel_129:
   \   0000A9   F583         MOV       DPH,A
   \   0000AB   12....       LCALL     ?Subroutine60 & 0xFFFF
   \                     ??CrossCallReturnLabel_95:
   \   0000AE   A3           INC       DPTR
   \   0000AF   A3           INC       DPTR
   \   0000B0   A3           INC       DPTR
   \   0000B1   A3           INC       DPTR
   \   0000B2   A3           INC       DPTR
   \   0000B3   A3           INC       DPTR
   \   0000B4   F0           MOVX      @DPTR,A
   \   0000B5   E8           MOV       A,R0
   \   0000B6   240B         ADD       A,#0xb
   \   0000B8   F8           MOV       R0,A
   \   0000B9   5001         JNC       ??ZDP_SimpleDescMsg_4
   \   0000BB   09           INC       R1
    926              if ( pSimpleDesc->AppNumInClusters )
   \                     ??ZDP_SimpleDescMsg_4:
   \   0000BC   85..82       MOV       DPL,?V2
   \   0000BF   85..83       MOV       DPH,?V3
   \   0000C2   E0           MOVX      A,@DPTR
   \   0000C3   6021         JZ        ??ZDP_SimpleDescMsg_5
    927              {
    928                for (i=0; i<pSimpleDesc->AppNumInClusters; ++i)
   \   0000C5   7B00         MOV       R3,#0x0
   \   0000C7   800C         SJMP      ??ZDP_SimpleDescMsg_6
    929                {
    930                  *pBuf++ = LO_UINT16( pSimpleDesc->pAppInClusterList[i] );
   \                     ??ZDP_SimpleDescMsg_7:
   \   0000C9   12....       LCALL     ?Subroutine70 & 0xFFFF
    931                  *pBuf++ = HI_UINT16( pSimpleDesc->pAppInClusterList[i] );
    932                }
   \                     ??CrossCallReturnLabel_117:
   \   0000CC   2407         ADD       A,#0x7
   \   0000CE   12....       LCALL     ?Subroutine10 & 0xFFFF
   \                     ??CrossCallReturnLabel_0:
   \   0000D1   5001         JNC       ??ZDP_SimpleDescMsg_8
   \   0000D3   09           INC       R1
   \                     ??ZDP_SimpleDescMsg_8:
   \   0000D4   0B           INC       R3
   \                     ??ZDP_SimpleDescMsg_6:
   \   0000D5   8C82         MOV       DPL,R4
   \   0000D7   8D83         MOV       DPH,R5
   \   0000D9   A3           INC       DPTR
   \   0000DA   A3           INC       DPTR
   \   0000DB   A3           INC       DPTR
   \   0000DC   A3           INC       DPTR
   \   0000DD   A3           INC       DPTR
   \   0000DE   A3           INC       DPTR
   \   0000DF   E0           MOVX      A,@DPTR
   \   0000E0   FF           MOV       R7,A
   \   0000E1   EB           MOV       A,R3
   \   0000E2   C3           CLR       C
   \   0000E3   9F           SUBB      A,R7
   \   0000E4   40E3         JC        ??ZDP_SimpleDescMsg_7
    933              }
    934          
    935              *pBuf++ = pSimpleDesc->AppNumOutClusters;
   \                     ??ZDP_SimpleDescMsg_5:
   \   0000E6   EC           MOV       A,R4
   \   0000E7   2409         ADD       A,#0x9
   \   0000E9   12....       LCALL     ?Subroutine77 & 0xFFFF
   \                     ??CrossCallReturnLabel_130:
   \   0000EC   12....       LCALL     ?Subroutine62 & 0xFFFF
   \                     ??CrossCallReturnLabel_213:
   \   0000EF   A3           INC       DPTR
   \   0000F0   A882         MOV       R0,DPL
   \   0000F2   A983         MOV       R1,DPH
    936              if ( pSimpleDesc->AppNumOutClusters )
   \   0000F4   85..82       MOV       DPL,?V2
   \   0000F7   85..83       MOV       DPH,?V3
   \   0000FA   E0           MOVX      A,@DPTR
   \   0000FB   602D         JZ        ??ZDP_SimpleDescMsg_9
    937              {
    938                for (i=0; i<pSimpleDesc->AppNumOutClusters; ++i)
   \   0000FD   7B00         MOV       R3,#0x0
   \                     ??ZDP_SimpleDescMsg_10:
   \   0000FF   8C82         MOV       DPL,R4
   \   000101   8D83         MOV       DPH,R5
   \   000103   A3           INC       DPTR
   \   000104   A3           INC       DPTR
   \   000105   A3           INC       DPTR
   \   000106   A3           INC       DPTR
   \   000107   A3           INC       DPTR
   \   000108   A3           INC       DPTR
   \   000109   A3           INC       DPTR
   \   00010A   A3           INC       DPTR
   \   00010B   A3           INC       DPTR
   \   00010C   E0           MOVX      A,@DPTR
   \   00010D   FF           MOV       R7,A
   \   00010E   EB           MOV       A,R3
   \   00010F   C3           CLR       C
   \   000110   9F           SUBB      A,R7
   \   000111   5017         JNC       ??ZDP_SimpleDescMsg_9
    939                {
    940                  *pBuf++ = LO_UINT16( pSimpleDesc->pAppOutClusterList[i] );
   \   000113   12....       LCALL     ?Subroutine70 & 0xFFFF
    941                  *pBuf++ = HI_UINT16( pSimpleDesc->pAppOutClusterList[i] );
    942                }
   \                     ??CrossCallReturnLabel_118:
   \   000116   240A         ADD       A,#0xa
   \   000118   12....       LCALL     ?Subroutine10 & 0xFFFF
   \                     ??CrossCallReturnLabel_1:
   \   00011B   5001         JNC       ??ZDP_SimpleDescMsg_11
   \   00011D   09           INC       R1
   \                     ??ZDP_SimpleDescMsg_11:
   \   00011E   0B           INC       R3
   \   00011F   80DE         SJMP      ??ZDP_SimpleDescMsg_10
    943              }
    944            }
    945          
    946            else
    947            {
    948              *pBuf = 0; // Description Length = 0;
   \                     ??ZDP_SimpleDescMsg_3:
   \   000121   8882         MOV       DPL,R0
   \   000123   8983         MOV       DPH,R1
   \   000125   A3           INC       DPTR
   \   000126   A3           INC       DPTR
   \   000127   A3           INC       DPTR
   \   000128   E4           CLR       A
   \   000129   F0           MOVX      @DPTR,A
    949            }
    950          
    951            return fillAndSend( &(inMsg->TransSeq), &(inMsg->srcAddr), Simple_Desc_rsp, len );
   \                     ??ZDP_SimpleDescMsg_9:
   \   00012A                ; Setup parameters for call to function fillAndSend
   \   00012A   75..04       MOV       ?V2,#0x4
   \   00012D   75..80       MOV       ?V3,#-0x80
   \   000130   78..         MOV       R0,#?V2
   \   000132   12....       LCALL     ?PUSH_XSTACK_I_TWO
   \   000135   EA           MOV       A,R2
   \   000136   F9           MOV       R1,A
   \   000137   12....       LCALL     ?Subroutine68 & 0xFFFF
   \                     ??CrossCallReturnLabel_114:
   \   00013A   12....       LCALL     `??fillAndSend::?relay`; Banked call to: fillAndSend
   \   00013D   7402         MOV       A,#0x2
   \   00013F   12....       LCALL     ?DEALLOC_XSTACK8
   \                     ??ZDP_SimpleDescMsg_2:
   \   000142                REQUIRE ?Subroutine6
   \   000142                ; // Fall through to label ?Subroutine6
    952          }

   \                                 In  segment BANKED_CODE, align 1, keep-with-next
   \                     ?Subroutine6:
   \   000000   7F08         MOV       R7,#0x8
   \   000002   02....       LJMP      ?BANKED_LEAVE_XDATA

   \                                 In  segment BANKED_CODE, align 1, keep-with-next
   \                     ?Subroutine77:
   \   000000   F5..         MOV       ?V2,A
   \   000002   E4           CLR       A
   \   000003   3D           ADDC      A,R5
   \   000004   F5..         MOV       ?V3,A
   \   000006   85..82       MOV       DPL,?V2
   \   000009   22           RET

   \                                 In  segment BANKED_CODE, align 1, keep-with-next
   \                     ?Subroutine70:
   \   000000   EB           MOV       A,R3
   \   000001   12....       LCALL     ?Subroutine96 & 0xFFFF
   \                     ??CrossCallReturnLabel_166:
   \   000004   22           RET

   \                                 In  segment BANKED_CODE, align 1, keep-with-next
   \                     ?Subroutine62:
   \   000000   F583         MOV       DPH,A
   \   000002                REQUIRE ??Subroutine121_0
   \   000002                ; // Fall through to label ??Subroutine121_0

   \                                 In  segment BANKED_CODE, align 1, keep-with-next
   \                     ??Subroutine121_0:
   \   000000   12....       LCALL     ?Subroutine83 & 0xFFFF
   \                     ??CrossCallReturnLabel_217:
   \   000003   22           RET

   \                                 In  segment BANKED_CODE, align 1, keep-with-next
   \                     ?Subroutine13:
   \   000000   A3           INC       DPTR
   \   000001   A3           INC       DPTR
   \   000002   A3           INC       DPTR
   \   000003   A3           INC       DPTR
   \   000004   A3           INC       DPTR
   \   000005   12....       LCALL     ?Subroutine93 & 0xFFFF
   \                     ??CrossCallReturnLabel_159:
   \   000008   12....       LCALL     ?Subroutine86 & 0xFFFF
   \                     ??CrossCallReturnLabel_146:
   \   00000B   A3           INC       DPTR
   \   00000C   A3           INC       DPTR
   \   00000D   22           RET

   \                                 In  segment BANKED_CODE, align 1, keep-with-next
   \                     ?Subroutine10:
   \   000000   F5..         MOV       ?V4,A
   \   000002   E4           CLR       A
   \   000003   3D           ADDC      A,R5
   \   000004   F5..         MOV       ?V5,A
   \   000006   85..82       MOV       DPL,?V4
   \   000009   F583         MOV       DPH,A
   \   00000B   12....       LCALL     ?Subroutine79 & 0xFFFF
   \                     ??CrossCallReturnLabel_134:
   \   00000E   12....       LCALL     ?Subroutine83 & 0xFFFF
   \                     ??CrossCallReturnLabel_215:
   \   000011   85..82       MOV       DPL,?V4
   \   000014   85..83       MOV       DPH,?V5
   \   000017   12....       LCALL     ?Subroutine79 & 0xFFFF
   \                     ??CrossCallReturnLabel_135:
   \   00001A   12....       LCALL     ?Subroutine82 & 0xFFFF
   \                     ??CrossCallReturnLabel_138:
   \   00001D   22           RET

   \                                 In  segment BANKED_CODE, align 1, keep-with-next
   \                     ?Subroutine79:
   \   000000   E0           MOVX      A,@DPTR
   \   000001   25..         ADD       A,?V2
   \   000003   FF           MOV       R7,A
   \   000004   A3           INC       DPTR
   \   000005   E0           MOVX      A,@DPTR
   \   000006   35..         ADDC      A,?V3
   \   000008   8F82         MOV       DPL,R7
   \   00000A   F583         MOV       DPH,A
   \   00000C   22           RET

   \                                 In  segment BANKED_CODE, align 1, keep-with-next
   \                     ?Subroutine93:
   \   000000   F0           MOVX      @DPTR,A
   \   000001   85..82       MOV       DPL,?V2
   \   000004   85..83       MOV       DPH,?V3
   \   000007   A3           INC       DPTR
   \   000008   22           RET

   \                                 In  segment BANKED_CODE, align 1, keep-with-next
   \                     ??Subroutine128_0:
   \   000000   E0           MOVX      A,@DPTR
   \   000001   8882         MOV       DPL,R0
   \   000003   8983         MOV       DPH,R1
   \   000005   22           RET

   \                                 In  segment BANKED_CODE, align 1, keep-with-next
   \                     ?Subroutine61:
   \   000000   F583         MOV       DPH,A
   \   000002                REQUIRE ??Subroutine129_0
   \   000002                ; // Fall through to label ??Subroutine129_0

   \                                 In  segment BANKED_CODE, align 1, keep-with-next
   \                     ??Subroutine129_0:
   \   000000   12....       LCALL     ?Subroutine100 & 0xFFFF
   \                     ??CrossCallReturnLabel_255:
   \   000003   A3           INC       DPTR
   \   000004   22           RET

   \                                 In  segment BANKED_CODE, align 1, keep-with-next
   \                     ?Subroutine60:
   \   000000   12....       LCALL     ?Subroutine86 & 0xFFFF
   \                     ??CrossCallReturnLabel_147:
   \   000003   22           RET

   \                                 In  segment BANKED_CODE, align 1, keep-with-next
   \                     ?Subroutine86:
   \   000000   12....       LCALL     ?Subroutine100 & 0xFFFF
   \                     ??CrossCallReturnLabel_254:
   \   000003   A3           INC       DPTR
   \   000004   A3           INC       DPTR
   \   000005   A3           INC       DPTR
   \   000006   22           RET
    953          
    954          /*********************************************************************
    955           * @fn          ZDP_EPRsp
    956           *
    957           * @brief       This builds and send an endpoint list. Used in
    958           *              Active_EP_rsp and Match_Desc_Rsp
    959           *              message.  This function sends unicast message to the
    960           *              requesting device.
    961           *
    962           * @param       MsgType - either Active_EP_rsp or Match_Desc_Rsp
    963           * @param       dstAddr - destination address
    964           * @param       Status - message status (ZDP_SUCCESS or other)
    965           * @param       nwkAddr - Device's short address that this response describes
    966           * @param       Count - number of endpoint/interfaces in list
    967           * @param       pEPIntfList - Array of Endpoint/Interfaces
    968           * @param       SecurityEnable - Security Options
    969           *
    970           * @return      afStatus_t
    971           */

   \                                 In  segment BANKED_CODE, align 1, keep-with-next
    972          afStatus_t ZDP_EPRsp( uint16 MsgType, byte TransSeq, zAddrType_t *dstAddr,
   \                     ZDP_EPRsp:
    973                                  byte Status, uint16 nwkAddr, byte Count,
    974                                  uint8 *pEPList,
    975                                  byte SecurityEnable )
    976          {
   \   000000                REQUIRE ?V0
   \   000000                REQUIRE ?V1
   \   000000                REQUIRE ?V2
   \   000000                REQUIRE ?V3
   \   000000                REQUIRE ?V4
   \   000000                REQUIRE ?V5
   \   000000                REQUIRE ?V6
   \   000000   74F1         MOV       A,#-0xf
   \   000002   12....       LCALL     ?BANKED_ENTER_XDATA
   \   000005                ; Saved register size: 15
   \   000005                ; Auto size: 1
   \   000005   74FF         MOV       A,#-0x1
   \   000007   12....       LCALL     ?ALLOC_XSTACK8
   \   00000A   E9           MOV       A,R1
   \   00000B   85..82       MOV       DPL,?XSP + 0
   \   00000E   85..83       MOV       DPH,?XSP + 1
   \   000011   F0           MOVX      @DPTR,A
   \   000012   8A..         MOV       ?V2,R2
   \   000014   8B..         MOV       ?V3,R3
   \   000016   EC           MOV       A,R4
   \   000017   FE           MOV       R6,A
   \   000018   ED           MOV       A,R5
   \   000019   FF           MOV       R7,A
    977            uint8 *pBuf = ZDP_TmpBuf;
   \   00001A   12....       LCALL     ?Subroutine51 & 0xFFFF
   \                     ??CrossCallReturnLabel_207:
   \   00001D   FA           MOV       R2,A
   \   00001E   E9           MOV       A,R1
   \   00001F   FB           MOV       R3,A
    978            byte len = 1 + 2 + 1;  // Status + nwkAddr + endpoint/interface count.
   \   000020   75..04       MOV       ?V0,#0x4
    979            byte txOptions;
    980          
    981            (void)SecurityEnable;  // Intentionally unreferenced parameter
    982          
    983            if ( MsgType == Match_Desc_rsp )
   \   000023   7406         MOV       A,#0x6
   \   000025   65..         XRL       A,?V2
   \   000027   7004         JNZ       ??ZDP_EPRsp_0
   \   000029   7480         MOV       A,#-0x80
   \   00002B   65..         XRL       A,?V3
   \                     ??ZDP_EPRsp_0:
   \   00002D   7005         JNZ       ??ZDP_EPRsp_1
    984              txOptions = AF_MSG_ACK_REQUEST;
   \   00002F   75..10       MOV       ?V1,#0x10
   \   000032   8003         SJMP      ??ZDP_EPRsp_2
    985            else
    986              txOptions = 0;
   \                     ??ZDP_EPRsp_1:
   \   000034   75..00       MOV       ?V1,#0x0
    987          
    988              *pBuf++ = Status;
   \                     ??ZDP_EPRsp_2:
   \   000037   7410         MOV       A,#0x10
   \   000039   12....       LCALL     ?XSTACK_DISP0_8
   \   00003C   12....       LCALL     ?Subroutine66 & 0xFFFF
   \                     ??CrossCallReturnLabel_103:
   \   00003F   F0           MOVX      @DPTR,A
   \   000040   7411         MOV       A,#0x11
   \   000042   12....       LCALL     ?XSTACK_DISP0_8
   \   000045   12....       LCALL     ?Subroutine17 & 0xFFFF
    989            *pBuf++ = LO_UINT16( nwkAddr );
    990            *pBuf++ = HI_UINT16( nwkAddr );
   \                     ??CrossCallReturnLabel_14:
   \   000048   7413         MOV       A,#0x13
   \   00004A   12....       LCALL     ?XSTACK_DISP0_8
   \   00004D   E0           MOVX      A,@DPTR
   \   00004E   F9           MOV       R1,A
    991          
    992            *pBuf++ = Count;   // Endpoint/Interface count
   \   00004F   8A82         MOV       DPL,R2
   \   000051   8B83         MOV       DPH,R3
   \   000053   A3           INC       DPTR
   \   000054   A3           INC       DPTR
   \   000055   A3           INC       DPTR
   \   000056   F0           MOVX      @DPTR,A
    993          
    994            if ( Count )
   \   000057   6023         JZ        ??ZDP_EPRsp_3
    995            {
    996              len += Count;
   \   000059   7404         MOV       A,#0x4
   \   00005B   29           ADD       A,R1
   \   00005C   F5..         MOV       ?V0,A
    997              osal_memcpy( pBuf, pEPList, Count );
   \   00005E                ; Setup parameters for call to function osal_memcpy
   \   00005E   7414         MOV       A,#0x14
   \   000060   12....       LCALL     ?XSTACK_DISP0_8
   \   000063   12....       LCALL     ?Subroutine48 & 0xFFFF
    998            }
   \                     ??CrossCallReturnLabel_72:
   \   000066   12....       LCALL     ?PUSH_XSTACK_I_THREE
   \   000069   E9           MOV       A,R1
   \   00006A   FC           MOV       R4,A
   \   00006B   7D00         MOV       R5,#0x0
   \   00006D   EA           MOV       A,R2
   \   00006E   2404         ADD       A,#0x4
   \   000070   FA           MOV       R2,A
   \   000071   5001         JNC       ??ZDP_EPRsp_4
   \   000073   0B           INC       R3
   \                     ??ZDP_EPRsp_4:
   \   000074   12....       LCALL     `??osal_memcpy::?relay`; Banked call to: osal_memcpy
   \   000077   7403         MOV       A,#0x3
   \   000079   12....       LCALL     ?DEALLOC_XSTACK8
    999          
   1000            FillAndSendTxOptions( &TransSeq, dstAddr, MsgType, len, txOptions );
   \                     ??ZDP_EPRsp_3:
   \   00007C   E5..         MOV       A,?V1
   \   00007E   90....       MOV       DPTR,#ZDP_TxOptions
   \   000081   F0           MOVX      @DPTR,A
   \   000082                ; Setup parameters for call to function fillAndSend
   \   000082   78..         MOV       R0,#?V2
   \   000084   12....       LCALL     ?PUSH_XSTACK_I_TWO
   \   000087   A9..         MOV       R1,?V0
   \   000089   EE           MOV       A,R6
   \   00008A   FC           MOV       R4,A
   \   00008B   EF           MOV       A,R7
   \   00008C   FD           MOV       R5,A
   \   00008D   7402         MOV       A,#0x2
   \   00008F   12....       LCALL     ?XSTACK_DISP101_8
   \   000092   12....       LCALL     `??fillAndSend::?relay`; Banked call to: fillAndSend
   \   000095   7402         MOV       A,#0x2
   \   000097   12....       LCALL     ?DEALLOC_XSTACK8
   \   00009A   E9           MOV       A,R1
   \   00009B   F9           MOV       R1,A
   \   00009C   90....       MOV       DPTR,#ZDP_TxOptions
   \   00009F   E4           CLR       A
   \   0000A0   F0           MOVX      @DPTR,A
   \   0000A1   04           INC       A
   \   0000A2   02....       LJMP      ?Subroutine3 & 0xFFFF
   1001          }

   \                                 In  segment BANKED_CODE, align 1, keep-with-next
   \                     ?Subroutine17:
   \   000000   12....       LCALL     ?Subroutine80 & 0xFFFF
   \                     ??CrossCallReturnLabel_136:
   \   000003   12....       LCALL     ?Subroutine94 & 0xFFFF
   \                     ??CrossCallReturnLabel_161:
   \   000006   F0           MOVX      @DPTR,A
   \   000007   22           RET

   \                                 In  segment BANKED_CODE, align 1, keep-with-next
   \                     ?Subroutine48:
   \   000000   E0           MOVX      A,@DPTR
   \   000001   F5..         MOV       ?V4,A
   \   000003   A3           INC       DPTR
   \   000004   E0           MOVX      A,@DPTR
   \   000005   F5..         MOV       ?V5,A
   \   000007   75..00       MOV       ?V6,#0x0
   \   00000A   78..         MOV       R0,#?V4
   \   00000C   22           RET

   \                                 In  segment BANKED_CODE, align 1, keep-with-next
   \                     ?Subroutine94:
   \   000000   F0           MOVX      @DPTR,A
   \   000001   E9           MOV       A,R1
   \   000002   8A82         MOV       DPL,R2
   \   000004   8B83         MOV       DPH,R3
   \   000006   A3           INC       DPTR
   \   000007   A3           INC       DPTR
   \   000008   22           RET

   \                                 In  segment BANKED_CODE, align 1, keep-with-next
   \                     ?Subroutine80:
   \   000000   12....       LCALL     ??Subroutine112_0 & 0xFFFF
   \                     ??CrossCallReturnLabel_299:
   \   000003   F9           MOV       R1,A
   \   000004   E8           MOV       A,R0
   \   000005   8A82         MOV       DPL,R2
   \   000007   8B83         MOV       DPH,R3
   \   000009   A3           INC       DPTR
   \   00000A   22           RET
   1002          
   1003          /*********************************************************************
   1004           * @fn          ZDP_UserDescRsp
   1005           *
   1006           * @brief       Build and send the User Decriptor Response.
   1007           *
   1008           *
   1009           * @param       dstAddr - destination address
   1010           * @param       nwkAddrOfInterest -
   1011           * @param       userDesc -
   1012           * @param       SecurityEnable - Security Options
   1013           *
   1014           * @return      ZStatus_t
   1015           */

   \                                 In  segment BANKED_CODE, align 1, keep-with-next
   1016          ZStatus_t ZDP_UserDescRsp( byte TransSeq, zAddrType_t *dstAddr,
   \                     ZDP_UserDescRsp:
   1017                          uint16 nwkAddrOfInterest, UserDescriptorFormat_t *userDesc,
   1018                          byte SecurityEnable )
   1019          {
   \   000000                REQUIRE ?V0
   \   000000                REQUIRE ?V1
   \   000000                REQUIRE ?V2
   \   000000                REQUIRE ?V4
   \   000000                REQUIRE ?V5
   \   000000                REQUIRE ?V6
   \   000000                REQUIRE ?V8
   \   000000                REQUIRE ?V9
   \   000000   74EE         MOV       A,#-0x12
   \   000002   12....       LCALL     ?BANKED_ENTER_XDATA
   \   000005                ; Saved register size: 18
   \   000005                ; Auto size: 1
   \   000005   74FF         MOV       A,#-0x1
   \   000007   12....       LCALL     ?ALLOC_XSTACK8
   \   00000A   E9           MOV       A,R1
   \   00000B   85..82       MOV       DPL,?XSP + 0
   \   00000E   85..83       MOV       DPH,?XSP + 1
   \   000011   F0           MOVX      @DPTR,A
   \   000012   12....       LCALL     ?Subroutine56 & 0xFFFF
   1020            uint8 *pBuf = ZDP_TmpBuf;
   \                     ??CrossCallReturnLabel_90:
   \   000015   7413         MOV       A,#0x13
   \   000017   12....       LCALL     ?XSTACK_DISP0_8
   \   00001A   12....       LCALL     ??Subroutine136_0 & 0xFFFF
   \                     ??CrossCallReturnLabel_282:
   \   00001D   88..         MOV       ?V8,R0
   \   00001F   89..         MOV       ?V9,R1
   1021            byte len = 1 + 2 + 1;  // Status + nwkAddr + descriptor length.
   1022          
   1023            (void)SecurityEnable;  // Intentionally unreferenced parameter
   1024          
   1025            len += userDesc->len;
   \   000021   8882         MOV       DPL,R0
   \   000023   F583         MOV       DPH,A
   \   000025   E0           MOVX      A,@DPTR
   \   000026   2404         ADD       A,#0x4
   \   000028   F5..         MOV       ?V2,A
   1026          
   1027            *pBuf++ = ZSUCCESS;
   \   00002A   85..82       MOV       DPL,?V0
   \   00002D   85..83       MOV       DPH,?V1
   \   000030   E4           CLR       A
   \   000031   F0           MOVX      @DPTR,A
   1028          
   1029            *pBuf++ = LO_UINT16( nwkAddrOfInterest );
   \   000032   EC           MOV       A,R4
   \   000033   A3           INC       DPTR
   \   000034   F0           MOVX      @DPTR,A
   1030            *pBuf++ = HI_UINT16( nwkAddrOfInterest );
   \   000035   ED           MOV       A,R5
   \   000036   85..82       MOV       DPL,?V0
   \   000039   85..83       MOV       DPH,?V1
   \   00003C   12....       LCALL     ?Subroutine34 & 0xFFFF
   1031          
   1032            *pBuf++ = userDesc->len;
   \                     ??CrossCallReturnLabel_210:
   \   00003F   85..82       MOV       DPL,?V0
   \   000042   85..83       MOV       DPH,?V1
   \   000045   A3           INC       DPTR
   \   000046   A3           INC       DPTR
   \   000047   A3           INC       DPTR
   \   000048   12....       LCALL     ?Subroutine11 & 0xFFFF
   1033            osal_memcpy( pBuf, userDesc->desc, userDesc->len );
   \                     ??CrossCallReturnLabel_3:
   \   00004B   12....       LCALL     ?PUSH_XSTACK_I_THREE
   \   00004E   85..82       MOV       DPL,?V8
   \   000051   85..83       MOV       DPH,?V9
   \   000054   E0           MOVX      A,@DPTR
   \   000055   FC           MOV       R4,A
   \   000056   7D00         MOV       R5,#0x0
   \   000058   E5..         MOV       A,?V0
   \   00005A   2404         ADD       A,#0x4
   \   00005C   FA           MOV       R2,A
   \   00005D   E4           CLR       A
   \   00005E   35..         ADDC      A,?V1
   \   000060   FB           MOV       R3,A
   \   000061   12....       LCALL     `??osal_memcpy::?relay`; Banked call to: osal_memcpy
   \   000064   7403         MOV       A,#0x3
   \   000066   12....       LCALL     ?DEALLOC_XSTACK8
   1034          
   1035            return (ZStatus_t)fillAndSend( &TransSeq, dstAddr, User_Desc_rsp, len );
   \   000069                ; Setup parameters for call to function fillAndSend
   \   000069   75..11       MOV       ?V0,#0x11
   \   00006C   75..80       MOV       ?V1,#-0x80
   \   00006F   78..         MOV       R0,#?V0
   \   000071   12....       LCALL     ?PUSH_XSTACK_I_TWO
   \   000074   A9..         MOV       R1,?V2
   \   000076   EE           MOV       A,R6
   \   000077   FC           MOV       R4,A
   \   000078   EF           MOV       A,R7
   \   000079   FD           MOV       R5,A
   \   00007A   7402         MOV       A,#0x2
   \   00007C   12....       LCALL     ?XSTACK_DISP101_8
   \   00007F   12....       LCALL     `??fillAndSend::?relay`; Banked call to: fillAndSend
   \   000082   7402         MOV       A,#0x2
   \   000084   12....       LCALL     ?DEALLOC_XSTACK8
   \   000087   02....       LJMP      ?Subroutine5 & 0xFFFF
   1036          }

   \                                 In  segment BANKED_CODE, align 1, keep-with-next
   \                     ?Subroutine5:
   \   000000   7401         MOV       A,#0x1
   \   000002                REQUIRE ??Subroutine132_0
   \   000002                ; // Fall through to label ??Subroutine132_0
   1037          
   1038          /*********************************************************************
   1039           * @fn          ZDP_ServerDiscRsp
   1040           *
   1041           * @brief       Build and send the Server_Discovery_rsp response.
   1042           *
   1043           * @param       transID - Transaction sequence number of request.
   1044           * @param       dstAddr - Network Destination Address.
   1045           * @param       status - Status of response to request.
   1046           * @param       aoi - Network Address of Interest of request.
   1047           * @param       serverMask - Bit map of service(s) being sought.
   1048           * @param       SecurityEnable - Security Options
   1049           *
   1050           * @return      ZStatus_t
   1051           */

   \                                 In  segment BANKED_CODE, align 1, keep-with-next
   1052          ZStatus_t ZDP_ServerDiscRsp( byte transID, zAddrType_t *dstAddr, byte status,
   \                     ZDP_ServerDiscRsp:
   1053                                     uint16 aoi, uint16 serverMask, byte SecurityEnable )
   1054          {
   \   000000                REQUIRE ?V0
   \   000000                REQUIRE ?V1
   \   000000   74F6         MOV       A,#-0xa
   \   000002   12....       LCALL     ?BANKED_ENTER_XDATA
   \   000005                ; Saved register size: 10
   \   000005                ; Auto size: 1
   \   000005   74FF         MOV       A,#-0x1
   \   000007   12....       LCALL     ?ALLOC_XSTACK8
   \   00000A   E9           MOV       A,R1
   \   00000B   85..82       MOV       DPL,?XSP + 0
   \   00000E   85..83       MOV       DPH,?XSP + 1
   \   000011   F0           MOVX      @DPTR,A
   \   000012   EC           MOV       A,R4
   \   000013   FE           MOV       R6,A
   1055            const byte len = 1  + 2;  // status + aoi + mask.
   1056            uint8 *pBuf = ZDP_TmpBuf;
   \   000014   12....       LCALL     ?Subroutine51 & 0xFFFF
   \                     ??CrossCallReturnLabel_208:
   \   000017   FC           MOV       R4,A
   \   000018   E9           MOV       A,R1
   \   000019   FD           MOV       R5,A
   1057            ZStatus_t stat;
   1058          
   1059            // Intentionally unreferenced parameters
   1060            (void)aoi;
   1061            (void)SecurityEnable;
   1062          
   1063            *pBuf++ = status;
   \   00001A   EE           MOV       A,R6
   \   00001B   8C82         MOV       DPL,R4
   \   00001D   8D83         MOV       DPH,R5
   \   00001F   F0           MOVX      @DPTR,A
   \   000020   740D         MOV       A,#0xd
   \   000022   12....       LCALL     ?XSTACK_DISP0_8
   \   000025   12....       LCALL     ??Subroutine119_0 & 0xFFFF
   1064          
   1065            *pBuf++ = LO_UINT16( serverMask );
   \                     ??CrossCallReturnLabel_204:
   \   000028   8C82         MOV       DPL,R4
   \   00002A   8D83         MOV       DPH,R5
   \   00002C   A3           INC       DPTR
   \   00002D   F0           MOVX      @DPTR,A
   1066            *pBuf++ = HI_UINT16( serverMask );
   \   00002E   E9           MOV       A,R1
   \   00002F   8C82         MOV       DPL,R4
   \   000031   8D83         MOV       DPH,R5
   \   000033   A3           INC       DPTR
   \   000034   A3           INC       DPTR
   \   000035   F0           MOVX      @DPTR,A
   1067          
   1068            ZDP_TxOptions = AF_MSG_ACK_REQUEST;
   \   000036   90....       MOV       DPTR,#ZDP_TxOptions
   \   000039   7410         MOV       A,#0x10
   \   00003B   F0           MOVX      @DPTR,A
   1069            stat = fillAndSend( &transID, dstAddr, Server_Discovery_rsp, len );
   \   00003C                ; Setup parameters for call to function fillAndSend
   \   00003C   75..15       MOV       ?V0,#0x15
   \   00003F   75..80       MOV       ?V1,#-0x80
   \   000042   78..         MOV       R0,#?V0
   \   000044   12....       LCALL     ?PUSH_XSTACK_I_TWO
   \   000047   7903         MOV       R1,#0x3
   \   000049   EA           MOV       A,R2
   \   00004A   FC           MOV       R4,A
   \   00004B   EB           MOV       A,R3
   \   00004C   FD           MOV       R5,A
   \   00004D   7402         MOV       A,#0x2
   \   00004F   12....       LCALL     ?XSTACK_DISP101_8
   \   000052   12....       LCALL     `??fillAndSend::?relay`; Banked call to: fillAndSend
   \   000055   7402         MOV       A,#0x2
   \   000057   12....       LCALL     ?DEALLOC_XSTACK8
   \   00005A   E9           MOV       A,R1
   \   00005B   F9           MOV       R1,A
   1070            ZDP_TxOptions = AF_TX_OPTIONS_NONE;
   \   00005C   90....       MOV       DPTR,#ZDP_TxOptions
   \   00005F   E4           CLR       A
   \   000060   F0           MOVX      @DPTR,A
   1071          
   1072            return ( stat );
   \   000061   04           INC       A
   \   000062   02....       LJMP      ??Subroutine111_0 & 0xFFFF
   1073          }
   1074          
   1075          /*********************************************************************
   1076           * @fn          ZDP_GenericRsp
   1077           *
   1078           * @brief       Sends a response message with only the parameter status
   1079           *              byte and the addr of interest for data.
   1080           *              This function sends unicast message to the
   1081           *              requesting device.
   1082           *
   1083           * @param       dstAddr - destination address
   1084           * @param       status  - generic status for response
   1085           * @param       aoi     - address of interest
   1086           * @param       dstAddr - destination address
   1087           * @param       rspId   - response cluster ID
   1088           * @param       SecurityEnable - Security Options
   1089           *
   1090           * @return      afStatus_t
   1091           */

   \                                 In  segment BANKED_CODE, align 1, keep-with-next
   1092          afStatus_t ZDP_GenericRsp( byte TransSeq, zAddrType_t *dstAddr,
   \                     ZDP_GenericRsp:
   1093                               byte status, uint16 aoi, uint16 rspID, byte SecurityEnable )
   1094          {
   \   000000   74F7         MOV       A,#-0x9
   \   000002   12....       LCALL     ?BANKED_ENTER_XDATA
   \   000005                ; Saved register size: 9
   \   000005                ; Auto size: 1
   \   000005   74FF         MOV       A,#-0x1
   \   000007   12....       LCALL     ?ALLOC_XSTACK8
   \   00000A   E9           MOV       A,R1
   \   00000B   85..82       MOV       DPL,?XSP + 0
   \   00000E   85..83       MOV       DPH,?XSP + 1
   \   000011   F0           MOVX      @DPTR,A
   1095            uint8 len;
   1096          
   1097            (void)SecurityEnable;  // Intentionally unreferenced parameter
   1098          
   1099            ZDP_TmpBuf[0] = status;
   \   000012   12....       LCALL     ?Subroutine46 & 0xFFFF
   \                     ??CrossCallReturnLabel_220:
   \   000015   EC           MOV       A,R4
   \   000016   F0           MOVX      @DPTR,A
   \   000017   740A         MOV       A,#0xa
   \   000019   12....       LCALL     ?XSTACK_DISP0_8
   \   00001C   12....       LCALL     ??Subroutine136_0 & 0xFFFF
   1100            ZDP_TmpBuf[1] = LO_UINT16( aoi );
   \                     ??CrossCallReturnLabel_283:
   \   00001F   90....       MOV       DPTR,#ZDP_TmpBuf
   \   000022   E0           MOVX      A,@DPTR
   \   000023   FC           MOV       R4,A
   \   000024   A3           INC       DPTR
   \   000025   E0           MOVX      A,@DPTR
   \   000026   F583         MOV       DPH,A
   \   000028   8C82         MOV       DPL,R4
   \   00002A   A3           INC       DPTR
   \   00002B   E8           MOV       A,R0
   \   00002C   12....       LCALL     ?Subroutine15 & 0xFFFF
   1101            ZDP_TmpBuf[2] = HI_UINT16( aoi );
   1102          
   1103            // Length byte
   1104            ZDP_TmpBuf[3] = 0;
   \                     ??CrossCallReturnLabel_11:
   \   00002F   12....       LCALL     ?Subroutine46 & 0xFFFF
   \                     ??CrossCallReturnLabel_221:
   \   000032   A3           INC       DPTR
   \   000033   A3           INC       DPTR
   \   000034   A3           INC       DPTR
   \   000035   E4           CLR       A
   \   000036   F0           MOVX      @DPTR,A
   1105            len = 4;
   1106          
   1107            return fillAndSend( &TransSeq, dstAddr, rspID, len );
   \   000037                ; Setup parameters for call to function fillAndSend
   \   000037   740C         MOV       A,#0xc
   \   000039   12....       LCALL     ?XSTACK_DISP0_8
   \   00003C   12....       LCALL     ?PUSH_XSTACK8_X_TWO
   \   00003F   7904         MOV       R1,#0x4
   \   000041   EA           MOV       A,R2
   \   000042   FC           MOV       R4,A
   \   000043   EB           MOV       A,R3
   \   000044   FD           MOV       R5,A
   \   000045   7402         MOV       A,#0x2
   \   000047   12....       LCALL     ?XSTACK_DISP101_8
   \   00004A   12....       LCALL     `??fillAndSend::?relay`; Banked call to: fillAndSend
   \   00004D   7402         MOV       A,#0x2
   \   00004F   12....       LCALL     ?DEALLOC_XSTACK8
   \   000052   7401         MOV       A,#0x1
   \   000054   12....       LCALL     ?DEALLOC_XSTACK8
   \   000057                REQUIRE ?Subroutine7
   \   000057                ; // Fall through to label ?Subroutine7
   1108          }

   \                                 In  segment BANKED_CODE, align 1, keep-with-next
   \                     ?Subroutine7:
   \   000000   7F01         MOV       R7,#0x1
   \   000002   02....       LJMP      ?BANKED_LEAVE_XDATA
   1109          
   1110          /*********************************************************************
   1111           * Binding
   1112           */
   1113          /*********************************************************************
   1114           * @fn          ZDP_EndDeviceBindReq
   1115           *
   1116           * @brief       This builds and sends a End_Device_Bind_req message.
   1117           *              This function sends a unicast message.
   1118           *
   1119           * @param       dstAddr - destination address
   1120           * @param       LocalCoordinator - short address of local coordinator
   1121           * @param       epIntf - Endpoint/Interface of Simple Desc
   1122           * @param       ProfileID - Profile ID
   1123           *
   1124           *   The Input cluster list is the opposite of what you would think.
   1125           *   This is the output cluster list of this device
   1126           * @param       NumInClusters - number of input clusters
   1127           * @param       InClusterList - input cluster ID list
   1128           *
   1129           *   The Output cluster list is the opposite of what you would think.
   1130           *   This is the input cluster list of this device
   1131           * @param       NumOutClusters - number of output clusters
   1132           * @param       OutClusterList - output cluster ID list
   1133           *
   1134           * @param       SecurityEnable - Security Options
   1135           *
   1136           * @return      afStatus_t
   1137           */

   \                                 In  segment BANKED_CODE, align 1, keep-with-next
   1138          afStatus_t ZDP_EndDeviceBindReq( zAddrType_t *dstAddr,
   \                     ZDP_EndDeviceBindReq:
   1139                                           uint16 LocalCoordinator,
   1140                                           byte endPoint,
   1141                                           uint16 ProfileID,
   1142                                           byte NumInClusters, cId_t *InClusterList,
   1143                                           byte NumOutClusters, cId_t *OutClusterList,
   1144                                           byte SecurityEnable )
   1145          {
   \   000000                REQUIRE ?V0
   \   000000                REQUIRE ?V1
   \   000000                REQUIRE ?V2
   \   000000                REQUIRE ?V3
   \   000000                REQUIRE ?V4
   \   000000                REQUIRE ?V5
   \   000000                REQUIRE ?V6
   \   000000                REQUIRE ?V7
   \   000000                REQUIRE ?V8
   \   000000                REQUIRE ?V9
   \   000000   74EE         MOV       A,#-0x12
   \   000002   12....       LCALL     ?BANKED_ENTER_XDATA
   \   000005                ; Saved register size: 18
   \   000005                ; Auto size: 0
   \   000005   8A..         MOV       ?V6,R2
   \   000007   8B..         MOV       ?V7,R3
   \   000009   8C..         MOV       ?V4,R4
   \   00000B   8D..         MOV       ?V5,R5
   \   00000D   89..         MOV       ?V3,R1
   1146            uint8 *pBuf = ZDP_TmpBuf;
   \   00000F   90....       MOV       DPTR,#ZDP_TmpBuf
   \   000012   12....       LCALL     ?Subroutine55 & 0xFFFF
   \                     ??CrossCallReturnLabel_85:
   \   000015   7414         MOV       A,#0x14
   \   000017   12....       LCALL     ?XSTACK_DISP0_8
   \   00001A   E0           MOVX      A,@DPTR
   \   00001B   F5..         MOV       ?V2,A
   \   00001D   7417         MOV       A,#0x17
   \   00001F   12....       LCALL     ?XSTACK_DISP0_8
   \   000022   E0           MOVX      A,@DPTR
   \   000023   F5..         MOV       ?V1,A
   1147            uint8 i, len;
   1148            uint8 *ieeeAddr;
   1149          
   1150            (void)SecurityEnable;  // Intentionally unreferenced parameter
   1151          
   1152            // LocalCoordinator + SrcExtAddr + ep + ProfileID +  NumInClusters + NumOutClusters.
   1153            len = 2 + Z_EXTADDR_LEN + 1 + 2 + 1 + 1;
   1154            len += (NumInClusters + NumOutClusters) * sizeof ( uint16 );
   \   000025   E5..         MOV       A,?V2
   \   000027   25..         ADD       A,?V1
   \   000029   C3           CLR       C
   \   00002A   33           RLC       A
   \   00002B   240F         ADD       A,#0xf
   \   00002D   F5..         MOV       ?V0,A
   1155          
   1156            if ( len >= ZDP_BUF_SZ-1 )
   \   00002F   C3           CLR       C
   \   000030   944F         SUBB      A,#0x4f
   \   000032   4005         JC        ??ZDP_EndDeviceBindReq_0
   1157            {
   1158              return afStatus_MEM_FAIL;
   \   000034   7910         MOV       R1,#0x10
   \   000036   02....       LJMP      ??ZDP_EndDeviceBindReq_1 & 0xFFFF
   1159            }
   1160          
   1161            if ( LocalCoordinator != NLME_GetShortAddr() )
   \                     ??ZDP_EndDeviceBindReq_0:
   \   000039                ; Setup parameters for call to function NLME_GetShortAddr
   \   000039   12....       LCALL     `??NLME_GetShortAddr::?relay`; Banked call to: NLME_GetShortAddr
   \   00003C   EA           MOV       A,R2
   \   00003D   65..         XRL       A,?V4
   \   00003F   7003         JNZ       ??ZDP_EndDeviceBindReq_2
   \   000041   EB           MOV       A,R3
   \   000042   65..         XRL       A,?V5
   \                     ??ZDP_EndDeviceBindReq_2:
   \   000044   6005         JZ        ??ZDP_EndDeviceBindReq_3
   1162            {
   1163              return afStatus_INVALID_PARAMETER;
   \   000046   7902         MOV       R1,#0x2
   \   000048   02....       LJMP      ??ZDP_EndDeviceBindReq_1 & 0xFFFF
   1164            }
   1165          
   1166            *pBuf++ = LO_UINT16( LocalCoordinator );
   \                     ??ZDP_EndDeviceBindReq_3:
   \   00004B   8E82         MOV       DPL,R6
   \   00004D   8F83         MOV       DPH,R7
   \   00004F   E5..         MOV       A,?V4
   \   000051   F0           MOVX      @DPTR,A
   1167            *pBuf++ = HI_UINT16( LocalCoordinator );
   \   000052   E5..         MOV       A,?V5
   \   000054   A3           INC       DPTR
   \   000055   F0           MOVX      @DPTR,A
   1168          
   1169            ieeeAddr = NLME_GetExtAddr();
   \   000056                ; Setup parameters for call to function NLME_GetExtAddr
   \   000056   12....       LCALL     `??NLME_GetExtAddr::?relay`; Banked call to: NLME_GetExtAddr
   \   000059   8A..         MOV       ?V4,R2
   \   00005B   8B..         MOV       ?V5,R3
   \   00005D   AC..         MOV       R4,?V4
   \   00005F   AD..         MOV       R5,?V5
   1170            pBuf = osal_cpyExtAddr( pBuf, ieeeAddr );
   \   000061                ; Setup parameters for call to function sAddrExtCpy
   \   000061   EE           MOV       A,R6
   \   000062   2402         ADD       A,#0x2
   \   000064   FA           MOV       R2,A
   \   000065   E4           CLR       A
   \   000066   3F           ADDC      A,R7
   \   000067   FB           MOV       R3,A
   \   000068   12....       LCALL     `??sAddrExtCpy::?relay`; Banked call to: sAddrExtCpy
   1171          
   1172            *pBuf++ = endPoint;
   \   00006B   8A82         MOV       DPL,R2
   \   00006D   8B83         MOV       DPH,R3
   \   00006F   E5..         MOV       A,?V3
   \   000071   F0           MOVX      @DPTR,A
   \   000072   7412         MOV       A,#0x12
   \   000074   12....       LCALL     ?XSTACK_DISP0_8
   \   000077   12....       LCALL     ?Subroutine17 & 0xFFFF
   1173          
   1174            *pBuf++ = LO_UINT16( ProfileID );   // Profile ID
   1175            *pBuf++ = HI_UINT16( ProfileID );
   1176          
   1177            *pBuf++ = NumInClusters; // Input cluster list
   \                     ??CrossCallReturnLabel_15:
   \   00007A   8A82         MOV       DPL,R2
   \   00007C   8B83         MOV       DPH,R3
   \   00007E   A3           INC       DPTR
   \   00007F   A3           INC       DPTR
   \   000080   A3           INC       DPTR
   \   000081   E5..         MOV       A,?V2
   \   000083   F0           MOVX      @DPTR,A
   \   000084   EA           MOV       A,R2
   \   000085   2404         ADD       A,#0x4
   \   000087   FE           MOV       R6,A
   \   000088   E4           CLR       A
   \   000089   3B           ADDC      A,R3
   \   00008A   FF           MOV       R7,A
   1178            for ( i = 0; i < NumInClusters; ++i )
   \   00008B   7A00         MOV       R2,#0x0
   \   00008D   7415         MOV       A,#0x15
   \   00008F   12....       LCALL     ?XSTACK_DISP0_8
   \   000092   12....       LCALL     ??Subroutine136_0 & 0xFFFF
   \                     ??CrossCallReturnLabel_284:
   \   000095   8007         SJMP      ??ZDP_EndDeviceBindReq_4
   1179            {
   1180              *pBuf++ = LO_UINT16(InClusterList[i]);
   \                     ??ZDP_EndDeviceBindReq_5:
   \   000097   12....       LCALL     ?Subroutine14 & 0xFFFF
   1181              *pBuf++ = HI_UINT16(InClusterList[i]);
   1182            }
   \                     ??CrossCallReturnLabel_8:
   \   00009A   5001         JNC       ??ZDP_EndDeviceBindReq_6
   \   00009C   0F           INC       R7
   \                     ??ZDP_EndDeviceBindReq_6:
   \   00009D   0A           INC       R2
   \                     ??ZDP_EndDeviceBindReq_4:
   \   00009E   EA           MOV       A,R2
   \   00009F   C3           CLR       C
   \   0000A0   95..         SUBB      A,?V2
   \   0000A2   40F3         JC        ??ZDP_EndDeviceBindReq_5
   1183          
   1184            *pBuf++ = NumOutClusters; // Output cluster list
   \   0000A4   8E82         MOV       DPL,R6
   \   0000A6   8F83         MOV       DPH,R7
   \   0000A8   E5..         MOV       A,?V1
   \   0000AA   F0           MOVX      @DPTR,A
   \   0000AB   A3           INC       DPTR
   \   0000AC   AE82         MOV       R6,DPL
   \   0000AE   AF83         MOV       R7,DPH
   1185            for ( i = 0; i < NumOutClusters; ++i )
   \   0000B0   7A00         MOV       R2,#0x0
   \   0000B2   7418         MOV       A,#0x18
   \   0000B4   12....       LCALL     ?XSTACK_DISP0_8
   \   0000B7   12....       LCALL     ??Subroutine136_0 & 0xFFFF
   \                     ??CrossCallReturnLabel_285:
   \   0000BA   8007         SJMP      ??ZDP_EndDeviceBindReq_7
   1186            {
   1187              *pBuf++ = LO_UINT16(OutClusterList[i]);
   \                     ??ZDP_EndDeviceBindReq_8:
   \   0000BC   12....       LCALL     ?Subroutine14 & 0xFFFF
   1188              *pBuf++ = HI_UINT16(OutClusterList[i]);
   1189            }
   \                     ??CrossCallReturnLabel_9:
   \   0000BF   5001         JNC       ??ZDP_EndDeviceBindReq_9
   \   0000C1   0F           INC       R7
   \                     ??ZDP_EndDeviceBindReq_9:
   \   0000C2   0A           INC       R2
   \                     ??ZDP_EndDeviceBindReq_7:
   \   0000C3   EA           MOV       A,R2
   \   0000C4   C3           CLR       C
   \   0000C5   95..         SUBB      A,?V1
   \   0000C7   40F3         JC        ??ZDP_EndDeviceBindReq_8
   1190          
   1191            return fillAndSend( &ZDP_TransID, dstAddr, End_Device_Bind_req, len );
   \   0000C9                ; Setup parameters for call to function fillAndSend
   \   0000C9   75..20       MOV       ?V4,#0x20
   \   0000CC   75..00       MOV       ?V5,#0x0
   \   0000CF   78..         MOV       R0,#?V4
   \   0000D1   12....       LCALL     ?PUSH_XSTACK_I_TWO
   \   0000D4   A9..         MOV       R1,?V0
   \   0000D6   AC..         MOV       R4,?V6
   \   0000D8   AD..         MOV       R5,?V7
   \   0000DA   7A..         MOV       R2,#ZDP_TransID & 0xff
   \   0000DC   7B..         MOV       R3,#(ZDP_TransID >> 8) & 0xff
   \   0000DE   12....       LCALL     `??fillAndSend::?relay`; Banked call to: fillAndSend
   \   0000E1   7402         MOV       A,#0x2
   \   0000E3   12....       LCALL     ?DEALLOC_XSTACK8
   \                     ??ZDP_EndDeviceBindReq_1:
   \   0000E6   02....       LJMP      ??Subroutine133_0 & 0xFFFF
   1192          }

   \                                 In  segment BANKED_CODE, align 1, keep-with-next
   \                     ?Subroutine14:
   \   000000   EA           MOV       A,R2
   \   000001   25E0         ADD       A,0xE0 /* A   */
   \   000003   FC           MOV       R4,A
   \   000004   E4           CLR       A
   \   000005   33           RLC       A
   \   000006   FD           MOV       R5,A
   \   000007   E8           MOV       A,R0
   \   000008   2C           ADD       A,R4
   \   000009   FC           MOV       R4,A
   \   00000A   E9           MOV       A,R1
   \   00000B   3D           ADDC      A,R5
   \   00000C   FD           MOV       R5,A
   \   00000D   8C82         MOV       DPL,R4
   \   00000F   8D83         MOV       DPH,R5
   \   000011   12....       LCALL     ?Subroutine99 & 0xFFFF
   \                     ??CrossCallReturnLabel_172:
   \   000014   F0           MOVX      @DPTR,A
   \   000015   8C82         MOV       DPL,R4
   \   000017   8D83         MOV       DPH,R5
   \   000019   A3           INC       DPTR
   \   00001A   12....       LCALL     ?Subroutine85 & 0xFFFF
   \                     ??CrossCallReturnLabel_144:
   \   00001D   F0           MOVX      @DPTR,A
   \   00001E   EE           MOV       A,R6
   \   00001F   2402         ADD       A,#0x2
   \   000021   FE           MOV       R6,A
   \   000022   22           RET
   1193          
   1194          /*********************************************************************
   1195           * @fn          ZDP_BindUnbindReq
   1196           *
   1197           * @brief       This builds and send a Bind_req or Unbind_req message
   1198           *              Depending on the ClusterID. This function
   1199           *              sends a unicast message to the local coordinator.
   1200           *
   1201           * @param       BindOrUnbind - either Bind_req or Unbind_req
   1202           * @param       dstAddr - destination address of the message
   1203           * @param       SourceAddr - source 64 bit address of the binding
   1204           * @param       SrcEPIntf - Source endpoint/interface
   1205           * @param       ClusterID - Binding cluster ID
   1206           * @param       DestinationAddr - destination 64 bit addr of binding
   1207           * @param       DstEPIntf - destination endpoint/interface
   1208           * @param       SecurityEnable - Security Options
   1209           *
   1210           * @return      afStatus_t
   1211           */

   \                                 In  segment BANKED_CODE, align 1, keep-with-next
   1212          afStatus_t ZDP_BindUnbindReq( uint16 BindOrUnbind, zAddrType_t *dstAddr,
   \                     ZDP_BindUnbindReq:
   1213                                        uint8 *SourceAddr, byte SrcEndPoint,
   1214                                        cId_t ClusterID,
   1215                                        zAddrType_t *destinationAddr, byte DstEndPoint,
   1216                                        byte SecurityEnable )
   1217          {
   \   000000                REQUIRE ?V0
   \   000000                REQUIRE ?V1
   \   000000                REQUIRE ?V2
   \   000000                REQUIRE ?V3
   \   000000                REQUIRE ?V4
   \   000000                REQUIRE ?V5
   \   000000                REQUIRE ?V6
   \   000000                REQUIRE ?V7
   \   000000   74F0         MOV       A,#-0x10
   \   000002   12....       LCALL     ?BANKED_ENTER_XDATA
   \   000005                ; Saved register size: 16
   \   000005                ; Auto size: 0
   \   000005   8A..         MOV       ?V4,R2
   \   000007   8B..         MOV       ?V5,R3
   \   000009   8C..         MOV       ?V2,R4
   \   00000B   8D..         MOV       ?V3,R5
   \   00000D   E9           MOV       A,R1
   \   00000E   FF           MOV       R7,A
   1218            uint8 *pBuf = ZDP_TmpBuf;
   \   00000F   12....       LCALL     ??Subroutine123_0 & 0xFFFF
   1219            byte len;
   1220          
   1221            (void)SecurityEnable;  // Intentionally unreferenced parameter
   1222          
   1223            // SourceAddr + SrcEPIntf + ClusterID +  addrMode.
   1224            len = Z_EXTADDR_LEN + 1 + sizeof( cId_t ) + sizeof( uint8 );
   \                     ??CrossCallReturnLabel_229:
   \   000012   7E0C         MOV       R6,#0xc
   \   000014   7414         MOV       A,#0x14
   \   000016   12....       LCALL     ?XSTACK_DISP0_8
   \   000019   12....       LCALL     ?Subroutine44 & 0xFFFF
   1225            if ( destinationAddr->addrMode == Addr64Bit )
   \                     ??CrossCallReturnLabel_66:
   \   00001C   85..82       MOV       DPL,?V0
   \   00001F   F583         MOV       DPH,A
   \   000021   A3           INC       DPTR
   \   000022   A3           INC       DPTR
   \   000023   A3           INC       DPTR
   \   000024   A3           INC       DPTR
   \   000025   A3           INC       DPTR
   \   000026   A3           INC       DPTR
   \   000027   A3           INC       DPTR
   \   000028   A3           INC       DPTR
   \   000029   E0           MOVX      A,@DPTR
   \   00002A   6403         XRL       A,#0x3
   \   00002C   7004         JNZ       ??ZDP_BindUnbindReq_0
   1226              len += Z_EXTADDR_LEN + 1;     // +1 for DstEPIntf
   \   00002E   7E15         MOV       R6,#0x15
   \   000030   8015         SJMP      ??ZDP_BindUnbindReq_1
   1227            else if ( destinationAddr->addrMode == AddrGroup )
   \                     ??ZDP_BindUnbindReq_0:
   \   000032   85..82       MOV       DPL,?V0
   \   000035   85..83       MOV       DPH,?V1
   \   000038   A3           INC       DPTR
   \   000039   A3           INC       DPTR
   \   00003A   A3           INC       DPTR
   \   00003B   A3           INC       DPTR
   \   00003C   A3           INC       DPTR
   \   00003D   A3           INC       DPTR
   \   00003E   A3           INC       DPTR
   \   00003F   A3           INC       DPTR
   \   000040   E0           MOVX      A,@DPTR
   \   000041   6401         XRL       A,#0x1
   \   000043   7002         JNZ       ??ZDP_BindUnbindReq_1
   1228              len += sizeof ( uint16 );
   \   000045   7E0E         MOV       R6,#0xe
   1229          
   1230            pBuf = osal_cpyExtAddr( pBuf, SourceAddr );
   \                     ??ZDP_BindUnbindReq_1:
   \   000047                ; Setup parameters for call to function sAddrExtCpy
   \   000047   7410         MOV       A,#0x10
   \   000049   12....       LCALL     ?XSTACK_DISP0_8
   \   00004C   12....       LCALL     ?Subroutine52 & 0xFFFF
   \                     ??CrossCallReturnLabel_79:
   \   00004F   12....       LCALL     `??sAddrExtCpy::?relay`; Banked call to: sAddrExtCpy
   1231            *pBuf++ = SrcEndPoint;
   \   000052   EF           MOV       A,R7
   \   000053   8A82         MOV       DPL,R2
   \   000055   8B83         MOV       DPH,R3
   \   000057   F0           MOVX      @DPTR,A
   \   000058   7412         MOV       A,#0x12
   \   00005A   12....       LCALL     ?XSTACK_DISP0_8
   \   00005D   12....       LCALL     ?Subroutine17 & 0xFFFF
   1232          
   1233            *pBuf++ = LO_UINT16( ClusterID );
   1234          
   1235            *pBuf++ = HI_UINT16( ClusterID );
   1236            *pBuf++ = destinationAddr->addrMode;
   \                     ??CrossCallReturnLabel_16:
   \   000060   E5..         MOV       A,?V0
   \   000062   2408         ADD       A,#0x8
   \   000064   F8           MOV       R0,A
   \   000065   E4           CLR       A
   \   000066   35..         ADDC      A,?V1
   \   000068   12....       LCALL     ?Subroutine47 & 0xFFFF
   \                     ??CrossCallReturnLabel_70:
   \   00006B   5001         JNC       ??ZDP_BindUnbindReq_2
   \   00006D   0B           INC       R3
   1237            if ( destinationAddr->addrMode == Addr64Bit )
   \                     ??ZDP_BindUnbindReq_2:
   \   00006E   8882         MOV       DPL,R0
   \   000070   8983         MOV       DPH,R1
   \   000072   E0           MOVX      A,@DPTR
   \   000073   6403         XRL       A,#0x3
   \   000075   7017         JNZ       ??ZDP_BindUnbindReq_3
   1238            {
   1239              pBuf = osal_cpyExtAddr( pBuf, destinationAddr->addr.extAddr );
   1240              *pBuf = DstEndPoint;
   \   000077   7416         MOV       A,#0x16
   \   000079   12....       LCALL     ?XSTACK_DISP0_8
   \   00007C   E0           MOVX      A,@DPTR
   \   00007D   C0E0         PUSH      A
   \   00007F                ; Setup parameters for call to function sAddrExtCpy
   \   00007F   AC..         MOV       R4,?V0
   \   000081   AD..         MOV       R5,?V1
   \   000083   12....       LCALL     `??sAddrExtCpy::?relay`; Banked call to: sAddrExtCpy
   \   000086   8A82         MOV       DPL,R2
   \   000088   8B83         MOV       DPH,R3
   \   00008A   D0E0         POP       A
   \   00008C   8022         SJMP      ??CrossCallReturnLabel_100
   1241            }
   1242            else if ( destinationAddr->addrMode == AddrGroup )
   \                     ??ZDP_BindUnbindReq_3:
   \   00008E   85..82       MOV       DPL,?V0
   \   000091   85..83       MOV       DPH,?V1
   \   000094   A3           INC       DPTR
   \   000095   A3           INC       DPTR
   \   000096   A3           INC       DPTR
   \   000097   A3           INC       DPTR
   \   000098   A3           INC       DPTR
   \   000099   A3           INC       DPTR
   \   00009A   A3           INC       DPTR
   \   00009B   A3           INC       DPTR
   \   00009C   E0           MOVX      A,@DPTR
   \   00009D   6401         XRL       A,#0x1
   \   00009F   7010         JNZ       ??ZDP_BindUnbindReq_4
   1243            {
   1244              *pBuf++ = LO_UINT16( destinationAddr->addr.shortAddr );
   \   0000A1   85..82       MOV       DPL,?V0
   \   0000A4   85..83       MOV       DPH,?V1
   \   0000A7   12....       LCALL     ?Subroutine66 & 0xFFFF
   1245              *pBuf++ = HI_UINT16( destinationAddr->addr.shortAddr );
   1246            }
   \                     ??CrossCallReturnLabel_104:
   \   0000AA   12....       LCALL     ?Subroutine95 & 0xFFFF
   \                     ??CrossCallReturnLabel_163:
   \   0000AD   12....       LCALL     ?Subroutine65 & 0xFFFF
   \                     ??CrossCallReturnLabel_100:
   \   0000B0   F0           MOVX      @DPTR,A
   1247          
   1248            FillAndSendTxOptions( &ZDP_TransID, dstAddr, BindOrUnbind, len, AF_MSG_ACK_REQUEST );
   \                     ??ZDP_BindUnbindReq_4:
   \   0000B1   90....       MOV       DPTR,#ZDP_TxOptions
   \   0000B4   7410         MOV       A,#0x10
   \   0000B6   F0           MOVX      @DPTR,A
   \   0000B7                ; Setup parameters for call to function fillAndSend
   \   0000B7   78..         MOV       R0,#?V4
   \   0000B9   12....       LCALL     ?PUSH_XSTACK_I_TWO
   \   0000BC   EE           MOV       A,R6
   \   0000BD   F9           MOV       R1,A
   \   0000BE   AC..         MOV       R4,?V2
   \   0000C0   AD..         MOV       R5,?V3
   \   0000C2   7A..         MOV       R2,#ZDP_TransID & 0xff
   \   0000C4   7B..         MOV       R3,#(ZDP_TransID >> 8) & 0xff
   \   0000C6   12....       LCALL     `??fillAndSend::?relay`; Banked call to: fillAndSend
   \   0000C9   7402         MOV       A,#0x2
   \   0000CB   12....       LCALL     ?DEALLOC_XSTACK8
   \   0000CE   E9           MOV       A,R1
   \   0000CF   F9           MOV       R1,A
   \   0000D0   90....       MOV       DPTR,#ZDP_TxOptions
   \   0000D3   E4           CLR       A
   \   0000D4   F0           MOVX      @DPTR,A
   \   0000D5   02....       LJMP      ?Subroutine6 & 0xFFFF
   1249          }

   \                                 In  segment BANKED_CODE, align 1, keep-with-next
   \                     ?Subroutine47:
   \   000000   F9           MOV       R1,A
   \   000001   8882         MOV       DPL,R0
   \   000003   8983         MOV       DPH,R1
   \   000005   12....       LCALL     ?Subroutine87 & 0xFFFF
   \                     ??CrossCallReturnLabel_148:
   \   000008   F0           MOVX      @DPTR,A
   \   000009   EA           MOV       A,R2
   \   00000A   2404         ADD       A,#0x4
   \   00000C   FA           MOV       R2,A
   \   00000D   22           RET

   \                                 In  segment BANKED_CODE, align 1, keep-with-next
   \                     ?Subroutine87:
   \   000000   12....       LCALL     ?Subroutine101 & 0xFFFF
   \                     ??CrossCallReturnLabel_177:
   \   000003   A3           INC       DPTR
   \   000004   A3           INC       DPTR
   \   000005   A3           INC       DPTR
   \   000006   22           RET
   1250          
   1251          /*********************************************************************
   1252           * Network Management
   1253           */
   1254          
   1255          /*********************************************************************
   1256           * @fn          ZDP_MgmtNwkDiscReq
   1257           *
   1258           * @brief       This builds and send a Mgmt_NWK_Disc_req message. This
   1259           *              function sends a unicast message.
   1260           *
   1261           * @param       dstAddr - destination address of the message
   1262           * @param       ScanChannels - 32 bit address bit map
   1263           * @param       StartIndex - Starting index within the reporting network
   1264           *                           list
   1265           * @param       SecurityEnable - Security Options
   1266           *
   1267           * @return      afStatus_t
   1268           */

   \                                 In  segment BANKED_CODE, align 1, keep-with-next
   \                     ??Subroutine106_0:
   \   000000   EE           MOV       A,R6
   \   000001   FC           MOV       R4,A
   \   000002   EF           MOV       A,R7
   \   000003   FD           MOV       R5,A
   \   000004   7A..         MOV       R2,#ZDP_TransID & 0xff
   \   000006   7B..         MOV       R3,#(ZDP_TransID >> 8) & 0xff
   \   000008   12....       LCALL     `??fillAndSend::?relay`; Banked call to: fillAndSend
   \   00000B   7402         MOV       A,#0x2
   \   00000D                REQUIRE ??Subroutine107_0
   \   00000D                ; // Fall through to label ??Subroutine107_0

   \                                 In  segment BANKED_CODE, align 1, keep-with-next
   1269          afStatus_t ZDP_MgmtNwkDiscReq( zAddrType_t *dstAddr,
   \                     ZDP_MgmtNwkDiscReq:
   1270                                         uint32 ScanChannels,
   1271                                         byte ScanDuration,
   1272                                         byte StartIndex,
   1273                                         byte SecurityEnable )
   1274          {
   \   000000                REQUIRE ?V0
   \   000000                REQUIRE ?V1
   \   000000                REQUIRE ?V2
   \   000000                REQUIRE ?V3
   \   000000   74F4         MOV       A,#-0xc
   \   000002   12....       LCALL     ?BANKED_ENTER_XDATA
   \   000005                ; Saved register size: 12
   \   000005                ; Auto size: 0
   \   000005   EA           MOV       A,R2
   \   000006   FE           MOV       R6,A
   \   000007   EB           MOV       A,R3
   \   000008   FF           MOV       R7,A
   \   000009   89..         MOV       ?V0,R1
   \   00000B   8C..         MOV       ?V1,R4
   1275            uint8 *pBuf = ZDP_TmpBuf;
   1276            byte len = sizeof( uint32 )+1+1;  // ScanChannels + ScanDuration + StartIndex.
   1277          
   1278            (void)SecurityEnable;  // Intentionally unreferenced parameter
   1279          
   1280            pBuf = osal_buffer_uint32( pBuf, ScanChannels );
   \   00000D                ; Setup parameters for call to function osal_buffer_uint32
   \   00000D   740C         MOV       A,#0xc
   \   00000F   12....       LCALL     ?XSTACK_DISP0_8
   \   000012   12....       LCALL     ?PUSH_XSTACK8_X_FOUR
   \   000015   12....       LCALL     ??Subroutine123_0 & 0xFFFF
   \                     ??CrossCallReturnLabel_230:
   \   000018   12....       LCALL     `??osal_buffer_uint32::?relay`; Banked call to: osal_buffer_uint32
   \   00001B   7404         MOV       A,#0x4
   \   00001D   12....       LCALL     ?DEALLOC_XSTACK8
   \   000020   8A82         MOV       DPL,R2
   \   000022   8B83         MOV       DPH,R3
   1281          
   1282            *pBuf++ = ScanDuration;
   \   000024   E5..         MOV       A,?V0
   \   000026   F0           MOVX      @DPTR,A
   1283            *pBuf = StartIndex;
   \   000027   A3           INC       DPTR
   \   000028   E5..         MOV       A,?V1
   \   00002A   F0           MOVX      @DPTR,A
   1284          
   1285            return fillAndSend( &ZDP_TransID, dstAddr, Mgmt_NWK_Disc_req, len );
   \   00002B                ; Setup parameters for call to function fillAndSend
   \   00002B   75..30       MOV       ?V2,#0x30
   \   00002E   75..00       MOV       ?V3,#0x0
   \   000031   78..         MOV       R0,#?V2
   \   000033   12....       LCALL     ?PUSH_XSTACK_I_TWO
   \   000036   7906         MOV       R1,#0x6
   \   000038   02....       LJMP      ??Subroutine106_0 & 0xFFFF
   1286          }
   1287          
   1288          /*********************************************************************
   1289           * @fn          ZDP_MgmtDirectJoinReq
   1290           *
   1291           * @brief       This builds and send a Mgmt_Direct_Join_req message. This
   1292           *              function sends a unicast message.
   1293           *
   1294           * @param       dstAddr - destination address of the message
   1295           * @param       deviceAddr - 64 bit IEEE Address
   1296           * @param       SecurityEnable - Security Options
   1297           *
   1298           * @return      afStatus_t
   1299           */

   \                                 In  segment BANKED_CODE, align 1, keep-with-next
   \                     ?Subroutine1:
   \   000000   75..00       MOV       ?V3,#0x0
   \   000003   78..         MOV       R0,#?V2
   \   000005   12....       LCALL     ?PUSH_XSTACK_I_TWO
   \   000008   7909         MOV       R1,#0x9
   \   00000A                REQUIRE ??Subroutine106_0
   \   00000A                ; // Fall through to label ??Subroutine106_0

   \                                 In  segment BANKED_CODE, align 1, keep-with-next
   \                     ?Subroutine54:
   \   000000   EA           MOV       A,R2
   \   000001   FE           MOV       R6,A
   \   000002   EB           MOV       A,R3
   \   000003   FF           MOV       R7,A
   \   000004   89..         MOV       ?V0,R1
   \   000006                ; Setup parameters for call to function sAddrExtCpy
   \   000006                ; Setup parameters for call to function sAddrExtCpy
   \   000006                REQUIRE ??Subroutine123_0
   \   000006                ; // Fall through to label ??Subroutine123_0

   \                                 In  segment BANKED_CODE, align 1, keep-with-next
   1300          afStatus_t ZDP_MgmtDirectJoinReq( zAddrType_t *dstAddr,
   \                     ZDP_MgmtDirectJoinReq:
   1301                                         uint8 *deviceAddr,
   1302                                         byte capInfo,
   1303                                         byte SecurityEnable )
   1304          {
   \   000000                REQUIRE ?V0
   \   000000                REQUIRE ?V2
   \   000000                REQUIRE ?V3
   \   000000   74F4         MOV       A,#-0xc
   \   000002   12....       LCALL     ?BANKED_ENTER_XDATA
   \   000005                ; Saved register size: 12
   \   000005                ; Auto size: 0
   \   000005   12....       LCALL     ?Subroutine54 & 0xFFFF
   1305            (void)SecurityEnable;  // Intentionally unreferenced parameter
   1306          
   1307            osal_cpyExtAddr( ZDP_TmpBuf, deviceAddr );
   \                     ??CrossCallReturnLabel_224:
   \   000008   12....       LCALL     `??sAddrExtCpy::?relay`; Banked call to: sAddrExtCpy
   1308            ZDP_TmpBuf[Z_EXTADDR_LEN] = capInfo;
   \   00000B   12....       LCALL     ?Subroutine41 & 0xFFFF
   \                     ??CrossCallReturnLabel_56:
   \   00000E   E5..         MOV       A,?V0
   \   000010   F0           MOVX      @DPTR,A
   1309          
   1310            return fillAndSend( &ZDP_TransID, dstAddr, Mgmt_Direct_Join_req, (Z_EXTADDR_LEN + 1) );
   \   000011                ; Setup parameters for call to function fillAndSend
   \   000011   75..35       MOV       ?V2,#0x35
   \   000014   02....       LJMP      ?Subroutine1 & 0xFFFF
   1311          }

   \                                 In  segment BANKED_CODE, align 1, keep-with-next
   \                     ?Subroutine41:
   \   000000   12....       LCALL     ?Subroutine105 & 0xFFFF
   \                     ??CrossCallReturnLabel_301:
   \   000003   C8           XCH       A,R0
   \   000004   2408         ADD       A,#0x8
   \   000006   F582         MOV       DPL,A
   \   000008   E4           CLR       A
   \   000009   38           ADDC      A,R0
   \   00000A   F583         MOV       DPH,A
   \   00000C   22           RET
   1312          
   1313          /*********************************************************************
   1314           * @fn          ZDP_MgmtPermitJoinReq
   1315           *
   1316           * @brief       This builds and send a Mgmt_Permit_Join_req message.
   1317           *
   1318           * @param       dstAddr - destination address of the message
   1319           * @param       duration - Permit duration
   1320           * @param       TcSignificance - Trust Center Significance
   1321           *
   1322           * @return      afStatus_t
   1323           */

   \                                 In  segment BANKED_CODE, align 1, keep-with-next
   1324          afStatus_t ZDP_MgmtPermitJoinReq( zAddrType_t *dstAddr, byte duration,
   \                     ZDP_MgmtPermitJoinReq:
   1325                                            byte TcSignificance, byte SecurityEnable )
   1326          {
   \   000000                REQUIRE ?V0
   \   000000                REQUIRE ?V1
   \   000000                REQUIRE ?V2
   \   000000                REQUIRE ?V3
   \   000000   74F4         MOV       A,#-0xc
   \   000002   12....       LCALL     ?BANKED_ENTER_XDATA
   \   000005                ; Saved register size: 12
   \   000005                ; Auto size: 9
   \   000005   74F7         MOV       A,#-0x9
   \   000007   12....       LCALL     ?ALLOC_XSTACK8
   \   00000A   EA           MOV       A,R2
   \   00000B   FE           MOV       R6,A
   \   00000C   EB           MOV       A,R3
   \   00000D   FF           MOV       R7,A
   1327            (void)SecurityEnable;  // Intentionally unreferenced parameter
   1328          
   1329            // Build buffer
   1330            ZDP_TmpBuf[ZDP_MGMT_PERMIT_JOIN_REQ_DURATION] = duration;
   \   00000E   12....       LCALL     ?Subroutine46 & 0xFFFF
   \                     ??CrossCallReturnLabel_222:
   \   000011   E9           MOV       A,R1
   \   000012   12....       LCALL     ?Subroutine23 & 0xFFFF
   1331            ZDP_TmpBuf[ZDP_MGMT_PERMIT_JOIN_REQ_TC_SIG]   = TcSignificance;
   \                     ??CrossCallReturnLabel_26:
   \   000015   EC           MOV       A,R4
   \   000016   F0           MOVX      @DPTR,A
   1332          
   1333            // Check of this is a broadcast message
   1334            if ( (dstAddr) && ((dstAddr->addrMode == Addr16Bit) || (dstAddr->addrMode == AddrBroadcast))
   1335                && ((dstAddr->addr.shortAddr == NWK_BROADCAST_SHORTADDR_DEVALL)
   1336                    || (dstAddr->addr.shortAddr == NWK_BROADCAST_SHORTADDR_DEVZCZR)
   1337                    || (dstAddr->addr.shortAddr == NWK_BROADCAST_SHORTADDR_DEVRXON)) )
   \   000017   EE           MOV       A,R6
   \   000018   4F           ORL       A,R7
   \   000019   607E         JZ        ??ZDP_MgmtPermitJoinReq_0
   \   00001B   8E82         MOV       DPL,R6
   \   00001D   8F83         MOV       DPH,R7
   \   00001F   A3           INC       DPTR
   \   000020   A3           INC       DPTR
   \   000021   A3           INC       DPTR
   \   000022   A3           INC       DPTR
   \   000023   A3           INC       DPTR
   \   000024   A3           INC       DPTR
   \   000025   A3           INC       DPTR
   \   000026   A3           INC       DPTR
   \   000027   E0           MOVX      A,@DPTR
   \   000028   6402         XRL       A,#0x2
   \   00002A   6011         JZ        ??ZDP_MgmtPermitJoinReq_1
   \   00002C   8E82         MOV       DPL,R6
   \   00002E   8F83         MOV       DPH,R7
   \   000030   A3           INC       DPTR
   \   000031   A3           INC       DPTR
   \   000032   A3           INC       DPTR
   \   000033   A3           INC       DPTR
   \   000034   A3           INC       DPTR
   \   000035   A3           INC       DPTR
   \   000036   A3           INC       DPTR
   \   000037   A3           INC       DPTR
   \   000038   E0           MOVX      A,@DPTR
   \   000039   640F         XRL       A,#0xf
   \   00003B   705C         JNZ       ??ZDP_MgmtPermitJoinReq_0
   \                     ??ZDP_MgmtPermitJoinReq_1:
   \   00003D   8E82         MOV       DPL,R6
   \   00003F   8F83         MOV       DPH,R7
   \   000041   E0           MOVX      A,@DPTR
   \   000042   F4           CPL       A
   \   000043   7003         JNZ       ??ZDP_MgmtPermitJoinReq_2
   \   000045   A3           INC       DPTR
   \   000046   E0           MOVX      A,@DPTR
   \   000047   F4           CPL       A
   \                     ??ZDP_MgmtPermitJoinReq_2:
   \   000048   601C         JZ        ??ZDP_MgmtPermitJoinReq_3
   \   00004A   8E82         MOV       DPL,R6
   \   00004C   8F83         MOV       DPH,R7
   \   00004E   E0           MOVX      A,@DPTR
   \   00004F   64FC         XRL       A,#0xfc
   \   000051   7003         JNZ       ??ZDP_MgmtPermitJoinReq_4
   \   000053   A3           INC       DPTR
   \   000054   E0           MOVX      A,@DPTR
   \   000055   F4           CPL       A
   \                     ??ZDP_MgmtPermitJoinReq_4:
   \   000056   600E         JZ        ??ZDP_MgmtPermitJoinReq_3
   \   000058   8E82         MOV       DPL,R6
   \   00005A   8F83         MOV       DPH,R7
   \   00005C   E0           MOVX      A,@DPTR
   \   00005D   64FD         XRL       A,#0xfd
   \   00005F   7003         JNZ       ??ZDP_MgmtPermitJoinReq_5
   \   000061   A3           INC       DPTR
   \   000062   E0           MOVX      A,@DPTR
   \   000063   F4           CPL       A
   \                     ??ZDP_MgmtPermitJoinReq_5:
   \   000064   7033         JNZ       ??ZDP_MgmtPermitJoinReq_0
   1338            {
   1339              // Send this to our self as well as broadcast to network
   1340              zAddrType_t tmpAddr;
   1341          
   1342              tmpAddr.addrMode = Addr16Bit;
   \                     ??ZDP_MgmtPermitJoinReq_3:
   \   000066   7408         MOV       A,#0x8
   \   000068   12....       LCALL     ?XSTACK_DISP0_8
   \   00006B   7402         MOV       A,#0x2
   \   00006D   F0           MOVX      @DPTR,A
   1343              tmpAddr.addr.shortAddr = NLME_GetShortAddr();
   \   00006E                ; Setup parameters for call to function NLME_GetShortAddr
   \   00006E   12....       LCALL     `??NLME_GetShortAddr::?relay`; Banked call to: NLME_GetShortAddr
   \   000071   85..82       MOV       DPL,?XSP + 0
   \   000074   85..83       MOV       DPH,?XSP + 1
   \   000077   EA           MOV       A,R2
   \   000078   F0           MOVX      @DPTR,A
   \   000079   A3           INC       DPTR
   \   00007A   EB           MOV       A,R3
   \   00007B   F0           MOVX      @DPTR,A
   1344          
   1345              fillAndSend( &ZDP_TransID, &tmpAddr, Mgmt_Permit_Join_req,
   1346                                ZDP_MGMT_PERMIT_JOIN_REQ_SIZE );
   \   00007C                ; Setup parameters for call to function fillAndSend
   \   00007C   75..36       MOV       ?V2,#0x36
   \   00007F   75..00       MOV       ?V3,#0x0
   \   000082   78..         MOV       R0,#?V2
   \   000084   12....       LCALL     ?PUSH_XSTACK_I_TWO
   \   000087   7902         MOV       R1,#0x2
   \   000089   E9           MOV       A,R1
   \   00008A   12....       LCALL     ?XSTACK_DISP102_8
   \   00008D   7A..         MOV       R2,#ZDP_TransID & 0xff
   \   00008F   7B..         MOV       R3,#(ZDP_TransID >> 8) & 0xff
   \   000091   12....       LCALL     `??fillAndSend::?relay`; Banked call to: fillAndSend
   \   000094   7402         MOV       A,#0x2
   \   000096   12....       LCALL     ?DEALLOC_XSTACK8
   1347            }
   1348          
   1349            // Send the message
   1350            return fillAndSend( &ZDP_TransID, dstAddr, Mgmt_Permit_Join_req,
   1351                                ZDP_MGMT_PERMIT_JOIN_REQ_SIZE );
   \                     ??ZDP_MgmtPermitJoinReq_0:
   \   000099                ; Setup parameters for call to function fillAndSend
   \   000099   75..36       MOV       ?V2,#0x36
   \   00009C   75..00       MOV       ?V3,#0x0
   \   00009F   78..         MOV       R0,#?V2
   \   0000A1   12....       LCALL     ?PUSH_XSTACK_I_TWO
   \   0000A4   7902         MOV       R1,#0x2
   \   0000A6   EE           MOV       A,R6
   \   0000A7   FC           MOV       R4,A
   \   0000A8   EF           MOV       A,R7
   \   0000A9   FD           MOV       R5,A
   \   0000AA   02....       LJMP      ?Subroutine9 & 0xFFFF
   1352          }
   1353          
   1354          /*********************************************************************
   1355           * @fn          ZDP_MgmtLeaveReq
   1356           *
   1357           * @brief       This builds and send a Mgmt_Leave_req message.
   1358           *
   1359           * @param       dstAddr - destination address of the message
   1360           *              IEEEAddr - IEEE adddress of device that is removed
   1361           *              RemoveChildren - set to 1 to remove the children of the
   1362           *                                device as well. 0 otherwise.
   1363           *              Rejoin - set to 1 if the removed device should rejoin
   1364                                   afterwards. 0 otherwise.
   1365           *
   1366           * @return      afStatus_t
   1367           */

   \                                 In  segment BANKED_CODE, align 1, keep-with-next
   1368          afStatus_t ZDP_MgmtLeaveReq( zAddrType_t *dstAddr, uint8 *IEEEAddr, uint8 RemoveChildren,
   \                     ZDP_MgmtLeaveReq:
   1369                           uint8 Rejoin, uint8 SecurityEnable )
   1370          
   1371          {
   \   000000                REQUIRE ?V0
   \   000000                REQUIRE ?V2
   \   000000                REQUIRE ?V3
   \   000000   74F4         MOV       A,#-0xc
   \   000002   12....       LCALL     ?BANKED_ENTER_XDATA
   \   000005                ; Saved register size: 12
   \   000005                ; Auto size: 0
   \   000005   12....       LCALL     ?Subroutine54 & 0xFFFF
   1372            (void)SecurityEnable;  // Intentionally unreferenced parameter
   1373          
   1374            osal_cpyExtAddr( ZDP_TmpBuf, IEEEAddr );
   \                     ??CrossCallReturnLabel_225:
   \   000008   12....       LCALL     `??sAddrExtCpy::?relay`; Banked call to: sAddrExtCpy
   1375            ZDP_TmpBuf[Z_EXTADDR_LEN] = 0;
   \   00000B   12....       LCALL     ?Subroutine41 & 0xFFFF
   \                     ??CrossCallReturnLabel_57:
   \   00000E   E4           CLR       A
   \   00000F   F0           MOVX      @DPTR,A
   1376          
   1377            if ( RemoveChildren == TRUE )
   \   000010   04           INC       A
   \   000011   65..         XRL       A,?V0
   \   000013   7006         JNZ       ??ZDP_MgmtLeaveReq_0
   1378            {
   1379              ZDP_TmpBuf[Z_EXTADDR_LEN] |= ZDP_MGMT_LEAVE_REQ_RC;
   \   000015   12....       LCALL     ?Subroutine41 & 0xFFFF
   1380            }
   \                     ??CrossCallReturnLabel_58:
   \   000018   7440         MOV       A,#0x40
   \   00001A   F0           MOVX      @DPTR,A
   1381            if ( Rejoin == TRUE )
   \                     ??ZDP_MgmtLeaveReq_0:
   \   00001B   740C         MOV       A,#0xc
   \   00001D   12....       LCALL     ?XSTACK_DISP0_8
   \   000020   E0           MOVX      A,@DPTR
   \   000021   6401         XRL       A,#0x1
   \   000023   7007         JNZ       ??ZDP_MgmtLeaveReq_1
   1382            {
   1383              ZDP_TmpBuf[Z_EXTADDR_LEN] |= ZDP_MGMT_LEAVE_REQ_REJOIN;
   \   000025   12....       LCALL     ?Subroutine41 & 0xFFFF
   1384            }
   \                     ??CrossCallReturnLabel_59:
   \   000028   E0           MOVX      A,@DPTR
   \   000029   D2E7         SETB      0xE0 /* A   */.7
   \   00002B   F0           MOVX      @DPTR,A
   1385          
   1386            return fillAndSend( &ZDP_TransID, dstAddr, Mgmt_Leave_req, (Z_EXTADDR_LEN + 1) );
   \                     ??ZDP_MgmtLeaveReq_1:
   \   00002C                ; Setup parameters for call to function fillAndSend
   \   00002C   75..34       MOV       ?V2,#0x34
   \   00002F   02....       LJMP      ?Subroutine1 & 0xFFFF
   1387          }
   1388          
   1389          /*********************************************************************
   1390           * @fn          ZDP_MgmtNwkUpdateReq
   1391           *
   1392           * @brief       This builds and send a Mgmt_NWK_Update_req message. This
   1393           *              function sends a unicast or broadcast message.
   1394           *
   1395           * @param       dstAddr - destination address of the message
   1396           * @param       ChannelMask - 32 bit address bit map
   1397           * @param       ScanDuration - length of time to spend scanning each channel
   1398           * @param       ScanCount - number of energy scans to be conducted
   1399           * @param       NwkUpdateId - NWk Update Id value
   1400           * @param       NwkManagerAddr - NWK address for device with Network Manager
   1401           *                               bit set in its Node Descriptor
   1402           *
   1403           * @return      afStatus_t
   1404           */

   \                                 In  segment BANKED_CODE, align 1, keep-with-next
   1405          afStatus_t ZDP_MgmtNwkUpdateReq( zAddrType_t *dstAddr,
   \                     ZDP_MgmtNwkUpdateReq:
   1406                                           uint32 ChannelMask,
   1407                                           uint8 ScanDuration,
   1408                                           uint8 ScanCount,
   1409                                           uint8 NwkUpdateId,
   1410                                           uint16 NwkManagerAddr )
   1411          {
   \   000000                REQUIRE ?V0
   \   000000                REQUIRE ?V1
   \   000000                REQUIRE ?V2
   \   000000                REQUIRE ?V3
   \   000000                REQUIRE ?V4
   \   000000                REQUIRE ?V5
   \   000000   74F2         MOV       A,#-0xe
   \   000002   12....       LCALL     ?BANKED_ENTER_XDATA
   \   000005                ; Saved register size: 14
   \   000005                ; Auto size: 0
   \   000005   8A..         MOV       ?V0,R2
   \   000007   8B..         MOV       ?V1,R3
   \   000009   E9           MOV       A,R1
   \   00000A   FF           MOV       R7,A
   \   00000B   8C..         MOV       ?V2,R4
   \   00000D   8D..         MOV       ?V3,R5
   1412            uint8 *pBuf = ZDP_TmpBuf;
   1413            byte len = sizeof( uint32 ) + 1;  // ChannelMask + ScanDuration
   \   00000F   7E05         MOV       R6,#0x5
   1414          
   1415            pBuf = osal_buffer_uint32( pBuf, ChannelMask );
   \   000011                ; Setup parameters for call to function osal_buffer_uint32
   \   000011   740E         MOV       A,#0xe
   \   000013   12....       LCALL     ?XSTACK_DISP0_8
   \   000016   12....       LCALL     ?PUSH_XSTACK8_X_FOUR
   \   000019   12....       LCALL     ??Subroutine123_0 & 0xFFFF
   \                     ??CrossCallReturnLabel_231:
   \   00001C   12....       LCALL     `??osal_buffer_uint32::?relay`; Banked call to: osal_buffer_uint32
   \   00001F   7404         MOV       A,#0x4
   \   000021   12....       LCALL     ?DEALLOC_XSTACK8
   1416          
   1417            *pBuf++ = ScanDuration;
   \   000024   EF           MOV       A,R7
   \   000025   8A82         MOV       DPL,R2
   \   000027   8B83         MOV       DPH,R3
   \   000029   F0           MOVX      @DPTR,A
   1418          
   1419            if ( ScanDuration <= 0x05 )
   \   00002A   C3           CLR       C
   \   00002B   9406         SUBB      A,#0x6
   \   00002D   500D         JNC       ??ZDP_MgmtNwkUpdateReq_0
   1420            {
   1421              // Request is to scan over channelMask
   1422              len += sizeof( uint8 );
   \   00002F   7E06         MOV       R6,#0x6
   1423          
   1424              *pBuf++ = ScanCount;
   \   000031   A3           INC       DPTR
   \   000032   E5..         MOV       A,?V2
   \   000034   F0           MOVX      @DPTR,A
   \   000035   EA           MOV       A,R2
   \   000036   2402         ADD       A,#0x2
   \   000038   5024         JNC       ??ZDP_MgmtNwkUpdateReq_1
   \   00003A   8022         SJMP      ??ZDP_MgmtNwkUpdateReq_1
   1425            }
   1426            else if ( ( ScanDuration == 0xFE ) || ( ScanDuration == 0xFF ) )
   \                     ??ZDP_MgmtNwkUpdateReq_0:
   \   00003C   74FE         MOV       A,#-0x2
   \   00003E   6F           XRL       A,R7
   \   00003F   6005         JZ        ??ZDP_MgmtNwkUpdateReq_2
   \   000041   74FF         MOV       A,#-0x1
   \   000043   6F           XRL       A,R7
   \   000044   7018         JNZ       ??ZDP_MgmtNwkUpdateReq_1
   1427            {
   1428              // Request is to change Channel (0xFE) or apsChannelMask and NwkManagerAddr (0xFF)
   1429              len += sizeof( uint8 );
   \                     ??ZDP_MgmtNwkUpdateReq_2:
   \   000046   7E06         MOV       R6,#0x6
   1430          
   1431              *pBuf++ = NwkUpdateId;
   \   000048   A3           INC       DPTR
   \   000049   E5..         MOV       A,?V3
   \   00004B   F0           MOVX      @DPTR,A
   1432          
   1433              if ( ScanDuration == 0xFF )
   \   00004C   74FF         MOV       A,#-0x1
   \   00004E   6F           XRL       A,R7
   \   00004F   700D         JNZ       ??ZDP_MgmtNwkUpdateReq_1
   1434              {
   1435                len += sizeof( uint16 );
   \   000051   7E08         MOV       R6,#0x8
   \   000053   7412         MOV       A,#0x12
   \   000055   12....       LCALL     ?XSTACK_DISP0_8
   \   000058   12....       LCALL     ?Subroutine31 & 0xFFFF
   1436          
   1437                *pBuf++  = LO_UINT16( NwkManagerAddr );
   1438                *pBuf++  = HI_UINT16( NwkManagerAddr );
   1439              }
   1440            }
   \                     ??CrossCallReturnLabel_40:
   \   00005B   EA           MOV       A,R2
   \   00005C   2404         ADD       A,#0x4
   1441          
   1442            return fillAndSend( &ZDP_TransID, dstAddr, Mgmt_NWK_Update_req, len );
   \                     ??ZDP_MgmtNwkUpdateReq_1:
   \   00005E                ; Setup parameters for call to function fillAndSend
   \   00005E   75..38       MOV       ?V4,#0x38
   \   000061   75..00       MOV       ?V5,#0x0
   \   000064   78..         MOV       R0,#?V4
   \   000066   12....       LCALL     ?PUSH_XSTACK_I_TWO
   \   000069   EE           MOV       A,R6
   \   00006A   F9           MOV       R1,A
   \   00006B   AC..         MOV       R4,?V0
   \   00006D   AD..         MOV       R5,?V1
   \   00006F   7A..         MOV       R2,#ZDP_TransID & 0xff
   \   000071   7B..         MOV       R3,#(ZDP_TransID >> 8) & 0xff
   \   000073   12....       LCALL     `??fillAndSend::?relay`; Banked call to: fillAndSend
   \   000076   7402         MOV       A,#0x2
   \   000078   02....       LJMP      ?Subroutine0 & 0xFFFF
   1443          }

   \                                 In  segment BANKED_CODE, align 1, keep-with-next
   \                     ?Subroutine31:
   \   000000   12....       LCALL     ?Subroutine80 & 0xFFFF
   \                     ??CrossCallReturnLabel_137:
   \   000003   A3           INC       DPTR
   \   000004   12....       LCALL     ?Subroutine94 & 0xFFFF
   \                     ??CrossCallReturnLabel_162:
   \   000007   A3           INC       DPTR
   \   000008   F0           MOVX      @DPTR,A
   \   000009   22           RET
   1444          
   1445          
   1446          /*********************************************************************
   1447           * Network Management Responses
   1448           */
   1449          
   1450          /*********************************************************************
   1451           * @fn          ZDP_MgmtNwkDiscRsp
   1452           *
   1453           * @brief       This builds and send a Mgmt_NWK_Disc_rsp message. This
   1454           *              function sends a unicast message.
   1455           *
   1456           * @param       dstAddr - destination address of the message
   1457           * @param       Status - message status (ZDP_SUCCESS or other)
   1458           * @param       NetworkCount - Total number of networks found
   1459           * @param       StartIndex - Starting index within the reporting network
   1460           *                           list
   1461           * @param       NetworkListCount - number of network lists included
   1462           *                                 in this message
   1463           * @param       NetworkList - List of network descriptors
   1464           * @param       SecurityEnable - Security Options
   1465           *
   1466           * @return      afStatus_t
   1467           */

   \                                 In  segment BANKED_CODE, align 1, keep-with-next
   1468          afStatus_t ZDP_MgmtNwkDiscRsp( byte TransSeq, zAddrType_t *dstAddr,
   \                     ZDP_MgmtNwkDiscRsp:
   1469                                      byte Status,
   1470                                      byte NetworkCount,
   1471                                      byte StartIndex,
   1472                                      byte NetworkListCount,
   1473                                      networkDesc_t *NetworkList,
   1474                                      byte SecurityEnable )
   1475          {
   \   000000                REQUIRE ?V0
   \   000000                REQUIRE ?V1
   \   000000                REQUIRE ?V2
   \   000000                REQUIRE ?V3
   \   000000                REQUIRE ?V4
   \   000000                REQUIRE ?V5
   \   000000                REQUIRE ?V6
   \   000000                REQUIRE ?V7
   \   000000                REQUIRE ?V8
   \   000000                REQUIRE ?V10
   \   000000                REQUIRE ?V11
   \   000000   74EC         MOV       A,#-0x14
   \   000002   12....       LCALL     ?BANKED_ENTER_XDATA
   \   000005                ; Saved register size: 20
   \   000005                ; Auto size: 1
   \   000005   74FF         MOV       A,#-0x1
   \   000007   12....       LCALL     ?ALLOC_XSTACK8
   \   00000A   E9           MOV       A,R1
   \   00000B   85..82       MOV       DPL,?XSP + 0
   \   00000E   85..83       MOV       DPH,?XSP + 1
   \   000011   F0           MOVX      @DPTR,A
   \   000012   8A..         MOV       ?V10,R2
   \   000014   8B..         MOV       ?V11,R3
   \   000016   8C..         MOV       ?V8,R4
   \   000018   8D..         MOV       ?V6,R5
   \   00001A   7416         MOV       A,#0x16
   \   00001C   12....       LCALL     ?XSTACK_DISP0_8
   \   00001F   E0           MOVX      A,@DPTR
   \   000020   F5..         MOV       ?V4,A
   1476            uint8 *buf;
   1477            uint8 *pBuf;
   1478            byte len = 1+1+1+1;  // Status + NetworkCount + StartIndex + NetworkCountList.
   1479            byte idx;
   1480          
   1481            (void)SecurityEnable;  // Intentionally unreferenced parameter
   1482          
   1483            len += (NetworkListCount * ( ZDP_NETWORK_EXTENDED_DISCRIPTOR_SIZE - 2 ));
   \   000022   75F00C       MOV       B,#0xc
   \   000025   A4           MUL       AB
   \   000026   2404         ADD       A,#0x4
   \   000028   F5..         MOV       ?V5,A
   1484          
   1485            buf = osal_mem_alloc( len+1 );
   \   00002A                ; Setup parameters for call to function osal_mem_alloc
   \   00002A   12....       LCALL     ?Subroutine67 & 0xFFFF
   \                     ??CrossCallReturnLabel_108:
   \   00002D   12....       LCALL     `??osal_mem_alloc::?relay`; Banked call to: osal_mem_alloc
   \   000030   8A..         MOV       ?V0,R2
   \   000032   8B..         MOV       ?V1,R3
   1486            if ( buf == NULL )
   \   000034   EA           MOV       A,R2
   \   000035   45..         ORL       A,?V1
   \   000037   7005         JNZ       ??ZDP_MgmtNwkDiscRsp_0
   1487            {
   1488              return afStatus_MEM_FAIL;
   \   000039   7910         MOV       R1,#0x10
   \   00003B   02....       LJMP      ??CrossCallReturnLabel_35 & 0xFFFF
   1489            }
   1490          
   1491            pBuf = buf+1;
   \                     ??ZDP_MgmtNwkDiscRsp_0:
   \   00003E   8A82         MOV       DPL,R2
   \   000040   8B83         MOV       DPH,R3
   \   000042   A3           INC       DPTR
   \   000043   AE82         MOV       R6,DPL
   \   000045   AF83         MOV       R7,DPH
   1492          
   1493            *pBuf++ = Status;
   \   000047   E5..         MOV       A,?V8
   \   000049   F0           MOVX      @DPTR,A
   1494            *pBuf++ = NetworkCount;
   \   00004A   A3           INC       DPTR
   \   00004B   E5..         MOV       A,?V6
   \   00004D   F0           MOVX      @DPTR,A
   1495            *pBuf++ = StartIndex;
   \   00004E   7415         MOV       A,#0x15
   \   000050   12....       LCALL     ?XSTACK_DISP0_8
   \   000053   12....       LCALL     ?Subroutine36 & 0xFFFF
   1496            *pBuf++ = NetworkListCount;
   \                     ??CrossCallReturnLabel_49:
   \   000056   E5..         MOV       A,?V4
   \   000058   F0           MOVX      @DPTR,A
   \   000059   EE           MOV       A,R6
   \   00005A   2404         ADD       A,#0x4
   \   00005C   FE           MOV       R6,A
   \   00005D   5001         JNC       ??ZDP_MgmtNwkDiscRsp_1
   \   00005F   0F           INC       R7
   1497          
   1498            for ( idx = 0; idx < NetworkListCount; idx++ )
   \                     ??ZDP_MgmtNwkDiscRsp_1:
   \   000060   75..00       MOV       ?V7,#0x0
   \   000063   7417         MOV       A,#0x17
   \   000065   12....       LCALL     ?XSTACK_DISP0_8
   \   000068   12....       LCALL     ??Subroutine115_0 & 0xFFFF
   \                     ??CrossCallReturnLabel_193:
   \   00006B   801C         SJMP      ??ZDP_MgmtNwkDiscRsp_2
   1499            {
   1500              osal_cpyExtAddr( pBuf, NetworkList->extendedPANID);
   1501              pBuf += Z_EXTADDR_LEN;
   1502          
   1503              *pBuf++  = NetworkList->logicalChannel;                // LogicalChannel
   1504              *pBuf    = NetworkList->stackProfile;                  // Stack profile
   1505              *pBuf++ |= (byte)(NetworkList->version << 4);          // ZigBee Version
   1506              *pBuf    = BEACON_ORDER_NO_BEACONS;                    // Beacon Order
   1507              *pBuf++ |= (uint8)(BEACON_ORDER_NO_BEACONS << 4);      // Superframe Order
   1508          
   1509              if ( NetworkList->chosenRouter != INVALID_NODE_ADDR )
   1510              {
   1511                *pBuf++ = TRUE;                         // Permit Joining
   1512              }
   1513              else
   1514              {
   1515                *pBuf++ = FALSE;
   \                     ??ZDP_MgmtNwkDiscRsp_3:
   \   00006D   12....       LCALL     ?Subroutine71 & 0xFFFF
   1516              }
   \                     ??CrossCallReturnLabel_120:
   \   000070   E4           CLR       A
   \   000071   F0           MOVX      @DPTR,A
   \   000072   EE           MOV       A,R6
   \   000073   240C         ADD       A,#0xc
   \   000075   FE           MOV       R6,A
   \   000076   5001         JNC       ??ZDP_MgmtNwkDiscRsp_4
   \   000078   0F           INC       R7
   1517          
   1518              NetworkList = NetworkList->nextDesc;    // Move to next list entry
   \                     ??ZDP_MgmtNwkDiscRsp_4:
   \   000079   E5..         MOV       A,?V2
   \   00007B   2414         ADD       A,#0x14
   \   00007D   F582         MOV       DPL,A
   \   00007F   E4           CLR       A
   \   000080   35..         ADDC      A,?V3
   \   000082   F583         MOV       DPH,A
   \   000084   12....       LCALL     ??Subroutine115_0 & 0xFFFF
   \                     ??CrossCallReturnLabel_194:
   \   000087   05..         INC       ?V7
   \                     ??ZDP_MgmtNwkDiscRsp_2:
   \   000089   E5..         MOV       A,?V7
   \   00008B   C3           CLR       C
   \   00008C   95..         SUBB      A,?V4
   \   00008E   5063         JNC       ??ZDP_MgmtNwkDiscRsp_5
   \   000090                ; Setup parameters for call to function sAddrExtCpy
   \   000090   E5..         MOV       A,?V2
   \   000092   240B         ADD       A,#0xb
   \   000094   FC           MOV       R4,A
   \   000095   E4           CLR       A
   \   000096   35..         ADDC      A,?V3
   \   000098   FD           MOV       R5,A
   \   000099   EE           MOV       A,R6
   \   00009A   FA           MOV       R2,A
   \   00009B   EF           MOV       A,R7
   \   00009C   FB           MOV       R3,A
   \   00009D   12....       LCALL     `??sAddrExtCpy::?relay`; Banked call to: sAddrExtCpy
   \   0000A0   85..82       MOV       DPL,?V2
   \   0000A3   85..83       MOV       DPH,?V3
   \   0000A6   A3           INC       DPTR
   \   0000A7   A3           INC       DPTR
   \   0000A8   12....       LCALL     ?Subroutine59 & 0xFFFF
   \                     ??CrossCallReturnLabel_94:
   \   0000AB   A3           INC       DPTR
   \   0000AC   A3           INC       DPTR
   \   0000AD   A3           INC       DPTR
   \   0000AE   A3           INC       DPTR
   \   0000AF   12....       LCALL     ?Subroutine40 & 0xFFFF
   \                     ??CrossCallReturnLabel_54:
   \   0000B2   85..82       MOV       DPL,?V2
   \   0000B5   85..83       MOV       DPH,?V3
   \   0000B8   A3           INC       DPTR
   \   0000B9   A3           INC       DPTR
   \   0000BA   A3           INC       DPTR
   \   0000BB   A3           INC       DPTR
   \   0000BC   A3           INC       DPTR
   \   0000BD   12....       LCALL     ?Subroutine63 & 0xFFFF
   \                     ??CrossCallReturnLabel_247:
   \   0000C0   12....       LCALL     ?Subroutine27 & 0xFFFF
   \                     ??CrossCallReturnLabel_33:
   \   0000C3   E0           MOVX      A,@DPTR
   \   0000C4   C4           SWAP      A
   \   0000C5   54F0         ANL       A,#0xf0
   \   0000C7   FA           MOV       R2,A
   \   0000C8   8882         MOV       DPL,R0
   \   0000CA   8983         MOV       DPH,R1
   \   0000CC   E0           MOVX      A,@DPTR
   \   0000CD   4A           ORL       A,R2
   \   0000CE   12....       LCALL     ?Subroutine22 & 0xFFFF
   \                     ??CrossCallReturnLabel_24:
   \   0000D1   A3           INC       DPTR
   \   0000D2   A3           INC       DPTR
   \   0000D3   74FF         MOV       A,#-0x1
   \   0000D5   12....       LCALL     ?Subroutine27 & 0xFFFF
   \                     ??CrossCallReturnLabel_34:
   \   0000D8   A3           INC       DPTR
   \   0000D9   A3           INC       DPTR
   \   0000DA   E0           MOVX      A,@DPTR
   \   0000DB   64FE         XRL       A,#0xfe
   \   0000DD   7003         JNZ       ??ZDP_MgmtNwkDiscRsp_6
   \   0000DF   A3           INC       DPTR
   \   0000E0   E0           MOVX      A,@DPTR
   \   0000E1   F4           CPL       A
   \                     ??ZDP_MgmtNwkDiscRsp_6:
   \   0000E2   6089         JZ        ??ZDP_MgmtNwkDiscRsp_3
   \   0000E4   12....       LCALL     ?Subroutine71 & 0xFFFF
   1519            }
   \                     ??CrossCallReturnLabel_121:
   \   0000E7   7401         MOV       A,#0x1
   \   0000E9   F0           MOVX      @DPTR,A
   \   0000EA   EE           MOV       A,R6
   \   0000EB   240C         ADD       A,#0xc
   \   0000ED   FE           MOV       R6,A
   \   0000EE   5089         JNC       ??ZDP_MgmtNwkDiscRsp_4
   \   0000F0   0F           INC       R7
   \                     ??ZDP_MgmtNwkDiscRsp_7:
   \   0000F1   8086         SJMP      ??ZDP_MgmtNwkDiscRsp_4
   1520          
   1521            FillAndSendBuffer( &TransSeq, dstAddr, Mgmt_NWK_Disc_rsp, len, buf );
   \                     ??ZDP_MgmtNwkDiscRsp_5:
   \   0000F3   85..82       MOV       DPL,?V0
   \   0000F6   85..83       MOV       DPH,?V1
   \   0000F9   12....       LCALL     ??Subroutine126_0 & 0xFFFF
   \                     ??CrossCallReturnLabel_239:
   \   0000FC                ; Setup parameters for call to function fillAndSend
   \   0000FC   75..30       MOV       ?V2,#0x30
   \   0000FF   75..80       MOV       ?V3,#-0x80
   \   000102   78..         MOV       R0,#?V2
   \   000104   12....       LCALL     ?PUSH_XSTACK_I_TWO
   \   000107   A9..         MOV       R1,?V5
   \   000109   AC..         MOV       R4,?V10
   \   00010B   AD..         MOV       R5,?V11
   \   00010D   7402         MOV       A,#0x2
   \   00010F   12....       LCALL     ?XSTACK_DISP101_8
   \   000112   12....       LCALL     `??fillAndSend::?relay`; Banked call to: fillAndSend
   \   000115   7402         MOV       A,#0x2
   \   000117   12....       LCALL     ?DEALLOC_XSTACK8
   \   00011A   E9           MOV       A,R1
   \   00011B   FE           MOV       R6,A
   \   00011C                ; Setup parameters for call to function osal_mem_free
   \   00011C   AA..         MOV       R2,?V0
   \   00011E   AB..         MOV       R3,?V1
   \   000120   12....       LCALL     `??osal_mem_free::?relay`; Banked call to: osal_mem_free
   \   000123   12....       LCALL     ?Subroutine28 & 0xFFFF
   \                     ??CrossCallReturnLabel_35:
   \   000126                REQUIRE ?Subroutine4
   \   000126                ; // Fall through to label ?Subroutine4
   1522          }

   \                                 In  segment BANKED_CODE, align 1, keep-with-next
   \                     ?Subroutine4:
   \   000000   7401         MOV       A,#0x1
   \   000002   12....       LCALL     ?DEALLOC_XSTACK8
   \   000005                REQUIRE ??Subroutine125_0
   \   000005                ; // Fall through to label ??Subroutine125_0

   \                                 In  segment BANKED_CODE, align 1, keep-with-next
   \                     ?Subroutine27:
   \   000000   12....       LCALL     ?Subroutine93 & 0xFFFF
   \                     ??CrossCallReturnLabel_160:
   \   000003   A3           INC       DPTR
   \   000004   A3           INC       DPTR
   \   000005   A3           INC       DPTR
   \   000006   A3           INC       DPTR
   \   000007   22           RET

   \                                 In  segment BANKED_CODE, align 1, keep-with-next
   \                     ??Subroutine126_0:
   \   000000   A3           INC       DPTR
   \   000001   A882         MOV       R0,DPL
   \   000003   A983         MOV       R1,DPH
   \   000005   90....       MOV       DPTR,#ZDP_TmpBuf
   \   000008                REQUIRE ??Subroutine127_0
   \   000008                ; // Fall through to label ??Subroutine127_0

   \                                 In  segment BANKED_CODE, align 1, keep-with-next
   \                     ?Subroutine28:
   \   000000   90....       MOV       DPTR,#ZDP_TmpBuf
   \   000003   74..         MOV       A,#(ZDP_Buf + 1) & 0xff
   \   000005   F0           MOVX      @DPTR,A
   \   000006   A3           INC       DPTR
   \   000007   74..         MOV       A,#((ZDP_Buf + 1) >> 8) & 0xff
   \   000009   F0           MOVX      @DPTR,A
   \   00000A   EE           MOV       A,R6
   \   00000B   F9           MOV       R1,A
   \   00000C   22           RET

   \                                 In  segment BANKED_CODE, align 1, keep-with-next
   \                     ?Subroutine67:
   \   000000   2401         ADD       A,#0x1
   \   000002   FA           MOV       R2,A
   \   000003   E4           CLR       A
   \   000004   3400         ADDC      A,#0x0
   \   000006   FB           MOV       R3,A
   \   000007   22           RET

   \                                 In  segment BANKED_CODE, align 1, keep-with-next
   \                     ?Subroutine63:
   \   000000   A3           INC       DPTR
   \   000001                REQUIRE ??Subroutine128_0
   \   000001                ; // Fall through to label ??Subroutine128_0

   \                                 In  segment BANKED_CODE, align 1, keep-with-next
   \                     ?Subroutine40:
   \   000000   F0           MOVX      @DPTR,A
   \   000001   EE           MOV       A,R6
   \   000002   2409         ADD       A,#0x9
   \   000004   F8           MOV       R0,A
   \   000005   E4           CLR       A
   \   000006   3F           ADDC      A,R7
   \   000007   F9           MOV       R1,A
   \   000008   22           RET
   1523          
   1524          /*********************************************************************
   1525           * @fn          ZDP_MgmtLqiRsp
   1526           *
   1527           * @brief       This builds and send a Mgmt_Lqi_rsp message. This
   1528           *              function sends a unicast message.
   1529           *
   1530           * @param       dstAddr - destination address of the message
   1531           * @param       Status - message status (ZDP_SUCCESS or other)
   1532           * @param       NeighborLqiEntries - Total number of entries found
   1533           * @param       StartIndex - Starting index within the reporting list
   1534           * @param       NeighborLqiCount - number of lists included
   1535           *                                 in this message
   1536           * @param       NeighborLqiList - List of NeighborLqiItems.  This list
   1537           *                is the list to be sent, not the entire list
   1538           * @param       SecurityEnable - true if secure
   1539           *
   1540           * @return      ZStatus_t
   1541           */

   \                                 In  segment BANKED_CODE, align 1, keep-with-next
   \                     ?Subroutine18:
   \   000000   85..82       MOV       DPL,?V2
   \   000003   85..83       MOV       DPH,?V3
   \   000006                REQUIRE ??Subroutine126_0
   \   000006                ; // Fall through to label ??Subroutine126_0

   \                                 In  segment BANKED_CODE, align 1, keep-with-next
   1542          ZStatus_t ZDP_MgmtLqiRsp( byte TransSeq, zAddrType_t *dstAddr,
   \                     ZDP_MgmtLqiRsp:
   1543                                    byte Status,
   1544                                    byte NeighborLqiEntries,
   1545                                    byte StartIndex,
   1546                                    byte NeighborLqiCount,
   1547                                    ZDP_MgmtLqiItem_t* NeighborList,
   1548                                    byte SecurityEnable )
   1549          {
   \   000000                REQUIRE ?V0
   \   000000                REQUIRE ?V1
   \   000000                REQUIRE ?V2
   \   000000                REQUIRE ?V3
   \   000000                REQUIRE ?V4
   \   000000                REQUIRE ?V5
   \   000000                REQUIRE ?V6
   \   000000                REQUIRE ?V7
   \   000000                REQUIRE ?V8
   \   000000                REQUIRE ?V9
   \   000000                REQUIRE ?V10
   \   000000   74ED         MOV       A,#-0x13
   \   000002   12....       LCALL     ?BANKED_ENTER_XDATA
   \   000005                ; Saved register size: 19
   \   000005                ; Auto size: 1
   \   000005   74FF         MOV       A,#-0x1
   \   000007   12....       LCALL     ?ALLOC_XSTACK8
   \   00000A   E9           MOV       A,R1
   \   00000B   85..82       MOV       DPL,?XSP + 0
   \   00000E   85..83       MOV       DPH,?XSP + 1
   \   000011   F0           MOVX      @DPTR,A
   \   000012   8A..         MOV       ?V8,R2
   \   000014   8B..         MOV       ?V9,R3
   \   000016   8D..         MOV       ?V10,R5
   1550            ZDP_MgmtLqiItem_t* list = NeighborList;
   \   000018   7416         MOV       A,#0x16
   \   00001A   12....       LCALL     ?XSTACK_DISP0_8
   \   00001D   12....       LCALL     ?Subroutine55 & 0xFFFF
   1551            uint8 *buf, *pBuf;
   1552            byte len, x;
   1553          
   1554            (void)SecurityEnable;  // Intentionally unreferenced parameter
   1555          
   1556            if ( ZSuccess != Status )
   \                     ??CrossCallReturnLabel_86:
   \   000020   EC           MOV       A,R4
   \   000021   6026         JZ        ??ZDP_MgmtLqiRsp_0
   1557            {
   1558              ZDP_TmpBuf[0] = Status;
   \   000023   12....       LCALL     ?Subroutine46 & 0xFFFF
   \                     ??CrossCallReturnLabel_223:
   \   000026   EC           MOV       A,R4
   \   000027   F0           MOVX      @DPTR,A
   1559              return fillAndSend( &TransSeq, dstAddr, Mgmt_Lqi_rsp, 1 );
   \   000028                ; Setup parameters for call to function fillAndSend
   \   000028   75..31       MOV       ?V0,#0x31
   \   00002B   75..80       MOV       ?V1,#-0x80
   \   00002E   78..         MOV       R0,#?V0
   \   000030   12....       LCALL     ?PUSH_XSTACK_I_TWO
   \   000033   7901         MOV       R1,#0x1
   \   000035   AC..         MOV       R4,?V8
   \   000037   AD..         MOV       R5,?V9
   \   000039   7402         MOV       A,#0x2
   \   00003B   12....       LCALL     ?XSTACK_DISP101_8
   \   00003E   12....       LCALL     `??fillAndSend::?relay`; Banked call to: fillAndSend
   \   000041   7402         MOV       A,#0x2
   \   000043   12....       LCALL     ?DEALLOC_XSTACK8
   \   000046   02....       LJMP      ??CrossCallReturnLabel_36 & 0xFFFF
   1560            }
   \                     ??ZDP_MgmtLqiRsp_0:
   \   000049   7415         MOV       A,#0x15
   \   00004B   12....       LCALL     ?XSTACK_DISP0_8
   \   00004E   E0           MOVX      A,@DPTR
   \   00004F   F5..         MOV       ?V5,A
   1561          
   1562            // (Status + NeighborLqiEntries + StartIndex + NeighborLqiCount) +
   1563            //  neighbor LQI data.
   1564            len = (1 + 1 + 1 + 1) + (NeighborLqiCount * ZDP_MGMTLQI_EXTENDED_SIZE);
   \   000051   75F016       MOV       B,#0x16
   \   000054   A4           MUL       AB
   \   000055   2404         ADD       A,#0x4
   \   000057   F5..         MOV       ?V6,A
   1565          
   1566            buf = osal_mem_alloc( len+1 );
   \   000059                ; Setup parameters for call to function osal_mem_alloc
   \   000059   12....       LCALL     ?Subroutine67 & 0xFFFF
   \                     ??CrossCallReturnLabel_109:
   \   00005C   12....       LCALL     `??osal_mem_alloc::?relay`; Banked call to: osal_mem_alloc
   \   00005F   8A..         MOV       ?V2,R2
   \   000061   8B..         MOV       ?V3,R3
   1567            if ( buf == NULL )
   \   000063   EA           MOV       A,R2
   \   000064   45..         ORL       A,?V3
   \   000066   7005         JNZ       ??ZDP_MgmtLqiRsp_1
   1568            {
   1569              return afStatus_MEM_FAIL;
   \   000068   7910         MOV       R1,#0x10
   \   00006A   02....       LJMP      ??CrossCallReturnLabel_36 & 0xFFFF
   1570            }
   1571          
   1572            pBuf = buf+1;
   \                     ??ZDP_MgmtLqiRsp_1:
   \   00006D   8A82         MOV       DPL,R2
   \   00006F   8B83         MOV       DPH,R3
   \   000071   A3           INC       DPTR
   \   000072   8582..       MOV       ?V0,DPL
   \   000075   8583..       MOV       ?V1,DPH
   1573          
   1574            *pBuf++ = Status;
   \   000078   E4           CLR       A
   \   000079   F0           MOVX      @DPTR,A
   1575            *pBuf++ = NeighborLqiEntries;
   \   00007A   A3           INC       DPTR
   \   00007B   E5..         MOV       A,?V10
   \   00007D   F0           MOVX      @DPTR,A
   1576            *pBuf++ = StartIndex;
   \   00007E   7414         MOV       A,#0x14
   \   000080   12....       LCALL     ?XSTACK_DISP0_8
   \   000083   E0           MOVX      A,@DPTR
   \   000084   85..82       MOV       DPL,?V0
   \   000087   85..83       MOV       DPH,?V1
   \   00008A   A3           INC       DPTR
   \   00008B   12....       LCALL     ?Subroutine35 & 0xFFFF
   1577            *pBuf++ = NeighborLqiCount;
   \                     ??CrossCallReturnLabel_47:
   \   00008E   A3           INC       DPTR
   \   00008F   E5..         MOV       A,?V5
   \   000091   F0           MOVX      @DPTR,A
   \   000092   E5..         MOV       A,?V0
   \   000094   2404         ADD       A,#0x4
   \   000096   F5..         MOV       ?V0,A
   \   000098   5002         JNC       ??ZDP_MgmtLqiRsp_2
   \   00009A   05..         INC       ?V1
   1578          
   1579            for ( x = 0; x < NeighborLqiCount; x++ )
   \                     ??ZDP_MgmtLqiRsp_2:
   \   00009C   75..00       MOV       ?V4,#0x0
   \   00009F   02....       LJMP      ??ZDP_MgmtLqiRsp_3 & 0xFFFF
   1580            {
   1581              osal_cpyExtAddr( pBuf, list->extPanID);         // Extended PanID
   \                     ??ZDP_MgmtLqiRsp_4:
   \   0000A2                ; Setup parameters for call to function sAddrExtCpy
   \   0000A2   EE           MOV       A,R6
   \   0000A3   2402         ADD       A,#0x2
   \   0000A5   FC           MOV       R4,A
   \   0000A6   E4           CLR       A
   \   0000A7   3F           ADDC      A,R7
   \   0000A8   FD           MOV       R5,A
   \   0000A9   AA..         MOV       R2,?V0
   \   0000AB   AB..         MOV       R3,?V1
   \   0000AD   12....       LCALL     `??sAddrExtCpy::?relay`; Banked call to: sAddrExtCpy
   1582              pBuf += Z_EXTADDR_LEN;
   1583          
   1584              // EXTADDR
   1585              pBuf = osal_cpyExtAddr( pBuf, list->extAddr );
   \   0000B0                ; Setup parameters for call to function sAddrExtCpy
   \   0000B0   EE           MOV       A,R6
   \   0000B1   240A         ADD       A,#0xa
   \   0000B3   FC           MOV       R4,A
   \   0000B4   E4           CLR       A
   \   0000B5   3F           ADDC      A,R7
   \   0000B6   FD           MOV       R5,A
   \   0000B7   E5..         MOV       A,?V0
   \   0000B9   2408         ADD       A,#0x8
   \   0000BB   FA           MOV       R2,A
   \   0000BC   E4           CLR       A
   \   0000BD   35..         ADDC      A,?V1
   \   0000BF   FB           MOV       R3,A
   \   0000C0   12....       LCALL     `??sAddrExtCpy::?relay`; Banked call to: sAddrExtCpy
   1586          
   1587              // NWKADDR
   1588              *pBuf++ = LO_UINT16( list->nwkAddr );
   \   0000C3   EE           MOV       A,R6
   \   0000C4   2412         ADD       A,#0x12
   \   0000C6   12....       LCALL     ?Subroutine16 & 0xFFFF
   1589              *pBuf++ = HI_UINT16( list->nwkAddr );
   1590          
   1591              // DEVICETYPE
   1592              *pBuf = list->devType;
   \                     ??CrossCallReturnLabel_12:
   \   0000C9   F8           MOV       R0,A
   \   0000CA   E4           CLR       A
   \   0000CB   3B           ADDC      A,R3
   \   0000CC   F9           MOV       R1,A
   \   0000CD   EE           MOV       A,R6
   \   0000CE   2414         ADD       A,#0x14
   \   0000D0   F582         MOV       DPL,A
   \   0000D2   E4           CLR       A
   \   0000D3   3F           ADDC      A,R7
   \   0000D4   12....       LCALL     ?Subroutine62 & 0xFFFF
   1593          
   1594              // RXONIDLE
   1595              *pBuf |= (uint8)(list->rxOnIdle << 2);
   \                     ??CrossCallReturnLabel_214:
   \   0000D7   EE           MOV       A,R6
   \   0000D8   2415         ADD       A,#0x15
   \   0000DA   12....       LCALL     ??Subroutine134_0 & 0xFFFF
   \                     ??CrossCallReturnLabel_269:
   \   0000DD   33           RLC       A
   \   0000DE   33           RLC       A
   \   0000DF   54FC         ANL       A,#0xfc
   \   0000E1   FC           MOV       R4,A
   \   0000E2   8882         MOV       DPL,R0
   \   0000E4   8983         MOV       DPH,R1
   \   0000E6   E0           MOVX      A,@DPTR
   \   0000E7   4C           ORL       A,R4
   \   0000E8   F0           MOVX      @DPTR,A
   1596          
   1597              // RELATIONSHIP
   1598              *pBuf++ |= (uint8)(list->relation << 4);
   \   0000E9   EE           MOV       A,R6
   \   0000EA   2416         ADD       A,#0x16
   \   0000EC   12....       LCALL     ??Subroutine134_0 & 0xFFFF
   \                     ??CrossCallReturnLabel_270:
   \   0000EF   C4           SWAP      A
   \   0000F0   54F0         ANL       A,#0xf0
   \   0000F2   FC           MOV       R4,A
   \   0000F3   8882         MOV       DPL,R0
   \   0000F5   8983         MOV       DPH,R1
   \   0000F7   E0           MOVX      A,@DPTR
   \   0000F8   4C           ORL       A,R4
   \   0000F9   F0           MOVX      @DPTR,A
   1599          
   1600              // PERMITJOINING
   1601              *pBuf++ = (uint8)(list->permit);
   \   0000FA   EE           MOV       A,R6
   \   0000FB   2417         ADD       A,#0x17
   \   0000FD   F582         MOV       DPL,A
   \   0000FF   E4           CLR       A
   \   000100   3F           ADDC      A,R7
   \   000101   F583         MOV       DPH,A
   \   000103   12....       LCALL     ?Subroutine65 & 0xFFFF
   \                     ??CrossCallReturnLabel_101:
   \   000106   A3           INC       DPTR
   \   000107   A3           INC       DPTR
   \   000108   F0           MOVX      @DPTR,A
   1602          
   1603              // DEPTH
   1604              *pBuf++ = list->depth;
   \   000109   EE           MOV       A,R6
   \   00010A   2418         ADD       A,#0x18
   \   00010C   12....       LCALL     ?Subroutine58 & 0xFFFF
   \                     ??CrossCallReturnLabel_91:
   \   00010F   F0           MOVX      @DPTR,A
   1605          
   1606              // LQI
   1607              *pBuf++ = list->lqi;
   \   000110   EE           MOV       A,R6
   \   000111   2419         ADD       A,#0x19
   \   000113   12....       LCALL     ?Subroutine58 & 0xFFFF
   \                     ??CrossCallReturnLabel_92:
   \   000116   A3           INC       DPTR
   \   000117   F0           MOVX      @DPTR,A
   \   000118   EA           MOV       A,R2
   \   000119   2406         ADD       A,#0x6
   \   00011B   F5..         MOV       ?V0,A
   \   00011D   E4           CLR       A
   \   00011E   3B           ADDC      A,R3
   \   00011F   F5..         MOV       ?V1,A
   1608          
   1609              list++; // next list entry
   \   000121   EE           MOV       A,R6
   \   000122   241A         ADD       A,#0x1a
   \   000124   FE           MOV       R6,A
   \   000125   5001         JNC       ??ZDP_MgmtLqiRsp_5
   \   000127   0F           INC       R7
   1610            }
   \                     ??ZDP_MgmtLqiRsp_5:
   \   000128   05..         INC       ?V4
   \                     ??ZDP_MgmtLqiRsp_3:
   \   00012A   E5..         MOV       A,?V4
   \   00012C   C3           CLR       C
   \   00012D   95..         SUBB      A,?V5
   \   00012F   5003         JNC       $+5
   \   000131   02....       LJMP      ??ZDP_MgmtLqiRsp_4 & 0xFFFF
   1611          
   1612            FillAndSendBuffer( &TransSeq, dstAddr, Mgmt_Lqi_rsp, len, buf );
   \   000134   12....       LCALL     ?Subroutine18 & 0xFFFF
   \                     ??CrossCallReturnLabel_242:
   \   000137                ; Setup parameters for call to function fillAndSend
   \   000137   75..31       MOV       ?V0,#0x31
   \   00013A   75..80       MOV       ?V1,#-0x80
   \   00013D   78..         MOV       R0,#?V0
   \   00013F   12....       LCALL     ?PUSH_XSTACK_I_TWO
   \   000142   A9..         MOV       R1,?V6
   \   000144   AC..         MOV       R4,?V8
   \   000146   AD..         MOV       R5,?V9
   \   000148   7402         MOV       A,#0x2
   \   00014A   12....       LCALL     ?XSTACK_DISP101_8
   \   00014D   12....       LCALL     `??fillAndSend::?relay`; Banked call to: fillAndSend
   \   000150   7402         MOV       A,#0x2
   \   000152   12....       LCALL     ?DEALLOC_XSTACK8
   \   000155   E9           MOV       A,R1
   \   000156   FE           MOV       R6,A
   \   000157                ; Setup parameters for call to function osal_mem_free
   \   000157   AA..         MOV       R2,?V2
   \   000159   AB..         MOV       R3,?V3
   \   00015B   12....       LCALL     `??osal_mem_free::?relay`; Banked call to: osal_mem_free
   \   00015E   12....       LCALL     ?Subroutine28 & 0xFFFF
   \                     ??CrossCallReturnLabel_36:
   \   000161   7401         MOV       A,#0x1
   \   000163   12....       LCALL     ?DEALLOC_XSTACK8
   \   000166   7F0B         MOV       R7,#0xb
   \   000168   02....       LJMP      ?BANKED_LEAVE_XDATA
   1613          }

   \                                 In  segment BANKED_CODE, align 1, keep-with-next
   \                     ?Subroutine58:
   \   000000   F582         MOV       DPL,A
   \   000002   E4           CLR       A
   \   000003   3F           ADDC      A,R7
   \   000004   F583         MOV       DPH,A
   \   000006   12....       LCALL     ?Subroutine87 & 0xFFFF
   \                     ??CrossCallReturnLabel_149:
   \   000009   A3           INC       DPTR
   \   00000A   22           RET

   \                                 In  segment BANKED_CODE, align 1, keep-with-next
   \                     ?Subroutine16:
   \   000000   F8           MOV       R0,A
   \   000001   E4           CLR       A
   \   000002   3F           ADDC      A,R7
   \   000003   F9           MOV       R1,A
   \   000004   8882         MOV       DPL,R0
   \   000006   8983         MOV       DPH,R1
   \   000008   12....       LCALL     ?Subroutine101 & 0xFFFF
   \                     ??CrossCallReturnLabel_175:
   \   00000B   12....       LCALL     ?Subroutine91 & 0xFFFF
   \                     ??CrossCallReturnLabel_264:
   \   00000E   12....       LCALL     ?Subroutine88 & 0xFFFF
   \                     ??CrossCallReturnLabel_150:
   \   000011   F0           MOVX      @DPTR,A
   \   000012   EA           MOV       A,R2
   \   000013   2402         ADD       A,#0x2
   \   000015   22           RET

   \                                 In  segment BANKED_CODE, align 1, keep-with-next
   \                     ??Subroutine134_0:
   \   000000   F582         MOV       DPL,A
   \   000002   E4           CLR       A
   \   000003   3F           ADDC      A,R7
   \   000004   F583         MOV       DPH,A
   \   000006   E0           MOVX      A,@DPTR
   \   000007   22           RET
   1614          
   1615          /*********************************************************************
   1616           * @fn          ZDP_MgmtRtgRsp
   1617           *
   1618           * @brief       This builds and send a Mgmt_Rtg_rsp message. This
   1619           *              function sends a unicast message.
   1620           *
   1621           * @param       dstAddr - destination address of the message
   1622           * @param       Status - message status (ZDP_SUCCESS or other)
   1623           * @param       RoutingTableEntries - Total number of entries
   1624           * @param       StartIndex - Starting index within the reporting list
   1625           * @param       RoutingTableListCount - number of entries included
   1626           *                                      in this message
   1627           * @param       RoutingTableList - List of Routing Table entries
   1628           * @param       SecurityEnable - true to enable security for this message
   1629           *
   1630           * @return      ZStatus_t
   1631           */

   \                                 In  segment BANKED_CODE, align 1, keep-with-next
   1632          ZStatus_t ZDP_MgmtRtgRsp( byte TransSeq, zAddrType_t *dstAddr,
   \                     ZDP_MgmtRtgRsp:
   1633                                      byte Status,
   1634                                      byte RoutingTableEntries,
   1635                                      byte StartIndex,
   1636                                      byte RoutingListCount,
   1637                                      rtgItem_t *RoutingTableList,
   1638                                      byte SecurityEnable )
   1639          {
   \   000000                REQUIRE ?V0
   \   000000                REQUIRE ?V1
   \   000000                REQUIRE ?V2
   \   000000                REQUIRE ?V3
   \   000000                REQUIRE ?V4
   \   000000                REQUIRE ?V5
   \   000000                REQUIRE ?V6
   \   000000                REQUIRE ?V7
   \   000000                REQUIRE ?V8
   \   000000                REQUIRE ?V9
   \   000000   74EE         MOV       A,#-0x12
   \   000002   12....       LCALL     ?BANKED_ENTER_XDATA
   \   000005                ; Saved register size: 18
   \   000005                ; Auto size: 1
   \   000005   74FF         MOV       A,#-0x1
   \   000007   12....       LCALL     ?ALLOC_XSTACK8
   \   00000A   E9           MOV       A,R1
   \   00000B   85..82       MOV       DPL,?XSP + 0
   \   00000E   85..83       MOV       DPH,?XSP + 1
   \   000011   F0           MOVX      @DPTR,A
   \   000012   8A..         MOV       ?V2,R2
   \   000014   8B..         MOV       ?V3,R3
   \   000016   8C..         MOV       ?V1,R4
   \   000018   8D..         MOV       ?V0,R5
   \   00001A   7414         MOV       A,#0x14
   \   00001C   12....       LCALL     ?XSTACK_DISP0_8
   \   00001F   E0           MOVX      A,@DPTR
   \   000020   F5..         MOV       ?V5,A
   1640            uint8 *buf;
   1641            uint8 *pBuf;
   1642            // Status + RoutingTableEntries + StartIndex + RoutingListCount.
   1643            byte len = 1 + 1 + 1 + 1;
   1644            byte x;
   1645          
   1646            (void)SecurityEnable;  // Intentionally unreferenced parameter
   1647          
   1648            // Add an array for Routing List data
   1649            len += (RoutingListCount * ZDP_ROUTINGENTRY_SIZE);
   \   000022   75F005       MOV       B,#0x5
   \   000025   A4           MUL       AB
   \   000026   2404         ADD       A,#0x4
   \   000028   F5..         MOV       ?V4,A
   1650          
   1651            buf = osal_mem_alloc( (short)(len+1) );
   \   00002A                ; Setup parameters for call to function osal_mem_alloc
   \   00002A   12....       LCALL     ?Subroutine67 & 0xFFFF
   \                     ??CrossCallReturnLabel_110:
   \   00002D   12....       LCALL     `??osal_mem_alloc::?relay`; Banked call to: osal_mem_alloc
   \   000030   8A..         MOV       ?V6,R2
   \   000032   8B..         MOV       ?V7,R3
   \   000034   AE..         MOV       R6,?V6
   \   000036   AF..         MOV       R7,?V7
   1652            if ( buf == NULL )
   \   000038   EE           MOV       A,R6
   \   000039   4F           ORL       A,R7
   \   00003A   7005         JNZ       ??ZDP_MgmtRtgRsp_0
   1653            {
   1654              return afStatus_MEM_FAIL;
   \   00003C   7910         MOV       R1,#0x10
   \   00003E   02....       LJMP      ??ZDP_MgmtRtgRsp_1 & 0xFFFF
   1655            }
   1656          
   1657            pBuf = buf+1;
   \                     ??ZDP_MgmtRtgRsp_0:
   \   000041   8E82         MOV       DPL,R6
   \   000043   8F83         MOV       DPH,R7
   \   000045   A3           INC       DPTR
   \   000046   A882         MOV       R0,DPL
   \   000048   A983         MOV       R1,DPH
   1658          
   1659            *pBuf++ = Status;
   \   00004A   E5..         MOV       A,?V1
   \   00004C   F0           MOVX      @DPTR,A
   1660            *pBuf++ = RoutingTableEntries;
   \   00004D   A3           INC       DPTR
   \   00004E   E5..         MOV       A,?V0
   \   000050   F0           MOVX      @DPTR,A
   1661            *pBuf++ = StartIndex;
   \   000051   7413         MOV       A,#0x13
   \   000053   12....       LCALL     ?XSTACK_DISP0_8
   \   000056   12....       LCALL     ??Subroutine128_0 & 0xFFFF
   \                     ??CrossCallReturnLabel_246:
   \   000059   12....       LCALL     ??Subroutine130_0 & 0xFFFF
   1662            *pBuf++ = RoutingListCount;
   \                     ??CrossCallReturnLabel_258:
   \   00005C   E5..         MOV       A,?V5
   \   00005E   F0           MOVX      @DPTR,A
   \   00005F   E8           MOV       A,R0
   \   000060   2404         ADD       A,#0x4
   \   000062   F8           MOV       R0,A
   \   000063   5001         JNC       ??ZDP_MgmtRtgRsp_2
   \   000065   09           INC       R1
   1663          
   1664            for ( x = 0; x < RoutingListCount; x++ )
   \                     ??ZDP_MgmtRtgRsp_2:
   \   000066   7C00         MOV       R4,#0x0
   \   000068   7415         MOV       A,#0x15
   \   00006A   12....       LCALL     ?XSTACK_DISP0_8
   \   00006D   12....       LCALL     ??Subroutine124_0 & 0xFFFF
   \                     ??CrossCallReturnLabel_226:
   \   000070   8079         SJMP      ??ZDP_MgmtRtgRsp_3
   1665            {
   1666              *pBuf++ = LO_UINT16( RoutingTableList->dstAddress );  // Destination Address
   \                     ??ZDP_MgmtRtgRsp_4:
   \   000072   8A82         MOV       DPL,R2
   \   000074   8B83         MOV       DPH,R3
   \   000076   12....       LCALL     ??Subroutine121_0 & 0xFFFF
   1667              *pBuf++ = HI_UINT16( RoutingTableList->dstAddress );
   \                     ??CrossCallReturnLabel_212:
   \   000079   8A82         MOV       DPL,R2
   \   00007B   8B83         MOV       DPH,R3
   \   00007D   12....       LCALL     ?Subroutine63 & 0xFFFF
   \                     ??CrossCallReturnLabel_248:
   \   000080   12....       LCALL     ?Subroutine32 & 0xFFFF
   1668          
   1669              *pBuf = (RoutingTableList->status & 0x07);
   \                     ??CrossCallReturnLabel_42:
   \   000083   E0           MOVX      A,@DPTR
   \   000084   5407         ANL       A,#0x7
   \   000086   8882         MOV       DPL,R0
   \   000088   8983         MOV       DPH,R1
   \   00008A   A3           INC       DPTR
   \   00008B   12....       LCALL     ?Subroutine32 & 0xFFFF
   1670              if ( RoutingTableList->options & (ZP_MTO_ROUTE_RC | ZP_MTO_ROUTE_NRC) )
   \                     ??CrossCallReturnLabel_43:
   \   00008E   A3           INC       DPTR
   \   00008F   E0           MOVX      A,@DPTR
   \   000090   5418         ANL       A,#0x18
   \   000092   602C         JZ        ??ZDP_MgmtRtgRsp_5
   1671              {
   1672                uint8 options = 0;
   1673                options |= ZDO_MGMT_RTG_ENTRY_MANYTOONE;
   \   000094   7D02         MOV       R5,#0x2
   1674          
   1675                if ( RoutingTableList->options & ZP_RTG_RECORD )
   \   000096   8A82         MOV       DPL,R2
   \   000098   8B83         MOV       DPH,R3
   \   00009A   A3           INC       DPTR
   \   00009B   A3           INC       DPTR
   \   00009C   A3           INC       DPTR
   \   00009D   A3           INC       DPTR
   \   00009E   A3           INC       DPTR
   \   00009F   A3           INC       DPTR
   \   0000A0   E0           MOVX      A,@DPTR
   \   0000A1   A2E2         MOV       C,0xE0 /* A   */.2
   \   0000A3   5002         JNC       ??ZDP_MgmtRtgRsp_6
   1676                {
   1677                  options |= ZDO_MGMT_RTG_ENTRY_ROUTE_RECORD_REQUIRED;
   \   0000A5   7D06         MOV       R5,#0x6
   1678                }
   1679          
   1680                if ( RoutingTableList->options & ZP_MTO_ROUTE_NRC )
   \                     ??ZDP_MgmtRtgRsp_6:
   \   0000A7   A2E4         MOV       C,0xE0 /* A   */.4
   \   0000A9   5005         JNC       ??ZDP_MgmtRtgRsp_7
   1681                {
   1682                  options |= ZDO_MGMT_RTG_ENTRY_MEMORY_CONSTRAINED;
   \   0000AB   D3           SETB      C
   \   0000AC   ED           MOV       A,R5
   \   0000AD   D2E0         SETB      0xE0 /* A   */.0
   \   0000AF   FD           MOV       R5,A
   1683                }
   1684          
   1685                *pBuf |= (options << 3);
   \                     ??ZDP_MgmtRtgRsp_7:
   \   0000B0   ED           MOV       A,R5
   \   0000B1   33           RLC       A
   \   0000B2   33           RLC       A
   \   0000B3   33           RLC       A
   \   0000B4   54F8         ANL       A,#0xf8
   \   0000B6   FD           MOV       R5,A
   \   0000B7   8882         MOV       DPL,R0
   \   0000B9   8983         MOV       DPH,R1
   \   0000BB   A3           INC       DPTR
   \   0000BC   A3           INC       DPTR
   \   0000BD   E0           MOVX      A,@DPTR
   \   0000BE   4D           ORL       A,R5
   \   0000BF   F0           MOVX      @DPTR,A
   1686              }
   1687              pBuf++;
   1688          
   1689              *pBuf++ = LO_UINT16( RoutingTableList->nextHopAddress );  // Next hop
   \                     ??ZDP_MgmtRtgRsp_5:
   \   0000C0   EA           MOV       A,R2
   \   0000C1   2402         ADD       A,#0x2
   \   0000C3   F5..         MOV       ?V6,A
   \   0000C5   E4           CLR       A
   \   0000C6   3B           ADDC      A,R3
   \   0000C7   F5..         MOV       ?V7,A
   \   0000C9   85..82       MOV       DPL,?V6
   \   0000CC   12....       LCALL     ?Subroutine61 & 0xFFFF
   \                     ??CrossCallReturnLabel_252:
   \   0000CF   A3           INC       DPTR
   \   0000D0   F0           MOVX      @DPTR,A
   1690              *pBuf++ = HI_UINT16( RoutingTableList->nextHopAddress );
   \   0000D1   85..82       MOV       DPL,?V6
   \   0000D4   85..83       MOV       DPH,?V7
   \   0000D7   A3           INC       DPTR
   \   0000D8   12....       LCALL     ?Subroutine60 & 0xFFFF
   \                     ??CrossCallReturnLabel_96:
   \   0000DB   F0           MOVX      @DPTR,A
   \   0000DC   E8           MOV       A,R0
   \   0000DD   2405         ADD       A,#0x5
   \   0000DF   F8           MOV       R0,A
   \   0000E0   5001         JNC       ??ZDP_MgmtRtgRsp_8
   \   0000E2   09           INC       R1
   1691              RoutingTableList++;    // Move to next list entry
   \                     ??ZDP_MgmtRtgRsp_8:
   \   0000E3   EA           MOV       A,R2
   \   0000E4   2407         ADD       A,#0x7
   \   0000E6   FA           MOV       R2,A
   \   0000E7   5001         JNC       ??ZDP_MgmtRtgRsp_9
   \   0000E9   0B           INC       R3
   1692            }
   \                     ??ZDP_MgmtRtgRsp_9:
   \   0000EA   0C           INC       R4
   \                     ??ZDP_MgmtRtgRsp_3:
   \   0000EB   EC           MOV       A,R4
   \   0000EC   C3           CLR       C
   \   0000ED   95..         SUBB      A,?V5
   \   0000EF   4081         JC        ??ZDP_MgmtRtgRsp_4
   1693          
   1694            FillAndSendBuffer( &TransSeq, dstAddr, Mgmt_Rtg_rsp, len, buf );
   \   0000F1   8E82         MOV       DPL,R6
   \   0000F3   8F83         MOV       DPH,R7
   \   0000F5   12....       LCALL     ??Subroutine126_0 & 0xFFFF
   \                     ??CrossCallReturnLabel_240:
   \   0000F8                ; Setup parameters for call to function fillAndSend
   \   0000F8   75..32       MOV       ?V6,#0x32
   \   0000FB   75..80       MOV       ?V7,#-0x80
   \   0000FE   78..         MOV       R0,#?V6
   \   000100   12....       LCALL     ?PUSH_XSTACK_I_TWO
   \   000103   A9..         MOV       R1,?V4
   \   000105   AC..         MOV       R4,?V2
   \   000107   AD..         MOV       R5,?V3
   \   000109   7402         MOV       A,#0x2
   \   00010B   12....       LCALL     ?XSTACK_DISP101_8
   \   00010E   12....       LCALL     `??fillAndSend::?relay`; Banked call to: fillAndSend
   \   000111   7402         MOV       A,#0x2
   \   000113   12....       LCALL     ?DEALLOC_XSTACK8
   \   000116   E9           MOV       A,R1
   \   000117   F5..         MOV       ?V2,A
   \   000119                ; Setup parameters for call to function osal_mem_free
   \   000119   EE           MOV       A,R6
   \   00011A   FA           MOV       R2,A
   \   00011B   EF           MOV       A,R7
   \   00011C   FB           MOV       R3,A
   \   00011D   12....       LCALL     `??osal_mem_free::?relay`; Banked call to: osal_mem_free
   \   000120   90....       MOV       DPTR,#ZDP_TmpBuf
   \   000123   74..         MOV       A,#(ZDP_Buf + 1) & 0xff
   \   000125   F0           MOVX      @DPTR,A
   \   000126   A3           INC       DPTR
   \   000127   74..         MOV       A,#((ZDP_Buf + 1) >> 8) & 0xff
   \   000129   F0           MOVX      @DPTR,A
   \   00012A   A9..         MOV       R1,?V2
   \                     ??ZDP_MgmtRtgRsp_1:
   \   00012C   02....       LJMP      ?Subroutine5 & 0xFFFF
   1695          }

   \                                 In  segment BANKED_CODE, align 1, keep-with-next
   \                     ?Subroutine32:
   \   000000   A3           INC       DPTR
   \   000001   F0           MOVX      @DPTR,A
   \   000002   8A82         MOV       DPL,R2
   \   000004   8B83         MOV       DPH,R3
   \   000006   A3           INC       DPTR
   \   000007   A3           INC       DPTR
   \   000008   A3           INC       DPTR
   \   000009   A3           INC       DPTR
   \   00000A   A3           INC       DPTR
   \   00000B   22           RET
   1696          
   1697          /*********************************************************************
   1698           * @fn          ZDP_MgmtBindRsp
   1699           *
   1700           * @brief       This builds and send a Mgmt_Bind_rsp message. This
   1701           *              function sends a unicast message.
   1702           *
   1703           * @param       dstAddr - destination address of the message
   1704           * @param       Status - message status (ZDP_SUCCESS or other)
   1705           * @param       BindingTableEntries - Total number of entries
   1706           * @param       StartIndex - Starting index within the reporting list
   1707           * @param       BindingTableListCount - number of entries included
   1708           *                                 in this message
   1709           * @param       BindingTableList - List of Binding Table entries
   1710           * @param       SecurityEnable - Security Options
   1711           *
   1712           * @return      ZStatus_t
   1713           */

   \                                 In  segment BANKED_CODE, align 1, keep-with-next
   1714          ZStatus_t ZDP_MgmtBindRsp( byte TransSeq, zAddrType_t *dstAddr,
   \                     ZDP_MgmtBindRsp:
   1715                                      byte Status,
   1716                                      byte BindingTableEntries,
   1717                                      byte StartIndex,
   1718                                      byte BindingTableListCount,
   1719                                      apsBindingItem_t *BindingTableList,
   1720                                      byte SecurityEnable )
   1721          {
   \   000000                REQUIRE ?V0
   \   000000                REQUIRE ?V1
   \   000000                REQUIRE ?V2
   \   000000                REQUIRE ?V3
   \   000000                REQUIRE ?V4
   \   000000                REQUIRE ?V5
   \   000000                REQUIRE ?V6
   \   000000                REQUIRE ?V8
   \   000000                REQUIRE ?V9
   \   000000                REQUIRE ?V10
   \   000000                REQUIRE ?V11
   \   000000   74EC         MOV       A,#-0x14
   \   000002   12....       LCALL     ?BANKED_ENTER_XDATA
   \   000005                ; Saved register size: 20
   \   000005                ; Auto size: 1
   \   000005   74FF         MOV       A,#-0x1
   \   000007   12....       LCALL     ?ALLOC_XSTACK8
   \   00000A   E9           MOV       A,R1
   \   00000B   85..82       MOV       DPL,?XSP + 0
   \   00000E   85..83       MOV       DPH,?XSP + 1
   \   000011   F0           MOVX      @DPTR,A
   \   000012   8A..         MOV       ?V10,R2
   \   000014   8B..         MOV       ?V11,R3
   \   000016   8C..         MOV       ?V6,R4
   \   000018   8D..         MOV       ?V5,R5
   \   00001A   7416         MOV       A,#0x16
   \   00001C   12....       LCALL     ?XSTACK_DISP0_8
   \   00001F   E0           MOVX      A,@DPTR
   \   000020   F5..         MOV       ?V4,A
   1722            uint8 *buf;
   1723            uint8 *pBuf;
   1724            uint8 maxLen; // maxLen is the maximum packet length to allocate enough memory space
   1725            uint8 len;    // Actual length varies due to different addrMode
   1726            uint8 x;
   1727            byte extZdpBindEntrySize = ZDP_BINDINGENTRY_SIZE + 1 + 1; // One more byte for cluserID and DstAddrMode
   1728            byte shortZdpBindEntrySize = ZDP_BINDINGENTRY_SIZE + 1 + 1 + 2 - 8 - 1; // clusterID + DstAddrMode + shortAddr - ExtAddr - DstEndpoint
   1729          
   1730            (void)SecurityEnable;  // Intentionally unreferenced parameter
   1731          
   1732            // Status + BindingTableEntries + StartIndex + BindingTableListCount.
   1733            maxLen = 1 + 1 + 1 + 1;
   1734            maxLen += (BindingTableListCount * extZdpBindEntrySize );  //max length
   1735            buf = osal_mem_alloc( maxLen + 1 );  // +1 for transaction ID
   \   000022                ; Setup parameters for call to function osal_mem_alloc
   \   000022   75F015       MOV       B,#0x15
   \   000025   A4           MUL       AB
   \   000026   2404         ADD       A,#0x4
   \   000028   12....       LCALL     ?Subroutine67 & 0xFFFF
   \                     ??CrossCallReturnLabel_111:
   \   00002B   12....       LCALL     `??osal_mem_alloc::?relay`; Banked call to: osal_mem_alloc
   \   00002E   8A..         MOV       ?V2,R2
   \   000030   8B..         MOV       ?V3,R3
   1736          
   1737            if ( buf == NULL )
   \   000032   EA           MOV       A,R2
   \   000033   45..         ORL       A,?V3
   \   000035   7005         JNZ       ??ZDP_MgmtBindRsp_0
   1738            {
   1739              return afStatus_MEM_FAIL;
   \   000037   7910         MOV       R1,#0x10
   \   000039   02....       LJMP      ??CrossCallReturnLabel_37 & 0xFFFF
   1740            }
   1741          
   1742            pBuf = buf+1;
   \                     ??ZDP_MgmtBindRsp_0:
   \   00003C   8A82         MOV       DPL,R2
   \   00003E   8B83         MOV       DPH,R3
   \   000040   A3           INC       DPTR
   \   000041   AA82         MOV       R2,DPL
   \   000043   AB83         MOV       R3,DPH
   1743          
   1744            *pBuf++ = Status;
   \   000045   E5..         MOV       A,?V6
   \   000047   F0           MOVX      @DPTR,A
   1745            *pBuf++ = BindingTableEntries;
   \   000048   A3           INC       DPTR
   \   000049   E5..         MOV       A,?V5
   \   00004B   F0           MOVX      @DPTR,A
   1746            *pBuf++ = StartIndex;
   \   00004C   7415         MOV       A,#0x15
   \   00004E   12....       LCALL     ?XSTACK_DISP0_8
   \   000051   12....       LCALL     ?Subroutine64 & 0xFFFF
   1747            *pBuf++ = BindingTableListCount;
   \                     ??CrossCallReturnLabel_97:
   \   000054   8A82         MOV       DPL,R2
   \   000056   8B83         MOV       DPH,R3
   \   000058   A3           INC       DPTR
   \   000059   A3           INC       DPTR
   \   00005A   A3           INC       DPTR
   \   00005B   E5..         MOV       A,?V4
   \   00005D   F0           MOVX      @DPTR,A
   \   00005E   EA           MOV       A,R2
   \   00005F   2404         ADD       A,#0x4
   \   000061   FA           MOV       R2,A
   \   000062   5001         JNC       ??ZDP_MgmtBindRsp_1
   \   000064   0B           INC       R3
   1748          
   1749            // Initial length = Status + BindingTableEntries + StartIndex + BindingTableListCount.
   1750            // length += ZDP_BINDINGENTRY_SIZE   -- Version 1.0
   1751            //           extZdpBindEntrySize     -- Version 1.1 extended address mode
   1752            //           shortZdpBindEntrySize   -- Version 1.1 group address mode
   1753          
   1754            len = 1 + 1 + 1 + 1;
   \                     ??ZDP_MgmtBindRsp_1:
   \   000065   75..04       MOV       ?V0,#0x4
   1755            for ( x = 0; x < BindingTableListCount; x++ )
   \   000068   75..00       MOV       ?V1,#0x0
   \   00006B   7417         MOV       A,#0x17
   \   00006D   12....       LCALL     ?XSTACK_DISP0_8
   \   000070   12....       LCALL     ?Subroutine55 & 0xFFFF
   \                     ??CrossCallReturnLabel_87:
   \   000073   8019         SJMP      ??ZDP_MgmtBindRsp_2
   1756            {
   1757              pBuf = osal_cpyExtAddr( pBuf, BindingTableList->srcAddr );
   1758              *pBuf++ = BindingTableList->srcEP;
   1759          
   1760              // Cluster ID
   1761              *pBuf++ = LO_UINT16( BindingTableList->clusterID );
   1762              *pBuf++ = HI_UINT16( BindingTableList->clusterID );
   1763          
   1764              *pBuf++ = BindingTableList->dstAddr.addrMode;
   1765              if ( BindingTableList->dstAddr.addrMode == Addr64Bit )
   1766              {
   1767                len += extZdpBindEntrySize;
   1768                pBuf = osal_cpyExtAddr( pBuf, BindingTableList->dstAddr.addr.extAddr );
   1769                *pBuf++ = BindingTableList->dstEP;
   1770              }
   1771              else
   1772              {
   1773                len += shortZdpBindEntrySize;
   \                     ??ZDP_MgmtBindRsp_3:
   \   000075   740E         MOV       A,#0xe
   \   000077   25..         ADD       A,?V0
   \   000079   F5..         MOV       ?V0,A
   1774                *pBuf++ = LO_UINT16( BindingTableList->dstAddr.addr.shortAddr );
   \   00007B   EE           MOV       A,R6
   \   00007C   240B         ADD       A,#0xb
   \   00007E   12....       LCALL     ?Subroutine16 & 0xFFFF
   1775                *pBuf++ = HI_UINT16( BindingTableList->dstAddr.addr.shortAddr );
   1776              }
   \                     ??CrossCallReturnLabel_13:
   \   000081   FA           MOV       R2,A
   \   000082   5001         JNC       ??ZDP_MgmtBindRsp_4
   \   000084   0B           INC       R3
   1777              BindingTableList++;    // Move to next list entry
   \                     ??ZDP_MgmtBindRsp_4:
   \   000085   EE           MOV       A,R6
   \   000086   2415         ADD       A,#0x15
   \   000088   FE           MOV       R6,A
   \   000089   5001         JNC       ??ZDP_MgmtBindRsp_5
   \   00008B   0F           INC       R7
   \                     ??ZDP_MgmtBindRsp_5:
   \   00008C   05..         INC       ?V1
   \                     ??ZDP_MgmtBindRsp_2:
   \   00008E   E5..         MOV       A,?V1
   \   000090   C3           CLR       C
   \   000091   95..         SUBB      A,?V4
   \   000093   505C         JNC       ??ZDP_MgmtBindRsp_6
   \   000095                ; Setup parameters for call to function sAddrExtCpy
   \   000095   EE           MOV       A,R6
   \   000096   FC           MOV       R4,A
   \   000097   EF           MOV       A,R7
   \   000098   FD           MOV       R5,A
   \   000099   12....       LCALL     `??sAddrExtCpy::?relay`; Banked call to: sAddrExtCpy
   \   00009C   8E82         MOV       DPL,R6
   \   00009E   8F83         MOV       DPH,R7
   \   0000A0   A3           INC       DPTR
   \   0000A1   A3           INC       DPTR
   \   0000A2   A3           INC       DPTR
   \   0000A3   A3           INC       DPTR
   \   0000A4   A3           INC       DPTR
   \   0000A5   A3           INC       DPTR
   \   0000A6   A3           INC       DPTR
   \   0000A7   A3           INC       DPTR
   \   0000A8   12....       LCALL     ?Subroutine66 & 0xFFFF
   \                     ??CrossCallReturnLabel_105:
   \   0000AB   12....       LCALL     ?Subroutine40 & 0xFFFF
   \                     ??CrossCallReturnLabel_55:
   \   0000AE   8882         MOV       DPL,R0
   \   0000B0   8983         MOV       DPH,R1
   \   0000B2   12....       LCALL     ?Subroutine66 & 0xFFFF
   \                     ??CrossCallReturnLabel_106:
   \   0000B5   12....       LCALL     ?Subroutine38 & 0xFFFF
   \                     ??CrossCallReturnLabel_198:
   \   0000B8   12....       LCALL     ?Subroutine64 & 0xFFFF
   \                     ??CrossCallReturnLabel_98:
   \   0000BB   EE           MOV       A,R6
   \   0000BC   2413         ADD       A,#0x13
   \   0000BE   F8           MOV       R0,A
   \   0000BF   E4           CLR       A
   \   0000C0   3F           ADDC      A,R7
   \   0000C1   12....       LCALL     ?Subroutine47 & 0xFFFF
   \                     ??CrossCallReturnLabel_71:
   \   0000C4   5001         JNC       ??ZDP_MgmtBindRsp_7
   \   0000C6   0B           INC       R3
   \                     ??ZDP_MgmtBindRsp_7:
   \   0000C7   8882         MOV       DPL,R0
   \   0000C9   8983         MOV       DPH,R1
   \   0000CB   E0           MOVX      A,@DPTR
   \   0000CC   6403         XRL       A,#0x3
   \   0000CE   70A5         JNZ       ??ZDP_MgmtBindRsp_3
   \   0000D0   7415         MOV       A,#0x15
   \   0000D2   25..         ADD       A,?V0
   \   0000D4   F5..         MOV       ?V0,A
   \   0000D6                ; Setup parameters for call to function sAddrExtCpy
   \   0000D6   EE           MOV       A,R6
   \   0000D7   240B         ADD       A,#0xb
   \   0000D9   FC           MOV       R4,A
   \   0000DA   E4           CLR       A
   \   0000DB   3F           ADDC      A,R7
   \   0000DC   FD           MOV       R5,A
   \   0000DD   12....       LCALL     `??sAddrExtCpy::?relay`; Banked call to: sAddrExtCpy
   \   0000E0   EE           MOV       A,R6
   \   0000E1   2414         ADD       A,#0x14
   \   0000E3   F582         MOV       DPL,A
   \   0000E5   E4           CLR       A
   \   0000E6   3F           ADDC      A,R7
   \   0000E7   F583         MOV       DPH,A
   \   0000E9   12....       LCALL     ?Subroutine66 & 0xFFFF
   1778            }
   \                     ??CrossCallReturnLabel_107:
   \   0000EC   12....       LCALL     ?Subroutine25 & 0xFFFF
   \                     ??CrossCallReturnLabel_31:
   \   0000EF   8094         SJMP      ??ZDP_MgmtBindRsp_4
   1779          
   1780            FillAndSendBuffer( &TransSeq, dstAddr, Mgmt_Bind_rsp, len, buf );
   \                     ??ZDP_MgmtBindRsp_6:
   \   0000F1   12....       LCALL     ?Subroutine18 & 0xFFFF
   \                     ??CrossCallReturnLabel_243:
   \   0000F4                ; Setup parameters for call to function fillAndSend
   \   0000F4   75..33       MOV       ?V8,#0x33
   \   0000F7   75..80       MOV       ?V9,#-0x80
   \   0000FA   78..         MOV       R0,#?V8
   \   0000FC   12....       LCALL     ?PUSH_XSTACK_I_TWO
   \   0000FF   A9..         MOV       R1,?V0
   \   000101   AC..         MOV       R4,?V10
   \   000103   AD..         MOV       R5,?V11
   \   000105   7402         MOV       A,#0x2
   \   000107   12....       LCALL     ?XSTACK_DISP101_8
   \   00010A   12....       LCALL     `??fillAndSend::?relay`; Banked call to: fillAndSend
   \   00010D   7402         MOV       A,#0x2
   \   00010F   12....       LCALL     ?DEALLOC_XSTACK8
   \   000112   E9           MOV       A,R1
   \   000113   FE           MOV       R6,A
   \   000114                ; Setup parameters for call to function osal_mem_free
   \   000114   AA..         MOV       R2,?V2
   \   000116   AB..         MOV       R3,?V3
   \   000118   12....       LCALL     `??osal_mem_free::?relay`; Banked call to: osal_mem_free
   \   00011B   12....       LCALL     ?Subroutine28 & 0xFFFF
   \                     ??CrossCallReturnLabel_37:
   \   00011E   02....       LJMP      ?Subroutine4 & 0xFFFF
   1781          }

   \                                 In  segment BANKED_CODE, align 1, keep-with-next
   \                     ?Subroutine64:
   \   000000   12....       LCALL     ?Subroutine88 & 0xFFFF
   \                     ??CrossCallReturnLabel_151:
   \   000003   A3           INC       DPTR
   \   000004   F0           MOVX      @DPTR,A
   \   000005   22           RET
   1782          
   1783          /*********************************************************************
   1784           * @fn          ZDP_MgmtNwkUpdateNotify
   1785           *
   1786           * @brief       This builds and send a Mgmt_NWK_Update_notify message. This
   1787           *              function sends a unicast message.
   1788           *
   1789           * @param       dstAddr - destination address of the message
   1790           * @param       status - message status (ZDP_SUCCESS or other)
   1791           * @param       scannedChannels - List of channels scanned by the request
   1792           * @param       totalTransmissions - Total transmissions
   1793           * @param       transmissionFailures - Sum of transmission failures
   1794           * @param       listCount - Number of records contained in the energyValues list
   1795           * @param       energyValues - List of descriptors, one for each of ListCount,
   1796           *                             of the enegry detect descriptors
   1797           * @param       txOptions - Transmit options
   1798           * @param       securityEnable - Security options
   1799           *
   1800           * @return      afStatus_t
   1801           */

   \                                 In  segment BANKED_CODE, align 1, keep-with-next
   1802          afStatus_t ZDP_MgmtNwkUpdateNotify( uint8 TransSeq, zAddrType_t *dstAddr,
   \                     ZDP_MgmtNwkUpdateNotify:
   1803                                              uint8 status, uint32 scannedChannels,
   1804                                              uint16 totalTransmissions, uint16 transmissionFailures,
   1805                                              uint8 listCount, uint8 *energyValues, uint8 txOptions,
   1806                                              uint8 securityEnable )
   1807          {
   \   000000                REQUIRE ?V0
   \   000000                REQUIRE ?V1
   \   000000                REQUIRE ?V2
   \   000000                REQUIRE ?V4
   \   000000                REQUIRE ?V5
   \   000000                REQUIRE ?V6
   \   000000                REQUIRE ?V8
   \   000000                REQUIRE ?V9
   \   000000   74EE         MOV       A,#-0x12
   \   000002   12....       LCALL     ?BANKED_ENTER_XDATA
   \   000005                ; Saved register size: 18
   \   000005                ; Auto size: 1
   \   000005   74FF         MOV       A,#-0x1
   \   000007   12....       LCALL     ?ALLOC_XSTACK8
   \   00000A   E9           MOV       A,R1
   \   00000B   85..82       MOV       DPL,?XSP + 0
   \   00000E   85..83       MOV       DPH,?XSP + 1
   \   000011   F0           MOVX      @DPTR,A
   \   000012   8A..         MOV       ?V8,R2
   \   000014   8B..         MOV       ?V9,R3
   \   000016   8C..         MOV       ?V2,R4
   \   000018   8D..         MOV       ?V0,R5
   1808            uint8 *buf;
   1809            uint8 *pBuf;
   1810            uint8 len;
   1811          
   1812            (void)securityEnable;  // Intentionally unreferenced parameter
   1813          
   1814            // Status + ScannedChannels + totalTransmissions + transmissionFailures + ListCount + energyValues
   1815            len = 1 + 4 + 2 + 2 + 1 + listCount;
   \   00001A   740A         MOV       A,#0xa
   \   00001C   2D           ADD       A,R5
   \   00001D   F5..         MOV       ?V1,A
   1816          
   1817            buf = osal_mem_alloc( len+1 ); // +1 for transaction ID
   \   00001F                ; Setup parameters for call to function osal_mem_alloc
   \   00001F   12....       LCALL     ?Subroutine67 & 0xFFFF
   \                     ??CrossCallReturnLabel_112:
   \   000022   12....       LCALL     `??osal_mem_alloc::?relay`; Banked call to: osal_mem_alloc
   \   000025   8A..         MOV       ?V4,R2
   \   000027   8B..         MOV       ?V5,R3
   \   000029   AE..         MOV       R6,?V4
   \   00002B   AF..         MOV       R7,?V5
   1818            if ( buf == NULL )
   \   00002D   EE           MOV       A,R6
   \   00002E   4F           ORL       A,R7
   \   00002F   7005         JNZ       ??ZDP_MgmtNwkUpdateNotify_0
   1819            {
   1820              return afStatus_MEM_FAIL;
   \   000031   7910         MOV       R1,#0x10
   \   000033   02....       LJMP      ??ZDP_MgmtNwkUpdateNotify_1 & 0xFFFF
   1821            }
   1822          
   1823            pBuf = buf+1;
   \                     ??ZDP_MgmtNwkUpdateNotify_0:
   \   000036   8E82         MOV       DPL,R6
   \   000038   8F83         MOV       DPH,R7
   \   00003A   A3           INC       DPTR
   1824          
   1825            *pBuf++ = status;
   \   00003B   E5..         MOV       A,?V2
   \   00003D   12....       LCALL     ?Subroutine25 & 0xFFFF
   1826          
   1827            pBuf = osal_buffer_uint32( pBuf, scannedChannels );
   \                     ??CrossCallReturnLabel_32:
   \   000040                ; Setup parameters for call to function osal_buffer_uint32
   \   000040   7413         MOV       A,#0x13
   \   000042   12....       LCALL     ?XSTACK_DISP0_8
   \   000045   12....       LCALL     ?PUSH_XSTACK8_X_FOUR
   \   000048   12....       LCALL     `??osal_buffer_uint32::?relay`; Banked call to: osal_buffer_uint32
   \   00004B   7404         MOV       A,#0x4
   \   00004D   12....       LCALL     ?DEALLOC_XSTACK8
   \   000050   7417         MOV       A,#0x17
   \   000052   12....       LCALL     ?XSTACK_DISP0_8
   \   000055   12....       LCALL     ??Subroutine119_0 & 0xFFFF
   1828          
   1829            *pBuf++ = LO_UINT16( totalTransmissions );
   \                     ??CrossCallReturnLabel_205:
   \   000058   8A82         MOV       DPL,R2
   \   00005A   8B83         MOV       DPH,R3
   \   00005C   F0           MOVX      @DPTR,A
   1830            *pBuf++ = HI_UINT16( totalTransmissions );
   \   00005D   E9           MOV       A,R1
   \   00005E   A3           INC       DPTR
   \   00005F   F0           MOVX      @DPTR,A
   \   000060   7419         MOV       A,#0x19
   \   000062   12....       LCALL     ?XSTACK_DISP0_8
   \   000065   12....       LCALL     ?Subroutine31 & 0xFFFF
   1831          
   1832            *pBuf++ = LO_UINT16( transmissionFailures );
   1833            *pBuf++ = HI_UINT16( transmissionFailures );
   1834          
   1835            *pBuf++ = listCount;
   \                     ??CrossCallReturnLabel_41:
   \   000068   8A82         MOV       DPL,R2
   \   00006A   8B83         MOV       DPH,R3
   \   00006C   A3           INC       DPTR
   \   00006D   A3           INC       DPTR
   \   00006E   A3           INC       DPTR
   \   00006F   A3           INC       DPTR
   \   000070   E5..         MOV       A,?V0
   \   000072   F0           MOVX      @DPTR,A
   1836          
   1837            if ( listCount > 0 )
   \   000073   601E         JZ        ??ZDP_MgmtNwkUpdateNotify_2
   1838              osal_memcpy( pBuf, energyValues, listCount );
   \   000075                ; Setup parameters for call to function osal_memcpy
   \   000075   741B         MOV       A,#0x1b
   \   000077   12....       LCALL     ?XSTACK_DISP0_8
   \   00007A   12....       LCALL     ?Subroutine48 & 0xFFFF
   \                     ??CrossCallReturnLabel_73:
   \   00007D   12....       LCALL     ?PUSH_XSTACK_I_THREE
   \   000080   AC..         MOV       R4,?V0
   \   000082   7D00         MOV       R5,#0x0
   \   000084   EA           MOV       A,R2
   \   000085   2405         ADD       A,#0x5
   \   000087   FA           MOV       R2,A
   \   000088   5001         JNC       ??ZDP_MgmtNwkUpdateNotify_3
   \   00008A   0B           INC       R3
   \                     ??ZDP_MgmtNwkUpdateNotify_3:
   \   00008B   12....       LCALL     `??osal_memcpy::?relay`; Banked call to: osal_memcpy
   \   00008E   7403         MOV       A,#0x3
   \   000090   12....       LCALL     ?DEALLOC_XSTACK8
   1839          
   1840            FillAndSendBufferTxOptions( &TransSeq, dstAddr, Mgmt_NWK_Update_notify, len, buf, txOptions );
   \                     ??ZDP_MgmtNwkUpdateNotify_2:
   \   000093   8E82         MOV       DPL,R6
   \   000095   8F83         MOV       DPH,R7
   \   000097   12....       LCALL     ??Subroutine126_0 & 0xFFFF
   \                     ??CrossCallReturnLabel_241:
   \   00009A   741D         MOV       A,#0x1d
   \   00009C   12....       LCALL     ?XSTACK_DISP0_8
   \   00009F   E0           MOVX      A,@DPTR
   \   0000A0   90....       MOV       DPTR,#ZDP_TxOptions
   \   0000A3   F0           MOVX      @DPTR,A
   \   0000A4                ; Setup parameters for call to function fillAndSend
   \   0000A4   75..38       MOV       ?V4,#0x38
   \   0000A7   75..80       MOV       ?V5,#-0x80
   \   0000AA   78..         MOV       R0,#?V4
   \   0000AC   12....       LCALL     ?PUSH_XSTACK_I_TWO
   \   0000AF   A9..         MOV       R1,?V1
   \   0000B1   AC..         MOV       R4,?V8
   \   0000B3   AD..         MOV       R5,?V9
   \   0000B5   7402         MOV       A,#0x2
   \   0000B7   12....       LCALL     ?XSTACK_DISP101_8
   \   0000BA   12....       LCALL     `??fillAndSend::?relay`; Banked call to: fillAndSend
   \   0000BD   7402         MOV       A,#0x2
   \   0000BF   12....       LCALL     ?DEALLOC_XSTACK8
   \   0000C2   E9           MOV       A,R1
   \   0000C3   F5..         MOV       ?V1,A
   \   0000C5                ; Setup parameters for call to function osal_mem_free
   \   0000C5   EE           MOV       A,R6
   \   0000C6   FA           MOV       R2,A
   \   0000C7   EF           MOV       A,R7
   \   0000C8   FB           MOV       R3,A
   \   0000C9   12....       LCALL     `??osal_mem_free::?relay`; Banked call to: osal_mem_free
   \   0000CC   90....       MOV       DPTR,#ZDP_TmpBuf
   \   0000CF   74..         MOV       A,#(ZDP_Buf + 1) & 0xff
   \   0000D1   F0           MOVX      @DPTR,A
   \   0000D2   A3           INC       DPTR
   \   0000D3   74..         MOV       A,#((ZDP_Buf + 1) >> 8) & 0xff
   \   0000D5   F0           MOVX      @DPTR,A
   \   0000D6   90....       MOV       DPTR,#ZDP_TxOptions
   \   0000D9   E4           CLR       A
   \   0000DA   F0           MOVX      @DPTR,A
   \   0000DB   A9..         MOV       R1,?V1
   \                     ??ZDP_MgmtNwkUpdateNotify_1:
   \   0000DD                REQUIRE ?Subroutine5
   \   0000DD                ; // Fall through to label ?Subroutine5
   1841          }
   1842          
   1843          /*********************************************************************
   1844           * Functions to register for ZDO Over-the-air messages
   1845           */
   1846          
   1847          /*********************************************************************
   1848           * @fn          ZDO_RegisterForZDOMsg
   1849           *
   1850           * @brief       Call this function to register of an incoming over
   1851           *              the air ZDO message - probably a response message
   1852           *              but requests can also be received.
   1853           *              Messages are delivered to the task with ZDO_CB_MSG
   1854           *              as the message ID.
   1855           *
   1856           * @param       taskID - Where you would like the message delivered
   1857           * @param       clusterID - What message?
   1858           *                          ZDO_ALL_MSGS_CLUSTERID - all responses
   1859           *                          and device announce
   1860           *
   1861           * @return      ZSuccess - successful, ZMemError if not
   1862           */

   \                                 In  segment BANKED_CODE, align 1, keep-with-next
   1863          ZStatus_t ZDO_RegisterForZDOMsg( uint8 taskID, uint16 clusterID )
   \                     ZDO_RegisterForZDOMsg:
   1864          {
   \   000000                REQUIRE ?V0
   \   000000                REQUIRE ?V1
   \   000000                REQUIRE ?V2
   \   000000                REQUIRE ?V4
   \   000000                REQUIRE ?V5
   \   000000   74F2         MOV       A,#-0xe
   \   000002   12....       LCALL     ?BANKED_ENTER_XDATA
   \   000005                ; Saved register size: 14
   \   000005                ; Auto size: 0
   \   000005   89..         MOV       ?V2,R1
   \   000007   8A..         MOV       ?V0,R2
   \   000009   8B..         MOV       ?V1,R3
   1865            ZDO_MsgCB_t *pList;
   1866            ZDO_MsgCB_t *pLast;
   1867            ZDO_MsgCB_t *pNew;
   1868          
   1869            // Look for duplicate
   1870            pList = pLast = zdoMsgCBs;
   \   00000B   90....       MOV       DPTR,#zdoMsgCBs
   \   00000E   12....       LCALL     ?Subroutine55 & 0xFFFF
   \                     ??CrossCallReturnLabel_88:
   \   000011   EE           MOV       A,R6
   \   000012   F8           MOV       R0,A
   \   000013   EF           MOV       A,R7
   \   000014   8028         SJMP      ??CrossCallReturnLabel_298
   1871            while ( pList )
   1872            {
   1873              if ( pList->taskID == taskID && pList->clusterID == clusterID )
   \                     ??ZDO_RegisterForZDOMsg_0:
   \   000016   8882         MOV       DPL,R0
   \   000018   8983         MOV       DPH,R1
   \   00001A   A3           INC       DPTR
   \   00001B   A3           INC       DPTR
   \   00001C   E0           MOVX      A,@DPTR
   \   00001D   65..         XRL       A,?V2
   \   00001F   7012         JNZ       ??ZDO_RegisterForZDOMsg_1
   \   000021   8882         MOV       DPL,R0
   \   000023   8983         MOV       DPH,R1
   \   000025   A3           INC       DPTR
   \   000026   A3           INC       DPTR
   \   000027   A3           INC       DPTR
   \   000028   E0           MOVX      A,@DPTR
   \   000029   65..         XRL       A,?V0
   \   00002B   7004         JNZ       ??ZDO_RegisterForZDOMsg_2
   \   00002D   A3           INC       DPTR
   \   00002E   E0           MOVX      A,@DPTR
   \   00002F   65..         XRL       A,?V1
   \                     ??ZDO_RegisterForZDOMsg_2:
   \   000031   604F         JZ        ??CrossCallReturnLabel_234
   1874                return ( ZSuccess );
   1875              pLast = pList;
   \                     ??ZDO_RegisterForZDOMsg_1:
   \   000033   E8           MOV       A,R0
   \   000034   FE           MOV       R6,A
   \   000035   E9           MOV       A,R1
   \   000036   FF           MOV       R7,A
   1876              pList = (ZDO_MsgCB_t *)pList->next;
   \   000037   8882         MOV       DPL,R0
   \   000039   8983         MOV       DPH,R1
   \   00003B   12....       LCALL     ??Subroutine112_0 & 0xFFFF
   1877            }
   \                     ??CrossCallReturnLabel_298:
   \   00003E   F9           MOV       R1,A
   \   00003F   E8           MOV       A,R0
   \   000040   49           ORL       A,R1
   \   000041   70D3         JNZ       ??ZDO_RegisterForZDOMsg_0
   1878          
   1879            // Add to the list
   1880            pNew = (ZDO_MsgCB_t *)osal_mem_alloc( sizeof ( ZDO_MsgCB_t ) );
   \   000043                ; Setup parameters for call to function osal_mem_alloc
   \   000043   7A05         MOV       R2,#0x5
   \   000045   7B00         MOV       R3,#0x0
   \   000047   12....       LCALL     `??osal_mem_alloc::?relay`; Banked call to: osal_mem_alloc
   \   00004A   8A..         MOV       ?V4,R2
   \   00004C   8B..         MOV       ?V5,R3
   \   00004E   A8..         MOV       R0,?V4
   \   000050   A9..         MOV       R1,?V5
   1881            if ( pNew )
   \   000052   E8           MOV       A,R0
   \   000053   49           ORL       A,R1
   \   000054   6030         JZ        ??ZDO_RegisterForZDOMsg_3
   1882            {
   1883              pNew->taskID = taskID;
   \   000056   8882         MOV       DPL,R0
   \   000058   8983         MOV       DPH,R1
   \   00005A   A3           INC       DPTR
   \   00005B   A3           INC       DPTR
   \   00005C   E5..         MOV       A,?V2
   \   00005E   12....       LCALL     ??Subroutine131_0 & 0xFFFF
   1884              pNew->clusterID = clusterID;
   \                     ??CrossCallReturnLabel_259:
   \   000061   E5..         MOV       A,?V0
   \   000063   F0           MOVX      @DPTR,A
   \   000064   A3           INC       DPTR
   \   000065   E5..         MOV       A,?V1
   \   000067   12....       LCALL     ?Subroutine103 & 0xFFFF
   1885              pNew->next = NULL;
   \                     ??CrossCallReturnLabel_268:
   \   00006A   E4           CLR       A
   \   00006B   F0           MOVX      @DPTR,A
   \   00006C   A3           INC       DPTR
   \   00006D   F0           MOVX      @DPTR,A
   1886              if ( zdoMsgCBs )
   \   00006E   90....       MOV       DPTR,#zdoMsgCBs
   \   000071   12....       LCALL     ?Subroutine53 & 0xFFFF
   \                     ??CrossCallReturnLabel_83:
   \   000074   6006         JZ        ??ZDO_RegisterForZDOMsg_4
   1887              {
   1888                pLast->next = pNew;
   \   000076   8E82         MOV       DPL,R6
   \   000078   8F83         MOV       DPH,R7
   \   00007A   8003         SJMP      ??ZDO_RegisterForZDOMsg_5
   1889              }
   1890              else
   1891                zdoMsgCBs = pNew;
   \                     ??ZDO_RegisterForZDOMsg_4:
   \   00007C   90....       MOV       DPTR,#zdoMsgCBs
   \                     ??ZDO_RegisterForZDOMsg_5:
   \   00007F   12....       LCALL     ??Subroutine127_0 & 0xFFFF
   1892              return ( ZSuccess );
   \                     ??CrossCallReturnLabel_234:
   \   000082   7900         MOV       R1,#0x0
   \   000084   8002         SJMP      ??ZDO_RegisterForZDOMsg_6
   1893            }
   1894            else
   1895              return ( ZMemError );
   \                     ??ZDO_RegisterForZDOMsg_3:
   \   000086   7910         MOV       R1,#0x10
   \                     ??ZDO_RegisterForZDOMsg_6:
   \   000088   02....       LJMP      ??Subroutine109_0 & 0xFFFF
   1896          }
   1897          
   1898          /*********************************************************************
   1899           * @fn          ZDO_RemoveRegisteredCB
   1900           *
   1901           * @brief       Call this function if you don't want to receive the
   1902           *              incoming message.
   1903           *
   1904           * @param       taskID - Where the messages are being delivered.
   1905           * @param       clusterID - What message?
   1906           *
   1907           * @return      ZSuccess - successful, ZFailure if not found
   1908           */

   \                                 In  segment BANKED_CODE, align 1, keep-with-next
   1909          ZStatus_t ZDO_RemoveRegisteredCB( uint8 taskID, uint16 clusterID )
   \                     ZDO_RemoveRegisteredCB:
   1910          {
   \   000000   74F7         MOV       A,#-0x9
   \   000002   12....       LCALL     ?BANKED_ENTER_XDATA
   \   000005                ; Saved register size: 9
   \   000005                ; Auto size: 0
   \   000005   E9           MOV       A,R1
   \   000006   FE           MOV       R6,A
   \   000007   EA           MOV       A,R2
   \   000008   FC           MOV       R4,A
   \   000009   EB           MOV       A,R3
   \   00000A   FD           MOV       R5,A
   1911            ZDO_MsgCB_t *pList;
   1912            ZDO_MsgCB_t *pLast = NULL;
   \   00000B   7800         MOV       R0,#0x0
   \   00000D   7900         MOV       R1,#0x0
   1913          
   1914            pList = zdoMsgCBs;
   \   00000F   90....       MOV       DPTR,#zdoMsgCBs
   \   000012   8008         SJMP      ??ZDO_RemoveRegisteredCB_0
   1915            while ( pList )
   1916            {
   1917              if ( pList->taskID == taskID && pList->clusterID == clusterID )
   1918              {
   1919                if ( pLast )
   1920                {
   1921                  // remove this one from the linked list
   1922                  pLast->next = pList->next;
   1923                }
   1924                else if ( pList->next )
   1925                {
   1926                  // remove the first one from the linked list
   1927                  zdoMsgCBs = pList->next;
   1928                }
   1929                else
   1930                {
   1931                  // remove the only item from the list
   1932                  zdoMsgCBs = (ZDO_MsgCB_t *)NULL;
   1933                }
   1934                osal_mem_free( pList );
   1935                return ( ZSuccess );
   1936              }
   1937              pLast = pList;
   \                     ??ZDO_RemoveRegisteredCB_1:
   \   000014   EA           MOV       A,R2
   \   000015   F8           MOV       R0,A
   \   000016   EB           MOV       A,R3
   \   000017   F9           MOV       R1,A
   1938              pList = pList->next;
   \   000018   8A82         MOV       DPL,R2
   \   00001A   8B83         MOV       DPH,R3
   \                     ??ZDO_RemoveRegisteredCB_0:
   \   00001C   12....       LCALL     ?Subroutine53 & 0xFFFF
   \                     ??CrossCallReturnLabel_81:
   \   00001F   6048         JZ        ??ZDO_RemoveRegisteredCB_2
   \   000021   8A82         MOV       DPL,R2
   \   000023   8B83         MOV       DPH,R3
   \   000025   A3           INC       DPTR
   \   000026   A3           INC       DPTR
   \   000027   E0           MOVX      A,@DPTR
   \   000028   6E           XRL       A,R6
   \   000029   70E9         JNZ       ??ZDO_RemoveRegisteredCB_1
   \   00002B   8A82         MOV       DPL,R2
   \   00002D   8B83         MOV       DPH,R3
   \   00002F   A3           INC       DPTR
   \   000030   A3           INC       DPTR
   \   000031   A3           INC       DPTR
   \   000032   E0           MOVX      A,@DPTR
   \   000033   6C           XRL       A,R4
   \   000034   7003         JNZ       ??ZDO_RemoveRegisteredCB_3
   \   000036   A3           INC       DPTR
   \   000037   E0           MOVX      A,@DPTR
   \   000038   6D           XRL       A,R5
   \                     ??ZDO_RemoveRegisteredCB_3:
   \   000039   70D9         JNZ       ??ZDO_RemoveRegisteredCB_1
   \   00003B   E8           MOV       A,R0
   \   00003C   49           ORL       A,R1
   \   00003D   8A82         MOV       DPL,R2
   \   00003F   8B83         MOV       DPH,R3
   \   000041   600D         JZ        ??ZDO_RemoveRegisteredCB_4
   \   000043   12....       LCALL     ?Subroutine52 & 0xFFFF
   \                     ??CrossCallReturnLabel_80:
   \   000046   8882         MOV       DPL,R0
   \   000048   8983         MOV       DPH,R1
   \   00004A   EC           MOV       A,R4
   \   00004B   F0           MOVX      @DPTR,A
   \   00004C   A3           INC       DPTR
   \   00004D   ED           MOV       A,R5
   \   00004E   8011         SJMP      ??ZDO_RemoveRegisteredCB_5
   \                     ??ZDO_RemoveRegisteredCB_4:
   \   000050   12....       LCALL     ??Subroutine114_0 & 0xFFFF
   \                     ??CrossCallReturnLabel_188:
   \   000053   90....       MOV       DPTR,#zdoMsgCBs
   \   000056   6006         JZ        ??ZDO_RemoveRegisteredCB_6
   \   000058   E8           MOV       A,R0
   \   000059   F0           MOVX      @DPTR,A
   \   00005A   A3           INC       DPTR
   \   00005B   E9           MOV       A,R1
   \   00005C   8003         SJMP      ??ZDO_RemoveRegisteredCB_5
   \                     ??ZDO_RemoveRegisteredCB_6:
   \   00005E   E4           CLR       A
   \   00005F   F0           MOVX      @DPTR,A
   \   000060   A3           INC       DPTR
   \                     ??ZDO_RemoveRegisteredCB_5:
   \   000061   F0           MOVX      @DPTR,A
   \   000062                ; Setup parameters for call to function osal_mem_free
   \   000062   12....       LCALL     `??osal_mem_free::?relay`; Banked call to: osal_mem_free
   \   000065   7900         MOV       R1,#0x0
   \   000067   8002         SJMP      ??ZDO_RemoveRegisteredCB_7
   1939            }
   1940          
   1941            return ( ZFailure );
   \                     ??ZDO_RemoveRegisteredCB_2:
   \   000069   7901         MOV       R1,#0x1
   \                     ??ZDO_RemoveRegisteredCB_7:
   \   00006B   02....       LJMP      ?Subroutine7 & 0xFFFF
   1942          }
   1943          
   1944          /*********************************************************************
   1945           * @fn          ZDO_SendMsgCBs
   1946           *
   1947           * @brief       This function sends messages to registered tasks.
   1948           *              Local to ZDO and shouldn't be called outside of ZDO.
   1949           *
   1950           * @param       inMsg - incoming message
   1951           *
   1952           * @return      TRUE if sent to at least 1 task, FALSE if not
   1953           */

   \                                 In  segment BANKED_CODE, align 1, keep-with-next
   1954          uint8 ZDO_SendMsgCBs( zdoIncomingMsg_t *inMsg )
   \                     ZDO_SendMsgCBs:
   1955          {
   \   000000                REQUIRE ?V0
   \   000000                REQUIRE ?V1
   \   000000                REQUIRE ?V2
   \   000000                REQUIRE ?V3
   \   000000                REQUIRE ?V4
   \   000000                REQUIRE ?V5
   \   000000                REQUIRE ?V6
   \   000000                REQUIRE ?V7
   \   000000   74F0         MOV       A,#-0x10
   \   000002   12....       LCALL     ?BANKED_ENTER_XDATA
   \   000005                ; Saved register size: 16
   \   000005                ; Auto size: 0
   \   000005   EA           MOV       A,R2
   \   000006   FE           MOV       R6,A
   \   000007   EB           MOV       A,R3
   \   000008   FF           MOV       R7,A
   1956            uint8 ret = FALSE;
   \   000009   75..00       MOV       ?V4,#0x0
   1957            ZDO_MsgCB_t *pList = zdoMsgCBs;
   \   00000C   90....       MOV       DPTR,#zdoMsgCBs
   \   00000F   02....       LJMP      ??ZDO_SendMsgCBs_0 & 0xFFFF
   1958            while ( pList )
   1959            {
   1960              if ( (pList->clusterID == inMsg->clusterID)
   1961                 || ((pList->clusterID == ZDO_ALL_MSGS_CLUSTERID)
   1962                     && ((inMsg->clusterID & ZDO_RESPONSE_BIT) || (inMsg->clusterID == Device_annce))) )
   \                     ??ZDO_SendMsgCBs_1:
   \   000012   85..82       MOV       DPL,?V0
   \   000015   85..83       MOV       DPH,?V1
   \   000018   A3           INC       DPTR
   \   000019   A3           INC       DPTR
   \   00001A   A3           INC       DPTR
   \   00001B   12....       LCALL     ??Subroutine136_0 & 0xFFFF
   \                     ??CrossCallReturnLabel_286:
   \   00001E   12....       LCALL     ?Subroutine73 & 0xFFFF
   \                     ??CrossCallReturnLabel_122:
   \   000021   68           XRL       A,R0
   \   000022   7003         JNZ       ??ZDO_SendMsgCBs_2
   \   000024   A3           INC       DPTR
   \   000025   E0           MOVX      A,@DPTR
   \   000026   69           XRL       A,R1
   \                     ??ZDO_SendMsgCBs_2:
   \   000027   602C         JZ        ??ZDO_SendMsgCBs_3
   \   000029   85..82       MOV       DPL,?V0
   \   00002C   85..83       MOV       DPH,?V1
   \   00002F   A3           INC       DPTR
   \   000030   A3           INC       DPTR
   \   000031   A3           INC       DPTR
   \   000032   E0           MOVX      A,@DPTR
   \   000033   F4           CPL       A
   \   000034   7003         JNZ       ??ZDO_SendMsgCBs_4
   \   000036   A3           INC       DPTR
   \   000037   E0           MOVX      A,@DPTR
   \   000038   F4           CPL       A
   \                     ??ZDO_SendMsgCBs_4:
   \   000039   6003         JZ        $+5
   \   00003B   02....       LJMP      ??ZDO_SendMsgCBs_5 & 0xFFFF
   \   00003E   12....       LCALL     ?Subroutine75 & 0xFFFF
   \                     ??CrossCallReturnLabel_127:
   \   000041   A3           INC       DPTR
   \   000042   E0           MOVX      A,@DPTR
   \   000043   5480         ANL       A,#0x80
   \   000045   700E         JNZ       ??ZDO_SendMsgCBs_3
   \   000047   12....       LCALL     ?Subroutine73 & 0xFFFF
   \                     ??CrossCallReturnLabel_123:
   \   00004A   6413         XRL       A,#0x13
   \   00004C   7002         JNZ       ??ZDO_SendMsgCBs_6
   \   00004E   A3           INC       DPTR
   \   00004F   E0           MOVX      A,@DPTR
   \                     ??ZDO_SendMsgCBs_6:
   \   000050   6003         JZ        $+5
   \   000052   02....       LJMP      ??ZDO_SendMsgCBs_5 & 0xFFFF
   1963              {
   1964                zdoIncomingMsg_t *msgPtr;
   1965          
   1966                // Send the address to the task
   1967                msgPtr = (zdoIncomingMsg_t *)osal_msg_allocate( sizeof( zdoIncomingMsg_t ) + inMsg->asduLen );
   \                     ??ZDO_SendMsgCBs_3:
   \   000055                ; Setup parameters for call to function osal_msg_allocate
   \   000055   12....       LCALL     ?Subroutine76 & 0xFFFF
   \                     ??CrossCallReturnLabel_275:
   \   000058   2417         ADD       A,#0x17
   \   00005A   FA           MOV       R2,A
   \   00005B   E4           CLR       A
   \   00005C   3400         ADDC      A,#0x0
   \   00005E   FB           MOV       R3,A
   \   00005F   12....       LCALL     `??osal_msg_allocate::?relay`; Banked call to: osal_msg_allocate
   \   000062   8A..         MOV       ?V2,R2
   \   000064   8B..         MOV       ?V3,R3
   1968                if ( msgPtr )
   \   000066   EA           MOV       A,R2
   \   000067   45..         ORL       A,?V3
   \   000069   6072         JZ        ??ZDO_SendMsgCBs_5
   1969                {
   1970                  // copy struct
   1971                  osal_memcpy( msgPtr, inMsg, sizeof( zdoIncomingMsg_t ));
   \   00006B                ; Setup parameters for call to function osal_memcpy
   \   00006B   8E..         MOV       ?V4,R6
   \   00006D   8F..         MOV       ?V5,R7
   \   00006F   75..00       MOV       ?V6,#0x0
   \   000072   78..         MOV       R0,#?V4
   \   000074   12....       LCALL     ?PUSH_XSTACK_I_THREE
   \   000077   7C17         MOV       R4,#0x17
   \   000079   7D00         MOV       R5,#0x0
   \   00007B   12....       LCALL     `??osal_memcpy::?relay`; Banked call to: osal_memcpy
   \   00007E   7403         MOV       A,#0x3
   \   000080   12....       LCALL     ?DEALLOC_XSTACK8
   1972          
   1973                  if ( inMsg->asduLen )
   \   000083   12....       LCALL     ?Subroutine76 & 0xFFFF
   \                     ??CrossCallReturnLabel_276:
   \   000086   6038         JZ        ??ZDO_SendMsgCBs_7
   1974                  {
   1975                    msgPtr->asdu = (byte*)(((byte*)msgPtr) + sizeof( zdoIncomingMsg_t ));
   \   000088   E5..         MOV       A,?V2
   \   00008A   2417         ADD       A,#0x17
   \   00008C   FA           MOV       R2,A
   \   00008D   E4           CLR       A
   \   00008E   35..         ADDC      A,?V3
   \   000090   FB           MOV       R3,A
   \   000091   E5..         MOV       A,?V2
   \   000093   2413         ADD       A,#0x13
   \   000095   F582         MOV       DPL,A
   \   000097   E4           CLR       A
   \   000098   35..         ADDC      A,?V3
   \   00009A   F583         MOV       DPH,A
   \   00009C   EA           MOV       A,R2
   \   00009D   F0           MOVX      @DPTR,A
   \   00009E   A3           INC       DPTR
   \   00009F   EB           MOV       A,R3
   \   0000A0   F0           MOVX      @DPTR,A
   1976                    osal_memcpy( msgPtr->asdu, inMsg->asdu, inMsg->asduLen );
   \   0000A1                ; Setup parameters for call to function osal_memcpy
   \   0000A1   EE           MOV       A,R6
   \   0000A2   2413         ADD       A,#0x13
   \   0000A4   12....       LCALL     ??Subroutine134_0 & 0xFFFF
   1977                  }
   \                     ??CrossCallReturnLabel_271:
   \   0000A7   F5..         MOV       ?V4,A
   \   0000A9   A3           INC       DPTR
   \   0000AA   E0           MOVX      A,@DPTR
   \   0000AB   F5..         MOV       ?V5,A
   \   0000AD   78..         MOV       R0,#?V4
   \   0000AF   12....       LCALL     ?PUSH_XSTACK_I_THREE
   \   0000B2   12....       LCALL     ?Subroutine76 & 0xFFFF
   \                     ??CrossCallReturnLabel_277:
   \   0000B5   FC           MOV       R4,A
   \   0000B6   7D00         MOV       R5,#0x0
   \   0000B8   12....       LCALL     `??osal_memcpy::?relay`; Banked call to: osal_memcpy
   \   0000BB   7403         MOV       A,#0x3
   \   0000BD   12....       LCALL     ?DEALLOC_XSTACK8
   1978          
   1979                  msgPtr->hdr.event = ZDO_CB_MSG;
   \                     ??ZDO_SendMsgCBs_7:
   \   0000C0   85..82       MOV       DPL,?V2
   \   0000C3   85..83       MOV       DPH,?V3
   \   0000C6   74D3         MOV       A,#-0x2d
   \   0000C8   F0           MOVX      @DPTR,A
   1980                  osal_msg_send( pList->taskID, (uint8 *)msgPtr );
   \   0000C9                ; Setup parameters for call to function osal_msg_send
   \   0000C9   AA..         MOV       R2,?V2
   \   0000CB   AB..         MOV       R3,?V3
   \   0000CD   85..82       MOV       DPL,?V0
   \   0000D0   85..83       MOV       DPH,?V1
   \   0000D3   A3           INC       DPTR
   \   0000D4   A3           INC       DPTR
   \   0000D5   E0           MOVX      A,@DPTR
   \   0000D6   F9           MOV       R1,A
   \   0000D7   12....       LCALL     `??osal_msg_send::?relay`; Banked call to: osal_msg_send
   1981                  ret = TRUE;
   \   0000DA   75..01       MOV       ?V4,#0x1
   1982                }
   1983              }
   1984              pList = (ZDO_MsgCB_t *)pList->next;
   \                     ??ZDO_SendMsgCBs_5:
   \   0000DD   85..82       MOV       DPL,?V0
   \   0000E0   85..83       MOV       DPH,?V1
   1985            }
   \                     ??ZDO_SendMsgCBs_0:
   \   0000E3   12....       LCALL     ?Subroutine44 & 0xFFFF
   \                     ??CrossCallReturnLabel_67:
   \   0000E6   E5..         MOV       A,?V0
   \   0000E8   45..         ORL       A,?V1
   \   0000EA   6003         JZ        $+5
   \   0000EC   02....       LJMP      ??ZDO_SendMsgCBs_1 & 0xFFFF
   1986            return ( ret );
   \   0000EF   A9..         MOV       R1,?V4
   \   0000F1   02....       LJMP      ?Subroutine6 & 0xFFFF
   1987          }

   \                                 In  segment BANKED_CODE, align 1, keep-with-next
   \                     ?Subroutine76:
   \   000000   EE           MOV       A,R6
   \   000001   2410         ADD       A,#0x10
   \   000003                REQUIRE ??Subroutine134_0
   \   000003                ; // Fall through to label ??Subroutine134_0

   \                                 In  segment BANKED_CODE, align 1, keep-with-next
   \                     ?Subroutine73:
   \   000000   12....       LCALL     ?Subroutine98 & 0xFFFF
   \                     ??CrossCallReturnLabel_169:
   \   000003   E0           MOVX      A,@DPTR
   \   000004   22           RET
   1988          
   1989          /*********************************************************************
   1990           * Incoming message processor
   1991           */
   1992          
   1993          /*********************************************************************
   1994           * @fn          ZDP_IncomingData
   1995           *
   1996           * @brief       This function indicates the transfer of a data PDU (ASDU)
   1997           *              from the APS sub-layer to the ZDO.
   1998           *
   1999           * @param       pData - Incoming Message
   2000           *
   2001           * @return      none
   2002           */

   \                                 In  segment BANKED_CODE, align 1, keep-with-next
   2003          void ZDP_IncomingData( afIncomingMSGPacket_t *pData )
   \                     ZDP_IncomingData:
   2004          {
   \   000000                REQUIRE ?V0
   \   000000                REQUIRE ?V1
   \   000000                REQUIRE ?V2
   \   000000                REQUIRE ?V3
   \   000000   74F4         MOV       A,#-0xc
   \   000002   12....       LCALL     ?BANKED_ENTER_XDATA
   \   000005                ; Saved register size: 12
   \   000005                ; Auto size: 23
   \   000005   74E9         MOV       A,#-0x17
   \   000007   12....       LCALL     ?ALLOC_XSTACK8
   \   00000A   EA           MOV       A,R2
   \   00000B   FE           MOV       R6,A
   \   00000C   EB           MOV       A,R3
   \   00000D   FF           MOV       R7,A
   2005            uint8 x = 0;
   \   00000E   75..00       MOV       ?V0,#0x0
   2006            uint8 handled;
   2007            zdoIncomingMsg_t inMsg;
   2008          
   2009            inMsg.srcAddr.addrMode = Addr16Bit;
   \   000011   740A         MOV       A,#0xa
   \   000013   12....       LCALL     ?XSTACK_DISP0_8
   \   000016   7402         MOV       A,#0x2
   \   000018   12....       LCALL     ?Subroutine33 & 0xFFFF
   2010            inMsg.srcAddr.addr.shortAddr = pData->srcAddr.addr.shortAddr;
   \                     ??CrossCallReturnLabel_44:
   \   00001B   A3           INC       DPTR
   \   00001C   A3           INC       DPTR
   \   00001D   12....       LCALL     ??Subroutine136_0 & 0xFFFF
   \                     ??CrossCallReturnLabel_287:
   \   000020   7402         MOV       A,#0x2
   \   000022   12....       LCALL     ?XSTACK_DISP0_8
   \   000025   12....       LCALL     ??Subroutine127_0 & 0xFFFF
   2011            inMsg.wasBroadcast = pData->wasBroadcast;
   \                     ??CrossCallReturnLabel_235:
   \   000028   EE           MOV       A,R6
   \   000029   2415         ADD       A,#0x15
   \   00002B   12....       LCALL     ??Subroutine134_0 & 0xFFFF
   \                     ??CrossCallReturnLabel_272:
   \   00002E   C0E0         PUSH      A
   \   000030   740B         MOV       A,#0xb
   \   000032   12....       LCALL     ?XSTACK_DISP0_8
   \   000035   D0E0         POP       A
   \   000037   12....       LCALL     ?Subroutine33 & 0xFFFF
   2012            inMsg.clusterID = pData->clusterId;
   \                     ??CrossCallReturnLabel_45:
   \   00003A   12....       LCALL     ??Subroutine136_0 & 0xFFFF
   \                     ??CrossCallReturnLabel_288:
   \   00003D   740C         MOV       A,#0xc
   \   00003F   12....       LCALL     ?XSTACK_DISP0_8
   \   000042   12....       LCALL     ??Subroutine127_0 & 0xFFFF
   2013            inMsg.SecurityUse = pData->SecurityUse;
   \                     ??CrossCallReturnLabel_236:
   \   000045   EE           MOV       A,R6
   \   000046   2419         ADD       A,#0x19
   \   000048   12....       LCALL     ??Subroutine134_0 & 0xFFFF
   \                     ??CrossCallReturnLabel_273:
   \   00004B   C0E0         PUSH      A
   \   00004D   740E         MOV       A,#0xe
   \   00004F   12....       LCALL     ?XSTACK_DISP0_8
   \   000052   D0E0         POP       A
   \   000054   F0           MOVX      @DPTR,A
   2014          
   2015            inMsg.asduLen = pData->cmd.DataLength-1;
   \   000055   EE           MOV       A,R6
   \   000056   2420         ADD       A,#0x20
   \   000058   12....       LCALL     ??Subroutine134_0 & 0xFFFF
   \                     ??CrossCallReturnLabel_274:
   \   00005B   14           DEC       A
   \   00005C   C0E0         PUSH      A
   \   00005E   7410         MOV       A,#0x10
   \   000060   12....       LCALL     ?XSTACK_DISP0_8
   \   000063   D0E0         POP       A
   \   000065   F0           MOVX      @DPTR,A
   2016            inMsg.asdu = pData->cmd.Data+1;
   \   000066   EE           MOV       A,R6
   \   000067   2422         ADD       A,#0x22
   \   000069   F8           MOV       R0,A
   \   00006A   E4           CLR       A
   \   00006B   3F           ADDC      A,R7
   \   00006C   F9           MOV       R1,A
   \   00006D   8882         MOV       DPL,R0
   \   00006F   8983         MOV       DPH,R1
   \   000071   E0           MOVX      A,@DPTR
   \   000072   2401         ADD       A,#0x1
   \   000074   FA           MOV       R2,A
   \   000075   A3           INC       DPTR
   \   000076   E0           MOVX      A,@DPTR
   \   000077   3400         ADDC      A,#0x0
   \   000079   FB           MOV       R3,A
   \   00007A   7413         MOV       A,#0x13
   \   00007C   12....       LCALL     ?XSTACK_DISP0_8
   \   00007F   EA           MOV       A,R2
   \   000080   F0           MOVX      @DPTR,A
   \   000081   A3           INC       DPTR
   \   000082   EB           MOV       A,R3
   \   000083   12....       LCALL     ??Subroutine120_0 & 0xFFFF
   2017            inMsg.TransSeq = pData->cmd.Data[0];
   \                     ??CrossCallReturnLabel_211:
   \   000086   12....       LCALL     ??Subroutine122_0 & 0xFFFF
   \                     ??CrossCallReturnLabel_218:
   \   000089   E0           MOVX      A,@DPTR
   \   00008A   C0E0         PUSH      A
   \   00008C   740F         MOV       A,#0xf
   \   00008E   12....       LCALL     ?XSTACK_DISP0_8
   \   000091   D0E0         POP       A
   \   000093   F0           MOVX      @DPTR,A
   2018            inMsg.macDestAddr = pData->macDestAddr;
   \   000094   EE           MOV       A,R6
   \   000095   2412         ADD       A,#0x12
   \   000097   F582         MOV       DPL,A
   \   000099   E4           CLR       A
   \   00009A   3F           ADDC      A,R7
   \   00009B   F583         MOV       DPH,A
   \   00009D   12....       LCALL     ??Subroutine136_0 & 0xFFFF
   \                     ??CrossCallReturnLabel_289:
   \   0000A0   7411         MOV       A,#0x11
   \   0000A2   12....       LCALL     ?XSTACK_DISP0_8
   \   0000A5   12....       LCALL     ??Subroutine127_0 & 0xFFFF
   2019            inMsg.macSrcAddr = pData->macSrcAddr;
   \                     ??CrossCallReturnLabel_237:
   \   0000A8   EE           MOV       A,R6
   \   0000A9   2424         ADD       A,#0x24
   \   0000AB   F582         MOV       DPL,A
   \   0000AD   E4           CLR       A
   \   0000AE   3F           ADDC      A,R7
   \   0000AF   F583         MOV       DPH,A
   \   0000B1   12....       LCALL     ??Subroutine136_0 & 0xFFFF
   \                     ??CrossCallReturnLabel_290:
   \   0000B4   7415         MOV       A,#0x15
   \   0000B6   12....       LCALL     ?XSTACK_DISP0_8
   \   0000B9   12....       LCALL     ??Subroutine127_0 & 0xFFFF
   2020          
   2021            handled = ZDO_SendMsgCBs( &inMsg );
   \                     ??CrossCallReturnLabel_238:
   \   0000BC                ; Setup parameters for call to function ZDO_SendMsgCBs
   \   0000BC   AA..         MOV       R2,?XSP + 0
   \   0000BE   AB..         MOV       R3,?XSP + 1
   \   0000C0   12....       LCALL     `??ZDO_SendMsgCBs::?relay`; Banked call to: ZDO_SendMsgCBs
   \   0000C3   E9           MOV       A,R1
   \   0000C4   F5..         MOV       ?V1,A
   2022          
   2023          #if (defined MT_ZDO_CB_FUNC)
   2024          #if !defined MT_TASK
   2025            if (zgZdoDirectCB)
   \   0000C6   90....       MOV       DPTR,#zgZdoDirectCB
   \   0000C9   E0           MOVX      A,@DPTR
   \   0000CA   600F         JZ        ??ZDP_IncomingData_0
   2026          #endif
   2027            {
   2028              MT_ZdoDirectCB( pData, &inMsg );
   \   0000CC                ; Setup parameters for call to function MT_ZdoDirectCB
   \   0000CC   AC..         MOV       R4,?XSP + 0
   \   0000CE   AD..         MOV       R5,?XSP + 1
   \   0000D0   EE           MOV       A,R6
   \   0000D1   FA           MOV       R2,A
   \   0000D2   EF           MOV       A,R7
   \   0000D3   FB           MOV       R3,A
   \   0000D4   12....       LCALL     `??MT_ZdoDirectCB::?relay`; Banked call to: MT_ZdoDirectCB
   \   0000D7   8002         SJMP      ??ZDP_IncomingData_0
   2029            }
   2030          #endif
   2031          
   2032            while ( zdpMsgProcs[x].clusterID != 0xFFFF )
   2033            {
   2034              if ( zdpMsgProcs[x].clusterID == inMsg.clusterID )
   2035              {
   2036                zdpMsgProcs[x].pFn( &inMsg );
   2037                return;
   2038              }
   2039              x++;
   \                     ??ZDP_IncomingData_1:
   \   0000D9   05..         INC       ?V0
   \                     ??ZDP_IncomingData_0:
   \   0000DB   E5..         MOV       A,?V0
   \   0000DD   F5..         MOV       ?V2,A
   \   0000DF   75..00       MOV       ?V3,#0x0
   \   0000E2   7402         MOV       A,#0x2
   \   0000E4   78..         MOV       R0,#?V2
   \   0000E6   12....       LCALL     ?S_SHL
   \   0000E9   74..         MOV       A,#zdpMsgProcs & 0xff
   \   0000EB   25..         ADD       A,?V2
   \   0000ED   F582         MOV       DPL,A
   \   0000EF   74..         MOV       A,#(zdpMsgProcs >> 8) & 0xff
   \   0000F1   35..         ADDC      A,?V3
   \   0000F3   F583         MOV       DPH,A
   \   0000F5   E4           CLR       A
   \   0000F6   93           MOVC      A,@A+DPTR
   \   0000F7   F8           MOV       R0,A
   \   0000F8   7401         MOV       A,#0x1
   \   0000FA   93           MOVC      A,@A+DPTR
   \   0000FB   F9           MOV       R1,A
   \   0000FC   74FF         MOV       A,#-0x1
   \   0000FE   68           XRL       A,R0
   \   0000FF   7003         JNZ       ??ZDP_IncomingData_2
   \   000101   74FF         MOV       A,#-0x1
   \   000103   69           XRL       A,R1
   \                     ??ZDP_IncomingData_2:
   \   000104   603F         JZ        ??ZDP_IncomingData_3
   \   000106   E4           CLR       A
   \   000107   93           MOVC      A,@A+DPTR
   \   000108   F8           MOV       R0,A
   \   000109   7401         MOV       A,#0x1
   \   00010B   93           MOVC      A,@A+DPTR
   \   00010C   F9           MOV       R1,A
   \   00010D   740C         MOV       A,#0xc
   \   00010F   12....       LCALL     ?XSTACK_DISP0_8
   \   000112   E0           MOVX      A,@DPTR
   \   000113   68           XRL       A,R0
   \   000114   7003         JNZ       ??ZDP_IncomingData_4
   \   000116   A3           INC       DPTR
   \   000117   E0           MOVX      A,@DPTR
   \   000118   69           XRL       A,R1
   \                     ??ZDP_IncomingData_4:
   \   000119   70BE         JNZ       ??ZDP_IncomingData_1
   \   00011B                ; Setup parameters for indirect call
   \   00011B   AA..         MOV       R2,?XSP + 0
   \   00011D   AB..         MOV       R3,?XSP + 1
   \   00011F   75..00       MOV       ?V1,#0x0
   \   000122   7402         MOV       A,#0x2
   \   000124   78..         MOV       R0,#?V0
   \   000126   12....       LCALL     ?S_SHL
   \   000129   74..         MOV       A,#(zdpMsgProcs + 2) & 0xff
   \   00012B   25..         ADD       A,?V0
   \   00012D   F582         MOV       DPL,A
   \   00012F   74..         MOV       A,#((zdpMsgProcs + 2) >> 8) & 0xff
   \   000131   35..         ADDC      A,?V1
   \   000133   F583         MOV       DPH,A
   \   000135   E4           CLR       A
   \   000136   93           MOVC      A,@A+DPTR
   \   000137   C0E0         PUSH      A
   \   000139   7401         MOV       A,#0x1
   \   00013B   93           MOVC      A,@A+DPTR
   \   00013C   F583         MOV       DPH,A
   \   00013E   D082         POP       DPL
   \   000140   12....       LCALL     ?CALL_IND
   \   000143   800B         SJMP      ??ZDP_IncomingData_5
   2040            }
   2041          
   2042            // Handle unhandled messages
   2043            if ( !handled )
   \                     ??ZDP_IncomingData_3:
   \   000145   E5..         MOV       A,?V1
   \   000147   7007         JNZ       ??ZDP_IncomingData_5
   2044              ZDApp_InMsgCB( &inMsg );
   \   000149                ; Setup parameters for call to function ZDApp_InMsgCB
   \   000149   AA..         MOV       R2,?XSP + 0
   \   00014B   AB..         MOV       R3,?XSP + 1
   \   00014D   12....       LCALL     `??ZDApp_InMsgCB::?relay`; Banked call to: ZDApp_InMsgCB
   2045          }
   \                     ??ZDP_IncomingData_5:
   \   000150   7417         MOV       A,#0x17
   \   000152   02....       LJMP      ??Subroutine107_0 & 0xFFFF

   \                                 In  segment BANKED_CODE, align 1, keep-with-next
   \                     ?Subroutine33:
   \   000000   12....       LCALL     ?Subroutine92 & 0xFFFF
   \                     ??CrossCallReturnLabel_158:
   \   000003   22           RET

   \                                 In  segment XDATA_ID, align 1, keep-with-next
   \                     `?<Initializer for ZDP_TmpBuf>`:
   \   000000   ....         DW ZDP_Buf + 1H

   \                                 In  segment BANK_RELAYS, align 1
   \                     `??fillAndSend::?relay`:
   \   000000   12....       LCALL   ?BDISPATCH
   \   000003   ......       DC24    fillAndSend

   \                                 In  segment BANK_RELAYS, align 1
   \                     `??ZDP_SendData::?relay`:
   \   000000   12....       LCALL   ?BDISPATCH
   \   000003   ......       DC24    ZDP_SendData

   \                                 In  segment BANK_RELAYS, align 1
   \                     `??ZDP_NWKAddrOfInterestReq::?relay`:
   \   000000   12....       LCALL   ?BDISPATCH
   \   000003   ......       DC24    ZDP_NWKAddrOfInterestReq

   \                                 In  segment BANK_RELAYS, align 1
   \                     `??ZDP_NwkAddrReq::?relay`:
   \   000000   12....       LCALL   ?BDISPATCH
   \   000003   ......       DC24    ZDP_NwkAddrReq

   \                                 In  segment BANK_RELAYS, align 1
   \                     `??ZDP_IEEEAddrReq::?relay`:
   \   000000   12....       LCALL   ?BDISPATCH
   \   000003   ......       DC24    ZDP_IEEEAddrReq

   \                                 In  segment BANK_RELAYS, align 1
   \                     `??ZDP_MatchDescReq::?relay`:
   \   000000   12....       LCALL   ?BDISPATCH
   \   000003   ......       DC24    ZDP_MatchDescReq

   \                                 In  segment BANK_RELAYS, align 1
   \                     `??ZDP_SimpleDescReq::?relay`:
   \   000000   12....       LCALL   ?BDISPATCH
   \   000003   ......       DC24    ZDP_SimpleDescReq

   \                                 In  segment BANK_RELAYS, align 1
   \                     `??ZDP_UserDescSet::?relay`:
   \   000000   12....       LCALL   ?BDISPATCH
   \   000003   ......       DC24    ZDP_UserDescSet

   \                                 In  segment BANK_RELAYS, align 1
   \                     `??ZDP_ServerDiscReq::?relay`:
   \   000000   12....       LCALL   ?BDISPATCH
   \   000003   ......       DC24    ZDP_ServerDiscReq

   \                                 In  segment BANK_RELAYS, align 1
   \                     `??ZDP_DeviceAnnce::?relay`:
   \   000000   12....       LCALL   ?BDISPATCH
   \   000003   ......       DC24    ZDP_DeviceAnnce

   \                                 In  segment BANK_RELAYS, align 1
   \                     `??ZDP_ParentAnnce::?relay`:
   \   000000   12....       LCALL   ?BDISPATCH
   \   000003   ......       DC24    ZDP_ParentAnnce

   \                                 In  segment BANK_RELAYS, align 1
   \                     `??zdpProcessAddrReq::?relay`:
   \   000000   12....       LCALL   ?BDISPATCH
   \   000003   ......       DC24    zdpProcessAddrReq

   \                                 In  segment BANK_RELAYS, align 1
   \                     `??ZDP_NodeDescMsg::?relay`:
   \   000000   12....       LCALL   ?BDISPATCH
   \   000003   ......       DC24    ZDP_NodeDescMsg

   \                                 In  segment BANK_RELAYS, align 1
   \                     `??ZDP_PowerDescMsg::?relay`:
   \   000000   12....       LCALL   ?BDISPATCH
   \   000003   ......       DC24    ZDP_PowerDescMsg

   \                                 In  segment BANK_RELAYS, align 1
   \                     `??ZDP_SimpleDescMsg::?relay`:
   \   000000   12....       LCALL   ?BDISPATCH
   \   000003   ......       DC24    ZDP_SimpleDescMsg

   \                                 In  segment BANK_RELAYS, align 1
   \                     `??ZDP_EPRsp::?relay`:
   \   000000   12....       LCALL   ?BDISPATCH
   \   000003   ......       DC24    ZDP_EPRsp

   \                                 In  segment BANK_RELAYS, align 1
   \                     `??ZDP_UserDescRsp::?relay`:
   \   000000   12....       LCALL   ?BDISPATCH
   \   000003   ......       DC24    ZDP_UserDescRsp

   \                                 In  segment BANK_RELAYS, align 1
   \                     `??ZDP_ServerDiscRsp::?relay`:
   \   000000   12....       LCALL   ?BDISPATCH
   \   000003   ......       DC24    ZDP_ServerDiscRsp

   \                                 In  segment BANK_RELAYS, align 1
   \                     `??ZDP_GenericRsp::?relay`:
   \   000000   12....       LCALL   ?BDISPATCH
   \   000003   ......       DC24    ZDP_GenericRsp

   \                                 In  segment BANK_RELAYS, align 1
   \                     `??ZDP_EndDeviceBindReq::?relay`:
   \   000000   12....       LCALL   ?BDISPATCH
   \   000003   ......       DC24    ZDP_EndDeviceBindReq

   \                                 In  segment BANK_RELAYS, align 1
   \                     `??ZDP_BindUnbindReq::?relay`:
   \   000000   12....       LCALL   ?BDISPATCH
   \   000003   ......       DC24    ZDP_BindUnbindReq

   \                                 In  segment BANK_RELAYS, align 1
   \                     `??ZDP_MgmtNwkDiscReq::?relay`:
   \   000000   12....       LCALL   ?BDISPATCH
   \   000003   ......       DC24    ZDP_MgmtNwkDiscReq

   \                                 In  segment BANK_RELAYS, align 1
   \                     `??ZDP_MgmtDirectJoinReq::?relay`:
   \   000000   12....       LCALL   ?BDISPATCH
   \   000003   ......       DC24    ZDP_MgmtDirectJoinReq

   \                                 In  segment BANK_RELAYS, align 1
   \                     `??ZDP_MgmtPermitJoinReq::?relay`:
   \   000000   12....       LCALL   ?BDISPATCH
   \   000003   ......       DC24    ZDP_MgmtPermitJoinReq

   \                                 In  segment BANK_RELAYS, align 1
   \                     `??ZDP_MgmtLeaveReq::?relay`:
   \   000000   12....       LCALL   ?BDISPATCH
   \   000003   ......       DC24    ZDP_MgmtLeaveReq

   \                                 In  segment BANK_RELAYS, align 1
   \                     `??ZDP_MgmtNwkUpdateReq::?relay`:
   \   000000   12....       LCALL   ?BDISPATCH
   \   000003   ......       DC24    ZDP_MgmtNwkUpdateReq

   \                                 In  segment BANK_RELAYS, align 1
   \                     `??ZDP_MgmtNwkDiscRsp::?relay`:
   \   000000   12....       LCALL   ?BDISPATCH
   \   000003   ......       DC24    ZDP_MgmtNwkDiscRsp

   \                                 In  segment BANK_RELAYS, align 1
   \                     `??ZDP_MgmtLqiRsp::?relay`:
   \   000000   12....       LCALL   ?BDISPATCH
   \   000003   ......       DC24    ZDP_MgmtLqiRsp

   \                                 In  segment BANK_RELAYS, align 1
   \                     `??ZDP_MgmtRtgRsp::?relay`:
   \   000000   12....       LCALL   ?BDISPATCH
   \   000003   ......       DC24    ZDP_MgmtRtgRsp

   \                                 In  segment BANK_RELAYS, align 1
   \                     `??ZDP_MgmtBindRsp::?relay`:
   \   000000   12....       LCALL   ?BDISPATCH
   \   000003   ......       DC24    ZDP_MgmtBindRsp

   \                                 In  segment BANK_RELAYS, align 1
   \                     `??ZDP_MgmtNwkUpdateNotify::?relay`:
   \   000000   12....       LCALL   ?BDISPATCH
   \   000003   ......       DC24    ZDP_MgmtNwkUpdateNotify

   \                                 In  segment BANK_RELAYS, align 1
   \                     `??ZDO_RegisterForZDOMsg::?relay`:
   \   000000   12....       LCALL   ?BDISPATCH
   \   000003   ......       DC24    ZDO_RegisterForZDOMsg

   \                                 In  segment BANK_RELAYS, align 1
   \                     `??ZDO_RemoveRegisteredCB::?relay`:
   \   000000   12....       LCALL   ?BDISPATCH
   \   000003   ......       DC24    ZDO_RemoveRegisteredCB

   \                                 In  segment BANK_RELAYS, align 1
   \                     `??ZDO_SendMsgCBs::?relay`:
   \   000000   12....       LCALL   ?BDISPATCH
   \   000003   ......       DC24    ZDO_SendMsgCBs

   \                                 In  segment BANK_RELAYS, align 1
   \                     `??ZDP_IncomingData::?relay`:
   \   000000   12....       LCALL   ?BDISPATCH
   \   000003   ......       DC24    ZDP_IncomingData
   2046          
   2047          /*********************************************************************
   2048          *********************************************************************/
   2049          

   Maximum stack usage in bytes:

   ISTACK XSTACK Function
   ------ ------ --------
      1     14   ZDO_RegisterForZDOMsg
        0     14   -> osal_mem_alloc
      0      9   ZDO_RemoveRegisteredCB
        0      9   -> osal_mem_free
      0     54   ZDO_SendMsgCBs
        0     19   -> osal_memcpy
        0     16   -> osal_msg_allocate
        0     16   -> osal_msg_send
      1     26   ZDP_BindUnbindReq
        0     18   -> fillAndSend
        0     16   -> sAddrExtCpy
        1     16   -> sAddrExtCpy
      1     22   ZDP_DeviceAnnce
        0     21   -> fillAndSend
        0     19   -> sAddrExtCpy
      1     26   ZDP_EPRsp
        0     18   -> fillAndSend
        0     19   -> osal_memcpy
      1     29   ZDP_EndDeviceBindReq
        0     18   -> NLME_GetExtAddr
        0     18   -> NLME_GetShortAddr
        0     20   -> fillAndSend
        0     18   -> sAddrExtCpy
      1     16   ZDP_GenericRsp
        0     12   -> fillAndSend
      1     21   ZDP_IEEEAddrReq
        0     21   -> fillAndSend
      1     35   ZDP_IncomingData
        0     35   -> MT_ZdoDirectCB
        0     35   -> ZDApp_InMsgCB
        0     35   -> ZDO_SendMsgCBs
      1     24   ZDP_MatchDescReq
        0     16   -> fillAndSend
      1     28   ZDP_MgmtBindRsp
        0     23   -> fillAndSend
        0     21   -> osal_mem_alloc
        0     21   -> osal_mem_free
        0     21   -> sAddrExtCpy
      1     15   ZDP_MgmtDirectJoinReq
        0     14   -> fillAndSend
        0     12   -> sAddrExtCpy
      0     16   ZDP_MgmtLeaveReq
        0     14   -> fillAndSend
        0     12   -> sAddrExtCpy
      1     27   ZDP_MgmtLqiRsp
        0     22   -> fillAndSend
        0     20   -> osal_mem_alloc
        0     20   -> osal_mem_free
        0     20   -> sAddrExtCpy
      1     20   ZDP_MgmtNwkDiscReq
        0     14   -> fillAndSend
        0     16   -> osal_buffer_uint32
      1     28   ZDP_MgmtNwkDiscRsp
        0     23   -> fillAndSend
        0     21   -> osal_mem_alloc
        0     21   -> osal_mem_free
        0     21   -> sAddrExtCpy
      1     35   ZDP_MgmtNwkUpdateNotify
        0     21   -> fillAndSend
        0     23   -> osal_buffer_uint32
        0     19   -> osal_mem_alloc
        0     19   -> osal_mem_free
        0     22   -> osal_memcpy
      1     24   ZDP_MgmtNwkUpdateReq
        0     16   -> fillAndSend
        0     18   -> osal_buffer_uint32
      1     23   ZDP_MgmtPermitJoinReq
        0     21   -> NLME_GetShortAddr
        0     23   -> fillAndSend
      1     26   ZDP_MgmtRtgRsp
        0     21   -> fillAndSend
        0     19   -> osal_mem_alloc
        0     19   -> osal_mem_free
      1     13   ZDP_NWKAddrOfInterestReq
        0     12   -> fillAndSend
      1     14   ZDP_NodeDescMsg
        0     12   -> fillAndSend
      1     23   ZDP_NwkAddrReq
        0     23   -> fillAndSend
        0     21   -> sAddrExtCmp
        0     21   -> sAddrExtCpy
      1     29   ZDP_ParentAnnce
        0     22   -> fillAndSend
        0     24   -> osal_buffer_uint32
        0     20   -> sAddrExtCpy
      1     14   ZDP_PowerDescMsg
        0     12   -> fillAndSend
      1     19   ZDP_SendData
        0     14   -> fillAndSend
      1     21   ZDP_ServerDiscReq
        0     21   -> fillAndSend
      1     17   ZDP_ServerDiscRsp
        0     13   -> fillAndSend
      1     18   ZDP_SimpleDescMsg
        0     18   -> fillAndSend
      1     13   ZDP_SimpleDescReq
        0     12   -> fillAndSend
      1     25   ZDP_UserDescRsp
        0     21   -> fillAndSend
        0     22   -> osal_memcpy
      1     20   ZDP_UserDescSet
        0     17   -> fillAndSend
        0     18   -> osal_memcpy
        0     15   -> osal_memset
      1     69   fillAndSend
        0     35   -> AF_DataRequest
        0     26   -> osal_memset
      1     34   zdpProcessAddrReq
        0     32   -> AddrMgrEntryGet
        0     32   -> AssocGetWithExt
        0     32   -> AssocGetWithShort
        0     32   -> AssocMakeList
        0     34   -> fillAndSend
        0     32   -> osal_mem_free
        0     32   -> sAddrExtCmp
        0     32   -> sAddrExtCpy


   Segment part sizes:

   Bytes  Function/Label
   -----  --------------
       2  ?<Initializer for ZDP_TmpBuf>
      13  ??Subroutine106_0
       3  ??Subroutine107_0
       5  ??Subroutine108_0
       5  ??Subroutine109_0
       2  ??Subroutine110_0
       8  ??Subroutine111_0
       5  ??Subroutine112_0
       9  ??Subroutine113_0
       6  ??Subroutine114_0
       8  ??Subroutine115_0
       4  ??Subroutine116_0
       7  ??Subroutine117_0
       8  ??Subroutine118_0
       5  ??Subroutine119_0
       5  ??Subroutine120_0
       4  ??Subroutine121_0
       8  ??Subroutine122_0
       3  ??Subroutine123_0
       6  ??Subroutine124_0
       5  ??Subroutine125_0
       8  ??Subroutine126_0
       6  ??Subroutine127_0
       6  ??Subroutine128_0
       5  ??Subroutine129_0
       2  ??Subroutine130_0
       6  ??Subroutine131_0
       3  ??Subroutine132_0
       5  ??Subroutine133_0
       8  ??Subroutine134_0
       3  ??Subroutine135_0
       4  ??Subroutine136_0
       3  ?Subroutine0
      10  ?Subroutine1
      30  ?Subroutine10
       7  ?Subroutine100
       6  ?Subroutine101
       8  ?Subroutine102
       6  ?Subroutine103
       9  ?Subroutine104
       3  ?Subroutine105
      17  ?Subroutine11
      32  ?Subroutine12
      14  ?Subroutine13
      35  ?Subroutine14
       7  ?Subroutine15
      22  ?Subroutine16
       8  ?Subroutine17
       6  ?Subroutine18
       9  ?Subroutine19
      17  ?Subroutine2
       5  ?Subroutine20
      21  ?Subroutine21
       8  ?Subroutine22
       4  ?Subroutine23
       6  ?Subroutine24
       7  ?Subroutine25
       2  ?Subroutine26
       8  ?Subroutine27
      13  ?Subroutine28
      11  ?Subroutine29
       8  ?Subroutine3
       3  ?Subroutine30
      10  ?Subroutine31
      12  ?Subroutine32
       4  ?Subroutine33
       2  ?Subroutine34
       6  ?Subroutine35
       8  ?Subroutine36
       6  ?Subroutine37
       1  ?Subroutine38
      10  ?Subroutine39
       5  ?Subroutine4
       9  ?Subroutine40
      13  ?Subroutine41
       9  ?Subroutine42
       3  ?Subroutine43
       8  ?Subroutine44
       9  ?Subroutine45
       4  ?Subroutine46
      14  ?Subroutine47
      13  ?Subroutine48
      10  ?Subroutine49
       2  ?Subroutine5
       3  ?Subroutine50
       3  ?Subroutine51
       6  ?Subroutine52
       8  ?Subroutine53
       6  ?Subroutine54
       6  ?Subroutine55
      15  ?Subroutine56
       2  ?Subroutine57
      11  ?Subroutine58
       4  ?Subroutine59
       5  ?Subroutine6
       4  ?Subroutine60
       2  ?Subroutine61
       2  ?Subroutine62
       1  ?Subroutine63
       6  ?Subroutine64
       4  ?Subroutine65
       4  ?Subroutine66
       8  ?Subroutine67
      19  ?Subroutine68
      12  ?Subroutine69
       5  ?Subroutine7
       5  ?Subroutine70
      10  ?Subroutine71
       4  ?Subroutine72
       5  ?Subroutine73
      12  ?Subroutine74
       4  ?Subroutine75
       3  ?Subroutine76
      10  ?Subroutine77
       6  ?Subroutine78
      13  ?Subroutine79
       8  ?Subroutine8
      11  ?Subroutine80
       5  ?Subroutine81
      10  ?Subroutine82
       7  ?Subroutine83
       8  ?Subroutine84
       5  ?Subroutine85
       7  ?Subroutine86
       7  ?Subroutine87
       5  ?Subroutine88
      16  ?Subroutine89
      16  ?Subroutine9
       9  ?Subroutine90
       5  ?Subroutine91
       5  ?Subroutine92
       9  ?Subroutine93
       9  ?Subroutine94
       9  ?Subroutine95
      10  ?Subroutine96
      10  ?Subroutine97
      10  ?Subroutine98
       6  ?Subroutine99
     139  ZDO_RegisterForZDOMsg
       6  ZDO_RegisterForZDOMsg::?relay
     110  ZDO_RemoveRegisteredCB
       6  ZDO_RemoveRegisteredCB::?relay
     244  ZDO_SendMsgCBs
       6  ZDO_SendMsgCBs::?relay
       1  ZDP_AF_ENDPOINT
     216  ZDP_BindUnbindReq
       6  ZDP_BindUnbindReq::?relay
      80  ZDP_Buf
      74  ZDP_DeviceAnnce
       6  ZDP_DeviceAnnce::?relay
     165  ZDP_EPRsp
       6  ZDP_EPRsp::?relay
     233  ZDP_EndDeviceBindReq
       6  ZDP_EndDeviceBindReq::?relay
      87  ZDP_GenericRsp
       6  ZDP_GenericRsp::?relay
      72  ZDP_IEEEAddrReq
       6  ZDP_IEEEAddrReq::?relay
     341  ZDP_IncomingData
       6  ZDP_IncomingData::?relay
     250  ZDP_MatchDescReq
       6  ZDP_MatchDescReq::?relay
     289  ZDP_MgmtBindRsp
       6  ZDP_MgmtBindRsp::?relay
      23  ZDP_MgmtDirectJoinReq
       6  ZDP_MgmtDirectJoinReq::?relay
      50  ZDP_MgmtLeaveReq
       6  ZDP_MgmtLeaveReq::?relay
     363  ZDP_MgmtLqiRsp
       6  ZDP_MgmtLqiRsp::?relay
      59  ZDP_MgmtNwkDiscReq
       6  ZDP_MgmtNwkDiscReq::?relay
     294  ZDP_MgmtNwkDiscRsp
       6  ZDP_MgmtNwkDiscRsp::?relay
     221  ZDP_MgmtNwkUpdateNotify
       6  ZDP_MgmtNwkUpdateNotify::?relay
     123  ZDP_MgmtNwkUpdateReq
       6  ZDP_MgmtNwkUpdateReq::?relay
     173  ZDP_MgmtPermitJoinReq
       6  ZDP_MgmtPermitJoinReq::?relay
     303  ZDP_MgmtRtgRsp
       6  ZDP_MgmtRtgRsp::?relay
      27  ZDP_NWKAddrOfInterestReq
       6  ZDP_NWKAddrOfInterestReq::?relay
     196  ZDP_NodeDescMsg
       6  ZDP_NodeDescMsg::?relay
     106  ZDP_NwkAddrReq
       6  ZDP_NwkAddrReq::?relay
     172  ZDP_ParentAnnce
       6  ZDP_ParentAnnce::?relay
      77  ZDP_PowerDescMsg
       6  ZDP_PowerDescMsg::?relay
     108  ZDP_SendData
       6  ZDP_SendData::?relay
      81  ZDP_ServerDiscReq
       6  ZDP_ServerDiscReq::?relay
     101  ZDP_ServerDiscRsp
       6  ZDP_ServerDiscRsp::?relay
     322  ZDP_SimpleDescMsg
       6  ZDP_SimpleDescMsg::?relay
      27  ZDP_SimpleDescReq
       6  ZDP_SimpleDescReq::?relay
       2  ZDP_TmpBuf
       1  ZDP_TransID
       1  ZDP_TxOptions
     138  ZDP_UserDescRsp
       6  ZDP_UserDescRsp::?relay
     111  ZDP_UserDescSet
       6  ZDP_UserDescSet::?relay
     160  fillAndSend
       6  fillAndSend::?relay
       2  zdoMsgCBs
      84  zdpMsgProcs
     684  zdpProcessAddrReq
       6  zdpProcessAddrReq::?relay

 
 7 212 bytes in segment BANKED_CODE
   210 bytes in segment BANK_RELAYS
    85 bytes in segment CODE_C
     2 bytes in segment XDATA_I
     2 bytes in segment XDATA_ID
    84 bytes in segment XDATA_Z
 
   297 bytes of CODE     memory
 7 212 bytes of HUGECODE memory
    86 bytes of XDATA    memory

Errors: none
Warnings: none
