///////////////////////////////////////////////////////////////////////////////
//
// IAR C/C++ Compiler V10.10.1.4655 for 8051              16/Feb/2018  21:40:24
// Copyright 2004-2017 IAR Systems AB.
// Evaluation license - IAR Embedded Workbench for 8051, Evaluation version 10.10
//
//    Core               =  plain
//    Code model         =  banked
//    Data model         =  large
//    Calling convention =  xdata reentrant
//    Constant location  =  data_rom
//    Dptr setup         =  1,16
//                          
//    Source file        =  
//        C:\Texas Instruments\Z-Stack Home
//        1.2.2a.44539\Components\stack\nwk\BindingTable.c
//    Command line       =  
//        -f C:\Users\Oskar\AppData\Local\Temp\EW4FA4.tmp ("C:\Texas
//        Instruments\Z-Stack Home
//        1.2.2a.44539\Components\stack\nwk\BindingTable.c" -D
//        FEATURE_SYSTEM_STATS -D CC2531ZNP -D POWER_SAVING -D xTC_LINKKEY_JOIN
//        -lC "C:\Texas Instruments\Z-Stack Home
//        1.2.2a.44539\Projects\zstack\ZNP\CC253x\CC2531-Debug\List" -lA
//        "C:\Texas Instruments\Z-Stack Home
//        1.2.2a.44539\Projects\zstack\ZNP\CC253x\CC2531-Debug\List"
//        --diag_suppress Pe001,Pa010 -o "C:\Texas Instruments\Z-Stack Home
//        1.2.2a.44539\Projects\zstack\ZNP\CC253x\CC2531-Debug\Obj" -e --debug
//        --core=plain --dptr=16,1 --data_model=large --code_model=banked
//        --calling_convention=xdata_reentrant --place_constants=data_rom
//        --nr_virtual_regs 16 -f "C:\Texas Instruments\Z-Stack Home
//        1.2.2a.44539\Projects\zstack\ZNP\CC253x\..\Source\znp.cfg"
//        (-DMAC_CFG_APP_PENDING_QUEUE=TRUE
//        "-DZSTACK_DEVICE_BUILD=(DEVICE_BUILD_COORDINATOR |
//        DEVICE_BUILD_ROUTER | DEVICE_BUILD_ENDDEVICE)" -DNWK_AUTO_POLL
//        -DZNP_RUN_WDOG=FALSE -DZNP_UART_BAUD=HAL_UART_BR_115200 -DZIGBEEPRO
//        -DZIGBEE_FRAGMENTATION -DINTER_PAN -DOSAL_CLOCK -DOSAL_SAPI=FALSE
//        -DSAPI_CB_FUNC=FALSE -DHOLD_AUTO_START -DNV_RESTORE -DNV_INIT
//        -DNUM_DISC_ATTEMPTS=0 -DMT_UTIL_FUNC -DMT_SYS_FUNC -DMT_AF_FUNC
//        -DMT_SAPI_FUNC -DMT_SAPI_CB_FUNC -DMT_ZDO_CB_FUNC -DMT_ZDO_FUNC
//        -DMT_ZDO_MGMT -DMT_ZDO_EXTENSIONS -DMT_APP_FUNC) -f "C:\Texas
//        Instruments\Z-Stack Home
//        1.2.2a.44539\Projects\zstack\ZNP\CC253x\..\..\Tools\CC2530DB\f8wConfig.cfg"
//        (-DZIGBEEPRO -DSECURE=1 -DZG_SECURE_DYNAMIC=0 -DREFLECTOR
//        -DDEFAULT_CHANLIST=0x00000800 -DZDAPP_CONFIG_PAN_ID=0xFFFF
//        -DNWK_START_DELAY=100 -DEXTENDED_JOINING_RANDOM_MASK=0x007F
//        -DBEACON_REQUEST_DELAY=100 -DBEACON_REQ_DELAY_MASK=0x00FF
//        -DLINK_STATUS_JITTER_MASK=0x007F -DROUTE_EXPIRY_TIME=30
//        -DAPSC_ACK_WAIT_DURATION_POLLED=3000 -DNWK_INDIRECT_MSG_TIMEOUT=7
//        -DMAX_RREQ_ENTRIES=8 -DAPSC_MAX_FRAME_RETRIES=3
//        -DNWK_MAX_DATA_RETRIES=2 -DMAX_POLL_FAILURE_RETRIES=2 -DMAX_BCAST=9
//        -DAPS_MAX_GROUPS=16 -DMAX_RTG_ENTRIES=40 -DNWK_MAX_BINDING_ENTRIES=4
//        -DMAX_BINDING_CLUSTER_IDS=4 "-DDEFAULT_KEY={0x01, 0x03, 0x05, 0x07,
//        0x09, 0x0B, 0x0D, 0x0F, 0x00, 0x02, 0x04, 0x06, 0x08, 0x0A, 0x0C,
//        0x0D}" -DMAC_MAX_FRAME_SIZE=116 -DZDNWKMGR_MIN_TRANSMISSIONS=20
//        "-DCONST=const __code" -DGENERIC=__generic -DRFD_RCVC_ALWAYS_ON=FALSE
//        -DPOLL_RATE=1000 -DQUEUED_POLL_RATE=100 -DRESPONSE_POLL_RATE=100
//        -DREJOIN_POLL_RATE=440 -DREJOIN_BACKOFF=900000 -DREJOIN_SCAN=900000)
//        -f "C:\Texas Instruments\Z-Stack Home
//        1.2.2a.44539\Projects\zstack\ZNP\CC253x\..\..\Tools\CC2530DB\f8wZCL.cfg"
//        -I "C:\Texas Instruments\Z-Stack Home
//        1.2.2a.44539\Projects\zstack\ZNP\CC253x\" -I "C:\Texas
//        Instruments\Z-Stack Home
//        1.2.2a.44539\Projects\zstack\ZNP\CC253x\Source\" -I "C:\Texas
//        Instruments\Z-Stack Home
//        1.2.2a.44539\Projects\zstack\ZNP\CC253x\..\Source\" -I "C:\Texas
//        Instruments\Z-Stack Home
//        1.2.2a.44539\Projects\zstack\ZNP\CC253x\..\..\SE\Source\" -I
//        "C:\Texas Instruments\Z-Stack Home
//        1.2.2a.44539\Projects\zstack\ZNP\CC253x\..\..\ZMain\TI2530ZNP\" -I
//        "C:\Texas Instruments\Z-Stack Home
//        1.2.2a.44539\Projects\zstack\ZNP\CC253x\..\..\..\..\Components\hal\include\"
//        -I "C:\Texas Instruments\Z-Stack Home
//        1.2.2a.44539\Projects\zstack\ZNP\CC253x\..\..\..\..\Components\hal\target\CC2530USB\"
//        -I "C:\Texas Instruments\Z-Stack Home
//        1.2.2a.44539\Projects\zstack\ZNP\CC253x\..\..\..\..\Components\hal\target\CC2530USB\usb\library\"
//        -I "C:\Texas Instruments\Z-Stack Home
//        1.2.2a.44539\Projects\zstack\ZNP\CC253x\..\..\..\..\Components\hal\target\CC2530USB\usb\library\cc2531\"
//        -I "C:\Texas Instruments\Z-Stack Home
//        1.2.2a.44539\Projects\zstack\ZNP\CC253x\..\..\..\..\Components\hal\target\CC2530USB\usb\class_cdc\"
//        -I "C:\Texas Instruments\Z-Stack Home
//        1.2.2a.44539\Projects\zstack\ZNP\CC253x\..\..\..\..\Components\mac\include\"
//        -I "C:\Texas Instruments\Z-Stack Home
//        1.2.2a.44539\Projects\zstack\ZNP\CC253x\..\..\..\..\Components\mac\high_level\"
//        -I "C:\Texas Instruments\Z-Stack Home
//        1.2.2a.44539\Projects\zstack\ZNP\CC253x\..\..\..\..\Components\mac\low_level\srf04\"
//        -I "C:\Texas Instruments\Z-Stack Home
//        1.2.2a.44539\Projects\zstack\ZNP\CC253x\..\..\..\..\Components\mac\low_level\srf04\single_chip\"
//        -I "C:\Texas Instruments\Z-Stack Home
//        1.2.2a.44539\Projects\zstack\ZNP\CC253x\..\..\..\..\Components\mt\"
//        -I "C:\Texas Instruments\Z-Stack Home
//        1.2.2a.44539\Projects\zstack\ZNP\CC253x\..\..\..\..\Components\osal\include\"
//        -I "C:\Texas Instruments\Z-Stack Home
//        1.2.2a.44539\Projects\zstack\ZNP\CC253x\..\..\..\..\Components\services\ecc\binary163\"
//        -I "C:\Texas Instruments\Z-Stack Home
//        1.2.2a.44539\Projects\zstack\ZNP\CC253x\..\..\..\..\Components\services\ecc\binary283\"
//        -I "C:\Texas Instruments\Z-Stack Home
//        1.2.2a.44539\Projects\zstack\ZNP\CC253x\..\..\..\..\Components\services\saddr\"
//        -I "C:\Texas Instruments\Z-Stack Home
//        1.2.2a.44539\Projects\zstack\ZNP\CC253x\..\..\..\..\Components\services\sdata\"
//        -I "C:\Texas Instruments\Z-Stack Home
//        1.2.2a.44539\Projects\zstack\ZNP\CC253x\..\..\..\..\Components\stack\af\"
//        -I "C:\Texas Instruments\Z-Stack Home
//        1.2.2a.44539\Projects\zstack\ZNP\CC253x\..\..\..\..\Components\stack\nwk\"
//        -I "C:\Texas Instruments\Z-Stack Home
//        1.2.2a.44539\Projects\zstack\ZNP\CC253x\..\..\..\..\Components\stack\sapi\"
//        -I "C:\Texas Instruments\Z-Stack Home
//        1.2.2a.44539\Projects\zstack\ZNP\CC253x\..\..\..\..\Components\stack\sec\"
//        -I "C:\Texas Instruments\Z-Stack Home
//        1.2.2a.44539\Projects\zstack\ZNP\CC253x\..\..\..\..\Components\stack\sys\"
//        -I "C:\Texas Instruments\Z-Stack Home
//        1.2.2a.44539\Projects\zstack\ZNP\CC253x\..\..\..\..\Components\stack\zcl\"
//        -I "C:\Texas Instruments\Z-Stack Home
//        1.2.2a.44539\Projects\zstack\ZNP\CC253x\..\..\..\..\Components\stack\zdo\"
//        -I "C:\Texas Instruments\Z-Stack Home
//        1.2.2a.44539\Projects\zstack\ZNP\CC253x\..\..\..\..\Components\zmac\"
//        -I "C:\Texas Instruments\Z-Stack Home
//        1.2.2a.44539\Projects\zstack\ZNP\CC253x\..\..\..\..\Components\zmac\f8w\"
//        -Ohz --require_prototypes --no_code_motion)
//    Locale             =  German_Germany.1252
//    List file          =  
//        C:\Texas Instruments\Z-Stack Home
//        1.2.2a.44539\Projects\zstack\ZNP\CC253x\CC2531-Debug\List\BindingTable.s51
//
///////////////////////////////////////////////////////////////////////////////

        NAME BindingTable

        RTMODEL "__SystemLibrary", "CLib"
        RTMODEL "__calling_convention", "xdata_reentrant"
        RTMODEL "__code_model", "banked"
        RTMODEL "__core", "plain"
        RTMODEL "__data_model", "large"
        RTMODEL "__dptr_size", "16"
        RTMODEL "__extended_stack", "disabled"
        RTMODEL "__location_for_constants", "data"
        RTMODEL "__number_of_dptrs", "1"
        RTMODEL "__register_banks", "*"
        RTMODEL "__rt_version", "1"

        RSEG DOVERLAY:DATA:NOROOT(0)
        RSEG IOVERLAY:IDATA:NOROOT(0)
        RSEG ISTACK:IDATA:NOROOT(0)
        RSEG PSTACK:XDATA:NOROOT(0)
        RSEG XSTACK:XDATA:NOROOT(0)

        EXTERN ?V0
        EXTERN ?V1
        EXTERN ?V2
        EXTERN ?V3
        EXTERN ?V4
        EXTERN ?V5
        EXTERN ?V6
        EXTERN ?V7
        EXTERN ?V8
        EXTERN ?V10
        EXTERN ?V11
        EXTERN ?ALLOC_XSTACK8
        EXTERN ?BANKED_ENTER_XDATA
        EXTERN ?BANKED_LEAVE_XDATA
        EXTERN ?BDISPATCH
        EXTERN ?BRET
        EXTERN ?DEALLOC_XSTACK8
        EXTERN ?PUSH_XSTACK8_C_TWO
        EXTERN ?PUSH_XSTACK_I_THREE
        EXTERN ?PUSH_XSTACK_I_TWO
        EXTERN ?XSP
        EXTERN ?XSTACK_DISP0_8
        EXTERN ?XSTACK_DISP100_8
        EXTERN ?XSTACK_DISP101_8
        EXTERN __INIT_XDATA_Z

        FUNCTION `??BindCopyBackupToNewNV::?relay`,0203H
        PUBLIC `??BindInitNV::?relay`
        FUNCTION `??BindInitNV::?relay`,0203H
        PUBLIC `??BindRestoreFromNV::?relay`
        FUNCTION `??BindRestoreFromNV::?relay`,0203H
        PUBLIC `??BindSetDefaultNV::?relay`
        FUNCTION `??BindSetDefaultNV::?relay`,0203H
        FUNCTION `??BindUpgradeTableInNV::?relay`,0203H
        PUBLIC `??BindWriteNV::?relay`
        FUNCTION `??BindWriteNV::?relay`,0203H
        PUBLIC `??GetBindingTableEntry::?relay`
        FUNCTION `??GetBindingTableEntry::?relay`,0203H
        PUBLIC `??InitBindingTable::?relay`
        FUNCTION `??InitBindingTable::?relay`,0203H
        PUBLIC `??bindAddClusterIdToList::?relay`
        FUNCTION `??bindAddClusterIdToList::?relay`,0203H
        PUBLIC `??bindAddEntry::?relay`
        FUNCTION `??bindAddEntry::?relay`,0203H
        PUBLIC `??bindAddrIndexGet::?relay`
        FUNCTION `??bindAddrIndexGet::?relay`,0203H
        PUBLIC `??bindAddrMgrLocalLoad::?relay`
        FUNCTION `??bindAddrMgrLocalLoad::?relay`,0203H
        PUBLIC `??bindAddressClear::?relay`
        FUNCTION `??bindAddressClear::?relay`,0203H
        PUBLIC `??bindCapacity::?relay`
        FUNCTION `??bindCapacity::?relay`,0203H
        PUBLIC `??bindFind::?relay`
        FUNCTION `??bindFind::?relay`,0203H
        PUBLIC `??bindFindEmpty::?relay`
        FUNCTION `??bindFindEmpty::?relay`,0203H
        PUBLIC `??bindFindExisting::?relay`
        FUNCTION `??bindFindExisting::?relay`,0203H
        PUBLIC `??bindIsClusterIDinList::?relay`
        FUNCTION `??bindIsClusterIDinList::?relay`,0203H
        PUBLIC `??bindNumBoundTo::?relay`
        FUNCTION `??bindNumBoundTo::?relay`,0203H
        PUBLIC `??bindNumOfEntries::?relay`
        FUNCTION `??bindNumOfEntries::?relay`,0203H
        PUBLIC `??bindNumReflections::?relay`
        FUNCTION `??bindNumReflections::?relay`,0203H
        PUBLIC `??bindRemoveClusterIdFromList::?relay`
        FUNCTION `??bindRemoveClusterIdFromList::?relay`,0203H
        PUBLIC `??bindRemoveDev::?relay`
        FUNCTION `??bindRemoveDev::?relay`,0203H
        PUBLIC `??bindRemoveEntry::?relay`
        FUNCTION `??bindRemoveEntry::?relay`,0203H
        PUBLIC `??bindRemoveSrcDev::?relay`
        FUNCTION `??bindRemoveSrcDev::?relay`,0203H
        PUBLIC `??bindUpdateAddr::?relay`
        FUNCTION `??bindUpdateAddr::?relay`,0203H
        PUBLIC `??bindingAddrMgsHelperConvert::?relay`
        FUNCTION `??bindingAddrMgsHelperConvert::?relay`,0203H
        PUBLIC `??bindingAddrMgsHelperConvertShort::?relay`
        FUNCTION `??bindingAddrMgsHelperConvertShort::?relay`,0203H
        PUBLIC `??bindingAddrMgsHelperFind::?relay`
        FUNCTION `??bindingAddrMgsHelperFind::?relay`,0203H
        FUNCTION BindCopyBackupToNewNV,0a1203H
        ARGFRAME XSTACK, 16, STACK
        ARGFRAME IOVERLAY, 0, STATIC
        ARGFRAME DOVERLAY, 0, STATIC
        LOCFRAME ISTACK, 2, STACK
        LOCFRAME XSTACK, 36, STACK
        PUBLIC BindInitNV
        FUNCTION BindInitNV,0a1603H
        ARGFRAME XSTACK, 0, STACK
        LOCFRAME XSTACK, 12, STACK
        PUBLIC BindRestoreFromNV
        FUNCTION BindRestoreFromNV,0a1603H
        ARGFRAME XSTACK, 0, STACK
        LOCFRAME XSTACK, 18, STACK
        PUBLIC BindSetDefaultNV
        FUNCTION BindSetDefaultNV,0a1603H
        ARGFRAME XSTACK, 10, STACK
        ARGFRAME IOVERLAY, 0, STATIC
        ARGFRAME DOVERLAY, 0, STATIC
        LOCFRAME XSTACK, 16, STACK
        FUNCTION BindUpgradeTableInNV,0a1203H
        ARGFRAME XSTACK, 14, STACK
        ARGFRAME IOVERLAY, 0, STATIC
        ARGFRAME DOVERLAY, 0, STATIC
        LOCFRAME XSTACK, 20, STACK
        PUBLIC BindWriteNV
        FUNCTION BindWriteNV,0a1603H
        ARGFRAME XSTACK, 0, STACK
        LOCFRAME XSTACK, 35, STACK
        PUBLIC GetBindingTableEntry
        FUNCTION GetBindingTableEntry,080203H
        ARGFRAME XSTACK, 0, STACK
        LOCFRAME XSTACK, 9, STACK
        PUBLIC InitBindingTable
        FUNCTION InitBindingTable,0a1203H
        ARGFRAME XSTACK, 0, STACK
        LOCFRAME XSTACK, 10, STACK
        PUBLIC bindAddClusterIdToList
        FUNCTION bindAddClusterIdToList,0203H
        ARGFRAME XSTACK, 20, STACK
        ARGFRAME IOVERLAY, 0, STATIC
        ARGFRAME DOVERLAY, 0, STATIC
        LOCFRAME XSTACK, 9, STACK
        PUBLIC bindAddEntry
        FUNCTION bindAddEntry,0a1603H
        ARGFRAME XSTACK, 2, STACK
        LOCFRAME ISTACK, 1, STACK
        LOCFRAME XSTACK, 23, STACK
        PUBLIC bindAddrIndexGet
        FUNCTION bindAddrIndexGet,021203H
        ARGFRAME XSTACK, 20, STACK
        ARGFRAME IOVERLAY, 0, STATIC
        ARGFRAME DOVERLAY, 0, STATIC
        LOCFRAME ISTACK, 2, STACK
        LOCFRAME XSTACK, 13, STACK
        PUBLIC bindAddrMgrLocalLoad
        FUNCTION bindAddrMgrLocalLoad,0a1203H
        ARGFRAME XSTACK, 20, STACK
        ARGFRAME IOVERLAY, 0, STATIC
        ARGFRAME DOVERLAY, 0, STATIC
        LOCFRAME XSTACK, 23, STACK
        PUBLIC bindAddressClear
        FUNCTION bindAddressClear,021203H
        ARGFRAME XSTACK, 12, STACK
        ARGFRAME IOVERLAY, 0, STATIC
        ARGFRAME DOVERLAY, 0, STATIC
        LOCFRAME ISTACK, 2, STACK
        LOCFRAME XSTACK, 13, STACK
        PUBLIC bindCapacity
        FUNCTION bindCapacity,080203H
        ARGFRAME XSTACK, 0, STACK
        LOCFRAME XSTACK, 9, STACK
        PUBLIC bindFind
        FUNCTION bindFind,0a1203H
        ARGFRAME XSTACK, 0, STACK
        LOCFRAME XSTACK, 14, STACK
        PUBLIC bindFindEmpty
        FUNCTION bindFindEmpty,0203H
        ARGFRAME XSTACK, 20, STACK
        ARGFRAME IOVERLAY, 0, STATIC
        ARGFRAME DOVERLAY, 0, STATIC
        LOCFRAME ISTACK, 2, STACK
        PUBLIC bindFindExisting
        FUNCTION bindFindExisting,0a1203H
        ARGFRAME XSTACK, 0, STACK
        LOCFRAME XSTACK, 12, STACK
        PUBLIC bindIsClusterIDinList
        FUNCTION bindIsClusterIDinList,0203H
        ARGFRAME XSTACK, 20, STACK
        ARGFRAME IOVERLAY, 0, STATIC
        ARGFRAME DOVERLAY, 0, STATIC
        LOCFRAME XSTACK, 9, STACK
        PUBLIC bindNumBoundTo
        FUNCTION bindNumBoundTo,0a1203H
        ARGFRAME XSTACK, 0, STACK
        LOCFRAME XSTACK, 14, STACK
        PUBLIC bindNumOfEntries
        FUNCTION bindNumOfEntries,0603H
        ARGFRAME XSTACK, 0, STACK
        LOCFRAME ISTACK, 2, STACK
        PUBLIC bindNumReflections
        FUNCTION bindNumReflections,0a1203H
        ARGFRAME XSTACK, 0, STACK
        LOCFRAME XSTACK, 12, STACK
        PUBLIC bindRemoveClusterIdFromList
        FUNCTION bindRemoveClusterIdFromList,080203H
        ARGFRAME XSTACK, 0, STACK
        LOCFRAME XSTACK, 11, STACK
        PUBLIC bindRemoveDev
        FUNCTION bindRemoveDev,0a1603H
        ARGFRAME XSTACK, 0, STACK
        LOCFRAME XSTACK, 12, STACK
        PUBLIC bindRemoveEntry
        FUNCTION bindRemoveEntry,021203H
        ARGFRAME XSTACK, 12, STACK
        ARGFRAME IOVERLAY, 0, STATIC
        ARGFRAME DOVERLAY, 0, STATIC
        LOCFRAME ISTACK, 2, STACK
        PUBLIC bindRemoveSrcDev
        FUNCTION bindRemoveSrcDev,0a1203H
        ARGFRAME XSTACK, 0, STACK
        LOCFRAME XSTACK, 10, STACK
        PUBLIC bindUpdateAddr
        FUNCTION bindUpdateAddr,0a1203H
        ARGFRAME XSTACK, 0, STACK
        LOCFRAME XSTACK, 21, STACK
        PUBLIC bindingAddrMgsHelperConvert
        FUNCTION bindingAddrMgsHelperConvert,0a1203H
        ARGFRAME XSTACK, 0, STACK
        LOCFRAME XSTACK, 22, STACK
        PUBLIC bindingAddrMgsHelperConvertShort
        FUNCTION bindingAddrMgsHelperConvertShort,021203H
        ARGFRAME XSTACK, 0, STACK
        LOCFRAME ISTACK, 2, STACK
        LOCFRAME XSTACK, 13, STACK
        PUBLIC bindingAddrMgsHelperFind
        FUNCTION bindingAddrMgsHelperFind,021203H
        ARGFRAME XSTACK, 21, STACK
        ARGFRAME IOVERLAY, 0, STATIC
        ARGFRAME DOVERLAY, 0, STATIC
        LOCFRAME ISTACK, 2, STACK
        LOCFRAME XSTACK, 13, STACK
        PUBLIC pBindInitNV
        PUBLIC pBindRestoreFromNV
        PUBLIC pBindSetDefaultNV
        PUBLIC pBindWriteNV
        PUBLIC pbindAddEntry
        PUBLIC pbindNumOfEntries
        PUBLIC pbindRemoveDev
        
          CFI Names cfiNames0
          CFI StackFrame CFA_SP SP IDATA
          CFI StackFrame CFA_PSP16 PSP16 XDATA
          CFI StackFrame CFA_XSP16 XSP16 XDATA
          CFI StaticOverlayFrame CFA_IOVERLAY IOVERLAY
          CFI StaticOverlayFrame CFA_DOVERLAY DOVERLAY
          CFI Resource `PSW.CY`:1, `B.BR0`:1, `B.BR1`:1, `B.BR2`:1, `B.BR3`:1
          CFI Resource `B.BR4`:1, `B.BR5`:1, `B.BR6`:1, `B.BR7`:1, `VB.BR8`:1
          CFI Resource `VB.BR9`:1, `VB.BR10`:1, `VB.BR11`:1, `VB.BR12`:1
          CFI Resource `VB.BR13`:1, `VB.BR14`:1, `VB.BR15`:1, VB:8, B:8, A:8
          CFI Resource PSW:8, DPL0:8, DPH0:8, R0:8, R1:8, R2:8, R3:8, R4:8, R5:8
          CFI Resource R6:8, R7:8, V0:8, V1:8, V2:8, V3:8, V4:8, V5:8, V6:8, V7:8
          CFI Resource V8:8, V9:8, V10:8, V11:8, V12:8, V13:8, V14:8, V15:8, SP:8
          CFI Resource PSPH:8, PSPL:8, PSP16:16, XSPH:8, XSPL:8, XSP16:16
          CFI VirtualResource ?RET:24
          CFI Resource ?BRET_EXT:8
          CFI VirtualResource ?RET_HIGH:8, ?RET_LOW:8
          CFI ResourceParts PSP16 PSPH, PSPL
          CFI ResourceParts XSP16 XSPH, XSPL
          CFI ResourceParts ?RET ?BRET_EXT, ?RET_HIGH, ?RET_LOW
          CFI EndNames cfiNames0
        
          CFI Common cfiCommon0 Using cfiNames0
          CFI CodeAlign 1
          CFI DataAlign -1
          CFI ReturnAddress ?RET CODE
          CFI CFA_DOVERLAY Used
          CFI CFA_IOVERLAY Used
          CFI CFA_SP SP+-3
          CFI CFA_PSP16 PSP16+0
          CFI CFA_XSP16 XSP16+0
          CFI `PSW.CY` SameValue
          CFI `B.BR0` SameValue
          CFI `B.BR1` SameValue
          CFI `B.BR2` SameValue
          CFI `B.BR3` SameValue
          CFI `B.BR4` SameValue
          CFI `B.BR5` SameValue
          CFI `B.BR6` SameValue
          CFI `B.BR7` SameValue
          CFI `VB.BR8` SameValue
          CFI `VB.BR9` SameValue
          CFI `VB.BR10` SameValue
          CFI `VB.BR11` SameValue
          CFI `VB.BR12` SameValue
          CFI `VB.BR13` SameValue
          CFI `VB.BR14` SameValue
          CFI `VB.BR15` SameValue
          CFI VB SameValue
          CFI B Undefined
          CFI A Undefined
          CFI PSW SameValue
          CFI DPL0 SameValue
          CFI DPH0 SameValue
          CFI R0 Undefined
          CFI R1 Undefined
          CFI R2 Undefined
          CFI R3 Undefined
          CFI R4 Undefined
          CFI R5 Undefined
          CFI R6 SameValue
          CFI R7 SameValue
          CFI V0 SameValue
          CFI V1 SameValue
          CFI V2 SameValue
          CFI V3 SameValue
          CFI V4 SameValue
          CFI V5 SameValue
          CFI V6 SameValue
          CFI V7 SameValue
          CFI V8 SameValue
          CFI V9 SameValue
          CFI V10 SameValue
          CFI V11 SameValue
          CFI V12 SameValue
          CFI V13 SameValue
          CFI V14 SameValue
          CFI V15 SameValue
          CFI PSPH Undefined
          CFI PSPL Undefined
          CFI XSPH Undefined
          CFI XSPL Undefined
          CFI ?RET Concat
          CFI ?BRET_EXT Frame(CFA_SP, 3)
          CFI ?RET_HIGH Frame(CFA_SP, 2)
          CFI ?RET_LOW Frame(CFA_SP, 1)
          CFI EndCommon cfiCommon0
        
        
          CFI Common cfiCommon1 Using cfiNames0
          CFI CodeAlign 1
          CFI DataAlign -1
          CFI ReturnAddress ?RET CODE
          CFI CFA_DOVERLAY Used
          CFI CFA_IOVERLAY Used
          CFI CFA_SP SP+-2
          CFI CFA_PSP16 PSP16+0
          CFI CFA_XSP16 XSP16+0
          CFI `PSW.CY` SameValue
          CFI `B.BR0` SameValue
          CFI `B.BR1` SameValue
          CFI `B.BR2` SameValue
          CFI `B.BR3` SameValue
          CFI `B.BR4` SameValue
          CFI `B.BR5` SameValue
          CFI `B.BR6` SameValue
          CFI `B.BR7` SameValue
          CFI `VB.BR8` SameValue
          CFI `VB.BR9` SameValue
          CFI `VB.BR10` SameValue
          CFI `VB.BR11` SameValue
          CFI `VB.BR12` SameValue
          CFI `VB.BR13` SameValue
          CFI `VB.BR14` SameValue
          CFI `VB.BR15` SameValue
          CFI VB SameValue
          CFI B SameValue
          CFI A SameValue
          CFI PSW SameValue
          CFI DPL0 SameValue
          CFI DPH0 SameValue
          CFI R0 SameValue
          CFI R1 SameValue
          CFI R2 SameValue
          CFI R3 SameValue
          CFI R4 SameValue
          CFI R5 SameValue
          CFI R6 SameValue
          CFI R7 SameValue
          CFI V0 SameValue
          CFI V1 SameValue
          CFI V2 SameValue
          CFI V3 SameValue
          CFI V4 SameValue
          CFI V5 SameValue
          CFI V6 SameValue
          CFI V7 SameValue
          CFI V8 SameValue
          CFI V9 SameValue
          CFI V10 SameValue
          CFI V11 SameValue
          CFI V12 SameValue
          CFI V13 SameValue
          CFI V14 SameValue
          CFI V15 SameValue
          CFI PSPH Undefined
          CFI PSPL Undefined
          CFI XSPH Undefined
          CFI XSPL Undefined
          CFI ?RET Concat
          CFI ?BRET_EXT SameValue
          CFI ?RET_HIGH Frame(CFA_SP, 2)
          CFI ?RET_LOW Frame(CFA_SP, 1)
          CFI EndCommon cfiCommon1
        
AddrMgrEntryGet     SYMBOL "AddrMgrEntryGet"
`??AddrMgrEntryGet::?relay` SYMBOL "?relay", AddrMgrEntryGet
AddrMgrEntryLookupExt SYMBOL "AddrMgrEntryLookupExt"
`??AddrMgrEntryLookupExt::?relay` SYMBOL "?relay", AddrMgrEntryLookupExt
AddrMgrEntryLookupNwk SYMBOL "AddrMgrEntryLookupNwk"
`??AddrMgrEntryLookupNwk::?relay` SYMBOL "?relay", AddrMgrEntryLookupNwk
AddrMgrEntryRelease SYMBOL "AddrMgrEntryRelease"
`??AddrMgrEntryRelease::?relay` SYMBOL "?relay", AddrMgrEntryRelease
AddrMgrEntryUpdate  SYMBOL "AddrMgrEntryUpdate"
`??AddrMgrEntryUpdate::?relay` SYMBOL "?relay", AddrMgrEntryUpdate
AddrMgrExtAddrSet   SYMBOL "AddrMgrExtAddrSet"
`??AddrMgrExtAddrSet::?relay` SYMBOL "?relay", AddrMgrExtAddrSet
NLME_GetCoordExtAddr SYMBOL "NLME_GetCoordExtAddr"
`??NLME_GetCoordExtAddr::?relay` SYMBOL "?relay", NLME_GetCoordExtAddr
NLME_GetCoordShortAddr SYMBOL "NLME_GetCoordShortAddr"
`??NLME_GetCoordShortAddr::?relay` SYMBOL "?relay", NLME_GetCoordShortAddr
NLME_GetExtAddr     SYMBOL "NLME_GetExtAddr"
`??NLME_GetExtAddr::?relay` SYMBOL "?relay", NLME_GetExtAddr
nwkCreateDuplicateNV SYMBOL "nwkCreateDuplicateNV"
`??nwkCreateDuplicateNV::?relay` SYMBOL "?relay", nwkCreateDuplicateNV
osal_memcpy         SYMBOL "osal_memcpy"
`??osal_memcpy::?relay` SYMBOL "?relay", osal_memcpy
osal_memset         SYMBOL "osal_memset"
`??osal_memset::?relay` SYMBOL "?relay", osal_memset
osal_nv_delete      SYMBOL "osal_nv_delete"
`??osal_nv_delete::?relay` SYMBOL "?relay", osal_nv_delete
osal_nv_item_init   SYMBOL "osal_nv_item_init"
`??osal_nv_item_init::?relay` SYMBOL "?relay", osal_nv_item_init
osal_nv_item_len    SYMBOL "osal_nv_item_len"
`??osal_nv_item_len::?relay` SYMBOL "?relay", osal_nv_item_len
osal_nv_read        SYMBOL "osal_nv_read"
`??osal_nv_read::?relay` SYMBOL "?relay", osal_nv_read
osal_nv_write       SYMBOL "osal_nv_write"
`??osal_nv_write::?relay` SYMBOL "?relay", osal_nv_write
sAddrExtCpy         SYMBOL "sAddrExtCpy"
`??sAddrExtCpy::?relay` SYMBOL "?relay", sAddrExtCpy
BindInitNV          SYMBOL "BindInitNV"
`??BindInitNV::?relay` SYMBOL "?relay", BindInitNV
BindRestoreFromNV   SYMBOL "BindRestoreFromNV"
`??BindRestoreFromNV::?relay` SYMBOL "?relay", BindRestoreFromNV
BindSetDefaultNV    SYMBOL "BindSetDefaultNV"
`??BindSetDefaultNV::?relay` SYMBOL "?relay", BindSetDefaultNV
BindWriteNV         SYMBOL "BindWriteNV"
`??BindWriteNV::?relay` SYMBOL "?relay", BindWriteNV
GetBindingTableEntry SYMBOL "GetBindingTableEntry"
`??GetBindingTableEntry::?relay` SYMBOL "?relay", GetBindingTableEntry
InitBindingTable    SYMBOL "InitBindingTable"
`??InitBindingTable::?relay` SYMBOL "?relay", InitBindingTable
bindAddClusterIdToList SYMBOL "bindAddClusterIdToList"
`??bindAddClusterIdToList::?relay` SYMBOL "?relay", bindAddClusterIdToList
bindAddEntry        SYMBOL "bindAddEntry"
`??bindAddEntry::?relay` SYMBOL "?relay", bindAddEntry
bindAddrIndexGet    SYMBOL "bindAddrIndexGet"
`??bindAddrIndexGet::?relay` SYMBOL "?relay", bindAddrIndexGet
bindAddrMgrLocalLoad SYMBOL "bindAddrMgrLocalLoad"
`??bindAddrMgrLocalLoad::?relay` SYMBOL "?relay", bindAddrMgrLocalLoad
bindAddressClear    SYMBOL "bindAddressClear"
`??bindAddressClear::?relay` SYMBOL "?relay", bindAddressClear
bindCapacity        SYMBOL "bindCapacity"
`??bindCapacity::?relay` SYMBOL "?relay", bindCapacity
bindFind            SYMBOL "bindFind"
`??bindFind::?relay` SYMBOL "?relay", bindFind
bindFindEmpty       SYMBOL "bindFindEmpty"
`??bindFindEmpty::?relay` SYMBOL "?relay", bindFindEmpty
bindFindExisting    SYMBOL "bindFindExisting"
`??bindFindExisting::?relay` SYMBOL "?relay", bindFindExisting
bindIsClusterIDinList SYMBOL "bindIsClusterIDinList"
`??bindIsClusterIDinList::?relay` SYMBOL "?relay", bindIsClusterIDinList
bindNumBoundTo      SYMBOL "bindNumBoundTo"
`??bindNumBoundTo::?relay` SYMBOL "?relay", bindNumBoundTo
bindNumOfEntries    SYMBOL "bindNumOfEntries"
`??bindNumOfEntries::?relay` SYMBOL "?relay", bindNumOfEntries
bindNumReflections  SYMBOL "bindNumReflections"
`??bindNumReflections::?relay` SYMBOL "?relay", bindNumReflections
bindRemoveClusterIdFromList SYMBOL "bindRemoveClusterIdFromList"
`??bindRemoveClusterIdFromList::?relay` SYMBOL "?relay", bindRemoveClusterIdFromList
bindRemoveDev       SYMBOL "bindRemoveDev"
`??bindRemoveDev::?relay` SYMBOL "?relay", bindRemoveDev
bindRemoveEntry     SYMBOL "bindRemoveEntry"
`??bindRemoveEntry::?relay` SYMBOL "?relay", bindRemoveEntry
bindRemoveSrcDev    SYMBOL "bindRemoveSrcDev"
`??bindRemoveSrcDev::?relay` SYMBOL "?relay", bindRemoveSrcDev
bindUpdateAddr      SYMBOL "bindUpdateAddr"
`??bindUpdateAddr::?relay` SYMBOL "?relay", bindUpdateAddr
bindingAddrMgsHelperConvert SYMBOL "bindingAddrMgsHelperConvert"
`??bindingAddrMgsHelperConvert::?relay` SYMBOL "?relay", bindingAddrMgsHelperConvert
bindingAddrMgsHelperConvertShort SYMBOL "bindingAddrMgsHelperConvertShort"
`??bindingAddrMgsHelperConvertShort::?relay` SYMBOL "?relay", bindingAddrMgsHelperConvertShort
bindingAddrMgsHelperFind SYMBOL "bindingAddrMgsHelperFind"
`??bindingAddrMgsHelperFind::?relay` SYMBOL "?relay", bindingAddrMgsHelperFind

        EXTERN `??AddrMgrEntryGet::?relay`
        FUNCTION `??AddrMgrEntryGet::?relay`,00H
        EXTERN `??AddrMgrEntryLookupExt::?relay`
        FUNCTION `??AddrMgrEntryLookupExt::?relay`,00H
        EXTERN `??AddrMgrEntryLookupNwk::?relay`
        FUNCTION `??AddrMgrEntryLookupNwk::?relay`,00H
        EXTERN `??AddrMgrEntryRelease::?relay`
        FUNCTION `??AddrMgrEntryRelease::?relay`,00H
        EXTERN `??AddrMgrEntryUpdate::?relay`
        FUNCTION `??AddrMgrEntryUpdate::?relay`,00H
        EXTERN `??AddrMgrExtAddrSet::?relay`
        FUNCTION `??AddrMgrExtAddrSet::?relay`,00H
        EXTERN `??NLME_GetCoordExtAddr::?relay`
        FUNCTION `??NLME_GetCoordExtAddr::?relay`,00H
        EXTERN `??NLME_GetCoordShortAddr::?relay`
        FUNCTION `??NLME_GetCoordShortAddr::?relay`,00H
        EXTERN `??NLME_GetExtAddr::?relay`
        FUNCTION `??NLME_GetExtAddr::?relay`,00H
        EXTERN `??nwkCreateDuplicateNV::?relay`
        FUNCTION `??nwkCreateDuplicateNV::?relay`,00H
        EXTERN `??osal_memcpy::?relay`
        FUNCTION `??osal_memcpy::?relay`,00H
        EXTERN `??osal_memset::?relay`
        FUNCTION `??osal_memset::?relay`,00H
        EXTERN `??osal_nv_delete::?relay`
        FUNCTION `??osal_nv_delete::?relay`,00H
        EXTERN `??osal_nv_item_init::?relay`
        FUNCTION `??osal_nv_item_init::?relay`,00H
        EXTERN `??osal_nv_item_len::?relay`
        FUNCTION `??osal_nv_item_len::?relay`,00H
        EXTERN `??osal_nv_read::?relay`
        FUNCTION `??osal_nv_read::?relay`,00H
        EXTERN `??osal_nv_write::?relay`
        FUNCTION `??osal_nv_write::?relay`,00H
        EXTERN `??sAddrExtCpy::?relay`
        FUNCTION `??sAddrExtCpy::?relay`,00H
        EXTERN AddrMgrEntryGet
        FUNCTION AddrMgrEntryGet,0202H
        ARGFRAME ISTACK, 2, STACK
        ARGFRAME PSTACK, 0, STACK
        ARGFRAME XSTACK, 22, STACK
        ARGFRAME IOVERLAY, 0, STATIC
        ARGFRAME DOVERLAY, 0, STATIC
        EXTERN AddrMgrEntryLookupExt
        FUNCTION AddrMgrEntryLookupExt,0202H
        ARGFRAME ISTACK, 2, STACK
        ARGFRAME PSTACK, 0, STACK
        ARGFRAME XSTACK, 13, STACK
        ARGFRAME IOVERLAY, 0, STATIC
        ARGFRAME DOVERLAY, 0, STATIC
        EXTERN AddrMgrEntryLookupNwk
        FUNCTION AddrMgrEntryLookupNwk,0202H
        ARGFRAME ISTACK, 2, STACK
        ARGFRAME PSTACK, 0, STACK
        ARGFRAME XSTACK, 13, STACK
        ARGFRAME IOVERLAY, 0, STATIC
        ARGFRAME DOVERLAY, 0, STATIC
        EXTERN AddrMgrEntryRelease
        FUNCTION AddrMgrEntryRelease,0202H
        ARGFRAME ISTACK, 2, STACK
        ARGFRAME PSTACK, 0, STACK
        ARGFRAME XSTACK, 13, STACK
        ARGFRAME IOVERLAY, 0, STATIC
        ARGFRAME DOVERLAY, 0, STATIC
        EXTERN AddrMgrEntryUpdate
        FUNCTION AddrMgrEntryUpdate,0202H
        ARGFRAME ISTACK, 2, STACK
        ARGFRAME PSTACK, 0, STACK
        ARGFRAME XSTACK, 23, STACK
        ARGFRAME IOVERLAY, 0, STATIC
        ARGFRAME DOVERLAY, 0, STATIC
        EXTERN AddrMgrExtAddrSet
        FUNCTION AddrMgrExtAddrSet,0202H
        ARGFRAME ISTACK, 2, STACK
        ARGFRAME PSTACK, 0, STACK
        ARGFRAME XSTACK, 23, STACK
        ARGFRAME IOVERLAY, 0, STATIC
        ARGFRAME DOVERLAY, 0, STATIC
        EXTERN BindingTable
        EXTERN NLME_GetCoordExtAddr
        FUNCTION NLME_GetCoordExtAddr,0202H
        ARGFRAME ISTACK, 0, STACK
        ARGFRAME PSTACK, 0, STACK
        ARGFRAME XSTACK, 23, STACK
        ARGFRAME IOVERLAY, 0, STATIC
        ARGFRAME DOVERLAY, 0, STATIC
        EXTERN NLME_GetCoordShortAddr
        FUNCTION NLME_GetCoordShortAddr,0202H
        ARGFRAME ISTACK, 0, STACK
        ARGFRAME PSTACK, 0, STACK
        ARGFRAME XSTACK, 23, STACK
        ARGFRAME IOVERLAY, 0, STATIC
        ARGFRAME DOVERLAY, 0, STATIC
        EXTERN NLME_GetExtAddr
        FUNCTION NLME_GetExtAddr,0202H
        ARGFRAME ISTACK, 0, STACK
        ARGFRAME PSTACK, 0, STACK
        ARGFRAME XSTACK, 23, STACK
        ARGFRAME IOVERLAY, 0, STATIC
        ARGFRAME DOVERLAY, 0, STATIC
        EXTERN _NIB
        EXTERN gBIND_REC_SIZE
        EXTERN gMAX_BINDING_CLUSTER_IDS
        EXTERN gNWK_MAX_BINDING_ENTRIES
        EXTERN nwkCreateDuplicateNV
        FUNCTION nwkCreateDuplicateNV,0202H
        ARGFRAME ISTACK, 0, STACK
        ARGFRAME PSTACK, 0, STACK
        ARGFRAME XSTACK, 16, STACK
        ARGFRAME IOVERLAY, 0, STATIC
        ARGFRAME DOVERLAY, 0, STATIC
        EXTERN osal_memcpy
        FUNCTION osal_memcpy,0202H
        ARGFRAME ISTACK, 0, STACK
        ARGFRAME PSTACK, 0, STACK
        ARGFRAME XSTACK, 34, STACK
        ARGFRAME IOVERLAY, 0, STATIC
        ARGFRAME DOVERLAY, 0, STATIC
        EXTERN osal_memset
        FUNCTION osal_memset,0202H
        ARGFRAME ISTACK, 2, STACK
        ARGFRAME PSTACK, 0, STACK
        ARGFRAME XSTACK, 10, STACK
        ARGFRAME IOVERLAY, 0, STATIC
        ARGFRAME DOVERLAY, 0, STATIC
        EXTERN osal_nv_delete
        FUNCTION osal_nv_delete,0202H
        ARGFRAME ISTACK, 0, STACK
        ARGFRAME PSTACK, 0, STACK
        ARGFRAME XSTACK, 32, STACK
        ARGFRAME IOVERLAY, 0, STATIC
        ARGFRAME DOVERLAY, 0, STATIC
        EXTERN osal_nv_item_init
        FUNCTION osal_nv_item_init,0202H
        ARGFRAME ISTACK, 0, STACK
        ARGFRAME PSTACK, 0, STACK
        ARGFRAME XSTACK, 34, STACK
        ARGFRAME IOVERLAY, 0, STATIC
        ARGFRAME DOVERLAY, 0, STATIC
        EXTERN osal_nv_item_len
        FUNCTION osal_nv_item_len,0202H
        ARGFRAME ISTACK, 0, STACK
        ARGFRAME PSTACK, 0, STACK
        ARGFRAME XSTACK, 32, STACK
        ARGFRAME IOVERLAY, 0, STATIC
        ARGFRAME DOVERLAY, 0, STATIC
        EXTERN osal_nv_read
        FUNCTION osal_nv_read,0202H
        ARGFRAME ISTACK, 0, STACK
        ARGFRAME PSTACK, 0, STACK
        ARGFRAME XSTACK, 36, STACK
        ARGFRAME IOVERLAY, 0, STATIC
        ARGFRAME DOVERLAY, 0, STATIC
        EXTERN osal_nv_write
        FUNCTION osal_nv_write,0202H
        ARGFRAME ISTACK, 0, STACK
        ARGFRAME PSTACK, 0, STACK
        ARGFRAME XSTACK, 36, STACK
        ARGFRAME IOVERLAY, 0, STATIC
        ARGFRAME DOVERLAY, 0, STATIC
        EXTERN sAddrExtCpy
        FUNCTION sAddrExtCpy,0202H
        ARGFRAME ISTACK, 0, STACK
        ARGFRAME PSTACK, 0, STACK
        ARGFRAME XSTACK, 22, STACK
        ARGFRAME IOVERLAY, 0, STATIC
        ARGFRAME DOVERLAY, 0, STATIC

// C:\Texas Instruments\Z-Stack Home 1.2.2a.44539\Components\stack\nwk\BindingTable.c
//    1 /**************************************************************************************************
//    2   Filename:       BindingTable.c
//    3   Revised:        $Date: 2014-10-08 08:37:03 -0700 (Wed, 08 Oct 2014) $
//    4   Revision:       $Revision: 40512 $
//    5 
//    6   Description:    Device binding table functions.
//    7 
//    8 
//    9   Copyright 2004-2014 Texas Instruments Incorporated. All rights reserved.
//   10 
//   11   IMPORTANT: Your use of this Software is limited to those specific rights
//   12   granted under the terms of a software license agreement between the user
//   13   who downloaded the software, his/her employer (which must be your employer)
//   14   and Texas Instruments Incorporated (the "License"). You may not use this
//   15   Software unless you agree to abide by the terms of the License. The License
//   16   limits your use, and you acknowledge, that the Software may not be modified,
//   17   copied or distributed unless embedded on a Texas Instruments microcontroller
//   18   or used solely and exclusively in conjunction with a Texas Instruments radio
//   19   frequency transceiver, which is integrated into your product. Other than for
//   20   the foregoing purpose, you may not use, reproduce, copy, prepare derivative
//   21   works of, modify, distribute, perform, display or sell this Software and/or
//   22   its documentation for any purpose.
//   23 
//   24   YOU FURTHER ACKNOWLEDGE AND AGREE THAT THE SOFTWARE AND DOCUMENTATION ARE
//   25   PROVIDED "AS IS" WITHOUT WARRANTY OF ANY KIND, EITHER EXPRESS OR IMPLIED,
//   26   INCLUDING WITHOUT LIMITATION, ANY WARRANTY OF MERCHANTABILITY, TITLE,
//   27   NON-INFRINGEMENT AND FITNESS FOR A PARTICULAR PURPOSE. IN NO EVENT SHALL
//   28   TEXAS INSTRUMENTS OR ITS LICENSORS BE LIABLE OR OBLIGATED UNDER CONTRACT,
//   29   NEGLIGENCE, STRICT LIABILITY, CONTRIBUTION, BREACH OF WARRANTY, OR OTHER
//   30   LEGAL EQUITABLE THEORY ANY DIRECT OR INDIRECT DAMAGES OR EXPENSES
//   31   INCLUDING BUT NOT LIMITED TO ANY INCIDENTAL, SPECIAL, INDIRECT, PUNITIVE
//   32   OR CONSEQUENTIAL DAMAGES, LOST PROFITS OR LOST DATA, COST OF PROCUREMENT
//   33   OF SUBSTITUTE GOODS, TECHNOLOGY, SERVICES, OR ANY CLAIMS BY THIRD PARTIES
//   34   (INCLUDING BUT NOT LIMITED TO ANY DEFENSE THEREOF), OR OTHER SIMILAR COSTS.
//   35 
//   36   Should you have any questions regarding your right to use this Software,
//   37   contact Texas Instruments Incorporated at www.TI.com.
//   38 **************************************************************************************************/
//   39 
//   40 /*********************************************************************
//   41  * INCLUDES
//   42  */
//   43 #include "ZComDef.h"
//   44 #include "OSAL.h"
//   45 #include "OSAL_Nv.h"
//   46 #include "nwk_globals.h"
//   47 #include "AddrMgr.h"
//   48 #include "BindingTable.h"
//   49 #include "nwk_util.h"
//   50 
//   51 /*********************************************************************
//   52  * MACROS
//   53  */
//   54 
//   55 /*********************************************************************
//   56  * CONSTANTS
//   57  */
//   58 #define NV_BIND_EMPTY   0xFF
//   59 #define NV_BIND_REC_SIZE (gBIND_REC_SIZE)
//   60 #define NV_BIND_ITEM_SIZE  (gBIND_REC_SIZE * gNWK_MAX_BINDING_ENTRIES)
//   61 
//   62 /*********************************************************************
//   63  * TYPEDEFS
//   64  */
//   65 typedef struct
//   66 {
//   67   uint8        srcEP;
//   68   uint16       dstIndex;
//   69   uint8        dstEP;
//   70   uint8        dstAddrMode;
//   71   uint8        clusterIDs;
//   72   uint16*      clusterIDList;
//   73 } bindFields_t;
//   74 
//   75 /*********************************************************************
//   76  * GLOBAL VARIABLES
//   77  */
//   78 
//   79 /*********************************************************************
//   80  * LOCAL FUNCTIONS
//   81  */
//   82 void BindAddrMgrCB( uint8 update, AddrMgrEntry_t *entryOld,
//   83                     AddrMgrEntry_t *entryNew );
//   84 BindingEntry_t *bindFindEmpty( void );
//   85 uint16 bindingAddrMgsHelperFind( zAddrType_t *addr );
//   86 uint8 bindingAddrMgsHelperConvert( uint16 idx, zAddrType_t *addr );
//   87 void bindAddrMgrLocalLoad( void );
//   88 
//   89 #if !defined ( BINDINGTABLE_NV_SINGLES )
//   90   #if !defined ( DONT_UPGRADE_BIND )
//   91     static uint8 BindCopyBackupToNewNV( uint16 dupLen, uint16 newLen );
//   92     static uint8 BindUpgradeTableInNV( void );
//   93   #endif
//   94 #endif // !BINDINGTABLE_NV_SINGLES
//   95 
//   96 
//   97 /*********************************************************************
//   98  * LOCAL VARIABLES
//   99  */

        RSEG XDATA_Z:XDATA:NOROOT(0)
        DATA8
//  100 static uint8 bindAddrMgrLocalLoaded = FALSE;
bindAddrMgrLocalLoaded:
        DS 1
        REQUIRE __INIT_XDATA_Z
//  101 
//  102 /*********************************************************************
//  103  * Function Pointers
//  104  */
//  105 

        RSEG XDATA_Z:XDATA:NOROOT(0)
        DATA16
//  106 BindingEntry_t *(*pbindAddEntry)( byte srcEpInt,
pbindAddEntry:
        DS 2
        REQUIRE __INIT_XDATA_Z
//  107                                   zAddrType_t *dstAddr, byte dstEpInt,
//  108                                   byte numClusterIds, uint16 *clusterIds ) = (void*)NULL;

        RSEG XDATA_Z:XDATA:NOROOT(0)
        DATA16
//  109 uint16 (*pbindNumOfEntries)( void ) = (void*)NULL;
pbindNumOfEntries:
        DS 2
        REQUIRE __INIT_XDATA_Z

        RSEG XDATA_Z:XDATA:NOROOT(0)
        DATA16
//  110 void (*pbindRemoveDev)( zAddrType_t *Addr ) = (void*)NULL;
pbindRemoveDev:
        DS 2
        REQUIRE __INIT_XDATA_Z

        RSEG XDATA_Z:XDATA:NOROOT(0)
        DATA16
//  111 byte (*pBindInitNV)( void ) = (void*)NULL;
pBindInitNV:
        DS 2
        REQUIRE __INIT_XDATA_Z

        RSEG XDATA_Z:XDATA:NOROOT(0)
        DATA16
//  112 void (*pBindSetDefaultNV)( void ) = (void*)NULL;
pBindSetDefaultNV:
        DS 2
        REQUIRE __INIT_XDATA_Z

        RSEG XDATA_Z:XDATA:NOROOT(0)
        DATA16
//  113 uint16 (*pBindRestoreFromNV)( void ) = (void*)NULL;
pBindRestoreFromNV:
        DS 2
        REQUIRE __INIT_XDATA_Z

        RSEG XDATA_Z:XDATA:NOROOT(0)
        DATA16
//  114 void (*pBindWriteNV)( void ) = (void*)NULL;
pBindWriteNV:
        DS 2
        REQUIRE __INIT_XDATA_Z
//  115 
//  116 #if ( ADDRMGR_CALLBACK_ENABLED == 1 )
//  117 /*********************************************************************
//  118  * @fn      BindAddrMgrCB()
//  119  *
//  120  * @brief   Address Manager Callback function
//  121  *
//  122  * @param   update -
//  123  * @param   entry -
//  124  *
//  125  * @return  pointer to
//  126  */
//  127 void BindAddrMgrCB( uint8 update, AddrMgrEntry_t *entryNew,
//  128                     AddrMgrEntry_t *entryOld )
//  129 {
//  130   // Check for either deleted items or changed Extended (Duplicate) addresses
//  131 }
//  132 #endif // ( ADDRMGR_CALLBACK_ENABLED == 1 )
//  133 
//  134 /*********************************************************************
//  135  * @fn      InitBindingTable()
//  136  *
//  137  * @brief
//  138  *
//  139  *   This function is used to initialise the binding table
//  140  *
//  141  * @param   none
//  142  *
//  143  * @return  none
//  144  */

        RSEG BANKED_CODE:HUGECODE:NOROOT(0)
//  145 void InitBindingTable( void )
InitBindingTable:
          CFI Block cfiBlock0 Using cfiCommon0
          CFI Function InitBindingTable
        CODE
//  146 {
        FUNCALL InitBindingTable, osal_memset
        LOCFRAME ISTACK, 0, STACK
        LOCFRAME PSTACK, 0, STACK
        LOCFRAME XSTACK, 10, STACK
        LOCFRAME IOVERLAY, 0, STATIC
        LOCFRAME DOVERLAY, 0, STATIC
        ARGFRAME ISTACK, 0, STACK
        ARGFRAME PSTACK, 0, STACK
        ARGFRAME XSTACK, 10, STACK
        ARGFRAME IOVERLAY, 0, STATIC
        ARGFRAME DOVERLAY, 0, STATIC
        REQUIRE ?V0
        REQUIRE ?V1
        MOV       A,#-0xa
        LCALL     ?BANKED_ENTER_XDATA
          CFI DPH0 load(1, XDATA, add(CFA_XSP16, literal(-1)))
          CFI DPL0 load(1, XDATA, add(CFA_XSP16, literal(-2)))
          CFI ?BRET_EXT load(1, XDATA, add(CFA_XSP16, literal(-3)))
          CFI ?RET_HIGH load(1, XDATA, add(CFA_XSP16, literal(-4)))
          CFI ?RET_LOW load(1, XDATA, add(CFA_XSP16, literal(-5)))
          CFI R7 load(1, XDATA, add(CFA_XSP16, literal(-6)))
          CFI V1 load(1, XDATA, add(CFA_XSP16, literal(-7)))
          CFI V0 load(1, XDATA, add(CFA_XSP16, literal(-8)))
          CFI VB load(1, XDATA, add(CFA_XSP16, literal(-9)))
          CFI R6 load(1, XDATA, add(CFA_XSP16, literal(-10)))
          CFI CFA_SP SP+0
          CFI CFA_XSP16 add(XSP16, 10)
        ; Saved register size: 10
        ; Auto size: 0
//  147   osal_memset( BindingTable, 0xFF, gBIND_REC_SIZE * gNWK_MAX_BINDING_ENTRIES );
        ; Setup parameters for call to function osal_memset
        LCALL     ?Subroutine13 & 0xFFFF
??CrossCallReturnLabel_15:
        MOV       DPTR,#gNWK_MAX_BINDING_ENTRIES
        CLR       A
        MOVC      A,@A+DPTR
        MOV       ?V0,A
        MOV       A,R4
        MOV       B,?V0
        MUL       AB
        MOV       R4,A
        MOV       R0,B
        MOV       B,?V0
        MOV       A,R5
        MUL       AB
        ADD       A,R0
        MOV       R5,A
        MOV       R1,#-0x1
        MOV       R2,#BindingTable & 0xff
        MOV       R3,#(BindingTable >> 8) & 0xff
        LCALL     `??osal_memset::?relay`; Banked call to: osal_memset
//  148 
//  149   pbindAddEntry = bindAddEntry;
        MOV       DPTR,#pbindAddEntry
        MOV       A,#`??bindAddEntry::?relay` & 0xff
        MOVX      @DPTR,A
        INC       DPTR
        MOV       A,#(`??bindAddEntry::?relay` >> 8) & 0xff
        MOVX      @DPTR,A
//  150   pbindNumOfEntries = bindNumOfEntries;
        MOV       DPTR,#pbindNumOfEntries
        MOV       A,#`??bindNumOfEntries::?relay` & 0xff
        MOVX      @DPTR,A
        INC       DPTR
        MOV       A,#(`??bindNumOfEntries::?relay` >> 8) & 0xff
        MOVX      @DPTR,A
//  151   pbindRemoveDev = bindRemoveDev;
        MOV       DPTR,#pbindRemoveDev
        MOV       A,#`??bindRemoveDev::?relay` & 0xff
        MOVX      @DPTR,A
        INC       DPTR
        MOV       A,#(`??bindRemoveDev::?relay` >> 8) & 0xff
        MOVX      @DPTR,A
//  152   pBindInitNV = BindInitNV;
        MOV       DPTR,#pBindInitNV
        MOV       A,#`??BindInitNV::?relay` & 0xff
        MOVX      @DPTR,A
        INC       DPTR
        MOV       A,#(`??BindInitNV::?relay` >> 8) & 0xff
        MOVX      @DPTR,A
//  153   pBindSetDefaultNV = BindSetDefaultNV;
        MOV       DPTR,#pBindSetDefaultNV
        MOV       A,#`??BindSetDefaultNV::?relay` & 0xff
        MOVX      @DPTR,A
        INC       DPTR
        MOV       A,#(`??BindSetDefaultNV::?relay` >> 8) & 0xff
        MOVX      @DPTR,A
//  154   pBindRestoreFromNV = BindRestoreFromNV;
        MOV       DPTR,#pBindRestoreFromNV
        MOV       A,#`??BindRestoreFromNV::?relay` & 0xff
        MOVX      @DPTR,A
        INC       DPTR
        MOV       A,#(`??BindRestoreFromNV::?relay` >> 8) & 0xff
        MOVX      @DPTR,A
//  155   pBindWriteNV = BindWriteNV;
        MOV       DPTR,#pBindWriteNV
        MOV       A,#`??BindWriteNV::?relay` & 0xff
        MOVX      @DPTR,A
        INC       DPTR
        MOV       A,#(`??BindWriteNV::?relay` >> 8) & 0xff
        MOVX      @DPTR,A
//  156 
//  157   bindAddrMgrLocalLoaded = FALSE;
        MOV       DPTR,#bindAddrMgrLocalLoaded
        CLR       A
        MOVX      @DPTR,A
//  158 
//  159 #if ( ADDRMGR_CALLBACK_ENABLED == 1 )
//  160   // Register with the address manager
//  161   AddrMgrRegister( ADDRMGR_REG_BINDING, BindAddrMgrCB );
//  162 #endif
//  163 }
        SJMP      ??Subroutine33_0
          CFI EndBlock cfiBlock0

        RSEG BANKED_CODE:HUGECODE:NOROOT(0)
?Subroutine0:
          CFI Block cfiBlock1 Using cfiCommon0
          CFI NoFunction
          CFI CFA_SP SP+0
          CFI CFA_XSP16 add(XSP16, 23)
          CFI VB load(1, XDATA, add(CFA_XSP16, literal(-9)))
          CFI DPL0 load(1, XDATA, add(CFA_XSP16, literal(-2)))
          CFI DPH0 load(1, XDATA, add(CFA_XSP16, literal(-1)))
          CFI R6 load(1, XDATA, add(CFA_XSP16, literal(-10)))
          CFI R7 load(1, XDATA, add(CFA_XSP16, literal(-6)))
          CFI V0 load(1, XDATA, add(CFA_XSP16, literal(-8)))
          CFI V1 load(1, XDATA, add(CFA_XSP16, literal(-7)))
          CFI ?BRET_EXT load(1, XDATA, add(CFA_XSP16, literal(-3)))
          CFI ?RET_HIGH load(1, XDATA, add(CFA_XSP16, literal(-4)))
          CFI ?RET_LOW load(1, XDATA, add(CFA_XSP16, literal(-5)))
          CFI Invalid
        LCALL     ?DEALLOC_XSTACK8
          CFI EndBlock cfiBlock1
        REQUIRE ??Subroutine33_0
        ; // Fall through to label ??Subroutine33_0

        RSEG BANKED_CODE:HUGECODE:NOROOT(0)
??Subroutine33_0:
          CFI Block cfiBlock2 Using cfiCommon0
          CFI NoFunction
          CFI CFA_SP SP+0
          CFI CFA_XSP16 add(XSP16, 10)
          CFI VB load(1, XDATA, add(CFA_XSP16, literal(-9)))
          CFI DPL0 load(1, XDATA, add(CFA_XSP16, literal(-2)))
          CFI DPH0 load(1, XDATA, add(CFA_XSP16, literal(-1)))
          CFI R6 load(1, XDATA, add(CFA_XSP16, literal(-10)))
          CFI R7 load(1, XDATA, add(CFA_XSP16, literal(-6)))
          CFI V0 load(1, XDATA, add(CFA_XSP16, literal(-8)))
          CFI V1 load(1, XDATA, add(CFA_XSP16, literal(-7)))
          CFI ?BRET_EXT load(1, XDATA, add(CFA_XSP16, literal(-3)))
          CFI ?RET_HIGH load(1, XDATA, add(CFA_XSP16, literal(-4)))
          CFI ?RET_LOW load(1, XDATA, add(CFA_XSP16, literal(-5)))
        MOV       R7,#0x2
        LJMP      ?BANKED_LEAVE_XDATA
          CFI EndBlock cfiBlock2
//  164 
//  165 /*********************************************************************
//  166  * @fn      bindFindEmpty()
//  167  *
//  168  * @brief   This function returns a pointer to an empty binding slot
//  169  *
//  170  * @param   none
//  171  *
//  172  * @return  pointer to binding table entry, NULL if not added
//  173  */

        RSEG BANKED_CODE:HUGECODE:NOROOT(0)
//  174 BindingEntry_t *bindFindEmpty( void )
bindFindEmpty:
          CFI Block cfiBlock3 Using cfiCommon0
          CFI Function bindFindEmpty
        CODE
//  175 {
        PUSH      DPL
          CFI DPL0 Frame(CFA_SP, 4)
          CFI CFA_SP SP+-4
        PUSH      DPH
          CFI DPH0 Frame(CFA_SP, 5)
          CFI CFA_SP SP+-5
        ; Saved register size: 2
        ; Auto size: 0
//  176   bindTableIndex_t x;
//  177 
//  178   for ( x = 0; x < gNWK_MAX_BINDING_ENTRIES; x++ )
        MOV       R2,#0x0
        SJMP      ??bindFindEmpty_0
??bindFindEmpty_1:
        INC       R2
??bindFindEmpty_0:
        MOV       DPTR,#gNWK_MAX_BINDING_ENTRIES
        CLR       A
        MOVC      A,@A+DPTR
        MOV       R0,A
        MOV       A,R2
        CLR       C
        SUBB      A,R0
        JNC       ??bindFindEmpty_2
//  179   {
//  180     // It's empty if the index is "Not Found"
//  181     if ( BindingTable[x].srcEP == NV_BIND_EMPTY )
        MOV       A,R2
        LCALL     ?Subroutine7 & 0xFFFF
??CrossCallReturnLabel_52:
        JNZ       ??bindFindEmpty_1
//  182     {
//  183       return ( &BindingTable[x] );
        LCALL     ?Subroutine14 & 0xFFFF
//  184     }
//  185   }
??CrossCallReturnLabel_18:
        SJMP      ??bindFindEmpty_3
//  186 
//  187   return ( (BindingEntry_t *)NULL );
??bindFindEmpty_2:
        MOV       R2,#0x0
        MOV       R3,#0x0
??bindFindEmpty_3:
        LJMP      ??Subroutine41_0 & 0xFFFF
//  188 }
          CFI EndBlock cfiBlock3
//  189 
//  190 /*********************************************************************
//  191  * @fn      bindNumOfEntries()
//  192  *
//  193  * @brief   This function returns the number of binding table entries.
//  194  *          The return for this is the number of clusters in the
//  195  *          table NOT the number of entries.
//  196  *
//  197  * @param   none
//  198  *
//  199  * @return  number of entries
//  200  */

        RSEG BANKED_CODE:HUGECODE:NOROOT(0)
//  201 uint16 bindNumOfEntries( void )
bindNumOfEntries:
          CFI Block cfiBlock4 Using cfiCommon0
          CFI Function bindNumOfEntries
        CODE
//  202 {
        PUSH      DPL
          CFI DPL0 Frame(CFA_SP, 4)
          CFI CFA_SP SP+-4
        PUSH      DPH
          CFI DPH0 Frame(CFA_SP, 5)
          CFI CFA_SP SP+-5
        ; Saved register size: 2
        ; Auto size: 0
//  203   bindTableIndex_t x;
//  204   uint16 found;
//  205 
//  206   for ( found = 0, x = 0; x < gNWK_MAX_BINDING_ENTRIES; x++ )
        MOV       R2,#0x0
        MOV       R3,#0x0
        MOV       R4,#0x0
        SJMP      ??bindNumOfEntries_0
//  207   {
//  208     // It's empty if the index is "Not Found"
//  209     if ( BindingTable[x].srcEP != NV_BIND_EMPTY )
??bindNumOfEntries_1:
        MOV       A,R4
        LCALL     ?Subroutine7 & 0xFFFF
??CrossCallReturnLabel_53:
        JZ        ??bindNumOfEntries_2
//  210     {
//  211       found += BindingTable[x].numClusterIds;
        MOV       A,#(BindingTable + 5) & 0xff
        ADD       A,R0
        MOV       DPL,A
        MOV       A,#((BindingTable + 5) >> 8) & 0xff
        LCALL     ?Subroutine32 & 0xFFFF
//  212     }
//  213   }
??CrossCallReturnLabel_58:
        MOV       R0,A
        MOV       A,R2
        ADD       A,R0
        MOV       R2,A
        CLR       A
        ADDC      A,R3
        MOV       R3,A
??bindNumOfEntries_2:
        INC       R4
??bindNumOfEntries_0:
        MOV       DPTR,#gNWK_MAX_BINDING_ENTRIES
        CLR       A
        MOVC      A,@A+DPTR
        MOV       R0,A
        MOV       A,R4
        CLR       C
        SUBB      A,R0
        JC        ??bindNumOfEntries_1
//  214 
//  215   return ( found );
        LJMP      ??Subroutine41_0 & 0xFFFF
//  216 }
          CFI EndBlock cfiBlock4

        RSEG BANKED_CODE:HUGECODE:NOROOT(0)
?Subroutine7:
          CFI Block cfiCond5 Using cfiCommon0
          CFI Function bindFindEmpty
          CFI Conditional ??CrossCallReturnLabel_52
          CFI DPL0 Frame(CFA_SP, 4)
          CFI DPH0 Frame(CFA_SP, 5)
          CFI CFA_SP SP+-7
          CFI Block cfiCond6 Using cfiCommon0
          CFI (cfiCond6) Function bindNumOfEntries
          CFI (cfiCond6) Conditional ??CrossCallReturnLabel_53
          CFI (cfiCond6) DPL0 Frame(CFA_SP, 4)
          CFI (cfiCond6) DPH0 Frame(CFA_SP, 5)
          CFI (cfiCond6) CFA_SP SP+-7
          CFI Block cfiCond7 Using cfiCommon0
          CFI (cfiCond7) Function BindRestoreFromNV
          CFI (cfiCond7) Conditional ??CrossCallReturnLabel_54
          CFI (cfiCond7) R6 load(1, XDATA, add(CFA_XSP16, literal(-12)))
          CFI (cfiCond7) VB load(1, XDATA, add(CFA_XSP16, literal(-11)))
          CFI (cfiCond7) V0 load(1, XDATA, add(CFA_XSP16, literal(-10)))
          CFI (cfiCond7) V1 load(1, XDATA, add(CFA_XSP16, literal(-9)))
          CFI (cfiCond7) V2 load(1, XDATA, add(CFA_XSP16, literal(-8)))
          CFI (cfiCond7) V3 load(1, XDATA, add(CFA_XSP16, literal(-7)))
          CFI (cfiCond7) R7 load(1, XDATA, add(CFA_XSP16, literal(-6)))
          CFI (cfiCond7) ?RET_LOW load(1, XDATA, add(CFA_XSP16, literal(-5)))
          CFI (cfiCond7) ?RET_HIGH load(1, XDATA, add(CFA_XSP16, literal(-4)))
          CFI (cfiCond7) ?BRET_EXT load(1, XDATA, add(CFA_XSP16, literal(-3)))
          CFI (cfiCond7) DPL0 load(1, XDATA, add(CFA_XSP16, literal(-2)))
          CFI (cfiCond7) DPH0 load(1, XDATA, add(CFA_XSP16, literal(-1)))
          CFI (cfiCond7) CFA_SP SP+-2
          CFI (cfiCond7) CFA_XSP16 add(XSP16, 14)
          CFI Block cfiPicker8 Using cfiCommon1
          CFI (cfiPicker8) NoFunction
          CFI (cfiPicker8) Picker
        MOV       B,#0xe
        MUL       AB
        MOV       R0,A
        MOV       R1,B
          CFI EndBlock cfiCond5
          CFI EndBlock cfiCond6
          CFI EndBlock cfiCond7
          CFI EndBlock cfiPicker8
        REQUIRE ??Subroutine34_0
        ; // Fall through to label ??Subroutine34_0

        RSEG BANKED_CODE:HUGECODE:NOROOT(0)
??Subroutine34_0:
          CFI Block cfiCond9 Using cfiCommon0
          CFI Function bindCapacity
          CFI Conditional ??CrossCallReturnLabel_51
          CFI R6 load(1, XDATA, add(CFA_XSP16, literal(-9)))
          CFI VB load(1, XDATA, add(CFA_XSP16, literal(-8)))
          CFI V0 load(1, XDATA, add(CFA_XSP16, literal(-7)))
          CFI R7 load(1, XDATA, add(CFA_XSP16, literal(-6)))
          CFI ?RET_LOW load(1, XDATA, add(CFA_XSP16, literal(-5)))
          CFI ?RET_HIGH load(1, XDATA, add(CFA_XSP16, literal(-4)))
          CFI ?BRET_EXT load(1, XDATA, add(CFA_XSP16, literal(-3)))
          CFI DPL0 load(1, XDATA, add(CFA_XSP16, literal(-2)))
          CFI DPH0 load(1, XDATA, add(CFA_XSP16, literal(-1)))
          CFI CFA_SP SP+-2
          CFI CFA_XSP16 add(XSP16, 9)
          CFI Block cfiCond10 Using cfiCommon0
          CFI (cfiCond10) Function bindFindEmpty
          CFI (cfiCond10) Conditional ??CrossCallReturnLabel_52
          CFI (cfiCond10) DPL0 Frame(CFA_SP, 4)
          CFI (cfiCond10) DPH0 Frame(CFA_SP, 5)
          CFI (cfiCond10) CFA_SP SP+-7
          CFI Block cfiCond11 Using cfiCommon0
          CFI (cfiCond11) Function bindNumOfEntries
          CFI (cfiCond11) Conditional ??CrossCallReturnLabel_53
          CFI (cfiCond11) DPL0 Frame(CFA_SP, 4)
          CFI (cfiCond11) DPH0 Frame(CFA_SP, 5)
          CFI (cfiCond11) CFA_SP SP+-7
          CFI Block cfiCond12 Using cfiCommon0
          CFI (cfiCond12) Function BindRestoreFromNV
          CFI (cfiCond12) Conditional ??CrossCallReturnLabel_54
          CFI (cfiCond12) R6 load(1, XDATA, add(CFA_XSP16, literal(-12)))
          CFI (cfiCond12) VB load(1, XDATA, add(CFA_XSP16, literal(-11)))
          CFI (cfiCond12) V0 load(1, XDATA, add(CFA_XSP16, literal(-10)))
          CFI (cfiCond12) V1 load(1, XDATA, add(CFA_XSP16, literal(-9)))
          CFI (cfiCond12) V2 load(1, XDATA, add(CFA_XSP16, literal(-8)))
          CFI (cfiCond12) V3 load(1, XDATA, add(CFA_XSP16, literal(-7)))
          CFI (cfiCond12) R7 load(1, XDATA, add(CFA_XSP16, literal(-6)))
          CFI (cfiCond12) ?RET_LOW load(1, XDATA, add(CFA_XSP16, literal(-5)))
          CFI (cfiCond12) ?RET_HIGH load(1, XDATA, add(CFA_XSP16, literal(-4)))
          CFI (cfiCond12) ?BRET_EXT load(1, XDATA, add(CFA_XSP16, literal(-3)))
          CFI (cfiCond12) DPL0 load(1, XDATA, add(CFA_XSP16, literal(-2)))
          CFI (cfiCond12) DPH0 load(1, XDATA, add(CFA_XSP16, literal(-1)))
          CFI (cfiCond12) CFA_SP SP+-2
          CFI (cfiCond12) CFA_XSP16 add(XSP16, 14)
          CFI Block cfiPicker13 Using cfiCommon1
          CFI (cfiPicker13) NoFunction
          CFI (cfiPicker13) Picker
        LCALL     ?Subroutine27 & 0xFFFF
??CrossCallReturnLabel_56:
        CPL       A
        RET
          CFI EndBlock cfiCond9
          CFI EndBlock cfiCond10
          CFI EndBlock cfiCond11
          CFI EndBlock cfiCond12
          CFI EndBlock cfiPicker13
//  217 
//  218 /*********************************************************************
//  219  * @fn      bindCapacity()
//  220  *
//  221  * @brief   This function returns the number of binding entries
//  222  *          possible and used.
//  223  *
//  224  * @param   maxEntries - pointer to a place to put the max entries
//  225  * @param   usedEntries - pointer to a place to put the number
//  226  *               of used entries
//  227  *
//  228  * @return  none
//  229  */

        RSEG BANKED_CODE:HUGECODE:NOROOT(0)
//  230 void bindCapacity( uint16 *maxEntries, uint16 *usedEntries  )
bindCapacity:
          CFI Block cfiBlock14 Using cfiCommon0
          CFI Function bindCapacity
        CODE
//  231 {
        REQUIRE ?V0
        MOV       A,#-0x9
        LCALL     ?BANKED_ENTER_XDATA
          CFI DPH0 load(1, XDATA, add(CFA_XSP16, literal(-1)))
          CFI DPL0 load(1, XDATA, add(CFA_XSP16, literal(-2)))
          CFI ?BRET_EXT load(1, XDATA, add(CFA_XSP16, literal(-3)))
          CFI ?RET_HIGH load(1, XDATA, add(CFA_XSP16, literal(-4)))
          CFI ?RET_LOW load(1, XDATA, add(CFA_XSP16, literal(-5)))
          CFI R7 load(1, XDATA, add(CFA_XSP16, literal(-6)))
          CFI V0 load(1, XDATA, add(CFA_XSP16, literal(-7)))
          CFI VB load(1, XDATA, add(CFA_XSP16, literal(-8)))
          CFI R6 load(1, XDATA, add(CFA_XSP16, literal(-9)))
          CFI CFA_SP SP+0
          CFI CFA_XSP16 add(XSP16, 9)
        ; Saved register size: 9
        ; Auto size: 0
//  232   bindTableIndex_t x;
//  233   bindTableIndex_t used;
//  234 
//  235   for ( used = 0, x = 0; x < gNWK_MAX_BINDING_ENTRIES; x++ )
        MOV       R7,#0x0
        MOV       R6,#0x0
        SJMP      ??bindCapacity_0
//  236   {
//  237     // It's empty if the index is "Not Found"
//  238     if ( BindingTable[x].srcEP != NV_BIND_EMPTY )
??bindCapacity_1:
        MOV       A,R6
        MOV       B,#0xe
        MUL       AB
        MOV       R0,A
        MOV       ?V0,B
        MOV       R1,?V0
        LCALL     ??Subroutine34_0 & 0xFFFF
??CrossCallReturnLabel_51:
        JZ        ??bindCapacity_2
//  239     {
//  240       used++;
        INC       R7
//  241     }
//  242   }
??bindCapacity_2:
        INC       R6
??bindCapacity_0:
        MOV       DPTR,#gNWK_MAX_BINDING_ENTRIES
        CLR       A
        MOVC      A,@A+DPTR
        MOV       R0,A
        MOV       A,R6
        CLR       C
        SUBB      A,R0
        JC        ??bindCapacity_1
//  243 
//  244   *maxEntries = gNWK_MAX_BINDING_ENTRIES;
        CLR       A
        MOVC      A,@A+DPTR
        MOV       DPL,R2
        MOV       DPH,R3
        MOVX      @DPTR,A
        INC       DPTR
        CLR       A
        MOVX      @DPTR,A
//  245   *usedEntries = used;
        MOV       A,R7
        MOV       DPL,R4
        MOV       DPH,R5
        MOVX      @DPTR,A
        INC       DPTR
        CLR       A
        MOVX      @DPTR,A
//  246 }
        LJMP      ?Subroutine2 & 0xFFFF
          CFI EndBlock cfiBlock14
//  247 
//  248 /*********************************************************************
//  249  * @fn      bindAddEntry()
//  250  *
//  251  * @brief   This function is used to Add an entry to the binding table
//  252  *
//  253  * @param       srcEpInt - source endpoint
//  254  * @param       dstAddr - destination Address
//  255  * @param       dstEpInt - destination endpoint
//  256  * @param       numClusterIds - number of cluster Ids in the list
//  257  * @param       clusterIds - pointer to the Object ID list
//  258  *
//  259  * @return  pointer to binding table entry, NULL if not added
//  260  */

        RSEG BANKED_CODE:HUGECODE:NOROOT(0)
//  261 BindingEntry_t *bindAddEntry( byte srcEpInt,
bindAddEntry:
          CFI Block cfiBlock15 Using cfiCommon0
          CFI Function bindAddEntry
        CODE
//  262                               zAddrType_t *dstAddr, byte dstEpInt,
//  263                               byte numClusterIds, uint16 *clusterIds )
//  264 {
        FUNCALL bindAddEntry, bindAddrMgrLocalLoad
        LOCFRAME ISTACK, 0, STACK
        LOCFRAME PSTACK, 0, STACK
        LOCFRAME XSTACK, 20, STACK
        LOCFRAME IOVERLAY, 0, STATIC
        LOCFRAME DOVERLAY, 0, STATIC
        ARGFRAME ISTACK, 0, STACK
        ARGFRAME PSTACK, 0, STACK
        ARGFRAME XSTACK, 20, STACK
        ARGFRAME IOVERLAY, 0, STATIC
        ARGFRAME DOVERLAY, 0, STATIC
        FUNCALL bindAddEntry, bindAddrIndexGet
        LOCFRAME ISTACK, 0, STACK
        LOCFRAME PSTACK, 0, STACK
        LOCFRAME XSTACK, 20, STACK
        LOCFRAME IOVERLAY, 0, STATIC
        LOCFRAME DOVERLAY, 0, STATIC
        ARGFRAME ISTACK, 0, STACK
        ARGFRAME PSTACK, 0, STACK
        ARGFRAME XSTACK, 20, STACK
        ARGFRAME IOVERLAY, 0, STATIC
        ARGFRAME DOVERLAY, 0, STATIC
        FUNCALL bindAddEntry, bindIsClusterIDinList
        LOCFRAME ISTACK, 0, STACK
        LOCFRAME PSTACK, 0, STACK
        LOCFRAME XSTACK, 20, STACK
        LOCFRAME IOVERLAY, 0, STATIC
        LOCFRAME DOVERLAY, 0, STATIC
        ARGFRAME ISTACK, 0, STACK
        ARGFRAME PSTACK, 0, STACK
        ARGFRAME XSTACK, 20, STACK
        ARGFRAME IOVERLAY, 0, STATIC
        ARGFRAME DOVERLAY, 0, STATIC
        FUNCALL bindAddEntry, bindAddClusterIdToList
        LOCFRAME ISTACK, 0, STACK
        LOCFRAME PSTACK, 0, STACK
        LOCFRAME XSTACK, 20, STACK
        LOCFRAME IOVERLAY, 0, STATIC
        LOCFRAME DOVERLAY, 0, STATIC
        ARGFRAME ISTACK, 0, STACK
        ARGFRAME PSTACK, 0, STACK
        ARGFRAME XSTACK, 20, STACK
        ARGFRAME IOVERLAY, 0, STATIC
        ARGFRAME DOVERLAY, 0, STATIC
        FUNCALL bindAddEntry, bindFindEmpty
        LOCFRAME ISTACK, 0, STACK
        LOCFRAME PSTACK, 0, STACK
        LOCFRAME XSTACK, 20, STACK
        LOCFRAME IOVERLAY, 0, STATIC
        LOCFRAME DOVERLAY, 0, STATIC
        ARGFRAME ISTACK, 0, STACK
        ARGFRAME PSTACK, 0, STACK
        ARGFRAME XSTACK, 20, STACK
        ARGFRAME IOVERLAY, 0, STATIC
        ARGFRAME DOVERLAY, 0, STATIC
        FUNCALL bindAddEntry, osal_memcpy
        LOCFRAME ISTACK, 0, STACK
        LOCFRAME PSTACK, 0, STACK
        LOCFRAME XSTACK, 23, STACK
        LOCFRAME IOVERLAY, 0, STATIC
        LOCFRAME DOVERLAY, 0, STATIC
        ARGFRAME ISTACK, 0, STACK
        ARGFRAME PSTACK, 0, STACK
        ARGFRAME XSTACK, 23, STACK
        ARGFRAME IOVERLAY, 0, STATIC
        ARGFRAME DOVERLAY, 0, STATIC
        REQUIRE ?V0
        REQUIRE ?V1
        REQUIRE ?V2
        REQUIRE ?V3
        REQUIRE ?V4
        REQUIRE ?V5
        REQUIRE ?V6
        REQUIRE ?V7
        REQUIRE ?V8
        REQUIRE ?V10
        REQUIRE ?V11
        MOV       A,#-0x14
        LCALL     ?BANKED_ENTER_XDATA
          CFI DPH0 load(1, XDATA, add(CFA_XSP16, literal(-1)))
          CFI DPL0 load(1, XDATA, add(CFA_XSP16, literal(-2)))
          CFI ?BRET_EXT load(1, XDATA, add(CFA_XSP16, literal(-3)))
          CFI ?RET_HIGH load(1, XDATA, add(CFA_XSP16, literal(-4)))
          CFI ?RET_LOW load(1, XDATA, add(CFA_XSP16, literal(-5)))
          CFI R7 load(1, XDATA, add(CFA_XSP16, literal(-6)))
          CFI V11 load(1, XDATA, add(CFA_XSP16, literal(-7)))
          CFI V10 load(1, XDATA, add(CFA_XSP16, literal(-8)))
          CFI V9 load(1, XDATA, add(CFA_XSP16, literal(-9)))
          CFI V8 load(1, XDATA, add(CFA_XSP16, literal(-10)))
          CFI V7 load(1, XDATA, add(CFA_XSP16, literal(-11)))
          CFI V6 load(1, XDATA, add(CFA_XSP16, literal(-12)))
          CFI V5 load(1, XDATA, add(CFA_XSP16, literal(-13)))
          CFI V4 load(1, XDATA, add(CFA_XSP16, literal(-14)))
          CFI V3 load(1, XDATA, add(CFA_XSP16, literal(-15)))
          CFI V2 load(1, XDATA, add(CFA_XSP16, literal(-16)))
          CFI V1 load(1, XDATA, add(CFA_XSP16, literal(-17)))
          CFI V0 load(1, XDATA, add(CFA_XSP16, literal(-18)))
          CFI VB load(1, XDATA, add(CFA_XSP16, literal(-19)))
          CFI R6 load(1, XDATA, add(CFA_XSP16, literal(-20)))
          CFI CFA_SP SP+0
          CFI CFA_XSP16 add(XSP16, 20)
        ; Saved register size: 20
        ; Auto size: 0
        MOV       ?V7,R1
        MOV       ?V2,R2
        MOV       ?V3,R3
        MOV       ?V8,R4
        MOV       ?V0,R5
//  265   uint8            index;
//  266   bindTableIndex_t bindIdx;
//  267   BindingEntry_t*  entry;
//  268   bindFields_t     fields;
//  269 
//  270   // initialize results
//  271   entry = NULL;
        MOV       R6,#0x0
        MOV       R7,#0x0
//  272 
//  273   // make sure local addresses have been loaded
//  274   bindAddrMgrLocalLoad();
        ; Setup parameters for call to function bindAddrMgrLocalLoad
        LCALL     `??bindAddrMgrLocalLoad::?relay`; Banked call to: bindAddrMgrLocalLoad
//  275 
//  276   // setup fields
//  277   fields.dstIndex = bindAddrIndexGet( dstAddr );
        ; Setup parameters for call to function bindAddrIndexGet
        MOV       R2,?V2
        MOV       R3,?V3
        LCALL     `??bindAddrIndexGet::?relay`; Banked call to: bindAddrIndexGet
        MOV       ?V4,R2
        MOV       ?V5,R3
//  278   fields.srcEP    = srcEpInt;
//  279 
//  280   if ( dstAddr->addrMode == AddrGroup )
        MOV       DPL,?V2
        MOV       DPH,?V3
        INC       DPTR
        INC       DPTR
        INC       DPTR
        INC       DPTR
        INC       DPTR
        INC       DPTR
        INC       DPTR
        INC       DPTR
        MOVX      A,@DPTR
        XRL       A,#0x1
        JNZ       ??bindAddEntry_0
//  281   {
//  282     fields.dstAddrMode = DSTGROUPMODE_GROUP;
        MOV       ?V6,#0x1
//  283     fields.dstEP       = 0;
        MOV       ?V1,#0x0
        SJMP      ??bindAddEntry_1
//  284   }
//  285   else
//  286   {
//  287     fields.dstAddrMode = DSTGROUPMODE_ADDR;
??bindAddEntry_0:
        MOV       ?V6,#0x0
//  288     fields.dstEP       = dstEpInt;
        MOV       ?V1,?V8
//  289   }
//  290 
//  291   if ( fields.dstIndex != INVALID_NODE_ADDR  )
??bindAddEntry_1:
        MOV       A,#-0x2
        XRL       A,?V4
        JNZ       ??bindAddEntry_2
        MOV       A,#-0x1
        XRL       A,?V5
??bindAddEntry_2:
        JNZ       $+5
        LJMP      ??bindAddEntry_3 & 0xFFFF
//  292   {
//  293     for ( bindIdx = 0; bindIdx < gNWK_MAX_BINDING_ENTRIES; bindIdx++ )
        MOV       R2,#0x0
        MOV       A,#0x14
        LCALL     ?XSTACK_DISP0_8
        MOVX      A,@DPTR
        MOV       ?V2,A
        INC       DPTR
        MOVX      A,@DPTR
        MOV       ?V3,A
        SJMP      ??bindAddEntry_4
??bindAddEntry_5:
        INC       R2
??bindAddEntry_4:
        MOV       DPTR,#gNWK_MAX_BINDING_ENTRIES
        CLR       A
        MOVC      A,@A+DPTR
        MOV       R0,A
        MOV       A,R2
        CLR       C
        SUBB      A,R0
        JNC       ??bindAddEntry_6
//  294     {
//  295       if ( ( fields.srcEP       == BindingTable[bindIdx].srcEP        ) &&
//  296            ( fields.dstAddrMode == BindingTable[bindIdx].dstGroupMode ) &&
//  297            ( fields.dstIndex    == BindingTable[bindIdx].dstIdx       ) &&
//  298            ( fields.dstEP       == BindingTable[bindIdx].dstEP        )    )
        MOV       A,R2
        LCALL     ?Subroutine10 & 0xFFFF
??CrossCallReturnLabel_9:
        XRL       A,?V7
        JNZ       ??bindAddEntry_5
        LCALL     ?Subroutine15 & 0xFFFF
??CrossCallReturnLabel_21:
        XRL       A,?V6
        JNZ       ??bindAddEntry_5
        LCALL     ?Subroutine16 & 0xFFFF
??CrossCallReturnLabel_23:
        XRL       A,?V4
        JNZ       ??bindAddEntry_7
        INC       DPTR
        MOVX      A,@DPTR
        XRL       A,?V5
??bindAddEntry_7:
        JNZ       ??bindAddEntry_5
        MOV       A,#(BindingTable + 4) & 0xff
        ADD       A,R0
        MOV       DPL,A
        MOV       A,#((BindingTable + 4) >> 8) & 0xff
        LCALL     ?Subroutine32 & 0xFFFF
??CrossCallReturnLabel_59:
        XRL       A,?V1
        JNZ       ??bindAddEntry_5
//  299       {
//  300         entry = &BindingTable[bindIdx];
        MOV       A,#BindingTable & 0xff
        ADD       A,R0
        MOV       R6,A
        MOV       A,#(BindingTable >> 8) & 0xff
        ADDC      A,R1
        MOV       R7,A
//  301 
//  302         // break from loop
//  303         break;
//  304       }
//  305     }
//  306 
//  307     if ( entry != NULL )
//  308     {
//  309       // Loop through the cluster IDs
//  310       for ( index = 0; index < numClusterIds; index++ )
        MOV       ?V4,#0x0
??bindAddEntry_8:
        MOV       A,?V4
        CLR       C
        SUBB      A,?V0
        JC        $+5
        LJMP      ??bindAddEntry_3 & 0xFFFF
//  311       {
//  312         // Found - is the cluster already defined?
//  313         if ( bindIsClusterIDinList( entry, clusterIds[index] ) == FALSE )
        ; Setup parameters for call to function bindIsClusterIDinList
        LCALL     ?Subroutine8 & 0xFFFF
??CrossCallReturnLabel_4:
        LCALL     `??bindIsClusterIDinList::?relay`; Banked call to: bindIsClusterIDinList
        MOV       A,R1
        JNZ       ??bindAddEntry_9
//  314         {
//  315           // Nope, add this cluster
//  316           if ( bindAddClusterIdToList( entry, clusterIds[index] ) == FALSE )
        ; Setup parameters for call to function bindAddClusterIdToList
        LCALL     ?Subroutine8 & 0xFFFF
??CrossCallReturnLabel_5:
        LCALL     `??bindAddClusterIdToList::?relay`; Banked call to: bindAddClusterIdToList
        MOV       A,R1
        JNZ       ??bindAddEntry_9
//  317           {
//  318             // Indicate error if cluster list was full
//  319             entry = NULL;
        MOV       R6,#0x0
        MOV       R7,#0x0
//  320           }
//  321         }
//  322       }
??bindAddEntry_9:
        INC       ?V4
        SJMP      ??bindAddEntry_8
//  323     }
//  324     else
//  325     {
//  326       // Find an empty slot
//  327       entry = bindFindEmpty();
??bindAddEntry_6:
        ; Setup parameters for call to function bindFindEmpty
        LCALL     `??bindFindEmpty::?relay`; Banked call to: bindFindEmpty
        MOV       ?V10,R2
        MOV       ?V11,R3
        MOV       R6,?V10
        MOV       R7,?V11
//  328 
//  329       // Check against the maximum number allowed
//  330       if ( entry != NULL )
        MOV       A,R6
        ORL       A,R7
        JZ        ??bindAddEntry_3
//  331       {
//  332         // Add new entry
//  333         entry->srcEP         = fields.srcEP;
        MOV       DPL,R6
        MOV       DPH,R7
        MOV       A,?V7
        MOVX      @DPTR,A
//  334         entry->dstGroupMode  = fields.dstAddrMode;
        INC       DPTR
        MOV       A,?V6
        MOVX      @DPTR,A
//  335         entry->dstIdx        = fields.dstIndex;
        MOV       DPL,R6
        MOV       DPH,R7
        INC       DPTR
        INC       DPTR
        MOV       A,?V4
        MOVX      @DPTR,A
        INC       DPTR
        MOV       A,?V5
        MOVX      @DPTR,A
//  336         entry->dstEP         = fields.dstEP;
        MOV       DPL,R6
        MOV       DPH,R7
        INC       DPTR
        INC       DPTR
        INC       DPTR
        INC       DPTR
        MOV       A,?V1
        MOVX      @DPTR,A
//  337 
//  338         if ( numClusterIds > gMAX_BINDING_CLUSTER_IDS )
        MOV       DPTR,#gMAX_BINDING_CLUSTER_IDS
        CLR       A
        MOVC      A,@A+DPTR
        CLR       C
        SUBB      A,?V0
        JNC       ??bindAddEntry_10
//  339         {
//  340           numClusterIds = gMAX_BINDING_CLUSTER_IDS;
        CLR       A
        MOVC      A,@A+DPTR
        MOV       ?V0,A
//  341         }
//  342 
//  343         entry->numClusterIds = numClusterIds;
??bindAddEntry_10:
        MOV       DPL,R6
        MOV       DPH,R7
        INC       DPTR
        INC       DPTR
        INC       DPTR
        INC       DPTR
        INC       DPTR
        MOV       A,?V0
        MOVX      @DPTR,A
//  344 
//  345         osal_memcpy( entry->clusterIdList,
//  346                      clusterIds,
//  347                      numClusterIds * sizeof(uint16) );
        ; Setup parameters for call to function osal_memcpy
        MOV       ?V4,?V2
        MOV       ?V5,?V3
        MOV       ?V6,#0x0
        MOV       R0,#?V4
        LCALL     ?PUSH_XSTACK_I_THREE
          CFI CFA_XSP16 add(XSP16, 23)
        MOV       R4,?V0
        MOV       A,R4
        ADD       A,R4
        MOV       R4,A
        CLR       A
        RLC       A
        MOV       R5,A
        MOV       A,R6
        ADD       A,#0x6
        MOV       R2,A
        CLR       A
        ADDC      A,R7
        MOV       R3,A
        LCALL     `??osal_memcpy::?relay`; Banked call to: osal_memcpy
        MOV       A,#0x3
        LCALL     ?DEALLOC_XSTACK8
          CFI CFA_XSP16 add(XSP16, 20)
//  348       }
//  349     }
//  350   }
//  351 
//  352   return entry;
??bindAddEntry_3:
        MOV       A,R6
        MOV       R2,A
        MOV       A,R7
        MOV       R3,A
        MOV       R7,#0xc
        LJMP      ?BANKED_LEAVE_XDATA
//  353 }
          CFI EndBlock cfiBlock15

        RSEG BANKED_CODE:HUGECODE:NOROOT(0)
?Subroutine8:
          CFI Block cfiCond16 Using cfiCommon0
          CFI Function bindAddEntry
          CFI Conditional ??CrossCallReturnLabel_4
          CFI R6 load(1, XDATA, add(CFA_XSP16, literal(-20)))
          CFI VB load(1, XDATA, add(CFA_XSP16, literal(-19)))
          CFI V0 load(1, XDATA, add(CFA_XSP16, literal(-18)))
          CFI V1 load(1, XDATA, add(CFA_XSP16, literal(-17)))
          CFI V2 load(1, XDATA, add(CFA_XSP16, literal(-16)))
          CFI V3 load(1, XDATA, add(CFA_XSP16, literal(-15)))
          CFI V4 load(1, XDATA, add(CFA_XSP16, literal(-14)))
          CFI V5 load(1, XDATA, add(CFA_XSP16, literal(-13)))
          CFI V6 load(1, XDATA, add(CFA_XSP16, literal(-12)))
          CFI V7 load(1, XDATA, add(CFA_XSP16, literal(-11)))
          CFI V8 load(1, XDATA, add(CFA_XSP16, literal(-10)))
          CFI V9 load(1, XDATA, add(CFA_XSP16, literal(-9)))
          CFI V10 load(1, XDATA, add(CFA_XSP16, literal(-8)))
          CFI V11 load(1, XDATA, add(CFA_XSP16, literal(-7)))
          CFI R7 load(1, XDATA, add(CFA_XSP16, literal(-6)))
          CFI ?RET_LOW load(1, XDATA, add(CFA_XSP16, literal(-5)))
          CFI ?RET_HIGH load(1, XDATA, add(CFA_XSP16, literal(-4)))
          CFI ?BRET_EXT load(1, XDATA, add(CFA_XSP16, literal(-3)))
          CFI DPL0 load(1, XDATA, add(CFA_XSP16, literal(-2)))
          CFI DPH0 load(1, XDATA, add(CFA_XSP16, literal(-1)))
          CFI CFA_SP SP+-2
          CFI CFA_XSP16 add(XSP16, 20)
          CFI Block cfiCond17 Using cfiCommon0
          CFI (cfiCond17) Function bindAddEntry
          CFI (cfiCond17) Conditional ??CrossCallReturnLabel_5
          CFI (cfiCond17) R6 load(1, XDATA, add(CFA_XSP16, literal(-20)))
          CFI (cfiCond17) VB load(1, XDATA, add(CFA_XSP16, literal(-19)))
          CFI (cfiCond17) V0 load(1, XDATA, add(CFA_XSP16, literal(-18)))
          CFI (cfiCond17) V1 load(1, XDATA, add(CFA_XSP16, literal(-17)))
          CFI (cfiCond17) V2 load(1, XDATA, add(CFA_XSP16, literal(-16)))
          CFI (cfiCond17) V3 load(1, XDATA, add(CFA_XSP16, literal(-15)))
          CFI (cfiCond17) V4 load(1, XDATA, add(CFA_XSP16, literal(-14)))
          CFI (cfiCond17) V5 load(1, XDATA, add(CFA_XSP16, literal(-13)))
          CFI (cfiCond17) V6 load(1, XDATA, add(CFA_XSP16, literal(-12)))
          CFI (cfiCond17) V7 load(1, XDATA, add(CFA_XSP16, literal(-11)))
          CFI (cfiCond17) V8 load(1, XDATA, add(CFA_XSP16, literal(-10)))
          CFI (cfiCond17) V9 load(1, XDATA, add(CFA_XSP16, literal(-9)))
          CFI (cfiCond17) V10 load(1, XDATA, add(CFA_XSP16, literal(-8)))
          CFI (cfiCond17) V11 load(1, XDATA, add(CFA_XSP16, literal(-7)))
          CFI (cfiCond17) R7 load(1, XDATA, add(CFA_XSP16, literal(-6)))
          CFI (cfiCond17) ?RET_LOW load(1, XDATA, add(CFA_XSP16, literal(-5)))
          CFI (cfiCond17) ?RET_HIGH load(1, XDATA, add(CFA_XSP16, literal(-4)))
          CFI (cfiCond17) ?BRET_EXT load(1, XDATA, add(CFA_XSP16, literal(-3)))
          CFI (cfiCond17) DPL0 load(1, XDATA, add(CFA_XSP16, literal(-2)))
          CFI (cfiCond17) DPH0 load(1, XDATA, add(CFA_XSP16, literal(-1)))
          CFI (cfiCond17) CFA_SP SP+-2
          CFI (cfiCond17) CFA_XSP16 add(XSP16, 20)
          CFI Block cfiPicker18 Using cfiCommon1
          CFI (cfiPicker18) NoFunction
          CFI (cfiPicker18) Picker
        MOV       R0,?V4
        MOV       A,R0
        ADD       A,R0
        MOV       R0,A
        CLR       A
        RLC       A
        MOV       R1,A
        MOV       A,?V2
        ADD       A,R0
        MOV       DPL,A
        MOV       A,?V3
        LCALL     ?Subroutine32 & 0xFFFF
??CrossCallReturnLabel_60:
        MOV       R4,A
        INC       DPTR
        MOVX      A,@DPTR
        MOV       R5,A
        MOV       A,R6
        MOV       R2,A
        MOV       A,R7
        MOV       R3,A
        RET
          CFI EndBlock cfiCond16
          CFI EndBlock cfiCond17
          CFI EndBlock cfiPicker18
//  354 
//  355 /*********************************************************************
//  356  * @fn      bindRemoveEntry
//  357  *
//  358  * @brief   Removes a binding table entry.
//  359  *
//  360  * @param   pBind - pointer to binding table entry to delete
//  361  *
//  362  * @return  TRUE if Removed, FALSE if not
//  363  */

        RSEG BANKED_CODE:HUGECODE:NOROOT(0)
//  364 byte bindRemoveEntry( BindingEntry_t *pBind )
bindRemoveEntry:
          CFI Block cfiBlock19 Using cfiCommon0
          CFI Function bindRemoveEntry
        CODE
//  365 {
        FUNCALL bindRemoveEntry, osal_memset
        LOCFRAME ISTACK, 2, STACK
        LOCFRAME PSTACK, 0, STACK
        LOCFRAME XSTACK, 0, STACK
        LOCFRAME IOVERLAY, 0, STATIC
        LOCFRAME DOVERLAY, 0, STATIC
        ARGFRAME ISTACK, 2, STACK
        ARGFRAME PSTACK, 0, STACK
        ARGFRAME XSTACK, 0, STACK
        ARGFRAME IOVERLAY, 0, STATIC
        ARGFRAME DOVERLAY, 0, STATIC
        PUSH      DPL
          CFI DPL0 Frame(CFA_SP, 4)
          CFI CFA_SP SP+-4
        PUSH      DPH
          CFI DPH0 Frame(CFA_SP, 5)
          CFI CFA_SP SP+-5
        ; Saved register size: 2
        ; Auto size: 0
//  366   osal_memset( pBind, 0xFF, gBIND_REC_SIZE );
        ; Setup parameters for call to function osal_memset
        LCALL     ?Subroutine13 & 0xFFFF
??CrossCallReturnLabel_16:
        MOV       R1,#-0x1
        LCALL     `??osal_memset::?relay`; Banked call to: osal_memset
//  367   return ( TRUE );
        MOV       R1,#0x1
        LJMP      ??Subroutine41_0 & 0xFFFF
//  368 }
          CFI EndBlock cfiBlock19

        RSEG BANKED_CODE:HUGECODE:NOROOT(0)
?Subroutine13:
          CFI Block cfiCond20 Using cfiCommon0
          CFI Function InitBindingTable
          CFI Conditional ??CrossCallReturnLabel_15
          CFI R6 load(1, XDATA, add(CFA_XSP16, literal(-10)))
          CFI VB load(1, XDATA, add(CFA_XSP16, literal(-9)))
          CFI V0 load(1, XDATA, add(CFA_XSP16, literal(-8)))
          CFI V1 load(1, XDATA, add(CFA_XSP16, literal(-7)))
          CFI R7 load(1, XDATA, add(CFA_XSP16, literal(-6)))
          CFI ?RET_LOW load(1, XDATA, add(CFA_XSP16, literal(-5)))
          CFI ?RET_HIGH load(1, XDATA, add(CFA_XSP16, literal(-4)))
          CFI ?BRET_EXT load(1, XDATA, add(CFA_XSP16, literal(-3)))
          CFI DPL0 load(1, XDATA, add(CFA_XSP16, literal(-2)))
          CFI DPH0 load(1, XDATA, add(CFA_XSP16, literal(-1)))
          CFI CFA_SP SP+-2
          CFI CFA_XSP16 add(XSP16, 10)
          CFI Block cfiCond21 Using cfiCommon0
          CFI (cfiCond21) Function bindRemoveEntry
          CFI (cfiCond21) Conditional ??CrossCallReturnLabel_16
          CFI (cfiCond21) DPL0 Frame(CFA_SP, 4)
          CFI (cfiCond21) DPH0 Frame(CFA_SP, 5)
          CFI (cfiCond21) CFA_SP SP+-7
          CFI Block cfiCond22 Using cfiCommon0
          CFI (cfiCond22) Function BindWriteNV
          CFI (cfiCond22) Conditional ??CrossCallReturnLabel_17
          CFI (cfiCond22) R6 load(1, XDATA, add(CFA_XSP16, literal(-15)))
          CFI (cfiCond22) VB load(1, XDATA, add(CFA_XSP16, literal(-14)))
          CFI (cfiCond22) V0 load(1, XDATA, add(CFA_XSP16, literal(-13)))
          CFI (cfiCond22) V1 load(1, XDATA, add(CFA_XSP16, literal(-12)))
          CFI (cfiCond22) V2 load(1, XDATA, add(CFA_XSP16, literal(-11)))
          CFI (cfiCond22) V3 load(1, XDATA, add(CFA_XSP16, literal(-10)))
          CFI (cfiCond22) V4 load(1, XDATA, add(CFA_XSP16, literal(-9)))
          CFI (cfiCond22) V5 load(1, XDATA, add(CFA_XSP16, literal(-8)))
          CFI (cfiCond22) V6 load(1, XDATA, add(CFA_XSP16, literal(-7)))
          CFI (cfiCond22) R7 load(1, XDATA, add(CFA_XSP16, literal(-6)))
          CFI (cfiCond22) ?RET_LOW load(1, XDATA, add(CFA_XSP16, literal(-5)))
          CFI (cfiCond22) ?RET_HIGH load(1, XDATA, add(CFA_XSP16, literal(-4)))
          CFI (cfiCond22) ?BRET_EXT load(1, XDATA, add(CFA_XSP16, literal(-3)))
          CFI (cfiCond22) DPL0 load(1, XDATA, add(CFA_XSP16, literal(-2)))
          CFI (cfiCond22) DPH0 load(1, XDATA, add(CFA_XSP16, literal(-1)))
          CFI (cfiCond22) CFA_SP SP+-2
          CFI (cfiCond22) CFA_XSP16 add(XSP16, 34)
          CFI Block cfiPicker23 Using cfiCommon1
          CFI (cfiPicker23) NoFunction
          CFI (cfiPicker23) Picker
        MOV       DPTR,#gBIND_REC_SIZE
        CLR       A
        MOVC      A,@A+DPTR
        MOV       R4,A
        MOV       A,#0x1
        MOVC      A,@A+DPTR
        MOV       R5,A
        RET
          CFI EndBlock cfiCond20
          CFI EndBlock cfiCond21
          CFI EndBlock cfiCond22
          CFI EndBlock cfiPicker23
//  369 
//  370 /*********************************************************************
//  371  * @fn      bindIsClusterIDinList()
//  372  *
//  373  * @brief   Is the clusterID in the clusterID list?
//  374  *
//  375  * @param   enter - binding table entry
//  376  * @param   clusterId  - Cluster ID to look for
//  377  *
//  378  * @return  TRUE if found, FALSE if not found
//  379  */

        RSEG BANKED_CODE:HUGECODE:NOROOT(0)
//  380 byte bindIsClusterIDinList( BindingEntry_t *entry, uint16 clusterId )
bindIsClusterIDinList:
          CFI Block cfiBlock24 Using cfiCommon0
          CFI Function bindIsClusterIDinList
        CODE
//  381 {
        MOV       A,#-0x9
        LCALL     ?BANKED_ENTER_XDATA
          CFI DPH0 load(1, XDATA, add(CFA_XSP16, literal(-1)))
          CFI DPL0 load(1, XDATA, add(CFA_XSP16, literal(-2)))
          CFI ?BRET_EXT load(1, XDATA, add(CFA_XSP16, literal(-3)))
          CFI ?RET_HIGH load(1, XDATA, add(CFA_XSP16, literal(-4)))
          CFI ?RET_LOW load(1, XDATA, add(CFA_XSP16, literal(-5)))
          CFI R7 load(1, XDATA, add(CFA_XSP16, literal(-6)))
          CFI V0 load(1, XDATA, add(CFA_XSP16, literal(-7)))
          CFI VB load(1, XDATA, add(CFA_XSP16, literal(-8)))
          CFI R6 load(1, XDATA, add(CFA_XSP16, literal(-9)))
          CFI CFA_SP SP+0
          CFI CFA_XSP16 add(XSP16, 9)
        ; Saved register size: 9
        ; Auto size: 0
//  382   uint8 x;
//  383 
//  384   if ( entry != NULL )
        MOV       A,R2
        ORL       A,R3
        JZ        ??bindIsClusterIDinList_0
//  385   {
//  386     for ( x = 0; x < entry->numClusterIds; x++ )
        MOV       R6,#0x0
        SJMP      ??bindIsClusterIDinList_1
??bindIsClusterIDinList_2:
        INC       R6
??bindIsClusterIDinList_1:
        MOV       DPL,R2
        MOV       DPH,R3
        INC       DPTR
        INC       DPTR
        INC       DPTR
        INC       DPTR
        INC       DPTR
        MOVX      A,@DPTR
        MOV       R0,A
        MOV       A,R6
        CLR       C
        SUBB      A,R0
        JNC       ??bindIsClusterIDinList_0
//  387     {
//  388       if ( entry->clusterIdList[x] == clusterId )
        MOV       A,R6
        ADD       A,0xE0 /* A   */
        MOV       R0,A
        CLR       A
        RLC       A
        MOV       R1,A
        MOV       A,R2
        ADD       A,R0
        MOV       DPL,A
        MOV       A,R3
        ADDC      A,R1
        MOV       DPH,A
        INC       DPTR
        INC       DPTR
        INC       DPTR
        INC       DPTR
        INC       DPTR
        INC       DPTR
        MOVX      A,@DPTR
        XRL       A,R4
        JNZ       ??bindIsClusterIDinList_3
        INC       DPTR
        MOVX      A,@DPTR
        XRL       A,R5
??bindIsClusterIDinList_3:
        JNZ       ??bindIsClusterIDinList_2
//  389       {
//  390         return ( TRUE );
        MOV       R1,#0x1
        SJMP      ??bindIsClusterIDinList_4
//  391       }
//  392     }
//  393   }
//  394 
//  395   return ( FALSE );
??bindIsClusterIDinList_0:
        MOV       R1,#0x0
??bindIsClusterIDinList_4:
        LJMP      ?Subroutine2 & 0xFFFF
//  396 }
          CFI EndBlock cfiBlock24
//  397 
//  398 /*********************************************************************
//  399  * @fn      bindRemoveClusterIdFromList()
//  400  *
//  401  * @brief   Removes a ClusterID from a list of ClusterIDs.
//  402  *
//  403  * @param   enter - binding table entry
//  404  * @param   clusterId  - Cluster ID to look for
//  405  *
//  406  * @return  TRUE if there are at least 1 clusterID left, FALSE if none
//  407  */

        RSEG BANKED_CODE:HUGECODE:NOROOT(0)
//  408 byte bindRemoveClusterIdFromList( BindingEntry_t *entry, uint16 clusterId )
bindRemoveClusterIdFromList:
          CFI Block cfiBlock25 Using cfiCommon0
          CFI Function bindRemoveClusterIdFromList
        CODE
//  409 {
        REQUIRE ?V0
        REQUIRE ?V1
        REQUIRE ?V2
        MOV       A,#-0xb
        LCALL     ?BANKED_ENTER_XDATA
          CFI DPH0 load(1, XDATA, add(CFA_XSP16, literal(-1)))
          CFI DPL0 load(1, XDATA, add(CFA_XSP16, literal(-2)))
          CFI ?BRET_EXT load(1, XDATA, add(CFA_XSP16, literal(-3)))
          CFI ?RET_HIGH load(1, XDATA, add(CFA_XSP16, literal(-4)))
          CFI ?RET_LOW load(1, XDATA, add(CFA_XSP16, literal(-5)))
          CFI R7 load(1, XDATA, add(CFA_XSP16, literal(-6)))
          CFI V2 load(1, XDATA, add(CFA_XSP16, literal(-7)))
          CFI V1 load(1, XDATA, add(CFA_XSP16, literal(-8)))
          CFI V0 load(1, XDATA, add(CFA_XSP16, literal(-9)))
          CFI VB load(1, XDATA, add(CFA_XSP16, literal(-10)))
          CFI R6 load(1, XDATA, add(CFA_XSP16, literal(-11)))
          CFI CFA_SP SP+0
          CFI CFA_XSP16 add(XSP16, 11)
        ; Saved register size: 11
        ; Auto size: 0
//  410   byte x;
//  411   uint16 *listPtr;
//  412   byte numIds;
//  413 
//  414   if ( entry )
        MOV       A,R2
        ORL       A,R3
        JZ        ??bindRemoveClusterIdFromList_0
//  415   {
//  416     if ( entry->numClusterIds > 0 )
        MOV       DPL,R2
        MOV       DPH,R3
        INC       DPTR
        INC       DPTR
        INC       DPTR
        INC       DPTR
        INC       DPTR
        MOVX      A,@DPTR
        JZ        ??bindRemoveClusterIdFromList_0
//  417     {
//  418       listPtr = entry->clusterIdList;
        MOV       A,R2
        ADD       A,#0x6
        MOV       R0,A
        CLR       A
        ADDC      A,R3
        MOV       R1,A
//  419       numIds = entry->numClusterIds;
        MOV       DPL,R2
        MOV       DPH,R3
        INC       DPTR
        INC       DPTR
        INC       DPTR
        INC       DPTR
        INC       DPTR
        MOVX      A,@DPTR
        MOV       ?V1,A
//  420 
//  421       // Copy the new list over
//  422       for ( x = 0; x < numIds; x++ )
        MOV       ?V0,#0x0
        SJMP      ??bindRemoveClusterIdFromList_1
//  423       {
//  424         if ( entry->clusterIdList[x] != clusterId )
//  425         {
//  426           *listPtr++ = entry->clusterIdList[x];
//  427         }
//  428         else
//  429         {
//  430           entry->numClusterIds--;
??bindRemoveClusterIdFromList_2:
        MOV       A,R2
        ADD       A,#0x5
        MOV       DPL,A
        CLR       A
        LCALL     ??Subroutine35_0 & 0xFFFF
??CrossCallReturnLabel_63:
        DEC       A
        MOVX      @DPTR,A
//  431           if ( entry->numClusterIds == 0 )
        JZ        ??bindRemoveClusterIdFromList_0
//  432           {
//  433             break;
//  434           }
//  435         }
??bindRemoveClusterIdFromList_3:
        INC       ?V0
??bindRemoveClusterIdFromList_1:
        MOV       A,?V0
        CLR       C
        SUBB      A,?V1
        JNC       ??bindRemoveClusterIdFromList_4
        MOV       R6,?V0
        MOV       A,R6
        ADD       A,R6
        MOV       R6,A
        CLR       A
        RLC       A
        MOV       R7,A
        LCALL     ?Subroutine25 & 0xFFFF
??CrossCallReturnLabel_43:
        XRL       A,R4
        JNZ       ??bindRemoveClusterIdFromList_5
        INC       DPTR
        MOVX      A,@DPTR
        XRL       A,R5
??bindRemoveClusterIdFromList_5:
        JZ        ??bindRemoveClusterIdFromList_2
        MOV       R6,?V0
        MOV       A,R6
        ADD       A,R6
        MOV       R6,A
        LCALL     ?Subroutine25 & 0xFFFF
//  436       }
//  437     }
//  438   }
??CrossCallReturnLabel_44:
        MOV       R6,A
        INC       DPTR
        MOVX      A,@DPTR
        MOV       R7,A
        MOV       DPL,R0
        MOV       DPH,R1
        MOV       A,R6
        MOVX      @DPTR,A
        INC       DPTR
        MOV       A,R7
        MOVX      @DPTR,A
        MOV       A,R0
        ADD       A,#0x2
        MOV       R0,A
        JNC       ??bindRemoveClusterIdFromList_3
        INC       R1
        SJMP      ??bindRemoveClusterIdFromList_3
??bindRemoveClusterIdFromList_4:
        MOV       DPL,R2
        MOV       DPH,R3
        INC       DPTR
        INC       DPTR
        INC       DPTR
        INC       DPTR
        INC       DPTR
        MOVX      A,@DPTR
        JZ        ??bindRemoveClusterIdFromList_0
//  439 
//  440   if ( entry && (entry->numClusterIds > 0) )
//  441   {
//  442     return ( TRUE );
        MOV       R1,#0x1
        SJMP      ??bindRemoveClusterIdFromList_6
//  443   }
//  444   else
//  445   {
//  446     return ( FALSE );
??bindRemoveClusterIdFromList_0:
        MOV       R1,#0x0
??bindRemoveClusterIdFromList_6:
        MOV       R7,#0x3
        LJMP      ?BANKED_LEAVE_XDATA
//  447   }
//  448 }
          CFI EndBlock cfiBlock25

        RSEG BANKED_CODE:HUGECODE:NOROOT(0)
?Subroutine25:
          CFI Block cfiCond26 Using cfiCommon0
          CFI Function bindRemoveClusterIdFromList
          CFI Conditional ??CrossCallReturnLabel_43
          CFI R6 load(1, XDATA, add(CFA_XSP16, literal(-11)))
          CFI VB load(1, XDATA, add(CFA_XSP16, literal(-10)))
          CFI V0 load(1, XDATA, add(CFA_XSP16, literal(-9)))
          CFI V1 load(1, XDATA, add(CFA_XSP16, literal(-8)))
          CFI V2 load(1, XDATA, add(CFA_XSP16, literal(-7)))
          CFI R7 load(1, XDATA, add(CFA_XSP16, literal(-6)))
          CFI ?RET_LOW load(1, XDATA, add(CFA_XSP16, literal(-5)))
          CFI ?RET_HIGH load(1, XDATA, add(CFA_XSP16, literal(-4)))
          CFI ?BRET_EXT load(1, XDATA, add(CFA_XSP16, literal(-3)))
          CFI DPL0 load(1, XDATA, add(CFA_XSP16, literal(-2)))
          CFI DPH0 load(1, XDATA, add(CFA_XSP16, literal(-1)))
          CFI CFA_SP SP+-2
          CFI CFA_XSP16 add(XSP16, 11)
          CFI Block cfiCond27 Using cfiCommon0
          CFI (cfiCond27) Function bindRemoveClusterIdFromList
          CFI (cfiCond27) Conditional ??CrossCallReturnLabel_44
          CFI (cfiCond27) R6 load(1, XDATA, add(CFA_XSP16, literal(-11)))
          CFI (cfiCond27) VB load(1, XDATA, add(CFA_XSP16, literal(-10)))
          CFI (cfiCond27) V0 load(1, XDATA, add(CFA_XSP16, literal(-9)))
          CFI (cfiCond27) V1 load(1, XDATA, add(CFA_XSP16, literal(-8)))
          CFI (cfiCond27) V2 load(1, XDATA, add(CFA_XSP16, literal(-7)))
          CFI (cfiCond27) R7 load(1, XDATA, add(CFA_XSP16, literal(-6)))
          CFI (cfiCond27) ?RET_LOW load(1, XDATA, add(CFA_XSP16, literal(-5)))
          CFI (cfiCond27) ?RET_HIGH load(1, XDATA, add(CFA_XSP16, literal(-4)))
          CFI (cfiCond27) ?BRET_EXT load(1, XDATA, add(CFA_XSP16, literal(-3)))
          CFI (cfiCond27) DPL0 load(1, XDATA, add(CFA_XSP16, literal(-2)))
          CFI (cfiCond27) DPH0 load(1, XDATA, add(CFA_XSP16, literal(-1)))
          CFI (cfiCond27) CFA_SP SP+-2
          CFI (cfiCond27) CFA_XSP16 add(XSP16, 11)
          CFI Block cfiPicker28 Using cfiCommon1
          CFI (cfiPicker28) NoFunction
          CFI (cfiPicker28) Picker
        LCALL     ?Subroutine31 & 0xFFFF
??CrossCallReturnLabel_50:
        MOVX      A,@DPTR
        RET
          CFI EndBlock cfiCond26
          CFI EndBlock cfiCond27
          CFI EndBlock cfiPicker28
//  449 
//  450 /*********************************************************************
//  451  * @fn      bindAddClusterIdToList()
//  452  *
//  453  * @brief   Adds a ClusterID to a list of ClusterIDs.
//  454  *
//  455  * @param   enter - binding table entry
//  456  * @param   clusterId  - Cluster ID to Add
//  457  *
//  458  * @return  TRUE if Added, FALSE if not
//  459  */

        RSEG BANKED_CODE:HUGECODE:NOROOT(0)
//  460 byte bindAddClusterIdToList( BindingEntry_t *entry, uint16 clusterId )
bindAddClusterIdToList:
          CFI Block cfiBlock29 Using cfiCommon0
          CFI Function bindAddClusterIdToList
        CODE
//  461 {
        MOV       A,#-0x9
        LCALL     ?BANKED_ENTER_XDATA
          CFI DPH0 load(1, XDATA, add(CFA_XSP16, literal(-1)))
          CFI DPL0 load(1, XDATA, add(CFA_XSP16, literal(-2)))
          CFI ?BRET_EXT load(1, XDATA, add(CFA_XSP16, literal(-3)))
          CFI ?RET_HIGH load(1, XDATA, add(CFA_XSP16, literal(-4)))
          CFI ?RET_LOW load(1, XDATA, add(CFA_XSP16, literal(-5)))
          CFI R7 load(1, XDATA, add(CFA_XSP16, literal(-6)))
          CFI V0 load(1, XDATA, add(CFA_XSP16, literal(-7)))
          CFI VB load(1, XDATA, add(CFA_XSP16, literal(-8)))
          CFI R6 load(1, XDATA, add(CFA_XSP16, literal(-9)))
          CFI CFA_SP SP+0
          CFI CFA_XSP16 add(XSP16, 9)
        ; Saved register size: 9
        ; Auto size: 0
//  462   if ( entry && entry->numClusterIds < gMAX_BINDING_CLUSTER_IDS )
        MOV       A,R2
        ORL       A,R3
        JZ        ??bindAddClusterIdToList_0
        MOV       DPTR,#gMAX_BINDING_CLUSTER_IDS
        CLR       A
        MOVC      A,@A+DPTR
        MOV       R0,A
        MOV       DPL,R2
        MOV       DPH,R3
        INC       DPTR
        INC       DPTR
        INC       DPTR
        INC       DPTR
        INC       DPTR
        MOVX      A,@DPTR
        CLR       C
        SUBB      A,R0
        JNC       ??bindAddClusterIdToList_0
//  463   {
//  464     // Add the new one
//  465     entry->clusterIdList[entry->numClusterIds] = clusterId;
        MOV       A,R2
        ADD       A,#0x5
        MOV       R0,A
        CLR       A
        ADDC      A,R3
        MOV       R1,A
        MOV       DPL,R0
        MOV       DPH,R1
        MOVX      A,@DPTR
        ADD       A,0xE0 /* A   */
        MOV       R6,A
        CLR       A
        RLC       A
        MOV       R7,A
        LCALL     ?Subroutine31 & 0xFFFF
??CrossCallReturnLabel_49:
        MOV       A,R4
        MOVX      @DPTR,A
        INC       DPTR
        MOV       A,R5
        MOVX      @DPTR,A
//  466     entry->numClusterIds++;
        MOV       DPL,R0
        MOV       DPH,R1
        MOVX      A,@DPTR
        INC       A
        MOVX      @DPTR,A
//  467     return ( TRUE );
        MOV       R1,#0x1
        SJMP      ??bindAddClusterIdToList_1
//  468   }
//  469   return ( FALSE );
??bindAddClusterIdToList_0:
        MOV       R1,#0x0
??bindAddClusterIdToList_1:
          CFI EndBlock cfiBlock29
        REQUIRE ?Subroutine2
        ; // Fall through to label ?Subroutine2
//  470 }

        RSEG BANKED_CODE:HUGECODE:NOROOT(0)
?Subroutine2:
          CFI Block cfiBlock30 Using cfiCommon0
          CFI NoFunction
          CFI CFA_SP SP+0
          CFI CFA_XSP16 add(XSP16, 9)
          CFI VB load(1, XDATA, add(CFA_XSP16, literal(-8)))
          CFI DPL0 load(1, XDATA, add(CFA_XSP16, literal(-2)))
          CFI DPH0 load(1, XDATA, add(CFA_XSP16, literal(-1)))
          CFI R6 load(1, XDATA, add(CFA_XSP16, literal(-9)))
          CFI R7 load(1, XDATA, add(CFA_XSP16, literal(-6)))
          CFI V0 load(1, XDATA, add(CFA_XSP16, literal(-7)))
          CFI ?BRET_EXT load(1, XDATA, add(CFA_XSP16, literal(-3)))
          CFI ?RET_HIGH load(1, XDATA, add(CFA_XSP16, literal(-4)))
          CFI ?RET_LOW load(1, XDATA, add(CFA_XSP16, literal(-5)))
        MOV       R7,#0x1
        LJMP      ?BANKED_LEAVE_XDATA
          CFI EndBlock cfiBlock30

        RSEG BANKED_CODE:HUGECODE:NOROOT(0)
?Subroutine31:
          CFI Block cfiCond31 Using cfiCommon0
          CFI Function bindRemoveClusterIdFromList
          CFI Conditional ??CrossCallReturnLabel_50, ??CrossCallReturnLabel_43
          CFI R6 load(1, XDATA, add(CFA_XSP16, literal(-11)))
          CFI VB load(1, XDATA, add(CFA_XSP16, literal(-10)))
          CFI V0 load(1, XDATA, add(CFA_XSP16, literal(-9)))
          CFI V1 load(1, XDATA, add(CFA_XSP16, literal(-8)))
          CFI V2 load(1, XDATA, add(CFA_XSP16, literal(-7)))
          CFI R7 load(1, XDATA, add(CFA_XSP16, literal(-6)))
          CFI ?RET_LOW load(1, XDATA, add(CFA_XSP16, literal(-5)))
          CFI ?RET_HIGH load(1, XDATA, add(CFA_XSP16, literal(-4)))
          CFI ?BRET_EXT load(1, XDATA, add(CFA_XSP16, literal(-3)))
          CFI DPL0 load(1, XDATA, add(CFA_XSP16, literal(-2)))
          CFI DPH0 load(1, XDATA, add(CFA_XSP16, literal(-1)))
          CFI CFA_SP SP+-4
          CFI CFA_XSP16 add(XSP16, 11)
          CFI Block cfiCond32 Using cfiCommon0
          CFI (cfiCond32) Function bindRemoveClusterIdFromList
          CFI (cfiCond32) Conditional ??CrossCallReturnLabel_50, ??CrossCallReturnLabel_44
          CFI (cfiCond32) R6 load(1, XDATA, add(CFA_XSP16, literal(-11)))
          CFI (cfiCond32) VB load(1, XDATA, add(CFA_XSP16, literal(-10)))
          CFI (cfiCond32) V0 load(1, XDATA, add(CFA_XSP16, literal(-9)))
          CFI (cfiCond32) V1 load(1, XDATA, add(CFA_XSP16, literal(-8)))
          CFI (cfiCond32) V2 load(1, XDATA, add(CFA_XSP16, literal(-7)))
          CFI (cfiCond32) R7 load(1, XDATA, add(CFA_XSP16, literal(-6)))
          CFI (cfiCond32) ?RET_LOW load(1, XDATA, add(CFA_XSP16, literal(-5)))
          CFI (cfiCond32) ?RET_HIGH load(1, XDATA, add(CFA_XSP16, literal(-4)))
          CFI (cfiCond32) ?BRET_EXT load(1, XDATA, add(CFA_XSP16, literal(-3)))
          CFI (cfiCond32) DPL0 load(1, XDATA, add(CFA_XSP16, literal(-2)))
          CFI (cfiCond32) DPH0 load(1, XDATA, add(CFA_XSP16, literal(-1)))
          CFI (cfiCond32) CFA_SP SP+-4
          CFI (cfiCond32) CFA_XSP16 add(XSP16, 11)
          CFI Block cfiCond33 Using cfiCommon0
          CFI (cfiCond33) Function bindAddClusterIdToList
          CFI (cfiCond33) Conditional ??CrossCallReturnLabel_49
          CFI (cfiCond33) R6 load(1, XDATA, add(CFA_XSP16, literal(-9)))
          CFI (cfiCond33) VB load(1, XDATA, add(CFA_XSP16, literal(-8)))
          CFI (cfiCond33) V0 load(1, XDATA, add(CFA_XSP16, literal(-7)))
          CFI (cfiCond33) R7 load(1, XDATA, add(CFA_XSP16, literal(-6)))
          CFI (cfiCond33) ?RET_LOW load(1, XDATA, add(CFA_XSP16, literal(-5)))
          CFI (cfiCond33) ?RET_HIGH load(1, XDATA, add(CFA_XSP16, literal(-4)))
          CFI (cfiCond33) ?BRET_EXT load(1, XDATA, add(CFA_XSP16, literal(-3)))
          CFI (cfiCond33) DPL0 load(1, XDATA, add(CFA_XSP16, literal(-2)))
          CFI (cfiCond33) DPH0 load(1, XDATA, add(CFA_XSP16, literal(-1)))
          CFI (cfiCond33) CFA_SP SP+-2
          CFI (cfiCond33) CFA_XSP16 add(XSP16, 9)
          CFI Block cfiPicker34 Using cfiCommon1
          CFI (cfiPicker34) NoFunction
          CFI (cfiPicker34) Picker
        MOV       A,R2
        ADD       A,R6
        MOV       DPL,A
        MOV       A,R3
        ADDC      A,R7
        MOV       DPH,A
        INC       DPTR
        INC       DPTR
        INC       DPTR
        INC       DPTR
        INC       DPTR
        INC       DPTR
        RET
          CFI EndBlock cfiCond31
          CFI EndBlock cfiCond32
          CFI EndBlock cfiCond33
          CFI EndBlock cfiPicker34
//  471 
//  472 /*********************************************************************
//  473  * @fn      bindFindExisting
//  474  *
//  475  * @brief   Finds an existing src/epint to dst/epint bind record
//  476  *
//  477  * @param   srcEpInt - Source Endpoint/Interface
//  478  * @param   dstAddr - Destination address
//  479  * @param   dstEpInt - Destination Endpoint/Interface
//  480  *
//  481  * @return  pointer to existing entry or NULL
//  482  */

        RSEG BANKED_CODE:HUGECODE:NOROOT(0)
//  483 BindingEntry_t *bindFindExisting( byte srcEpInt,
bindFindExisting:
          CFI Block cfiBlock35 Using cfiCommon0
          CFI Function bindFindExisting
        CODE
//  484                                   zAddrType_t *dstAddr, byte dstEpInt )
//  485 {
        FUNCALL bindFindExisting, bindingAddrMgsHelperFind
        LOCFRAME ISTACK, 0, STACK
        LOCFRAME PSTACK, 0, STACK
        LOCFRAME XSTACK, 12, STACK
        LOCFRAME IOVERLAY, 0, STATIC
        LOCFRAME DOVERLAY, 0, STATIC
        ARGFRAME ISTACK, 0, STACK
        ARGFRAME PSTACK, 0, STACK
        ARGFRAME XSTACK, 12, STACK
        ARGFRAME IOVERLAY, 0, STATIC
        ARGFRAME DOVERLAY, 0, STATIC
        REQUIRE ?V0
        REQUIRE ?V1
        REQUIRE ?V2
        REQUIRE ?V3
        MOV       A,#-0xc
        LCALL     ?BANKED_ENTER_XDATA
          CFI DPH0 load(1, XDATA, add(CFA_XSP16, literal(-1)))
          CFI DPL0 load(1, XDATA, add(CFA_XSP16, literal(-2)))
          CFI ?BRET_EXT load(1, XDATA, add(CFA_XSP16, literal(-3)))
          CFI ?RET_HIGH load(1, XDATA, add(CFA_XSP16, literal(-4)))
          CFI ?RET_LOW load(1, XDATA, add(CFA_XSP16, literal(-5)))
          CFI R7 load(1, XDATA, add(CFA_XSP16, literal(-6)))
          CFI V3 load(1, XDATA, add(CFA_XSP16, literal(-7)))
          CFI V2 load(1, XDATA, add(CFA_XSP16, literal(-8)))
          CFI V1 load(1, XDATA, add(CFA_XSP16, literal(-9)))
          CFI V0 load(1, XDATA, add(CFA_XSP16, literal(-10)))
          CFI VB load(1, XDATA, add(CFA_XSP16, literal(-11)))
          CFI R6 load(1, XDATA, add(CFA_XSP16, literal(-12)))
          CFI CFA_SP SP+0
          CFI CFA_XSP16 add(XSP16, 12)
        ; Saved register size: 12
        ; Auto size: 0
        MOV       ?V0,R1
        MOV       A,R2
        MOV       R6,A
        MOV       A,R3
        MOV       R7,A
        MOV       ?V1,R4
//  486   uint16 dstIdx;
//  487   bindTableIndex_t x;
//  488 
//  489   // Find the records in the assoc list
//  490   if ( dstAddr->addrMode == AddrGroup )
        MOV       DPL,R6
        MOV       DPH,R7
        INC       DPTR
        INC       DPTR
        INC       DPTR
        INC       DPTR
        INC       DPTR
        INC       DPTR
        INC       DPTR
        INC       DPTR
        MOVX      A,@DPTR
        XRL       A,#0x1
        JNZ       ??bindFindExisting_0
//  491   {
//  492     dstIdx = dstAddr->addr.shortAddr;
        MOV       DPL,R6
        MOV       DPH,R7
        LCALL     ?Subroutine22 & 0xFFFF
//  493   }
??CrossCallReturnLabel_36:
        SJMP      ??bindFindExisting_1
//  494   else
//  495   {
//  496     dstIdx = bindingAddrMgsHelperFind( dstAddr );
??bindFindExisting_0:
        ; Setup parameters for call to function bindingAddrMgsHelperFind
        LCALL     `??bindingAddrMgsHelperFind::?relay`; Banked call to: bindingAddrMgsHelperFind
        MOV       ?V2,R2
        MOV       ?V3,R3
        MOV       R0,?V2
        MOV       R1,?V3
//  497   }
//  498 
//  499   if ( dstIdx == INVALID_NODE_ADDR )
??bindFindExisting_1:
        MOV       A,#-0x2
        XRL       A,R0
        JNZ       ??bindFindExisting_2
        MOV       A,#-0x1
        XRL       A,R1
??bindFindExisting_2:
        JNZ       $+5
        LJMP      ??bindFindExisting_3 & 0xFFFF
//  500   {
//  501     return ( (BindingEntry_t *)NULL );
//  502   }
//  503 
//  504   // Start at the beginning
//  505   for ( x = 0; x < gNWK_MAX_BINDING_ENTRIES; x++ )
        MOV       R4,#0x0
        SJMP      ??bindFindExisting_4
//  506   {
//  507     if ( (BindingTable[x].srcEP == srcEpInt) )
//  508     {
//  509       if ( ((dstAddr->addrMode == AddrGroup)
//  510               && (BindingTable[x].dstGroupMode == DSTGROUPMODE_GROUP)
//  511               && (dstIdx == BindingTable[x].dstIdx))
//  512          || ((dstAddr->addrMode != AddrGroup)
//  513              && (BindingTable[x].dstGroupMode == DSTGROUPMODE_ADDR)
//  514              && (dstIdx == BindingTable[x].dstIdx) && (BindingTable[x].dstEP == dstEpInt)) )
??bindFindExisting_5:
        LCALL     ?Subroutine26 & 0xFFFF
??CrossCallReturnLabel_68:
        XRL       A,#0x1
        JNZ       ??bindFindExisting_6
        MOV       A,#(BindingTable + 2) & 0xff
        ADD       A,R2
        MOV       DPL,A
        MOV       A,#((BindingTable + 2) >> 8) & 0xff
        LCALL     ??Subroutine35_0 & 0xFFFF
??CrossCallReturnLabel_64:
        XRL       A,R0
        JNZ       ??bindFindExisting_7
        INC       DPTR
        MOVX      A,@DPTR
        XRL       A,R1
??bindFindExisting_7:
        JZ        ??bindFindExisting_8
??bindFindExisting_6:
        INC       R4
??bindFindExisting_4:
        MOV       DPTR,#gNWK_MAX_BINDING_ENTRIES
        CLR       A
        MOVC      A,@A+DPTR
        MOV       R2,A
        MOV       A,R4
        CLR       C
        SUBB      A,R2
        JNC       ??bindFindExisting_3
        MOV       A,R4
        MOV       B,#0xe
        MUL       AB
        MOV       R2,A
        MOV       R5,B
        MOV       A,R5
        MOV       R3,A
        MOV       A,#BindingTable & 0xff
        ADD       A,R2
        MOV       DPL,A
        MOV       A,#(BindingTable >> 8) & 0xff
        LCALL     ??Subroutine35_0 & 0xFFFF
??CrossCallReturnLabel_65:
        XRL       A,?V0
        JNZ       ??bindFindExisting_6
        MOV       DPL,R6
        MOV       DPH,R7
        INC       DPTR
        INC       DPTR
        INC       DPTR
        INC       DPTR
        INC       DPTR
        INC       DPTR
        INC       DPTR
        INC       DPTR
        MOVX      A,@DPTR
        XRL       A,#0x1
        JZ        ??bindFindExisting_5
        LCALL     ?Subroutine26 & 0xFFFF
??CrossCallReturnLabel_69:
        JNZ       ??bindFindExisting_6
        MOV       A,#(BindingTable + 2) & 0xff
        ADD       A,R2
        MOV       DPL,A
        MOV       A,#((BindingTable + 2) >> 8) & 0xff
        LCALL     ??Subroutine35_0 & 0xFFFF
??CrossCallReturnLabel_66:
        XRL       A,R0
        JNZ       ??bindFindExisting_9
        INC       DPTR
        MOVX      A,@DPTR
        XRL       A,R1
??bindFindExisting_9:
        JNZ       ??bindFindExisting_6
        MOV       A,#(BindingTable + 4) & 0xff
        ADD       A,R2
        MOV       DPL,A
        MOV       A,#((BindingTable + 4) >> 8) & 0xff
        LCALL     ??Subroutine35_0 & 0xFFFF
??CrossCallReturnLabel_67:
        XRL       A,?V1
        JNZ       ??bindFindExisting_6
//  515       {
//  516         return ( &BindingTable[x] );
??bindFindExisting_8:
        MOV       A,R5
        MOV       R1,A
        MOV       A,#BindingTable & 0xff
        ADD       A,R2
        MOV       R2,A
        MOV       A,#(BindingTable >> 8) & 0xff
        ADDC      A,R1
        MOV       R3,A
        SJMP      ??bindFindExisting_10
//  517       }
//  518     }
//  519   }
//  520 
//  521   return ( (BindingEntry_t *)NULL );
??bindFindExisting_3:
        MOV       R2,#0x0
        MOV       R3,#0x0
??bindFindExisting_10:
        SJMP      ??Subroutine36_0
//  522 }
          CFI EndBlock cfiBlock35

        RSEG BANKED_CODE:HUGECODE:NOROOT(0)
?Subroutine26:
          CFI Block cfiCond36 Using cfiCommon0
          CFI Function bindFindExisting
          CFI Conditional ??CrossCallReturnLabel_68
          CFI R6 load(1, XDATA, add(CFA_XSP16, literal(-12)))
          CFI VB load(1, XDATA, add(CFA_XSP16, literal(-11)))
          CFI V0 load(1, XDATA, add(CFA_XSP16, literal(-10)))
          CFI V1 load(1, XDATA, add(CFA_XSP16, literal(-9)))
          CFI V2 load(1, XDATA, add(CFA_XSP16, literal(-8)))
          CFI V3 load(1, XDATA, add(CFA_XSP16, literal(-7)))
          CFI R7 load(1, XDATA, add(CFA_XSP16, literal(-6)))
          CFI ?RET_LOW load(1, XDATA, add(CFA_XSP16, literal(-5)))
          CFI ?RET_HIGH load(1, XDATA, add(CFA_XSP16, literal(-4)))
          CFI ?BRET_EXT load(1, XDATA, add(CFA_XSP16, literal(-3)))
          CFI DPL0 load(1, XDATA, add(CFA_XSP16, literal(-2)))
          CFI DPH0 load(1, XDATA, add(CFA_XSP16, literal(-1)))
          CFI CFA_SP SP+-2
          CFI CFA_XSP16 add(XSP16, 12)
          CFI Block cfiCond37 Using cfiCommon0
          CFI (cfiCond37) Function bindFindExisting
          CFI (cfiCond37) Conditional ??CrossCallReturnLabel_69
          CFI (cfiCond37) R6 load(1, XDATA, add(CFA_XSP16, literal(-12)))
          CFI (cfiCond37) VB load(1, XDATA, add(CFA_XSP16, literal(-11)))
          CFI (cfiCond37) V0 load(1, XDATA, add(CFA_XSP16, literal(-10)))
          CFI (cfiCond37) V1 load(1, XDATA, add(CFA_XSP16, literal(-9)))
          CFI (cfiCond37) V2 load(1, XDATA, add(CFA_XSP16, literal(-8)))
          CFI (cfiCond37) V3 load(1, XDATA, add(CFA_XSP16, literal(-7)))
          CFI (cfiCond37) R7 load(1, XDATA, add(CFA_XSP16, literal(-6)))
          CFI (cfiCond37) ?RET_LOW load(1, XDATA, add(CFA_XSP16, literal(-5)))
          CFI (cfiCond37) ?RET_HIGH load(1, XDATA, add(CFA_XSP16, literal(-4)))
          CFI (cfiCond37) ?BRET_EXT load(1, XDATA, add(CFA_XSP16, literal(-3)))
          CFI (cfiCond37) DPL0 load(1, XDATA, add(CFA_XSP16, literal(-2)))
          CFI (cfiCond37) DPH0 load(1, XDATA, add(CFA_XSP16, literal(-1)))
          CFI (cfiCond37) CFA_SP SP+-2
          CFI (cfiCond37) CFA_XSP16 add(XSP16, 12)
          CFI Block cfiPicker38 Using cfiCommon1
          CFI (cfiPicker38) NoFunction
          CFI (cfiPicker38) Picker
        MOV       A,#(BindingTable + 1) & 0xff
        ADD       A,R2
        MOV       DPL,A
        MOV       A,#((BindingTable + 1) >> 8) & 0xff
          CFI EndBlock cfiCond36
          CFI EndBlock cfiCond37
          CFI EndBlock cfiPicker38
        REQUIRE ??Subroutine35_0
        ; // Fall through to label ??Subroutine35_0

        RSEG BANKED_CODE:HUGECODE:NOROOT(0)
??Subroutine35_0:
          CFI Block cfiCond39 Using cfiCommon0
          CFI Function bindRemoveClusterIdFromList
          CFI Conditional ??CrossCallReturnLabel_63
          CFI R6 load(1, XDATA, add(CFA_XSP16, literal(-11)))
          CFI VB load(1, XDATA, add(CFA_XSP16, literal(-10)))
          CFI V0 load(1, XDATA, add(CFA_XSP16, literal(-9)))
          CFI V1 load(1, XDATA, add(CFA_XSP16, literal(-8)))
          CFI V2 load(1, XDATA, add(CFA_XSP16, literal(-7)))
          CFI R7 load(1, XDATA, add(CFA_XSP16, literal(-6)))
          CFI ?RET_LOW load(1, XDATA, add(CFA_XSP16, literal(-5)))
          CFI ?RET_HIGH load(1, XDATA, add(CFA_XSP16, literal(-4)))
          CFI ?BRET_EXT load(1, XDATA, add(CFA_XSP16, literal(-3)))
          CFI DPL0 load(1, XDATA, add(CFA_XSP16, literal(-2)))
          CFI DPH0 load(1, XDATA, add(CFA_XSP16, literal(-1)))
          CFI CFA_SP SP+-2
          CFI CFA_XSP16 add(XSP16, 11)
          CFI Block cfiCond40 Using cfiCommon0
          CFI (cfiCond40) Function bindFindExisting
          CFI (cfiCond40) Conditional ??CrossCallReturnLabel_64
          CFI (cfiCond40) R6 load(1, XDATA, add(CFA_XSP16, literal(-12)))
          CFI (cfiCond40) VB load(1, XDATA, add(CFA_XSP16, literal(-11)))
          CFI (cfiCond40) V0 load(1, XDATA, add(CFA_XSP16, literal(-10)))
          CFI (cfiCond40) V1 load(1, XDATA, add(CFA_XSP16, literal(-9)))
          CFI (cfiCond40) V2 load(1, XDATA, add(CFA_XSP16, literal(-8)))
          CFI (cfiCond40) V3 load(1, XDATA, add(CFA_XSP16, literal(-7)))
          CFI (cfiCond40) R7 load(1, XDATA, add(CFA_XSP16, literal(-6)))
          CFI (cfiCond40) ?RET_LOW load(1, XDATA, add(CFA_XSP16, literal(-5)))
          CFI (cfiCond40) ?RET_HIGH load(1, XDATA, add(CFA_XSP16, literal(-4)))
          CFI (cfiCond40) ?BRET_EXT load(1, XDATA, add(CFA_XSP16, literal(-3)))
          CFI (cfiCond40) DPL0 load(1, XDATA, add(CFA_XSP16, literal(-2)))
          CFI (cfiCond40) DPH0 load(1, XDATA, add(CFA_XSP16, literal(-1)))
          CFI (cfiCond40) CFA_SP SP+-2
          CFI (cfiCond40) CFA_XSP16 add(XSP16, 12)
          CFI Block cfiCond41 Using cfiCommon0
          CFI (cfiCond41) Function bindFindExisting
          CFI (cfiCond41) Conditional ??CrossCallReturnLabel_65
          CFI (cfiCond41) R6 load(1, XDATA, add(CFA_XSP16, literal(-12)))
          CFI (cfiCond41) VB load(1, XDATA, add(CFA_XSP16, literal(-11)))
          CFI (cfiCond41) V0 load(1, XDATA, add(CFA_XSP16, literal(-10)))
          CFI (cfiCond41) V1 load(1, XDATA, add(CFA_XSP16, literal(-9)))
          CFI (cfiCond41) V2 load(1, XDATA, add(CFA_XSP16, literal(-8)))
          CFI (cfiCond41) V3 load(1, XDATA, add(CFA_XSP16, literal(-7)))
          CFI (cfiCond41) R7 load(1, XDATA, add(CFA_XSP16, literal(-6)))
          CFI (cfiCond41) ?RET_LOW load(1, XDATA, add(CFA_XSP16, literal(-5)))
          CFI (cfiCond41) ?RET_HIGH load(1, XDATA, add(CFA_XSP16, literal(-4)))
          CFI (cfiCond41) ?BRET_EXT load(1, XDATA, add(CFA_XSP16, literal(-3)))
          CFI (cfiCond41) DPL0 load(1, XDATA, add(CFA_XSP16, literal(-2)))
          CFI (cfiCond41) DPH0 load(1, XDATA, add(CFA_XSP16, literal(-1)))
          CFI (cfiCond41) CFA_SP SP+-2
          CFI (cfiCond41) CFA_XSP16 add(XSP16, 12)
          CFI Block cfiCond42 Using cfiCommon0
          CFI (cfiCond42) Function bindFindExisting
          CFI (cfiCond42) Conditional ??CrossCallReturnLabel_66
          CFI (cfiCond42) R6 load(1, XDATA, add(CFA_XSP16, literal(-12)))
          CFI (cfiCond42) VB load(1, XDATA, add(CFA_XSP16, literal(-11)))
          CFI (cfiCond42) V0 load(1, XDATA, add(CFA_XSP16, literal(-10)))
          CFI (cfiCond42) V1 load(1, XDATA, add(CFA_XSP16, literal(-9)))
          CFI (cfiCond42) V2 load(1, XDATA, add(CFA_XSP16, literal(-8)))
          CFI (cfiCond42) V3 load(1, XDATA, add(CFA_XSP16, literal(-7)))
          CFI (cfiCond42) R7 load(1, XDATA, add(CFA_XSP16, literal(-6)))
          CFI (cfiCond42) ?RET_LOW load(1, XDATA, add(CFA_XSP16, literal(-5)))
          CFI (cfiCond42) ?RET_HIGH load(1, XDATA, add(CFA_XSP16, literal(-4)))
          CFI (cfiCond42) ?BRET_EXT load(1, XDATA, add(CFA_XSP16, literal(-3)))
          CFI (cfiCond42) DPL0 load(1, XDATA, add(CFA_XSP16, literal(-2)))
          CFI (cfiCond42) DPH0 load(1, XDATA, add(CFA_XSP16, literal(-1)))
          CFI (cfiCond42) CFA_SP SP+-2
          CFI (cfiCond42) CFA_XSP16 add(XSP16, 12)
          CFI Block cfiCond43 Using cfiCommon0
          CFI (cfiCond43) Function bindFindExisting
          CFI (cfiCond43) Conditional ??CrossCallReturnLabel_67
          CFI (cfiCond43) R6 load(1, XDATA, add(CFA_XSP16, literal(-12)))
          CFI (cfiCond43) VB load(1, XDATA, add(CFA_XSP16, literal(-11)))
          CFI (cfiCond43) V0 load(1, XDATA, add(CFA_XSP16, literal(-10)))
          CFI (cfiCond43) V1 load(1, XDATA, add(CFA_XSP16, literal(-9)))
          CFI (cfiCond43) V2 load(1, XDATA, add(CFA_XSP16, literal(-8)))
          CFI (cfiCond43) V3 load(1, XDATA, add(CFA_XSP16, literal(-7)))
          CFI (cfiCond43) R7 load(1, XDATA, add(CFA_XSP16, literal(-6)))
          CFI (cfiCond43) ?RET_LOW load(1, XDATA, add(CFA_XSP16, literal(-5)))
          CFI (cfiCond43) ?RET_HIGH load(1, XDATA, add(CFA_XSP16, literal(-4)))
          CFI (cfiCond43) ?BRET_EXT load(1, XDATA, add(CFA_XSP16, literal(-3)))
          CFI (cfiCond43) DPL0 load(1, XDATA, add(CFA_XSP16, literal(-2)))
          CFI (cfiCond43) DPH0 load(1, XDATA, add(CFA_XSP16, literal(-1)))
          CFI (cfiCond43) CFA_SP SP+-2
          CFI (cfiCond43) CFA_XSP16 add(XSP16, 12)
          CFI Block cfiCond44 Using cfiCommon0
          CFI (cfiCond44) Function bindFindExisting
          CFI (cfiCond44) Conditional ??CrossCallReturnLabel_68
          CFI (cfiCond44) R6 load(1, XDATA, add(CFA_XSP16, literal(-12)))
          CFI (cfiCond44) VB load(1, XDATA, add(CFA_XSP16, literal(-11)))
          CFI (cfiCond44) V0 load(1, XDATA, add(CFA_XSP16, literal(-10)))
          CFI (cfiCond44) V1 load(1, XDATA, add(CFA_XSP16, literal(-9)))
          CFI (cfiCond44) V2 load(1, XDATA, add(CFA_XSP16, literal(-8)))
          CFI (cfiCond44) V3 load(1, XDATA, add(CFA_XSP16, literal(-7)))
          CFI (cfiCond44) R7 load(1, XDATA, add(CFA_XSP16, literal(-6)))
          CFI (cfiCond44) ?RET_LOW load(1, XDATA, add(CFA_XSP16, literal(-5)))
          CFI (cfiCond44) ?RET_HIGH load(1, XDATA, add(CFA_XSP16, literal(-4)))
          CFI (cfiCond44) ?BRET_EXT load(1, XDATA, add(CFA_XSP16, literal(-3)))
          CFI (cfiCond44) DPL0 load(1, XDATA, add(CFA_XSP16, literal(-2)))
          CFI (cfiCond44) DPH0 load(1, XDATA, add(CFA_XSP16, literal(-1)))
          CFI (cfiCond44) CFA_SP SP+-2
          CFI (cfiCond44) CFA_XSP16 add(XSP16, 12)
          CFI Block cfiCond45 Using cfiCommon0
          CFI (cfiCond45) Function bindFindExisting
          CFI (cfiCond45) Conditional ??CrossCallReturnLabel_69
          CFI (cfiCond45) R6 load(1, XDATA, add(CFA_XSP16, literal(-12)))
          CFI (cfiCond45) VB load(1, XDATA, add(CFA_XSP16, literal(-11)))
          CFI (cfiCond45) V0 load(1, XDATA, add(CFA_XSP16, literal(-10)))
          CFI (cfiCond45) V1 load(1, XDATA, add(CFA_XSP16, literal(-9)))
          CFI (cfiCond45) V2 load(1, XDATA, add(CFA_XSP16, literal(-8)))
          CFI (cfiCond45) V3 load(1, XDATA, add(CFA_XSP16, literal(-7)))
          CFI (cfiCond45) R7 load(1, XDATA, add(CFA_XSP16, literal(-6)))
          CFI (cfiCond45) ?RET_LOW load(1, XDATA, add(CFA_XSP16, literal(-5)))
          CFI (cfiCond45) ?RET_HIGH load(1, XDATA, add(CFA_XSP16, literal(-4)))
          CFI (cfiCond45) ?BRET_EXT load(1, XDATA, add(CFA_XSP16, literal(-3)))
          CFI (cfiCond45) DPL0 load(1, XDATA, add(CFA_XSP16, literal(-2)))
          CFI (cfiCond45) DPH0 load(1, XDATA, add(CFA_XSP16, literal(-1)))
          CFI (cfiCond45) CFA_SP SP+-2
          CFI (cfiCond45) CFA_XSP16 add(XSP16, 12)
          CFI Block cfiPicker46 Using cfiCommon1
          CFI (cfiPicker46) NoFunction
          CFI (cfiPicker46) Picker
        ADDC      A,R3
        MOV       DPH,A
        MOVX      A,@DPTR
        RET
          CFI EndBlock cfiCond39
          CFI EndBlock cfiCond40
          CFI EndBlock cfiCond41
          CFI EndBlock cfiCond42
          CFI EndBlock cfiCond43
          CFI EndBlock cfiCond44
          CFI EndBlock cfiCond45
          CFI EndBlock cfiPicker46

        RSEG BANKED_CODE:HUGECODE:NOROOT(0)
?Subroutine3:
          CFI Block cfiBlock47 Using cfiCommon0
          CFI NoFunction
          CFI CFA_SP SP+0
          CFI CFA_XSP16 add(XSP16, 21)
          CFI VB load(1, XDATA, add(CFA_XSP16, literal(-11)))
          CFI DPL0 load(1, XDATA, add(CFA_XSP16, literal(-2)))
          CFI DPH0 load(1, XDATA, add(CFA_XSP16, literal(-1)))
          CFI R6 load(1, XDATA, add(CFA_XSP16, literal(-12)))
          CFI R7 load(1, XDATA, add(CFA_XSP16, literal(-6)))
          CFI V0 load(1, XDATA, add(CFA_XSP16, literal(-10)))
          CFI V1 load(1, XDATA, add(CFA_XSP16, literal(-9)))
          CFI V2 load(1, XDATA, add(CFA_XSP16, literal(-8)))
          CFI V3 load(1, XDATA, add(CFA_XSP16, literal(-7)))
          CFI ?BRET_EXT load(1, XDATA, add(CFA_XSP16, literal(-3)))
          CFI ?RET_HIGH load(1, XDATA, add(CFA_XSP16, literal(-4)))
          CFI ?RET_LOW load(1, XDATA, add(CFA_XSP16, literal(-5)))
          CFI Invalid
        LCALL     ?DEALLOC_XSTACK8
          CFI EndBlock cfiBlock47
        REQUIRE ??Subroutine36_0
        ; // Fall through to label ??Subroutine36_0

        RSEG BANKED_CODE:HUGECODE:NOROOT(0)
??Subroutine36_0:
          CFI Block cfiBlock48 Using cfiCommon0
          CFI NoFunction
          CFI CFA_SP SP+0
          CFI CFA_XSP16 add(XSP16, 12)
          CFI VB load(1, XDATA, add(CFA_XSP16, literal(-11)))
          CFI DPL0 load(1, XDATA, add(CFA_XSP16, literal(-2)))
          CFI DPH0 load(1, XDATA, add(CFA_XSP16, literal(-1)))
          CFI R6 load(1, XDATA, add(CFA_XSP16, literal(-12)))
          CFI R7 load(1, XDATA, add(CFA_XSP16, literal(-6)))
          CFI V0 load(1, XDATA, add(CFA_XSP16, literal(-10)))
          CFI V1 load(1, XDATA, add(CFA_XSP16, literal(-9)))
          CFI V2 load(1, XDATA, add(CFA_XSP16, literal(-8)))
          CFI V3 load(1, XDATA, add(CFA_XSP16, literal(-7)))
          CFI ?BRET_EXT load(1, XDATA, add(CFA_XSP16, literal(-3)))
          CFI ?RET_HIGH load(1, XDATA, add(CFA_XSP16, literal(-4)))
          CFI ?RET_LOW load(1, XDATA, add(CFA_XSP16, literal(-5)))
        MOV       R7,#0x4
        LJMP      ?BANKED_LEAVE_XDATA
          CFI EndBlock cfiBlock48
//  523 
//  524 /*********************************************************************
//  525  * @fn       bindRemoveDev()
//  526  *
//  527  * @brief
//  528  *
//  529  *   Remove all bind(s) entries associated to a device address (destination).
//  530  *   Updates binding table.
//  531  *
//  532  * @param   Addr - address of device to be removed from Binding Table
//  533  *
//  534  * @return  none
//  535  */

        RSEG BANKED_CODE:HUGECODE:NOROOT(0)
//  536 void bindRemoveDev( zAddrType_t *Addr )
bindRemoveDev:
          CFI Block cfiBlock49 Using cfiCommon0
          CFI Function bindRemoveDev
        CODE
//  537 {
        FUNCALL bindRemoveDev, bindingAddrMgsHelperFind
        LOCFRAME ISTACK, 0, STACK
        LOCFRAME PSTACK, 0, STACK
        LOCFRAME XSTACK, 12, STACK
        LOCFRAME IOVERLAY, 0, STATIC
        LOCFRAME DOVERLAY, 0, STATIC
        ARGFRAME ISTACK, 0, STACK
        ARGFRAME PSTACK, 0, STACK
        ARGFRAME XSTACK, 12, STACK
        ARGFRAME IOVERLAY, 0, STATIC
        ARGFRAME DOVERLAY, 0, STATIC
        FUNCALL bindRemoveDev, bindRemoveEntry
        LOCFRAME ISTACK, 0, STACK
        LOCFRAME PSTACK, 0, STACK
        LOCFRAME XSTACK, 12, STACK
        LOCFRAME IOVERLAY, 0, STATIC
        LOCFRAME DOVERLAY, 0, STATIC
        ARGFRAME ISTACK, 0, STACK
        ARGFRAME PSTACK, 0, STACK
        ARGFRAME XSTACK, 12, STACK
        ARGFRAME IOVERLAY, 0, STATIC
        ARGFRAME DOVERLAY, 0, STATIC
        FUNCALL bindRemoveDev, bindAddressClear
        LOCFRAME ISTACK, 0, STACK
        LOCFRAME PSTACK, 0, STACK
        LOCFRAME XSTACK, 12, STACK
        LOCFRAME IOVERLAY, 0, STATIC
        LOCFRAME DOVERLAY, 0, STATIC
        ARGFRAME ISTACK, 0, STACK
        ARGFRAME PSTACK, 0, STACK
        ARGFRAME XSTACK, 12, STACK
        ARGFRAME IOVERLAY, 0, STATIC
        ARGFRAME DOVERLAY, 0, STATIC
        REQUIRE ?V0
        REQUIRE ?V1
        REQUIRE ?V2
        REQUIRE ?V3
        MOV       A,#-0xc
        LCALL     ?BANKED_ENTER_XDATA
          CFI DPH0 load(1, XDATA, add(CFA_XSP16, literal(-1)))
          CFI DPL0 load(1, XDATA, add(CFA_XSP16, literal(-2)))
          CFI ?BRET_EXT load(1, XDATA, add(CFA_XSP16, literal(-3)))
          CFI ?RET_HIGH load(1, XDATA, add(CFA_XSP16, literal(-4)))
          CFI ?RET_LOW load(1, XDATA, add(CFA_XSP16, literal(-5)))
          CFI R7 load(1, XDATA, add(CFA_XSP16, literal(-6)))
          CFI V3 load(1, XDATA, add(CFA_XSP16, literal(-7)))
          CFI V2 load(1, XDATA, add(CFA_XSP16, literal(-8)))
          CFI V1 load(1, XDATA, add(CFA_XSP16, literal(-9)))
          CFI V0 load(1, XDATA, add(CFA_XSP16, literal(-10)))
          CFI VB load(1, XDATA, add(CFA_XSP16, literal(-11)))
          CFI R6 load(1, XDATA, add(CFA_XSP16, literal(-12)))
          CFI CFA_SP SP+0
          CFI CFA_XSP16 add(XSP16, 12)
        ; Saved register size: 12
        ; Auto size: 0
        MOV       A,R2
        MOV       R6,A
        MOV       A,R3
        MOV       R7,A
//  538   uint16 idx;
//  539   bindTableIndex_t x;
//  540 
//  541   if ( Addr->addrMode == AddrGroup )
        MOV       DPL,R6
        MOV       DPH,R7
        INC       DPTR
        INC       DPTR
        INC       DPTR
        INC       DPTR
        INC       DPTR
        INC       DPTR
        INC       DPTR
        INC       DPTR
        MOVX      A,@DPTR
        XRL       A,#0x1
        JNZ       ??bindRemoveDev_0
//  542   {
//  543     idx = Addr->addr.shortAddr;
        MOV       DPL,R6
        MOV       DPH,R7
        MOVX      A,@DPTR
        MOV       ?V0,A
        INC       DPTR
        MOVX      A,@DPTR
        MOV       ?V1,A
        SJMP      ??bindRemoveDev_1
//  544   }
//  545   else
//  546   {
//  547     idx = bindingAddrMgsHelperFind( Addr );
??bindRemoveDev_0:
        ; Setup parameters for call to function bindingAddrMgsHelperFind
        LCALL     `??bindingAddrMgsHelperFind::?relay`; Banked call to: bindingAddrMgsHelperFind
        MOV       ?V0,R2
        MOV       ?V1,R3
//  548   }
//  549 
//  550   if ( idx == INVALID_NODE_ADDR )
??bindRemoveDev_1:
        MOV       A,#-0x2
        XRL       A,?V0
        JNZ       ??bindRemoveDev_2
        MOV       A,#-0x1
        XRL       A,?V1
??bindRemoveDev_2:
        JZ        ??bindRemoveDev_3
//  551   {
//  552     return;
//  553   }
//  554 
//  555   // Removes all the entries that match the destination Address/Index
//  556   for ( x = 0; x < gNWK_MAX_BINDING_ENTRIES; x++ )
        MOV       ?V2,#0x0
        SJMP      ??bindRemoveDev_4
//  557   {
//  558     if ( ( (Addr->addrMode == AddrGroup) && (BindingTable[x].dstGroupMode == DSTGROUPMODE_GROUP)
//  559                                          && (BindingTable[x].dstIdx == idx) ) ||
//  560          ( (Addr->addrMode != AddrGroup) && (BindingTable[x].dstGroupMode == DSTGROUPMODE_ADDR)
//  561                                          && (BindingTable[x].dstIdx == idx) ) )
??bindRemoveDev_5:
        MOV       A,?V2
        MOV       B,#0xe
        MUL       AB
        MOV       R0,A
        MOV       R1,B
        LCALL     ?Subroutine15 & 0xFFFF
??CrossCallReturnLabel_22:
        JNZ       ??bindRemoveDev_6
        LCALL     ?Subroutine12 & 0xFFFF
??CrossCallReturnLabel_13:
        JNZ       ??bindRemoveDev_7
        INC       DPTR
        MOVX      A,@DPTR
        XRL       A,?V1
??bindRemoveDev_7:
        JNZ       ??bindRemoveDev_6
//  562     {
//  563       bindRemoveEntry( &BindingTable[x] );
??bindRemoveDev_8:
        ; Setup parameters for call to function bindRemoveEntry
        LCALL     ?Subroutine14 & 0xFFFF
//  564     }
??CrossCallReturnLabel_19:
        LCALL     `??bindRemoveEntry::?relay`; Banked call to: bindRemoveEntry
??bindRemoveDev_6:
        INC       ?V2
??bindRemoveDev_4:
        MOV       DPTR,#gNWK_MAX_BINDING_ENTRIES
        CLR       A
        MOVC      A,@A+DPTR
        MOV       R0,A
        MOV       A,?V2
        CLR       C
        SUBB      A,R0
        JNC       ??bindRemoveDev_9
        MOV       DPL,R6
        MOV       DPH,R7
        INC       DPTR
        INC       DPTR
        INC       DPTR
        INC       DPTR
        INC       DPTR
        INC       DPTR
        INC       DPTR
        INC       DPTR
        MOVX      A,@DPTR
        XRL       A,#0x1
        JNZ       ??bindRemoveDev_5
        MOV       A,?V2
        LCALL     ?Subroutine11 & 0xFFFF
//  565   }
??CrossCallReturnLabel_11:
        JNZ       ??bindRemoveDev_6
        LCALL     ?Subroutine12 & 0xFFFF
??CrossCallReturnLabel_14:
        JNZ       ??bindRemoveDev_10
        INC       DPTR
        MOVX      A,@DPTR
        XRL       A,?V1
??bindRemoveDev_10:
        JZ        ??bindRemoveDev_8
        SJMP      ??bindRemoveDev_6
//  566 
//  567   // If this is the last Bind Entry for that idx then clear BINDING
//  568   // user from Address Manager
//  569   bindAddressClear( idx );
??bindRemoveDev_9:
        ; Setup parameters for call to function bindAddressClear
        MOV       R2,?V0
        MOV       R3,?V1
        LCALL     `??bindAddressClear::?relay`; Banked call to: bindAddressClear
//  570 }
??bindRemoveDev_3:
        LJMP      ??Subroutine36_0 & 0xFFFF
          CFI EndBlock cfiBlock49

        RSEG BANKED_CODE:HUGECODE:NOROOT(0)
?Subroutine15:
          CFI Block cfiCond50 Using cfiCommon0
          CFI Function bindAddEntry
          CFI Conditional ??CrossCallReturnLabel_21
          CFI R6 load(1, XDATA, add(CFA_XSP16, literal(-20)))
          CFI VB load(1, XDATA, add(CFA_XSP16, literal(-19)))
          CFI V0 load(1, XDATA, add(CFA_XSP16, literal(-18)))
          CFI V1 load(1, XDATA, add(CFA_XSP16, literal(-17)))
          CFI V2 load(1, XDATA, add(CFA_XSP16, literal(-16)))
          CFI V3 load(1, XDATA, add(CFA_XSP16, literal(-15)))
          CFI V4 load(1, XDATA, add(CFA_XSP16, literal(-14)))
          CFI V5 load(1, XDATA, add(CFA_XSP16, literal(-13)))
          CFI V6 load(1, XDATA, add(CFA_XSP16, literal(-12)))
          CFI V7 load(1, XDATA, add(CFA_XSP16, literal(-11)))
          CFI V8 load(1, XDATA, add(CFA_XSP16, literal(-10)))
          CFI V9 load(1, XDATA, add(CFA_XSP16, literal(-9)))
          CFI V10 load(1, XDATA, add(CFA_XSP16, literal(-8)))
          CFI V11 load(1, XDATA, add(CFA_XSP16, literal(-7)))
          CFI R7 load(1, XDATA, add(CFA_XSP16, literal(-6)))
          CFI ?RET_LOW load(1, XDATA, add(CFA_XSP16, literal(-5)))
          CFI ?RET_HIGH load(1, XDATA, add(CFA_XSP16, literal(-4)))
          CFI ?BRET_EXT load(1, XDATA, add(CFA_XSP16, literal(-3)))
          CFI DPL0 load(1, XDATA, add(CFA_XSP16, literal(-2)))
          CFI DPH0 load(1, XDATA, add(CFA_XSP16, literal(-1)))
          CFI CFA_SP SP+-2
          CFI CFA_XSP16 add(XSP16, 20)
          CFI Block cfiCond51 Using cfiCommon0
          CFI (cfiCond51) Function bindRemoveDev
          CFI (cfiCond51) Conditional ??CrossCallReturnLabel_22
          CFI (cfiCond51) R6 load(1, XDATA, add(CFA_XSP16, literal(-12)))
          CFI (cfiCond51) VB load(1, XDATA, add(CFA_XSP16, literal(-11)))
          CFI (cfiCond51) V0 load(1, XDATA, add(CFA_XSP16, literal(-10)))
          CFI (cfiCond51) V1 load(1, XDATA, add(CFA_XSP16, literal(-9)))
          CFI (cfiCond51) V2 load(1, XDATA, add(CFA_XSP16, literal(-8)))
          CFI (cfiCond51) V3 load(1, XDATA, add(CFA_XSP16, literal(-7)))
          CFI (cfiCond51) R7 load(1, XDATA, add(CFA_XSP16, literal(-6)))
          CFI (cfiCond51) ?RET_LOW load(1, XDATA, add(CFA_XSP16, literal(-5)))
          CFI (cfiCond51) ?RET_HIGH load(1, XDATA, add(CFA_XSP16, literal(-4)))
          CFI (cfiCond51) ?BRET_EXT load(1, XDATA, add(CFA_XSP16, literal(-3)))
          CFI (cfiCond51) DPL0 load(1, XDATA, add(CFA_XSP16, literal(-2)))
          CFI (cfiCond51) DPH0 load(1, XDATA, add(CFA_XSP16, literal(-1)))
          CFI (cfiCond51) CFA_SP SP+-2
          CFI (cfiCond51) CFA_XSP16 add(XSP16, 12)
          CFI Block cfiPicker52 Using cfiCommon1
          CFI (cfiPicker52) NoFunction
          CFI (cfiPicker52) Picker
        LCALL     ?Subroutine28 & 0xFFFF
??CrossCallReturnLabel_46:
        RET
          CFI EndBlock cfiCond50
          CFI EndBlock cfiCond51
          CFI EndBlock cfiPicker52

        RSEG BANKED_CODE:HUGECODE:NOROOT(0)
?Subroutine28:
          CFI Block cfiCond53 Using cfiCommon0
          CFI Function bindAddEntry
          CFI Conditional ??CrossCallReturnLabel_46, ??CrossCallReturnLabel_21
          CFI R6 load(1, XDATA, add(CFA_XSP16, literal(-20)))
          CFI VB load(1, XDATA, add(CFA_XSP16, literal(-19)))
          CFI V0 load(1, XDATA, add(CFA_XSP16, literal(-18)))
          CFI V1 load(1, XDATA, add(CFA_XSP16, literal(-17)))
          CFI V2 load(1, XDATA, add(CFA_XSP16, literal(-16)))
          CFI V3 load(1, XDATA, add(CFA_XSP16, literal(-15)))
          CFI V4 load(1, XDATA, add(CFA_XSP16, literal(-14)))
          CFI V5 load(1, XDATA, add(CFA_XSP16, literal(-13)))
          CFI V6 load(1, XDATA, add(CFA_XSP16, literal(-12)))
          CFI V7 load(1, XDATA, add(CFA_XSP16, literal(-11)))
          CFI V8 load(1, XDATA, add(CFA_XSP16, literal(-10)))
          CFI V9 load(1, XDATA, add(CFA_XSP16, literal(-9)))
          CFI V10 load(1, XDATA, add(CFA_XSP16, literal(-8)))
          CFI V11 load(1, XDATA, add(CFA_XSP16, literal(-7)))
          CFI R7 load(1, XDATA, add(CFA_XSP16, literal(-6)))
          CFI ?RET_LOW load(1, XDATA, add(CFA_XSP16, literal(-5)))
          CFI ?RET_HIGH load(1, XDATA, add(CFA_XSP16, literal(-4)))
          CFI ?BRET_EXT load(1, XDATA, add(CFA_XSP16, literal(-3)))
          CFI DPL0 load(1, XDATA, add(CFA_XSP16, literal(-2)))
          CFI DPH0 load(1, XDATA, add(CFA_XSP16, literal(-1)))
          CFI CFA_SP SP+-4
          CFI CFA_XSP16 add(XSP16, 20)
          CFI Block cfiCond54 Using cfiCommon0
          CFI (cfiCond54) Function bindRemoveDev
          CFI (cfiCond54) Conditional ??CrossCallReturnLabel_46, ??CrossCallReturnLabel_22
          CFI (cfiCond54) R6 load(1, XDATA, add(CFA_XSP16, literal(-12)))
          CFI (cfiCond54) VB load(1, XDATA, add(CFA_XSP16, literal(-11)))
          CFI (cfiCond54) V0 load(1, XDATA, add(CFA_XSP16, literal(-10)))
          CFI (cfiCond54) V1 load(1, XDATA, add(CFA_XSP16, literal(-9)))
          CFI (cfiCond54) V2 load(1, XDATA, add(CFA_XSP16, literal(-8)))
          CFI (cfiCond54) V3 load(1, XDATA, add(CFA_XSP16, literal(-7)))
          CFI (cfiCond54) R7 load(1, XDATA, add(CFA_XSP16, literal(-6)))
          CFI (cfiCond54) ?RET_LOW load(1, XDATA, add(CFA_XSP16, literal(-5)))
          CFI (cfiCond54) ?RET_HIGH load(1, XDATA, add(CFA_XSP16, literal(-4)))
          CFI (cfiCond54) ?BRET_EXT load(1, XDATA, add(CFA_XSP16, literal(-3)))
          CFI (cfiCond54) DPL0 load(1, XDATA, add(CFA_XSP16, literal(-2)))
          CFI (cfiCond54) DPH0 load(1, XDATA, add(CFA_XSP16, literal(-1)))
          CFI (cfiCond54) CFA_SP SP+-4
          CFI (cfiCond54) CFA_XSP16 add(XSP16, 12)
          CFI Block cfiCond55 Using cfiCommon0
          CFI (cfiCond55) Function bindRemoveDev
          CFI (cfiCond55) Conditional ??CrossCallReturnLabel_45, ??CrossCallReturnLabel_11
          CFI (cfiCond55) R6 load(1, XDATA, add(CFA_XSP16, literal(-12)))
          CFI (cfiCond55) VB load(1, XDATA, add(CFA_XSP16, literal(-11)))
          CFI (cfiCond55) V0 load(1, XDATA, add(CFA_XSP16, literal(-10)))
          CFI (cfiCond55) V1 load(1, XDATA, add(CFA_XSP16, literal(-9)))
          CFI (cfiCond55) V2 load(1, XDATA, add(CFA_XSP16, literal(-8)))
          CFI (cfiCond55) V3 load(1, XDATA, add(CFA_XSP16, literal(-7)))
          CFI (cfiCond55) R7 load(1, XDATA, add(CFA_XSP16, literal(-6)))
          CFI (cfiCond55) ?RET_LOW load(1, XDATA, add(CFA_XSP16, literal(-5)))
          CFI (cfiCond55) ?RET_HIGH load(1, XDATA, add(CFA_XSP16, literal(-4)))
          CFI (cfiCond55) ?BRET_EXT load(1, XDATA, add(CFA_XSP16, literal(-3)))
          CFI (cfiCond55) DPL0 load(1, XDATA, add(CFA_XSP16, literal(-2)))
          CFI (cfiCond55) DPH0 load(1, XDATA, add(CFA_XSP16, literal(-1)))
          CFI (cfiCond55) CFA_SP SP+-4
          CFI (cfiCond55) CFA_XSP16 add(XSP16, 12)
          CFI Block cfiCond56 Using cfiCommon0
          CFI (cfiCond56) Function bindAddressClear
          CFI (cfiCond56) Conditional ??CrossCallReturnLabel_45, ??CrossCallReturnLabel_12
          CFI (cfiCond56) DPL0 Frame(CFA_SP, 4)
          CFI (cfiCond56) DPH0 Frame(CFA_SP, 5)
          CFI (cfiCond56) CFA_SP SP+-9
          CFI (cfiCond56) CFA_XSP16 add(XSP16, 13)
          CFI Block cfiPicker57 Using cfiCommon1
          CFI (cfiPicker57) NoFunction
          CFI (cfiPicker57) Picker
        MOV       A,#(BindingTable + 1) & 0xff
        ADD       A,R0
        MOV       DPL,A
        MOV       A,#((BindingTable + 1) >> 8) & 0xff
        LCALL     ?Subroutine32 & 0xFFFF
??CrossCallReturnLabel_61:
        RET
          CFI EndBlock cfiCond53
          CFI EndBlock cfiCond54
          CFI EndBlock cfiCond55
          CFI EndBlock cfiCond56
          CFI EndBlock cfiPicker57

        RSEG BANKED_CODE:HUGECODE:NOROOT(0)
?Subroutine14:
          CFI Block cfiCond58 Using cfiCommon0
          CFI Function bindFindEmpty
          CFI Conditional ??CrossCallReturnLabel_18
          CFI DPL0 Frame(CFA_SP, 4)
          CFI DPH0 Frame(CFA_SP, 5)
          CFI CFA_SP SP+-7
          CFI Block cfiCond59 Using cfiCommon0
          CFI (cfiCond59) Function bindRemoveDev
          CFI (cfiCond59) Conditional ??CrossCallReturnLabel_19
          CFI (cfiCond59) R6 load(1, XDATA, add(CFA_XSP16, literal(-12)))
          CFI (cfiCond59) VB load(1, XDATA, add(CFA_XSP16, literal(-11)))
          CFI (cfiCond59) V0 load(1, XDATA, add(CFA_XSP16, literal(-10)))
          CFI (cfiCond59) V1 load(1, XDATA, add(CFA_XSP16, literal(-9)))
          CFI (cfiCond59) V2 load(1, XDATA, add(CFA_XSP16, literal(-8)))
          CFI (cfiCond59) V3 load(1, XDATA, add(CFA_XSP16, literal(-7)))
          CFI (cfiCond59) R7 load(1, XDATA, add(CFA_XSP16, literal(-6)))
          CFI (cfiCond59) ?RET_LOW load(1, XDATA, add(CFA_XSP16, literal(-5)))
          CFI (cfiCond59) ?RET_HIGH load(1, XDATA, add(CFA_XSP16, literal(-4)))
          CFI (cfiCond59) ?BRET_EXT load(1, XDATA, add(CFA_XSP16, literal(-3)))
          CFI (cfiCond59) DPL0 load(1, XDATA, add(CFA_XSP16, literal(-2)))
          CFI (cfiCond59) DPH0 load(1, XDATA, add(CFA_XSP16, literal(-1)))
          CFI (cfiCond59) CFA_SP SP+-2
          CFI (cfiCond59) CFA_XSP16 add(XSP16, 12)
          CFI Block cfiCond60 Using cfiCommon0
          CFI (cfiCond60) Function bindRemoveSrcDev
          CFI (cfiCond60) Conditional ??CrossCallReturnLabel_20
          CFI (cfiCond60) R6 load(1, XDATA, add(CFA_XSP16, literal(-10)))
          CFI (cfiCond60) VB load(1, XDATA, add(CFA_XSP16, literal(-9)))
          CFI (cfiCond60) V0 load(1, XDATA, add(CFA_XSP16, literal(-8)))
          CFI (cfiCond60) V1 load(1, XDATA, add(CFA_XSP16, literal(-7)))
          CFI (cfiCond60) R7 load(1, XDATA, add(CFA_XSP16, literal(-6)))
          CFI (cfiCond60) ?RET_LOW load(1, XDATA, add(CFA_XSP16, literal(-5)))
          CFI (cfiCond60) ?RET_HIGH load(1, XDATA, add(CFA_XSP16, literal(-4)))
          CFI (cfiCond60) ?BRET_EXT load(1, XDATA, add(CFA_XSP16, literal(-3)))
          CFI (cfiCond60) DPL0 load(1, XDATA, add(CFA_XSP16, literal(-2)))
          CFI (cfiCond60) DPH0 load(1, XDATA, add(CFA_XSP16, literal(-1)))
          CFI (cfiCond60) CFA_SP SP+-2
          CFI (cfiCond60) CFA_XSP16 add(XSP16, 10)
          CFI Block cfiPicker61 Using cfiCommon1
          CFI (cfiPicker61) NoFunction
          CFI (cfiPicker61) Picker
        MOV       A,#BindingTable & 0xff
        ADD       A,R0
        MOV       R2,A
        MOV       A,#(BindingTable >> 8) & 0xff
        ADDC      A,R1
        MOV       R3,A
        RET
          CFI EndBlock cfiCond58
          CFI EndBlock cfiCond59
          CFI EndBlock cfiCond60
          CFI EndBlock cfiPicker61

        RSEG BANKED_CODE:HUGECODE:NOROOT(0)
?Subroutine12:
          CFI Block cfiCond62 Using cfiCommon0
          CFI Function bindRemoveDev
          CFI Conditional ??CrossCallReturnLabel_13
          CFI R6 load(1, XDATA, add(CFA_XSP16, literal(-12)))
          CFI VB load(1, XDATA, add(CFA_XSP16, literal(-11)))
          CFI V0 load(1, XDATA, add(CFA_XSP16, literal(-10)))
          CFI V1 load(1, XDATA, add(CFA_XSP16, literal(-9)))
          CFI V2 load(1, XDATA, add(CFA_XSP16, literal(-8)))
          CFI V3 load(1, XDATA, add(CFA_XSP16, literal(-7)))
          CFI R7 load(1, XDATA, add(CFA_XSP16, literal(-6)))
          CFI ?RET_LOW load(1, XDATA, add(CFA_XSP16, literal(-5)))
          CFI ?RET_HIGH load(1, XDATA, add(CFA_XSP16, literal(-4)))
          CFI ?BRET_EXT load(1, XDATA, add(CFA_XSP16, literal(-3)))
          CFI DPL0 load(1, XDATA, add(CFA_XSP16, literal(-2)))
          CFI DPH0 load(1, XDATA, add(CFA_XSP16, literal(-1)))
          CFI CFA_SP SP+-2
          CFI CFA_XSP16 add(XSP16, 12)
          CFI Block cfiCond63 Using cfiCommon0
          CFI (cfiCond63) Function bindRemoveDev
          CFI (cfiCond63) Conditional ??CrossCallReturnLabel_14
          CFI (cfiCond63) R6 load(1, XDATA, add(CFA_XSP16, literal(-12)))
          CFI (cfiCond63) VB load(1, XDATA, add(CFA_XSP16, literal(-11)))
          CFI (cfiCond63) V0 load(1, XDATA, add(CFA_XSP16, literal(-10)))
          CFI (cfiCond63) V1 load(1, XDATA, add(CFA_XSP16, literal(-9)))
          CFI (cfiCond63) V2 load(1, XDATA, add(CFA_XSP16, literal(-8)))
          CFI (cfiCond63) V3 load(1, XDATA, add(CFA_XSP16, literal(-7)))
          CFI (cfiCond63) R7 load(1, XDATA, add(CFA_XSP16, literal(-6)))
          CFI (cfiCond63) ?RET_LOW load(1, XDATA, add(CFA_XSP16, literal(-5)))
          CFI (cfiCond63) ?RET_HIGH load(1, XDATA, add(CFA_XSP16, literal(-4)))
          CFI (cfiCond63) ?BRET_EXT load(1, XDATA, add(CFA_XSP16, literal(-3)))
          CFI (cfiCond63) DPL0 load(1, XDATA, add(CFA_XSP16, literal(-2)))
          CFI (cfiCond63) DPH0 load(1, XDATA, add(CFA_XSP16, literal(-1)))
          CFI (cfiCond63) CFA_SP SP+-2
          CFI (cfiCond63) CFA_XSP16 add(XSP16, 12)
          CFI Block cfiPicker64 Using cfiCommon1
          CFI (cfiPicker64) NoFunction
          CFI (cfiPicker64) Picker
        LCALL     ?Subroutine29 & 0xFFFF
??CrossCallReturnLabel_47:
        XRL       A,?V0
        RET
          CFI EndBlock cfiCond62
          CFI EndBlock cfiCond63
          CFI EndBlock cfiPicker64
//  571 
//  572 /*********************************************************************
//  573  * @fn       bindRemoveSrcDev()
//  574  *
//  575  * @brief
//  576  *
//  577  *   Remove binds(s) associated to device address (source).
//  578  *   Updates binding table.
//  579  *
//  580  * @param   ep - endpoint to remove, 0xFF is all endpoints
//  581  *
//  582  * @return  none
//  583  */

        RSEG BANKED_CODE:HUGECODE:NOROOT(0)
//  584 void bindRemoveSrcDev( uint8 ep )
bindRemoveSrcDev:
          CFI Block cfiBlock65 Using cfiCommon0
          CFI Function bindRemoveSrcDev
        CODE
//  585 {
        FUNCALL bindRemoveSrcDev, bindRemoveEntry
        LOCFRAME ISTACK, 0, STACK
        LOCFRAME PSTACK, 0, STACK
        LOCFRAME XSTACK, 10, STACK
        LOCFRAME IOVERLAY, 0, STATIC
        LOCFRAME DOVERLAY, 0, STATIC
        ARGFRAME ISTACK, 0, STACK
        ARGFRAME PSTACK, 0, STACK
        ARGFRAME XSTACK, 10, STACK
        ARGFRAME IOVERLAY, 0, STATIC
        ARGFRAME DOVERLAY, 0, STATIC
        FUNCALL bindRemoveSrcDev, bindAddressClear
        LOCFRAME ISTACK, 0, STACK
        LOCFRAME PSTACK, 0, STACK
        LOCFRAME XSTACK, 10, STACK
        LOCFRAME IOVERLAY, 0, STATIC
        LOCFRAME DOVERLAY, 0, STATIC
        ARGFRAME ISTACK, 0, STACK
        ARGFRAME PSTACK, 0, STACK
        ARGFRAME XSTACK, 10, STACK
        ARGFRAME IOVERLAY, 0, STATIC
        ARGFRAME DOVERLAY, 0, STATIC
        REQUIRE ?V0
        REQUIRE ?V1
        MOV       A,#-0xa
        LCALL     ?BANKED_ENTER_XDATA
          CFI DPH0 load(1, XDATA, add(CFA_XSP16, literal(-1)))
          CFI DPL0 load(1, XDATA, add(CFA_XSP16, literal(-2)))
          CFI ?BRET_EXT load(1, XDATA, add(CFA_XSP16, literal(-3)))
          CFI ?RET_HIGH load(1, XDATA, add(CFA_XSP16, literal(-4)))
          CFI ?RET_LOW load(1, XDATA, add(CFA_XSP16, literal(-5)))
          CFI R7 load(1, XDATA, add(CFA_XSP16, literal(-6)))
          CFI V1 load(1, XDATA, add(CFA_XSP16, literal(-7)))
          CFI V0 load(1, XDATA, add(CFA_XSP16, literal(-8)))
          CFI VB load(1, XDATA, add(CFA_XSP16, literal(-9)))
          CFI R6 load(1, XDATA, add(CFA_XSP16, literal(-10)))
          CFI CFA_SP SP+0
          CFI CFA_XSP16 add(XSP16, 10)
        ; Saved register size: 10
        ; Auto size: 0
        MOV       ?V1,R1
//  586   bindTableIndex_t x;
//  587 
//  588   for ( x = 0; x < gNWK_MAX_BINDING_ENTRIES; x++ )
        MOV       ?V0,#0x0
        SJMP      ??bindRemoveSrcDev_0
//  589   {
//  590     if ( (ep == 0xFF) || (ep == BindingTable[x].srcEP) )
??bindRemoveSrcDev_1:
        MOV       A,#-0x1
        XRL       A,?V1
        JZ        ??bindRemoveSrcDev_2
        MOV       A,?V0
        LCALL     ?Subroutine10 & 0xFFFF
??CrossCallReturnLabel_10:
        XRL       A,?V1
        JNZ       ??bindRemoveSrcDev_3
//  591     {
//  592       uint16 idx = BindingTable[x].dstIdx;
??bindRemoveSrcDev_2:
        MOV       A,?V0
        MOV       B,#0xe
        MUL       AB
        MOV       R0,A
        MOV       R1,B
        LCALL     ?Subroutine14 & 0xFFFF
??CrossCallReturnLabel_20:
        MOV       DPL,R2
        MOV       DPH,R3
        INC       DPTR
        INC       DPTR
        MOVX      A,@DPTR
        MOV       R6,A
        INC       DPTR
        MOVX      A,@DPTR
        MOV       R7,A
//  593 
//  594       bindRemoveEntry( &BindingTable[x] );
        ; Setup parameters for call to function bindRemoveEntry
        LCALL     `??bindRemoveEntry::?relay`; Banked call to: bindRemoveEntry
//  595 
//  596       // If this is the last Bind Entry for that idx then clear BINDING
//  597       // user from Address Manager
//  598       bindAddressClear( idx );
        ; Setup parameters for call to function bindAddressClear
        MOV       A,R6
        MOV       R2,A
        MOV       A,R7
        MOV       R3,A
        LCALL     `??bindAddressClear::?relay`; Banked call to: bindAddressClear
//  599     }
//  600   }
??bindRemoveSrcDev_3:
        INC       ?V0
??bindRemoveSrcDev_0:
        MOV       DPTR,#gNWK_MAX_BINDING_ENTRIES
        CLR       A
        MOVC      A,@A+DPTR
        MOV       R0,A
        MOV       A,?V0
        CLR       C
        SUBB      A,R0
        JC        ??bindRemoveSrcDev_1
//  601 }
        LJMP      ??Subroutine33_0 & 0xFFFF
          CFI EndBlock cfiBlock65

        RSEG BANKED_CODE:HUGECODE:NOROOT(0)
?Subroutine10:
          CFI Block cfiCond66 Using cfiCommon0
          CFI Function bindAddEntry
          CFI Conditional ??CrossCallReturnLabel_9
          CFI R6 load(1, XDATA, add(CFA_XSP16, literal(-20)))
          CFI VB load(1, XDATA, add(CFA_XSP16, literal(-19)))
          CFI V0 load(1, XDATA, add(CFA_XSP16, literal(-18)))
          CFI V1 load(1, XDATA, add(CFA_XSP16, literal(-17)))
          CFI V2 load(1, XDATA, add(CFA_XSP16, literal(-16)))
          CFI V3 load(1, XDATA, add(CFA_XSP16, literal(-15)))
          CFI V4 load(1, XDATA, add(CFA_XSP16, literal(-14)))
          CFI V5 load(1, XDATA, add(CFA_XSP16, literal(-13)))
          CFI V6 load(1, XDATA, add(CFA_XSP16, literal(-12)))
          CFI V7 load(1, XDATA, add(CFA_XSP16, literal(-11)))
          CFI V8 load(1, XDATA, add(CFA_XSP16, literal(-10)))
          CFI V9 load(1, XDATA, add(CFA_XSP16, literal(-9)))
          CFI V10 load(1, XDATA, add(CFA_XSP16, literal(-8)))
          CFI V11 load(1, XDATA, add(CFA_XSP16, literal(-7)))
          CFI R7 load(1, XDATA, add(CFA_XSP16, literal(-6)))
          CFI ?RET_LOW load(1, XDATA, add(CFA_XSP16, literal(-5)))
          CFI ?RET_HIGH load(1, XDATA, add(CFA_XSP16, literal(-4)))
          CFI ?BRET_EXT load(1, XDATA, add(CFA_XSP16, literal(-3)))
          CFI DPL0 load(1, XDATA, add(CFA_XSP16, literal(-2)))
          CFI DPH0 load(1, XDATA, add(CFA_XSP16, literal(-1)))
          CFI CFA_SP SP+-2
          CFI CFA_XSP16 add(XSP16, 20)
          CFI Block cfiCond67 Using cfiCommon0
          CFI (cfiCond67) Function bindRemoveSrcDev
          CFI (cfiCond67) Conditional ??CrossCallReturnLabel_10
          CFI (cfiCond67) R6 load(1, XDATA, add(CFA_XSP16, literal(-10)))
          CFI (cfiCond67) VB load(1, XDATA, add(CFA_XSP16, literal(-9)))
          CFI (cfiCond67) V0 load(1, XDATA, add(CFA_XSP16, literal(-8)))
          CFI (cfiCond67) V1 load(1, XDATA, add(CFA_XSP16, literal(-7)))
          CFI (cfiCond67) R7 load(1, XDATA, add(CFA_XSP16, literal(-6)))
          CFI (cfiCond67) ?RET_LOW load(1, XDATA, add(CFA_XSP16, literal(-5)))
          CFI (cfiCond67) ?RET_HIGH load(1, XDATA, add(CFA_XSP16, literal(-4)))
          CFI (cfiCond67) ?BRET_EXT load(1, XDATA, add(CFA_XSP16, literal(-3)))
          CFI (cfiCond67) DPL0 load(1, XDATA, add(CFA_XSP16, literal(-2)))
          CFI (cfiCond67) DPH0 load(1, XDATA, add(CFA_XSP16, literal(-1)))
          CFI (cfiCond67) CFA_SP SP+-2
          CFI (cfiCond67) CFA_XSP16 add(XSP16, 10)
          CFI Block cfiCond68 Using cfiCommon0
          CFI (cfiCond68) Function bindNumReflections
          CFI (cfiCond68) Conditional ??CrossCallReturnLabel_8
          CFI (cfiCond68) R6 load(1, XDATA, add(CFA_XSP16, literal(-12)))
          CFI (cfiCond68) VB load(1, XDATA, add(CFA_XSP16, literal(-11)))
          CFI (cfiCond68) V0 load(1, XDATA, add(CFA_XSP16, literal(-10)))
          CFI (cfiCond68) V1 load(1, XDATA, add(CFA_XSP16, literal(-9)))
          CFI (cfiCond68) V2 load(1, XDATA, add(CFA_XSP16, literal(-8)))
          CFI (cfiCond68) V3 load(1, XDATA, add(CFA_XSP16, literal(-7)))
          CFI (cfiCond68) R7 load(1, XDATA, add(CFA_XSP16, literal(-6)))
          CFI (cfiCond68) ?RET_LOW load(1, XDATA, add(CFA_XSP16, literal(-5)))
          CFI (cfiCond68) ?RET_HIGH load(1, XDATA, add(CFA_XSP16, literal(-4)))
          CFI (cfiCond68) ?BRET_EXT load(1, XDATA, add(CFA_XSP16, literal(-3)))
          CFI (cfiCond68) DPL0 load(1, XDATA, add(CFA_XSP16, literal(-2)))
          CFI (cfiCond68) DPH0 load(1, XDATA, add(CFA_XSP16, literal(-1)))
          CFI (cfiCond68) CFA_SP SP+-2
          CFI (cfiCond68) CFA_XSP16 add(XSP16, 12)
          CFI Block cfiPicker69 Using cfiCommon1
          CFI (cfiPicker69) NoFunction
          CFI (cfiPicker69) Picker
        MOV       B,#0xe
        MUL       AB
        MOV       R0,A
        MOV       R1,B
        LCALL     ?Subroutine27 & 0xFFFF
??CrossCallReturnLabel_55:
        RET
          CFI EndBlock cfiCond66
          CFI EndBlock cfiCond67
          CFI EndBlock cfiCond68
          CFI EndBlock cfiPicker69

        RSEG BANKED_CODE:HUGECODE:NOROOT(0)
?Subroutine27:
          CFI Block cfiCond70 Using cfiCommon0
          CFI Function bindFindEmpty
          CFI Conditional ??CrossCallReturnLabel_56, ??CrossCallReturnLabel_52
          CFI DPL0 Frame(CFA_SP, 4)
          CFI DPH0 Frame(CFA_SP, 5)
          CFI CFA_SP SP+-9
          CFI Block cfiCond71 Using cfiCommon0
          CFI (cfiCond71) Function bindNumOfEntries
          CFI (cfiCond71) Conditional ??CrossCallReturnLabel_56, ??CrossCallReturnLabel_53
          CFI (cfiCond71) DPL0 Frame(CFA_SP, 4)
          CFI (cfiCond71) DPH0 Frame(CFA_SP, 5)
          CFI (cfiCond71) CFA_SP SP+-9
          CFI Block cfiCond72 Using cfiCommon0
          CFI (cfiCond72) Function BindRestoreFromNV
          CFI (cfiCond72) Conditional ??CrossCallReturnLabel_56, ??CrossCallReturnLabel_54
          CFI (cfiCond72) R6 load(1, XDATA, add(CFA_XSP16, literal(-12)))
          CFI (cfiCond72) VB load(1, XDATA, add(CFA_XSP16, literal(-11)))
          CFI (cfiCond72) V0 load(1, XDATA, add(CFA_XSP16, literal(-10)))
          CFI (cfiCond72) V1 load(1, XDATA, add(CFA_XSP16, literal(-9)))
          CFI (cfiCond72) V2 load(1, XDATA, add(CFA_XSP16, literal(-8)))
          CFI (cfiCond72) V3 load(1, XDATA, add(CFA_XSP16, literal(-7)))
          CFI (cfiCond72) R7 load(1, XDATA, add(CFA_XSP16, literal(-6)))
          CFI (cfiCond72) ?RET_LOW load(1, XDATA, add(CFA_XSP16, literal(-5)))
          CFI (cfiCond72) ?RET_HIGH load(1, XDATA, add(CFA_XSP16, literal(-4)))
          CFI (cfiCond72) ?BRET_EXT load(1, XDATA, add(CFA_XSP16, literal(-3)))
          CFI (cfiCond72) DPL0 load(1, XDATA, add(CFA_XSP16, literal(-2)))
          CFI (cfiCond72) DPH0 load(1, XDATA, add(CFA_XSP16, literal(-1)))
          CFI (cfiCond72) CFA_SP SP+-4
          CFI (cfiCond72) CFA_XSP16 add(XSP16, 14)
          CFI Block cfiCond73 Using cfiCommon0
          CFI (cfiCond73) Function bindCapacity
          CFI (cfiCond73) Conditional ??CrossCallReturnLabel_56, ??CrossCallReturnLabel_51
          CFI (cfiCond73) R6 load(1, XDATA, add(CFA_XSP16, literal(-9)))
          CFI (cfiCond73) VB load(1, XDATA, add(CFA_XSP16, literal(-8)))
          CFI (cfiCond73) V0 load(1, XDATA, add(CFA_XSP16, literal(-7)))
          CFI (cfiCond73) R7 load(1, XDATA, add(CFA_XSP16, literal(-6)))
          CFI (cfiCond73) ?RET_LOW load(1, XDATA, add(CFA_XSP16, literal(-5)))
          CFI (cfiCond73) ?RET_HIGH load(1, XDATA, add(CFA_XSP16, literal(-4)))
          CFI (cfiCond73) ?BRET_EXT load(1, XDATA, add(CFA_XSP16, literal(-3)))
          CFI (cfiCond73) DPL0 load(1, XDATA, add(CFA_XSP16, literal(-2)))
          CFI (cfiCond73) DPH0 load(1, XDATA, add(CFA_XSP16, literal(-1)))
          CFI (cfiCond73) CFA_SP SP+-4
          CFI (cfiCond73) CFA_XSP16 add(XSP16, 9)
          CFI Block cfiCond74 Using cfiCommon0
          CFI (cfiCond74) Function bindAddEntry
          CFI (cfiCond74) Conditional ??CrossCallReturnLabel_55, ??CrossCallReturnLabel_9
          CFI (cfiCond74) R6 load(1, XDATA, add(CFA_XSP16, literal(-20)))
          CFI (cfiCond74) VB load(1, XDATA, add(CFA_XSP16, literal(-19)))
          CFI (cfiCond74) V0 load(1, XDATA, add(CFA_XSP16, literal(-18)))
          CFI (cfiCond74) V1 load(1, XDATA, add(CFA_XSP16, literal(-17)))
          CFI (cfiCond74) V2 load(1, XDATA, add(CFA_XSP16, literal(-16)))
          CFI (cfiCond74) V3 load(1, XDATA, add(CFA_XSP16, literal(-15)))
          CFI (cfiCond74) V4 load(1, XDATA, add(CFA_XSP16, literal(-14)))
          CFI (cfiCond74) V5 load(1, XDATA, add(CFA_XSP16, literal(-13)))
          CFI (cfiCond74) V6 load(1, XDATA, add(CFA_XSP16, literal(-12)))
          CFI (cfiCond74) V7 load(1, XDATA, add(CFA_XSP16, literal(-11)))
          CFI (cfiCond74) V8 load(1, XDATA, add(CFA_XSP16, literal(-10)))
          CFI (cfiCond74) V9 load(1, XDATA, add(CFA_XSP16, literal(-9)))
          CFI (cfiCond74) V10 load(1, XDATA, add(CFA_XSP16, literal(-8)))
          CFI (cfiCond74) V11 load(1, XDATA, add(CFA_XSP16, literal(-7)))
          CFI (cfiCond74) R7 load(1, XDATA, add(CFA_XSP16, literal(-6)))
          CFI (cfiCond74) ?RET_LOW load(1, XDATA, add(CFA_XSP16, literal(-5)))
          CFI (cfiCond74) ?RET_HIGH load(1, XDATA, add(CFA_XSP16, literal(-4)))
          CFI (cfiCond74) ?BRET_EXT load(1, XDATA, add(CFA_XSP16, literal(-3)))
          CFI (cfiCond74) DPL0 load(1, XDATA, add(CFA_XSP16, literal(-2)))
          CFI (cfiCond74) DPH0 load(1, XDATA, add(CFA_XSP16, literal(-1)))
          CFI (cfiCond74) CFA_SP SP+-4
          CFI (cfiCond74) CFA_XSP16 add(XSP16, 20)
          CFI Block cfiCond75 Using cfiCommon0
          CFI (cfiCond75) Function bindRemoveSrcDev
          CFI (cfiCond75) Conditional ??CrossCallReturnLabel_55, ??CrossCallReturnLabel_10
          CFI (cfiCond75) R6 load(1, XDATA, add(CFA_XSP16, literal(-10)))
          CFI (cfiCond75) VB load(1, XDATA, add(CFA_XSP16, literal(-9)))
          CFI (cfiCond75) V0 load(1, XDATA, add(CFA_XSP16, literal(-8)))
          CFI (cfiCond75) V1 load(1, XDATA, add(CFA_XSP16, literal(-7)))
          CFI (cfiCond75) R7 load(1, XDATA, add(CFA_XSP16, literal(-6)))
          CFI (cfiCond75) ?RET_LOW load(1, XDATA, add(CFA_XSP16, literal(-5)))
          CFI (cfiCond75) ?RET_HIGH load(1, XDATA, add(CFA_XSP16, literal(-4)))
          CFI (cfiCond75) ?BRET_EXT load(1, XDATA, add(CFA_XSP16, literal(-3)))
          CFI (cfiCond75) DPL0 load(1, XDATA, add(CFA_XSP16, literal(-2)))
          CFI (cfiCond75) DPH0 load(1, XDATA, add(CFA_XSP16, literal(-1)))
          CFI (cfiCond75) CFA_SP SP+-4
          CFI (cfiCond75) CFA_XSP16 add(XSP16, 10)
          CFI Block cfiCond76 Using cfiCommon0
          CFI (cfiCond76) Function bindNumReflections
          CFI (cfiCond76) Conditional ??CrossCallReturnLabel_55, ??CrossCallReturnLabel_8
          CFI (cfiCond76) R6 load(1, XDATA, add(CFA_XSP16, literal(-12)))
          CFI (cfiCond76) VB load(1, XDATA, add(CFA_XSP16, literal(-11)))
          CFI (cfiCond76) V0 load(1, XDATA, add(CFA_XSP16, literal(-10)))
          CFI (cfiCond76) V1 load(1, XDATA, add(CFA_XSP16, literal(-9)))
          CFI (cfiCond76) V2 load(1, XDATA, add(CFA_XSP16, literal(-8)))
          CFI (cfiCond76) V3 load(1, XDATA, add(CFA_XSP16, literal(-7)))
          CFI (cfiCond76) R7 load(1, XDATA, add(CFA_XSP16, literal(-6)))
          CFI (cfiCond76) ?RET_LOW load(1, XDATA, add(CFA_XSP16, literal(-5)))
          CFI (cfiCond76) ?RET_HIGH load(1, XDATA, add(CFA_XSP16, literal(-4)))
          CFI (cfiCond76) ?BRET_EXT load(1, XDATA, add(CFA_XSP16, literal(-3)))
          CFI (cfiCond76) DPL0 load(1, XDATA, add(CFA_XSP16, literal(-2)))
          CFI (cfiCond76) DPH0 load(1, XDATA, add(CFA_XSP16, literal(-1)))
          CFI (cfiCond76) CFA_SP SP+-4
          CFI (cfiCond76) CFA_XSP16 add(XSP16, 12)
          CFI Block cfiPicker77 Using cfiCommon1
          CFI (cfiPicker77) NoFunction
          CFI (cfiPicker77) Picker
        MOV       A,#BindingTable & 0xff
        ADD       A,R0
        MOV       DPL,A
        MOV       A,#(BindingTable >> 8) & 0xff
        LCALL     ?Subroutine32 & 0xFFFF
??CrossCallReturnLabel_57:
        RET
          CFI EndBlock cfiCond70
          CFI EndBlock cfiCond71
          CFI EndBlock cfiCond72
          CFI EndBlock cfiCond73
          CFI EndBlock cfiCond74
          CFI EndBlock cfiCond75
          CFI EndBlock cfiCond76
          CFI EndBlock cfiPicker77

        RSEG BANKED_CODE:HUGECODE:NOROOT(0)
?Subroutine32:
          CFI Block cfiCond78 Using cfiCommon0
          CFI Function bindNumOfEntries
          CFI Conditional ??CrossCallReturnLabel_58
          CFI DPL0 Frame(CFA_SP, 4)
          CFI DPH0 Frame(CFA_SP, 5)
          CFI CFA_SP SP+-7
          CFI Block cfiCond79 Using cfiCommon0
          CFI (cfiCond79) Function bindAddEntry
          CFI (cfiCond79) Conditional ??CrossCallReturnLabel_59
          CFI (cfiCond79) R6 load(1, XDATA, add(CFA_XSP16, literal(-20)))
          CFI (cfiCond79) VB load(1, XDATA, add(CFA_XSP16, literal(-19)))
          CFI (cfiCond79) V0 load(1, XDATA, add(CFA_XSP16, literal(-18)))
          CFI (cfiCond79) V1 load(1, XDATA, add(CFA_XSP16, literal(-17)))
          CFI (cfiCond79) V2 load(1, XDATA, add(CFA_XSP16, literal(-16)))
          CFI (cfiCond79) V3 load(1, XDATA, add(CFA_XSP16, literal(-15)))
          CFI (cfiCond79) V4 load(1, XDATA, add(CFA_XSP16, literal(-14)))
          CFI (cfiCond79) V5 load(1, XDATA, add(CFA_XSP16, literal(-13)))
          CFI (cfiCond79) V6 load(1, XDATA, add(CFA_XSP16, literal(-12)))
          CFI (cfiCond79) V7 load(1, XDATA, add(CFA_XSP16, literal(-11)))
          CFI (cfiCond79) V8 load(1, XDATA, add(CFA_XSP16, literal(-10)))
          CFI (cfiCond79) V9 load(1, XDATA, add(CFA_XSP16, literal(-9)))
          CFI (cfiCond79) V10 load(1, XDATA, add(CFA_XSP16, literal(-8)))
          CFI (cfiCond79) V11 load(1, XDATA, add(CFA_XSP16, literal(-7)))
          CFI (cfiCond79) R7 load(1, XDATA, add(CFA_XSP16, literal(-6)))
          CFI (cfiCond79) ?RET_LOW load(1, XDATA, add(CFA_XSP16, literal(-5)))
          CFI (cfiCond79) ?RET_HIGH load(1, XDATA, add(CFA_XSP16, literal(-4)))
          CFI (cfiCond79) ?BRET_EXT load(1, XDATA, add(CFA_XSP16, literal(-3)))
          CFI (cfiCond79) DPL0 load(1, XDATA, add(CFA_XSP16, literal(-2)))
          CFI (cfiCond79) DPH0 load(1, XDATA, add(CFA_XSP16, literal(-1)))
          CFI (cfiCond79) CFA_SP SP+-2
          CFI (cfiCond79) CFA_XSP16 add(XSP16, 20)
          CFI Block cfiCond80 Using cfiCommon0
          CFI (cfiCond80) Function bindAddEntry
          CFI (cfiCond80) Conditional ??CrossCallReturnLabel_60, ??CrossCallReturnLabel_4
          CFI (cfiCond80) R6 load(1, XDATA, add(CFA_XSP16, literal(-20)))
          CFI (cfiCond80) VB load(1, XDATA, add(CFA_XSP16, literal(-19)))
          CFI (cfiCond80) V0 load(1, XDATA, add(CFA_XSP16, literal(-18)))
          CFI (cfiCond80) V1 load(1, XDATA, add(CFA_XSP16, literal(-17)))
          CFI (cfiCond80) V2 load(1, XDATA, add(CFA_XSP16, literal(-16)))
          CFI (cfiCond80) V3 load(1, XDATA, add(CFA_XSP16, literal(-15)))
          CFI (cfiCond80) V4 load(1, XDATA, add(CFA_XSP16, literal(-14)))
          CFI (cfiCond80) V5 load(1, XDATA, add(CFA_XSP16, literal(-13)))
          CFI (cfiCond80) V6 load(1, XDATA, add(CFA_XSP16, literal(-12)))
          CFI (cfiCond80) V7 load(1, XDATA, add(CFA_XSP16, literal(-11)))
          CFI (cfiCond80) V8 load(1, XDATA, add(CFA_XSP16, literal(-10)))
          CFI (cfiCond80) V9 load(1, XDATA, add(CFA_XSP16, literal(-9)))
          CFI (cfiCond80) V10 load(1, XDATA, add(CFA_XSP16, literal(-8)))
          CFI (cfiCond80) V11 load(1, XDATA, add(CFA_XSP16, literal(-7)))
          CFI (cfiCond80) R7 load(1, XDATA, add(CFA_XSP16, literal(-6)))
          CFI (cfiCond80) ?RET_LOW load(1, XDATA, add(CFA_XSP16, literal(-5)))
          CFI (cfiCond80) ?RET_HIGH load(1, XDATA, add(CFA_XSP16, literal(-4)))
          CFI (cfiCond80) ?BRET_EXT load(1, XDATA, add(CFA_XSP16, literal(-3)))
          CFI (cfiCond80) DPL0 load(1, XDATA, add(CFA_XSP16, literal(-2)))
          CFI (cfiCond80) DPH0 load(1, XDATA, add(CFA_XSP16, literal(-1)))
          CFI (cfiCond80) CFA_SP SP+-4
          CFI (cfiCond80) CFA_XSP16 add(XSP16, 20)
          CFI Block cfiCond81 Using cfiCommon0
          CFI (cfiCond81) Function bindAddEntry
          CFI (cfiCond81) Conditional ??CrossCallReturnLabel_60, ??CrossCallReturnLabel_5
          CFI (cfiCond81) R6 load(1, XDATA, add(CFA_XSP16, literal(-20)))
          CFI (cfiCond81) VB load(1, XDATA, add(CFA_XSP16, literal(-19)))
          CFI (cfiCond81) V0 load(1, XDATA, add(CFA_XSP16, literal(-18)))
          CFI (cfiCond81) V1 load(1, XDATA, add(CFA_XSP16, literal(-17)))
          CFI (cfiCond81) V2 load(1, XDATA, add(CFA_XSP16, literal(-16)))
          CFI (cfiCond81) V3 load(1, XDATA, add(CFA_XSP16, literal(-15)))
          CFI (cfiCond81) V4 load(1, XDATA, add(CFA_XSP16, literal(-14)))
          CFI (cfiCond81) V5 load(1, XDATA, add(CFA_XSP16, literal(-13)))
          CFI (cfiCond81) V6 load(1, XDATA, add(CFA_XSP16, literal(-12)))
          CFI (cfiCond81) V7 load(1, XDATA, add(CFA_XSP16, literal(-11)))
          CFI (cfiCond81) V8 load(1, XDATA, add(CFA_XSP16, literal(-10)))
          CFI (cfiCond81) V9 load(1, XDATA, add(CFA_XSP16, literal(-9)))
          CFI (cfiCond81) V10 load(1, XDATA, add(CFA_XSP16, literal(-8)))
          CFI (cfiCond81) V11 load(1, XDATA, add(CFA_XSP16, literal(-7)))
          CFI (cfiCond81) R7 load(1, XDATA, add(CFA_XSP16, literal(-6)))
          CFI (cfiCond81) ?RET_LOW load(1, XDATA, add(CFA_XSP16, literal(-5)))
          CFI (cfiCond81) ?RET_HIGH load(1, XDATA, add(CFA_XSP16, literal(-4)))
          CFI (cfiCond81) ?BRET_EXT load(1, XDATA, add(CFA_XSP16, literal(-3)))
          CFI (cfiCond81) DPL0 load(1, XDATA, add(CFA_XSP16, literal(-2)))
          CFI (cfiCond81) DPH0 load(1, XDATA, add(CFA_XSP16, literal(-1)))
          CFI (cfiCond81) CFA_SP SP+-4
          CFI (cfiCond81) CFA_XSP16 add(XSP16, 20)
          CFI Block cfiCond82 Using cfiCommon0
          CFI (cfiCond82) Function bindAddEntry
          CFI (cfiCond82) Conditional ??CrossCallReturnLabel_61, ??CrossCallReturnLabel_46, ??CrossCallReturnLabel_21
          CFI (cfiCond82) R6 load(1, XDATA, add(CFA_XSP16, literal(-20)))
          CFI (cfiCond82) VB load(1, XDATA, add(CFA_XSP16, literal(-19)))
          CFI (cfiCond82) V0 load(1, XDATA, add(CFA_XSP16, literal(-18)))
          CFI (cfiCond82) V1 load(1, XDATA, add(CFA_XSP16, literal(-17)))
          CFI (cfiCond82) V2 load(1, XDATA, add(CFA_XSP16, literal(-16)))
          CFI (cfiCond82) V3 load(1, XDATA, add(CFA_XSP16, literal(-15)))
          CFI (cfiCond82) V4 load(1, XDATA, add(CFA_XSP16, literal(-14)))
          CFI (cfiCond82) V5 load(1, XDATA, add(CFA_XSP16, literal(-13)))
          CFI (cfiCond82) V6 load(1, XDATA, add(CFA_XSP16, literal(-12)))
          CFI (cfiCond82) V7 load(1, XDATA, add(CFA_XSP16, literal(-11)))
          CFI (cfiCond82) V8 load(1, XDATA, add(CFA_XSP16, literal(-10)))
          CFI (cfiCond82) V9 load(1, XDATA, add(CFA_XSP16, literal(-9)))
          CFI (cfiCond82) V10 load(1, XDATA, add(CFA_XSP16, literal(-8)))
          CFI (cfiCond82) V11 load(1, XDATA, add(CFA_XSP16, literal(-7)))
          CFI (cfiCond82) R7 load(1, XDATA, add(CFA_XSP16, literal(-6)))
          CFI (cfiCond82) ?RET_LOW load(1, XDATA, add(CFA_XSP16, literal(-5)))
          CFI (cfiCond82) ?RET_HIGH load(1, XDATA, add(CFA_XSP16, literal(-4)))
          CFI (cfiCond82) ?BRET_EXT load(1, XDATA, add(CFA_XSP16, literal(-3)))
          CFI (cfiCond82) DPL0 load(1, XDATA, add(CFA_XSP16, literal(-2)))
          CFI (cfiCond82) DPH0 load(1, XDATA, add(CFA_XSP16, literal(-1)))
          CFI (cfiCond82) CFA_SP SP+-6
          CFI (cfiCond82) CFA_XSP16 add(XSP16, 20)
          CFI Block cfiCond83 Using cfiCommon0
          CFI (cfiCond83) Function bindRemoveDev
          CFI (cfiCond83) Conditional ??CrossCallReturnLabel_61, ??CrossCallReturnLabel_46, ??CrossCallReturnLabel_22
          CFI (cfiCond83) R6 load(1, XDATA, add(CFA_XSP16, literal(-12)))
          CFI (cfiCond83) VB load(1, XDATA, add(CFA_XSP16, literal(-11)))
          CFI (cfiCond83) V0 load(1, XDATA, add(CFA_XSP16, literal(-10)))
          CFI (cfiCond83) V1 load(1, XDATA, add(CFA_XSP16, literal(-9)))
          CFI (cfiCond83) V2 load(1, XDATA, add(CFA_XSP16, literal(-8)))
          CFI (cfiCond83) V3 load(1, XDATA, add(CFA_XSP16, literal(-7)))
          CFI (cfiCond83) R7 load(1, XDATA, add(CFA_XSP16, literal(-6)))
          CFI (cfiCond83) ?RET_LOW load(1, XDATA, add(CFA_XSP16, literal(-5)))
          CFI (cfiCond83) ?RET_HIGH load(1, XDATA, add(CFA_XSP16, literal(-4)))
          CFI (cfiCond83) ?BRET_EXT load(1, XDATA, add(CFA_XSP16, literal(-3)))
          CFI (cfiCond83) DPL0 load(1, XDATA, add(CFA_XSP16, literal(-2)))
          CFI (cfiCond83) DPH0 load(1, XDATA, add(CFA_XSP16, literal(-1)))
          CFI (cfiCond83) CFA_SP SP+-6
          CFI (cfiCond83) CFA_XSP16 add(XSP16, 12)
          CFI Block cfiCond84 Using cfiCommon0
          CFI (cfiCond84) Function bindRemoveDev
          CFI (cfiCond84) Conditional ??CrossCallReturnLabel_61, ??CrossCallReturnLabel_45, ??CrossCallReturnLabel_11
          CFI (cfiCond84) R6 load(1, XDATA, add(CFA_XSP16, literal(-12)))
          CFI (cfiCond84) VB load(1, XDATA, add(CFA_XSP16, literal(-11)))
          CFI (cfiCond84) V0 load(1, XDATA, add(CFA_XSP16, literal(-10)))
          CFI (cfiCond84) V1 load(1, XDATA, add(CFA_XSP16, literal(-9)))
          CFI (cfiCond84) V2 load(1, XDATA, add(CFA_XSP16, literal(-8)))
          CFI (cfiCond84) V3 load(1, XDATA, add(CFA_XSP16, literal(-7)))
          CFI (cfiCond84) R7 load(1, XDATA, add(CFA_XSP16, literal(-6)))
          CFI (cfiCond84) ?RET_LOW load(1, XDATA, add(CFA_XSP16, literal(-5)))
          CFI (cfiCond84) ?RET_HIGH load(1, XDATA, add(CFA_XSP16, literal(-4)))
          CFI (cfiCond84) ?BRET_EXT load(1, XDATA, add(CFA_XSP16, literal(-3)))
          CFI (cfiCond84) DPL0 load(1, XDATA, add(CFA_XSP16, literal(-2)))
          CFI (cfiCond84) DPH0 load(1, XDATA, add(CFA_XSP16, literal(-1)))
          CFI (cfiCond84) CFA_SP SP+-6
          CFI (cfiCond84) CFA_XSP16 add(XSP16, 12)
          CFI Block cfiCond85 Using cfiCommon0
          CFI (cfiCond85) Function bindAddressClear
          CFI (cfiCond85) Conditional ??CrossCallReturnLabel_61, ??CrossCallReturnLabel_45, ??CrossCallReturnLabel_12
          CFI (cfiCond85) DPL0 Frame(CFA_SP, 4)
          CFI (cfiCond85) DPH0 Frame(CFA_SP, 5)
          CFI (cfiCond85) CFA_SP SP+-11
          CFI (cfiCond85) CFA_XSP16 add(XSP16, 13)
          CFI Block cfiCond86 Using cfiCommon0
          CFI (cfiCond86) Function bindFindEmpty
          CFI (cfiCond86) Conditional ??CrossCallReturnLabel_57, ??CrossCallReturnLabel_56, ??CrossCallReturnLabel_52
          CFI (cfiCond86) DPL0 Frame(CFA_SP, 4)
          CFI (cfiCond86) DPH0 Frame(CFA_SP, 5)
          CFI (cfiCond86) CFA_SP SP+-11
          CFI Block cfiCond87 Using cfiCommon0
          CFI (cfiCond87) Function bindNumOfEntries
          CFI (cfiCond87) Conditional ??CrossCallReturnLabel_57, ??CrossCallReturnLabel_56, ??CrossCallReturnLabel_53
          CFI (cfiCond87) DPL0 Frame(CFA_SP, 4)
          CFI (cfiCond87) DPH0 Frame(CFA_SP, 5)
          CFI (cfiCond87) CFA_SP SP+-11
          CFI Block cfiCond88 Using cfiCommon0
          CFI (cfiCond88) Function BindRestoreFromNV
          CFI (cfiCond88) Conditional ??CrossCallReturnLabel_57, ??CrossCallReturnLabel_56, ??CrossCallReturnLabel_54
          CFI (cfiCond88) R6 load(1, XDATA, add(CFA_XSP16, literal(-12)))
          CFI (cfiCond88) VB load(1, XDATA, add(CFA_XSP16, literal(-11)))
          CFI (cfiCond88) V0 load(1, XDATA, add(CFA_XSP16, literal(-10)))
          CFI (cfiCond88) V1 load(1, XDATA, add(CFA_XSP16, literal(-9)))
          CFI (cfiCond88) V2 load(1, XDATA, add(CFA_XSP16, literal(-8)))
          CFI (cfiCond88) V3 load(1, XDATA, add(CFA_XSP16, literal(-7)))
          CFI (cfiCond88) R7 load(1, XDATA, add(CFA_XSP16, literal(-6)))
          CFI (cfiCond88) ?RET_LOW load(1, XDATA, add(CFA_XSP16, literal(-5)))
          CFI (cfiCond88) ?RET_HIGH load(1, XDATA, add(CFA_XSP16, literal(-4)))
          CFI (cfiCond88) ?BRET_EXT load(1, XDATA, add(CFA_XSP16, literal(-3)))
          CFI (cfiCond88) DPL0 load(1, XDATA, add(CFA_XSP16, literal(-2)))
          CFI (cfiCond88) DPH0 load(1, XDATA, add(CFA_XSP16, literal(-1)))
          CFI (cfiCond88) CFA_SP SP+-6
          CFI (cfiCond88) CFA_XSP16 add(XSP16, 14)
          CFI Block cfiCond89 Using cfiCommon0
          CFI (cfiCond89) Function bindCapacity
          CFI (cfiCond89) Conditional ??CrossCallReturnLabel_57, ??CrossCallReturnLabel_56, ??CrossCallReturnLabel_51
          CFI (cfiCond89) R6 load(1, XDATA, add(CFA_XSP16, literal(-9)))
          CFI (cfiCond89) VB load(1, XDATA, add(CFA_XSP16, literal(-8)))
          CFI (cfiCond89) V0 load(1, XDATA, add(CFA_XSP16, literal(-7)))
          CFI (cfiCond89) R7 load(1, XDATA, add(CFA_XSP16, literal(-6)))
          CFI (cfiCond89) ?RET_LOW load(1, XDATA, add(CFA_XSP16, literal(-5)))
          CFI (cfiCond89) ?RET_HIGH load(1, XDATA, add(CFA_XSP16, literal(-4)))
          CFI (cfiCond89) ?BRET_EXT load(1, XDATA, add(CFA_XSP16, literal(-3)))
          CFI (cfiCond89) DPL0 load(1, XDATA, add(CFA_XSP16, literal(-2)))
          CFI (cfiCond89) DPH0 load(1, XDATA, add(CFA_XSP16, literal(-1)))
          CFI (cfiCond89) CFA_SP SP+-6
          CFI (cfiCond89) CFA_XSP16 add(XSP16, 9)
          CFI Block cfiCond90 Using cfiCommon0
          CFI (cfiCond90) Function bindAddEntry
          CFI (cfiCond90) Conditional ??CrossCallReturnLabel_57, ??CrossCallReturnLabel_55, ??CrossCallReturnLabel_9
          CFI (cfiCond90) R6 load(1, XDATA, add(CFA_XSP16, literal(-20)))
          CFI (cfiCond90) VB load(1, XDATA, add(CFA_XSP16, literal(-19)))
          CFI (cfiCond90) V0 load(1, XDATA, add(CFA_XSP16, literal(-18)))
          CFI (cfiCond90) V1 load(1, XDATA, add(CFA_XSP16, literal(-17)))
          CFI (cfiCond90) V2 load(1, XDATA, add(CFA_XSP16, literal(-16)))
          CFI (cfiCond90) V3 load(1, XDATA, add(CFA_XSP16, literal(-15)))
          CFI (cfiCond90) V4 load(1, XDATA, add(CFA_XSP16, literal(-14)))
          CFI (cfiCond90) V5 load(1, XDATA, add(CFA_XSP16, literal(-13)))
          CFI (cfiCond90) V6 load(1, XDATA, add(CFA_XSP16, literal(-12)))
          CFI (cfiCond90) V7 load(1, XDATA, add(CFA_XSP16, literal(-11)))
          CFI (cfiCond90) V8 load(1, XDATA, add(CFA_XSP16, literal(-10)))
          CFI (cfiCond90) V9 load(1, XDATA, add(CFA_XSP16, literal(-9)))
          CFI (cfiCond90) V10 load(1, XDATA, add(CFA_XSP16, literal(-8)))
          CFI (cfiCond90) V11 load(1, XDATA, add(CFA_XSP16, literal(-7)))
          CFI (cfiCond90) R7 load(1, XDATA, add(CFA_XSP16, literal(-6)))
          CFI (cfiCond90) ?RET_LOW load(1, XDATA, add(CFA_XSP16, literal(-5)))
          CFI (cfiCond90) ?RET_HIGH load(1, XDATA, add(CFA_XSP16, literal(-4)))
          CFI (cfiCond90) ?BRET_EXT load(1, XDATA, add(CFA_XSP16, literal(-3)))
          CFI (cfiCond90) DPL0 load(1, XDATA, add(CFA_XSP16, literal(-2)))
          CFI (cfiCond90) DPH0 load(1, XDATA, add(CFA_XSP16, literal(-1)))
          CFI (cfiCond90) CFA_SP SP+-6
          CFI (cfiCond90) CFA_XSP16 add(XSP16, 20)
          CFI Block cfiCond91 Using cfiCommon0
          CFI (cfiCond91) Function bindRemoveSrcDev
          CFI (cfiCond91) Conditional ??CrossCallReturnLabel_57, ??CrossCallReturnLabel_55, ??CrossCallReturnLabel_10
          CFI (cfiCond91) R6 load(1, XDATA, add(CFA_XSP16, literal(-10)))
          CFI (cfiCond91) VB load(1, XDATA, add(CFA_XSP16, literal(-9)))
          CFI (cfiCond91) V0 load(1, XDATA, add(CFA_XSP16, literal(-8)))
          CFI (cfiCond91) V1 load(1, XDATA, add(CFA_XSP16, literal(-7)))
          CFI (cfiCond91) R7 load(1, XDATA, add(CFA_XSP16, literal(-6)))
          CFI (cfiCond91) ?RET_LOW load(1, XDATA, add(CFA_XSP16, literal(-5)))
          CFI (cfiCond91) ?RET_HIGH load(1, XDATA, add(CFA_XSP16, literal(-4)))
          CFI (cfiCond91) ?BRET_EXT load(1, XDATA, add(CFA_XSP16, literal(-3)))
          CFI (cfiCond91) DPL0 load(1, XDATA, add(CFA_XSP16, literal(-2)))
          CFI (cfiCond91) DPH0 load(1, XDATA, add(CFA_XSP16, literal(-1)))
          CFI (cfiCond91) CFA_SP SP+-6
          CFI (cfiCond91) CFA_XSP16 add(XSP16, 10)
          CFI Block cfiCond92 Using cfiCommon0
          CFI (cfiCond92) Function bindNumReflections
          CFI (cfiCond92) Conditional ??CrossCallReturnLabel_57, ??CrossCallReturnLabel_55, ??CrossCallReturnLabel_8
          CFI (cfiCond92) R6 load(1, XDATA, add(CFA_XSP16, literal(-12)))
          CFI (cfiCond92) VB load(1, XDATA, add(CFA_XSP16, literal(-11)))
          CFI (cfiCond92) V0 load(1, XDATA, add(CFA_XSP16, literal(-10)))
          CFI (cfiCond92) V1 load(1, XDATA, add(CFA_XSP16, literal(-9)))
          CFI (cfiCond92) V2 load(1, XDATA, add(CFA_XSP16, literal(-8)))
          CFI (cfiCond92) V3 load(1, XDATA, add(CFA_XSP16, literal(-7)))
          CFI (cfiCond92) R7 load(1, XDATA, add(CFA_XSP16, literal(-6)))
          CFI (cfiCond92) ?RET_LOW load(1, XDATA, add(CFA_XSP16, literal(-5)))
          CFI (cfiCond92) ?RET_HIGH load(1, XDATA, add(CFA_XSP16, literal(-4)))
          CFI (cfiCond92) ?BRET_EXT load(1, XDATA, add(CFA_XSP16, literal(-3)))
          CFI (cfiCond92) DPL0 load(1, XDATA, add(CFA_XSP16, literal(-2)))
          CFI (cfiCond92) DPH0 load(1, XDATA, add(CFA_XSP16, literal(-1)))
          CFI (cfiCond92) CFA_SP SP+-6
          CFI (cfiCond92) CFA_XSP16 add(XSP16, 12)
          CFI Block cfiCond93 Using cfiCommon0
          CFI (cfiCond93) Function bindRemoveDev
          CFI (cfiCond93) Conditional ??CrossCallReturnLabel_62, ??CrossCallReturnLabel_47, ??CrossCallReturnLabel_13
          CFI (cfiCond93) R6 load(1, XDATA, add(CFA_XSP16, literal(-12)))
          CFI (cfiCond93) VB load(1, XDATA, add(CFA_XSP16, literal(-11)))
          CFI (cfiCond93) V0 load(1, XDATA, add(CFA_XSP16, literal(-10)))
          CFI (cfiCond93) V1 load(1, XDATA, add(CFA_XSP16, literal(-9)))
          CFI (cfiCond93) V2 load(1, XDATA, add(CFA_XSP16, literal(-8)))
          CFI (cfiCond93) V3 load(1, XDATA, add(CFA_XSP16, literal(-7)))
          CFI (cfiCond93) R7 load(1, XDATA, add(CFA_XSP16, literal(-6)))
          CFI (cfiCond93) ?RET_LOW load(1, XDATA, add(CFA_XSP16, literal(-5)))
          CFI (cfiCond93) ?RET_HIGH load(1, XDATA, add(CFA_XSP16, literal(-4)))
          CFI (cfiCond93) ?BRET_EXT load(1, XDATA, add(CFA_XSP16, literal(-3)))
          CFI (cfiCond93) DPL0 load(1, XDATA, add(CFA_XSP16, literal(-2)))
          CFI (cfiCond93) DPH0 load(1, XDATA, add(CFA_XSP16, literal(-1)))
          CFI (cfiCond93) CFA_SP SP+-6
          CFI (cfiCond93) CFA_XSP16 add(XSP16, 12)
          CFI Block cfiCond94 Using cfiCommon0
          CFI (cfiCond94) Function bindRemoveDev
          CFI (cfiCond94) Conditional ??CrossCallReturnLabel_62, ??CrossCallReturnLabel_47, ??CrossCallReturnLabel_14
          CFI (cfiCond94) R6 load(1, XDATA, add(CFA_XSP16, literal(-12)))
          CFI (cfiCond94) VB load(1, XDATA, add(CFA_XSP16, literal(-11)))
          CFI (cfiCond94) V0 load(1, XDATA, add(CFA_XSP16, literal(-10)))
          CFI (cfiCond94) V1 load(1, XDATA, add(CFA_XSP16, literal(-9)))
          CFI (cfiCond94) V2 load(1, XDATA, add(CFA_XSP16, literal(-8)))
          CFI (cfiCond94) V3 load(1, XDATA, add(CFA_XSP16, literal(-7)))
          CFI (cfiCond94) R7 load(1, XDATA, add(CFA_XSP16, literal(-6)))
          CFI (cfiCond94) ?RET_LOW load(1, XDATA, add(CFA_XSP16, literal(-5)))
          CFI (cfiCond94) ?RET_HIGH load(1, XDATA, add(CFA_XSP16, literal(-4)))
          CFI (cfiCond94) ?BRET_EXT load(1, XDATA, add(CFA_XSP16, literal(-3)))
          CFI (cfiCond94) DPL0 load(1, XDATA, add(CFA_XSP16, literal(-2)))
          CFI (cfiCond94) DPH0 load(1, XDATA, add(CFA_XSP16, literal(-1)))
          CFI (cfiCond94) CFA_SP SP+-6
          CFI (cfiCond94) CFA_XSP16 add(XSP16, 12)
          CFI Block cfiCond95 Using cfiCommon0
          CFI (cfiCond95) Function bindAddEntry
          CFI (cfiCond95) Conditional ??CrossCallReturnLabel_62, ??CrossCallReturnLabel_48, ??CrossCallReturnLabel_23
          CFI (cfiCond95) R6 load(1, XDATA, add(CFA_XSP16, literal(-20)))
          CFI (cfiCond95) VB load(1, XDATA, add(CFA_XSP16, literal(-19)))
          CFI (cfiCond95) V0 load(1, XDATA, add(CFA_XSP16, literal(-18)))
          CFI (cfiCond95) V1 load(1, XDATA, add(CFA_XSP16, literal(-17)))
          CFI (cfiCond95) V2 load(1, XDATA, add(CFA_XSP16, literal(-16)))
          CFI (cfiCond95) V3 load(1, XDATA, add(CFA_XSP16, literal(-15)))
          CFI (cfiCond95) V4 load(1, XDATA, add(CFA_XSP16, literal(-14)))
          CFI (cfiCond95) V5 load(1, XDATA, add(CFA_XSP16, literal(-13)))
          CFI (cfiCond95) V6 load(1, XDATA, add(CFA_XSP16, literal(-12)))
          CFI (cfiCond95) V7 load(1, XDATA, add(CFA_XSP16, literal(-11)))
          CFI (cfiCond95) V8 load(1, XDATA, add(CFA_XSP16, literal(-10)))
          CFI (cfiCond95) V9 load(1, XDATA, add(CFA_XSP16, literal(-9)))
          CFI (cfiCond95) V10 load(1, XDATA, add(CFA_XSP16, literal(-8)))
          CFI (cfiCond95) V11 load(1, XDATA, add(CFA_XSP16, literal(-7)))
          CFI (cfiCond95) R7 load(1, XDATA, add(CFA_XSP16, literal(-6)))
          CFI (cfiCond95) ?RET_LOW load(1, XDATA, add(CFA_XSP16, literal(-5)))
          CFI (cfiCond95) ?RET_HIGH load(1, XDATA, add(CFA_XSP16, literal(-4)))
          CFI (cfiCond95) ?BRET_EXT load(1, XDATA, add(CFA_XSP16, literal(-3)))
          CFI (cfiCond95) DPL0 load(1, XDATA, add(CFA_XSP16, literal(-2)))
          CFI (cfiCond95) DPH0 load(1, XDATA, add(CFA_XSP16, literal(-1)))
          CFI (cfiCond95) CFA_SP SP+-6
          CFI (cfiCond95) CFA_XSP16 add(XSP16, 20)
          CFI Block cfiCond96 Using cfiCommon0
          CFI (cfiCond96) Function bindAddressClear
          CFI (cfiCond96) Conditional ??CrossCallReturnLabel_62, ??CrossCallReturnLabel_48, ??CrossCallReturnLabel_24
          CFI (cfiCond96) DPL0 Frame(CFA_SP, 4)
          CFI (cfiCond96) DPH0 Frame(CFA_SP, 5)
          CFI (cfiCond96) CFA_SP SP+-11
          CFI (cfiCond96) CFA_XSP16 add(XSP16, 13)
          CFI Block cfiPicker97 Using cfiCommon1
          CFI (cfiPicker97) NoFunction
          CFI (cfiPicker97) Picker
        ADDC      A,R1
        MOV       DPH,A
        MOVX      A,@DPTR
        RET
          CFI EndBlock cfiCond78
          CFI EndBlock cfiCond79
          CFI EndBlock cfiCond80
          CFI EndBlock cfiCond81
          CFI EndBlock cfiCond82
          CFI EndBlock cfiCond83
          CFI EndBlock cfiCond84
          CFI EndBlock cfiCond85
          CFI EndBlock cfiCond86
          CFI EndBlock cfiCond87
          CFI EndBlock cfiCond88
          CFI EndBlock cfiCond89
          CFI EndBlock cfiCond90
          CFI EndBlock cfiCond91
          CFI EndBlock cfiCond92
          CFI EndBlock cfiCond93
          CFI EndBlock cfiCond94
          CFI EndBlock cfiCond95
          CFI EndBlock cfiCond96
          CFI EndBlock cfiPicker97
//  602 
//  603 /*********************************************************************
//  604  * @fn          bindNumBoundTo
//  605  *
//  606  * @brief       Calculate the number items this device is bound to.
//  607  *              When srcMode is set to TRUE, discard what value devAddr
//  608  *              has, it returns number count bound to the local dev.
//  609  *
//  610  * @param       devAddr - device Address
//  611  * @param       devEP - endpoint
//  612  * @param       srcMode - TRUE - assume devHandle is a source address
//  613  *                        FALSE - destination address
//  614  *
//  615  * @return      status
//  616  */

        RSEG BANKED_CODE:HUGECODE:NOROOT(0)
//  617 byte bindNumBoundTo( zAddrType_t *devAddr, byte devEpInt, byte srcMode )
bindNumBoundTo:
          CFI Block cfiBlock98 Using cfiCommon0
          CFI Function bindNumBoundTo
        CODE
//  618 {
        FUNCALL bindNumBoundTo, bindingAddrMgsHelperFind
        LOCFRAME ISTACK, 0, STACK
        LOCFRAME PSTACK, 0, STACK
        LOCFRAME XSTACK, 14, STACK
        LOCFRAME IOVERLAY, 0, STATIC
        LOCFRAME DOVERLAY, 0, STATIC
        ARGFRAME ISTACK, 0, STACK
        ARGFRAME PSTACK, 0, STACK
        ARGFRAME XSTACK, 14, STACK
        ARGFRAME IOVERLAY, 0, STATIC
        ARGFRAME DOVERLAY, 0, STATIC
        REQUIRE ?V0
        REQUIRE ?V1
        REQUIRE ?V2
        REQUIRE ?V4
        REQUIRE ?V5
        MOV       A,#-0xe
        LCALL     ?BANKED_ENTER_XDATA
          CFI DPH0 load(1, XDATA, add(CFA_XSP16, literal(-1)))
          CFI DPL0 load(1, XDATA, add(CFA_XSP16, literal(-2)))
          CFI ?BRET_EXT load(1, XDATA, add(CFA_XSP16, literal(-3)))
          CFI ?RET_HIGH load(1, XDATA, add(CFA_XSP16, literal(-4)))
          CFI ?RET_LOW load(1, XDATA, add(CFA_XSP16, literal(-5)))
          CFI R7 load(1, XDATA, add(CFA_XSP16, literal(-6)))
          CFI V5 load(1, XDATA, add(CFA_XSP16, literal(-7)))
          CFI V4 load(1, XDATA, add(CFA_XSP16, literal(-8)))
          CFI V3 load(1, XDATA, add(CFA_XSP16, literal(-9)))
          CFI V2 load(1, XDATA, add(CFA_XSP16, literal(-10)))
          CFI V1 load(1, XDATA, add(CFA_XSP16, literal(-11)))
          CFI V0 load(1, XDATA, add(CFA_XSP16, literal(-12)))
          CFI VB load(1, XDATA, add(CFA_XSP16, literal(-13)))
          CFI R6 load(1, XDATA, add(CFA_XSP16, literal(-14)))
          CFI CFA_SP SP+0
          CFI CFA_XSP16 add(XSP16, 14)
        ; Saved register size: 14
        ; Auto size: 0
        MOV       A,R2
        MOV       R6,A
        MOV       A,R3
        MOV       R7,A
        MOV       ?V1,R1
        MOV       ?V2,R4
//  619   BindingEntry_t *pBind;
//  620   uint16 idx;
//  621   byte   num;
//  622   bindTableIndex_t x;
//  623 
//  624   // Init
//  625   num = 0;
        MOV       ?V0,#0x0
//  626 
//  627   if ( devAddr->addrMode == AddrGroup )
        MOV       DPL,R6
        MOV       DPH,R7
        INC       DPTR
        INC       DPTR
        INC       DPTR
        INC       DPTR
        INC       DPTR
        INC       DPTR
        INC       DPTR
        INC       DPTR
        MOVX      A,@DPTR
        XRL       A,#0x1
        JNZ       ??bindNumBoundTo_0
//  628   {
//  629     idx = devAddr->addr.shortAddr;
        MOV       DPL,R6
        MOV       DPH,R7
        LCALL     ??Subroutine42_0 & 0xFFFF
//  630   }
??CrossCallReturnLabel_73:
        SJMP      ??bindNumBoundTo_1
//  631   else
//  632   {
//  633     idx = bindingAddrMgsHelperFind( devAddr );
??bindNumBoundTo_0:
        ; Setup parameters for call to function bindingAddrMgsHelperFind
        LCALL     `??bindingAddrMgsHelperFind::?relay`; Banked call to: bindingAddrMgsHelperFind
//  634   }
//  635 
//  636   for ( x = 0; x < gNWK_MAX_BINDING_ENTRIES; x++ )
??bindNumBoundTo_1:
        MOV       R4,#0x0
        SJMP      ??bindNumBoundTo_2
//  637   {
//  638     pBind = &BindingTable[x];
//  639     if ( srcMode )
//  640     {
//  641       if ( pBind->srcEP == devEpInt )
//  642       {
//  643         num++;
//  644       }
//  645     }
//  646     else
//  647     {
//  648       if ( ((devAddr->addrMode == AddrGroup)
//  649               && (pBind->dstGroupMode == DSTGROUPMODE_GROUP) && (pBind->dstIdx == idx))
//  650           || ((devAddr->addrMode != AddrGroup) && (pBind->dstGroupMode == DSTGROUPMODE_ADDR)
//  651                                 && (pBind->dstIdx == idx) && (pBind->dstEP == devEpInt)) )
??bindNumBoundTo_3:
        MOVX      A,@DPTR
        JNZ       ??bindNumBoundTo_4
        MOV       DPL,R0
        MOV       DPH,R1
        INC       DPTR
        INC       DPTR
        MOVX      A,@DPTR
        XRL       A,R2
        JNZ       ??bindNumBoundTo_5
        INC       DPTR
        MOVX      A,@DPTR
        XRL       A,R3
??bindNumBoundTo_5:
        JNZ       ??bindNumBoundTo_4
        MOV       DPL,R0
        MOV       DPH,R1
        INC       DPTR
        INC       DPTR
        INC       DPTR
        INC       DPTR
        MOVX      A,@DPTR
        XRL       A,?V1
        JNZ       ??bindNumBoundTo_4
//  652       {
//  653         num++;
??bindNumBoundTo_6:
        INC       ?V0
//  654       }
??bindNumBoundTo_4:
        INC       R4
??bindNumBoundTo_2:
        MOV       DPTR,#gNWK_MAX_BINDING_ENTRIES
        CLR       A
        MOVC      A,@A+DPTR
        MOV       R0,A
        MOV       A,R4
        CLR       C
        SUBB      A,R0
        JNC       ??bindNumBoundTo_7
        MOV       A,R4
        LCALL     ?Subroutine17 & 0xFFFF
??CrossCallReturnLabel_71:
        MOV       A,?V2
        JZ        ??bindNumBoundTo_8
        MOV       DPL,R0
        MOV       DPH,R1
        MOVX      A,@DPTR
        XRL       A,?V1
        JNZ       ??bindNumBoundTo_4
        SJMP      ??bindNumBoundTo_6
??bindNumBoundTo_8:
        MOV       DPL,R6
        MOV       DPH,R7
        INC       DPTR
        INC       DPTR
        INC       DPTR
        INC       DPTR
        INC       DPTR
        INC       DPTR
        INC       DPTR
        INC       DPTR
        MOVX      A,@DPTR
        XRL       A,#0x1
        MOV       DPL,R0
        MOV       DPH,R1
        INC       DPTR
        JNZ       ??bindNumBoundTo_3
        MOVX      A,@DPTR
        XRL       A,#0x1
        JNZ       ??bindNumBoundTo_4
        MOV       DPL,R0
        MOV       DPH,R1
        INC       DPTR
        INC       DPTR
        MOVX      A,@DPTR
        XRL       A,R2
        JNZ       ??bindNumBoundTo_9
        INC       DPTR
        MOVX      A,@DPTR
        XRL       A,R3
??bindNumBoundTo_9:
        JZ        ??bindNumBoundTo_6
        SJMP      ??bindNumBoundTo_4
//  655     }
//  656   }
//  657 
//  658   return num;
??bindNumBoundTo_7:
        MOV       R1,?V0
        SJMP      ??Subroutine38_0
//  659 }
          CFI EndBlock cfiBlock98

        RSEG BANKED_CODE:HUGECODE:NOROOT(0)
?Subroutine17:
          CFI Block cfiCond99 Using cfiCommon0
          CFI Function bindNumBoundTo
          CFI Conditional ??CrossCallReturnLabel_71
          CFI R6 load(1, XDATA, add(CFA_XSP16, literal(-14)))
          CFI VB load(1, XDATA, add(CFA_XSP16, literal(-13)))
          CFI V0 load(1, XDATA, add(CFA_XSP16, literal(-12)))
          CFI V1 load(1, XDATA, add(CFA_XSP16, literal(-11)))
          CFI V2 load(1, XDATA, add(CFA_XSP16, literal(-10)))
          CFI V3 load(1, XDATA, add(CFA_XSP16, literal(-9)))
          CFI V4 load(1, XDATA, add(CFA_XSP16, literal(-8)))
          CFI V5 load(1, XDATA, add(CFA_XSP16, literal(-7)))
          CFI R7 load(1, XDATA, add(CFA_XSP16, literal(-6)))
          CFI ?RET_LOW load(1, XDATA, add(CFA_XSP16, literal(-5)))
          CFI ?RET_HIGH load(1, XDATA, add(CFA_XSP16, literal(-4)))
          CFI ?BRET_EXT load(1, XDATA, add(CFA_XSP16, literal(-3)))
          CFI DPL0 load(1, XDATA, add(CFA_XSP16, literal(-2)))
          CFI DPH0 load(1, XDATA, add(CFA_XSP16, literal(-1)))
          CFI CFA_SP SP+-2
          CFI CFA_XSP16 add(XSP16, 14)
          CFI Block cfiCond100 Using cfiCommon0
          CFI (cfiCond100) Function bindUpdateAddr
          CFI (cfiCond100) Conditional ??CrossCallReturnLabel_72
          CFI (cfiCond100) R6 load(1, XDATA, add(CFA_XSP16, literal(-12)))
          CFI (cfiCond100) VB load(1, XDATA, add(CFA_XSP16, literal(-11)))
          CFI (cfiCond100) V0 load(1, XDATA, add(CFA_XSP16, literal(-10)))
          CFI (cfiCond100) V1 load(1, XDATA, add(CFA_XSP16, literal(-9)))
          CFI (cfiCond100) V2 load(1, XDATA, add(CFA_XSP16, literal(-8)))
          CFI (cfiCond100) V3 load(1, XDATA, add(CFA_XSP16, literal(-7)))
          CFI (cfiCond100) R7 load(1, XDATA, add(CFA_XSP16, literal(-6)))
          CFI (cfiCond100) ?RET_LOW load(1, XDATA, add(CFA_XSP16, literal(-5)))
          CFI (cfiCond100) ?RET_HIGH load(1, XDATA, add(CFA_XSP16, literal(-4)))
          CFI (cfiCond100) ?BRET_EXT load(1, XDATA, add(CFA_XSP16, literal(-3)))
          CFI (cfiCond100) DPL0 load(1, XDATA, add(CFA_XSP16, literal(-2)))
          CFI (cfiCond100) DPH0 load(1, XDATA, add(CFA_XSP16, literal(-1)))
          CFI (cfiCond100) CFA_SP SP+-2
          CFI (cfiCond100) CFA_XSP16 add(XSP16, 21)
          CFI Block cfiPicker101 Using cfiCommon1
          CFI (cfiPicker101) NoFunction
          CFI (cfiPicker101) Picker
        MOV       B,#0xe
        MUL       AB
        MOV       R0,A
        MOV       R1,B
          CFI EndBlock cfiCond99
          CFI EndBlock cfiCond100
          CFI EndBlock cfiPicker101
        REQUIRE ??Subroutine37_0
        ; // Fall through to label ??Subroutine37_0

        RSEG BANKED_CODE:HUGECODE:NOROOT(0)
??Subroutine37_0:
          CFI Block cfiCond102 Using cfiCommon0
          CFI Function GetBindingTableEntry
          CFI Conditional ??CrossCallReturnLabel_70
          CFI R6 load(1, XDATA, add(CFA_XSP16, literal(-9)))
          CFI VB load(1, XDATA, add(CFA_XSP16, literal(-8)))
          CFI V0 load(1, XDATA, add(CFA_XSP16, literal(-7)))
          CFI R7 load(1, XDATA, add(CFA_XSP16, literal(-6)))
          CFI ?RET_LOW load(1, XDATA, add(CFA_XSP16, literal(-5)))
          CFI ?RET_HIGH load(1, XDATA, add(CFA_XSP16, literal(-4)))
          CFI ?BRET_EXT load(1, XDATA, add(CFA_XSP16, literal(-3)))
          CFI DPL0 load(1, XDATA, add(CFA_XSP16, literal(-2)))
          CFI DPH0 load(1, XDATA, add(CFA_XSP16, literal(-1)))
          CFI CFA_SP SP+-2
          CFI CFA_XSP16 add(XSP16, 9)
          CFI Block cfiCond103 Using cfiCommon0
          CFI (cfiCond103) Function bindNumBoundTo
          CFI (cfiCond103) Conditional ??CrossCallReturnLabel_71
          CFI (cfiCond103) R6 load(1, XDATA, add(CFA_XSP16, literal(-14)))
          CFI (cfiCond103) VB load(1, XDATA, add(CFA_XSP16, literal(-13)))
          CFI (cfiCond103) V0 load(1, XDATA, add(CFA_XSP16, literal(-12)))
          CFI (cfiCond103) V1 load(1, XDATA, add(CFA_XSP16, literal(-11)))
          CFI (cfiCond103) V2 load(1, XDATA, add(CFA_XSP16, literal(-10)))
          CFI (cfiCond103) V3 load(1, XDATA, add(CFA_XSP16, literal(-9)))
          CFI (cfiCond103) V4 load(1, XDATA, add(CFA_XSP16, literal(-8)))
          CFI (cfiCond103) V5 load(1, XDATA, add(CFA_XSP16, literal(-7)))
          CFI (cfiCond103) R7 load(1, XDATA, add(CFA_XSP16, literal(-6)))
          CFI (cfiCond103) ?RET_LOW load(1, XDATA, add(CFA_XSP16, literal(-5)))
          CFI (cfiCond103) ?RET_HIGH load(1, XDATA, add(CFA_XSP16, literal(-4)))
          CFI (cfiCond103) ?BRET_EXT load(1, XDATA, add(CFA_XSP16, literal(-3)))
          CFI (cfiCond103) DPL0 load(1, XDATA, add(CFA_XSP16, literal(-2)))
          CFI (cfiCond103) DPH0 load(1, XDATA, add(CFA_XSP16, literal(-1)))
          CFI (cfiCond103) CFA_SP SP+-2
          CFI (cfiCond103) CFA_XSP16 add(XSP16, 14)
          CFI Block cfiCond104 Using cfiCommon0
          CFI (cfiCond104) Function bindUpdateAddr
          CFI (cfiCond104) Conditional ??CrossCallReturnLabel_72
          CFI (cfiCond104) R6 load(1, XDATA, add(CFA_XSP16, literal(-12)))
          CFI (cfiCond104) VB load(1, XDATA, add(CFA_XSP16, literal(-11)))
          CFI (cfiCond104) V0 load(1, XDATA, add(CFA_XSP16, literal(-10)))
          CFI (cfiCond104) V1 load(1, XDATA, add(CFA_XSP16, literal(-9)))
          CFI (cfiCond104) V2 load(1, XDATA, add(CFA_XSP16, literal(-8)))
          CFI (cfiCond104) V3 load(1, XDATA, add(CFA_XSP16, literal(-7)))
          CFI (cfiCond104) R7 load(1, XDATA, add(CFA_XSP16, literal(-6)))
          CFI (cfiCond104) ?RET_LOW load(1, XDATA, add(CFA_XSP16, literal(-5)))
          CFI (cfiCond104) ?RET_HIGH load(1, XDATA, add(CFA_XSP16, literal(-4)))
          CFI (cfiCond104) ?BRET_EXT load(1, XDATA, add(CFA_XSP16, literal(-3)))
          CFI (cfiCond104) DPL0 load(1, XDATA, add(CFA_XSP16, literal(-2)))
          CFI (cfiCond104) DPH0 load(1, XDATA, add(CFA_XSP16, literal(-1)))
          CFI (cfiCond104) CFA_SP SP+-2
          CFI (cfiCond104) CFA_XSP16 add(XSP16, 21)
          CFI Block cfiPicker105 Using cfiCommon1
          CFI (cfiPicker105) NoFunction
          CFI (cfiPicker105) Picker
        MOV       A,#BindingTable & 0xff
        ADD       A,R0
        MOV       R0,A
        MOV       A,#(BindingTable >> 8) & 0xff
        ADDC      A,R1
        MOV       R1,A
        RET
          CFI EndBlock cfiCond102
          CFI EndBlock cfiCond103
          CFI EndBlock cfiCond104
          CFI EndBlock cfiPicker105

        RSEG BANKED_CODE:HUGECODE:NOROOT(0)
?Subroutine4:
          CFI Block cfiBlock106 Using cfiCommon0
          CFI NoFunction
          CFI CFA_SP SP+0
          CFI CFA_XSP16 add(XSP16, 32)
          CFI VB load(1, XDATA, add(CFA_XSP16, literal(-13)))
          CFI DPL0 load(1, XDATA, add(CFA_XSP16, literal(-2)))
          CFI DPH0 load(1, XDATA, add(CFA_XSP16, literal(-1)))
          CFI R6 load(1, XDATA, add(CFA_XSP16, literal(-14)))
          CFI R7 load(1, XDATA, add(CFA_XSP16, literal(-6)))
          CFI V0 load(1, XDATA, add(CFA_XSP16, literal(-12)))
          CFI V1 load(1, XDATA, add(CFA_XSP16, literal(-11)))
          CFI V2 load(1, XDATA, add(CFA_XSP16, literal(-10)))
          CFI V3 load(1, XDATA, add(CFA_XSP16, literal(-9)))
          CFI V4 load(1, XDATA, add(CFA_XSP16, literal(-8)))
          CFI V5 load(1, XDATA, add(CFA_XSP16, literal(-7)))
          CFI ?BRET_EXT load(1, XDATA, add(CFA_XSP16, literal(-3)))
          CFI ?RET_HIGH load(1, XDATA, add(CFA_XSP16, literal(-4)))
          CFI ?RET_LOW load(1, XDATA, add(CFA_XSP16, literal(-5)))
          CFI Invalid
        LCALL     ?DEALLOC_XSTACK8
          CFI EndBlock cfiBlock106
        REQUIRE ??Subroutine38_0
        ; // Fall through to label ??Subroutine38_0

        RSEG BANKED_CODE:HUGECODE:NOROOT(0)
??Subroutine38_0:
          CFI Block cfiBlock107 Using cfiCommon0
          CFI NoFunction
          CFI CFA_SP SP+0
          CFI CFA_XSP16 add(XSP16, 14)
          CFI VB load(1, XDATA, add(CFA_XSP16, literal(-13)))
          CFI DPL0 load(1, XDATA, add(CFA_XSP16, literal(-2)))
          CFI DPH0 load(1, XDATA, add(CFA_XSP16, literal(-1)))
          CFI R6 load(1, XDATA, add(CFA_XSP16, literal(-14)))
          CFI R7 load(1, XDATA, add(CFA_XSP16, literal(-6)))
          CFI V0 load(1, XDATA, add(CFA_XSP16, literal(-12)))
          CFI V1 load(1, XDATA, add(CFA_XSP16, literal(-11)))
          CFI V2 load(1, XDATA, add(CFA_XSP16, literal(-10)))
          CFI V3 load(1, XDATA, add(CFA_XSP16, literal(-9)))
          CFI V4 load(1, XDATA, add(CFA_XSP16, literal(-8)))
          CFI V5 load(1, XDATA, add(CFA_XSP16, literal(-7)))
          CFI ?BRET_EXT load(1, XDATA, add(CFA_XSP16, literal(-3)))
          CFI ?RET_HIGH load(1, XDATA, add(CFA_XSP16, literal(-4)))
          CFI ?RET_LOW load(1, XDATA, add(CFA_XSP16, literal(-5)))
        MOV       R7,#0x6
        LJMP      ?BANKED_LEAVE_XDATA
          CFI EndBlock cfiBlock107
//  660 
//  661 /*********************************************************************
//  662  * @fn          bindNumReflections
//  663  *
//  664  * @brief       Counts the number of reflections needed for a
//  665  *              endpoint and cluster ID combo.
//  666  *
//  667  * @param       ep - source endpoint
//  668  * @param       clusterID - matching clusterID
//  669  *
//  670  * @return      number of reflections needed.
//  671  */

        RSEG BANKED_CODE:HUGECODE:NOROOT(0)
//  672 uint16 bindNumReflections( uint8 ep, uint16 clusterID )
bindNumReflections:
          CFI Block cfiBlock108 Using cfiCommon0
          CFI Function bindNumReflections
        CODE
//  673 {
        FUNCALL bindNumReflections, bindIsClusterIDinList
        LOCFRAME ISTACK, 0, STACK
        LOCFRAME PSTACK, 0, STACK
        LOCFRAME XSTACK, 12, STACK
        LOCFRAME IOVERLAY, 0, STATIC
        LOCFRAME DOVERLAY, 0, STATIC
        ARGFRAME ISTACK, 0, STACK
        ARGFRAME PSTACK, 0, STACK
        ARGFRAME XSTACK, 12, STACK
        ARGFRAME IOVERLAY, 0, STATIC
        ARGFRAME DOVERLAY, 0, STATIC
        REQUIRE ?V0
        REQUIRE ?V1
        REQUIRE ?V2
        REQUIRE ?V3
        MOV       A,#-0xc
        LCALL     ?BANKED_ENTER_XDATA
          CFI DPH0 load(1, XDATA, add(CFA_XSP16, literal(-1)))
          CFI DPL0 load(1, XDATA, add(CFA_XSP16, literal(-2)))
          CFI ?BRET_EXT load(1, XDATA, add(CFA_XSP16, literal(-3)))
          CFI ?RET_HIGH load(1, XDATA, add(CFA_XSP16, literal(-4)))
          CFI ?RET_LOW load(1, XDATA, add(CFA_XSP16, literal(-5)))
          CFI R7 load(1, XDATA, add(CFA_XSP16, literal(-6)))
          CFI V3 load(1, XDATA, add(CFA_XSP16, literal(-7)))
          CFI V2 load(1, XDATA, add(CFA_XSP16, literal(-8)))
          CFI V1 load(1, XDATA, add(CFA_XSP16, literal(-9)))
          CFI V0 load(1, XDATA, add(CFA_XSP16, literal(-10)))
          CFI VB load(1, XDATA, add(CFA_XSP16, literal(-11)))
          CFI R6 load(1, XDATA, add(CFA_XSP16, literal(-12)))
          CFI CFA_SP SP+0
          CFI CFA_XSP16 add(XSP16, 12)
        ; Saved register size: 12
        ; Auto size: 0
        MOV       ?V3,R1
        MOV       ?V0,R2
        MOV       ?V1,R3
//  674   bindTableIndex_t x;
//  675   BindingEntry_t *pBind;
//  676   uint16 cnt = 0;
        MOV       R6,#0x0
        MOV       R7,#0x0
//  677   uint8 bindEP;
//  678 
//  679   for ( x = 0; x < gNWK_MAX_BINDING_ENTRIES; x++ )
        MOV       ?V2,#0x0
        SJMP      ??bindNumReflections_0
//  680   {
//  681     pBind = &BindingTable[x];
??bindNumReflections_1:
        MOV       A,?V2
        LCALL     ?Subroutine10 & 0xFFFF
//  682     bindEP = pBind->srcEP;
//  683 
//  684     if ( (bindEP == ep) && (bindIsClusterIDinList( pBind, clusterID )) )
??CrossCallReturnLabel_8:
        XRL       A,?V3
        JNZ       ??bindNumReflections_2
        ; Setup parameters for call to function bindIsClusterIDinList
        MOV       R4,?V0
        MOV       R5,?V1
        MOV       R2,DPL
        MOV       R3,DPH
        LCALL     `??bindIsClusterIDinList::?relay`; Banked call to: bindIsClusterIDinList
        MOV       A,R1
        JZ        ??bindNumReflections_2
//  685     {
//  686       cnt++;
        INC       R6
        MOV       A,R6
        JNZ       ??bindNumReflections_2
        INC       R7
//  687     }
//  688   }
??bindNumReflections_2:
        INC       ?V2
??bindNumReflections_0:
        MOV       DPTR,#gNWK_MAX_BINDING_ENTRIES
        CLR       A
        MOVC      A,@A+DPTR
        MOV       R0,A
        MOV       A,?V2
        CLR       C
        SUBB      A,R0
        JC        ??bindNumReflections_1
//  689 
//  690   return ( cnt );
        MOV       A,R6
        MOV       R2,A
        MOV       A,R7
        MOV       R3,A
        LJMP      ??Subroutine36_0 & 0xFFFF
//  691 }
          CFI EndBlock cfiBlock108
//  692 
//  693 /*********************************************************************
//  694  * @fn          bindFind
//  695  *
//  696  * @brief       Finds the binding entry for the source address, endpoint
//  697  *              and cluster ID passed in as a parameter.
//  698  *
//  699  * @param       ep - source endpoint
//  700  * @param       clusterID - matching clusterID
//  701  * @param       skip - number of matches to skip before returning
//  702  *
//  703  * @return      pointer to the binding table entry, NULL if not found
//  704  */

        RSEG BANKED_CODE:HUGECODE:NOROOT(0)
//  705 BindingEntry_t *bindFind( uint8 ep, uint16 clusterID, uint8 skipping )
bindFind:
          CFI Block cfiBlock109 Using cfiCommon0
          CFI Function bindFind
        CODE
//  706 {
        FUNCALL bindFind, bindIsClusterIDinList
        LOCFRAME ISTACK, 0, STACK
        LOCFRAME PSTACK, 0, STACK
        LOCFRAME XSTACK, 14, STACK
        LOCFRAME IOVERLAY, 0, STATIC
        LOCFRAME DOVERLAY, 0, STATIC
        ARGFRAME ISTACK, 0, STACK
        ARGFRAME PSTACK, 0, STACK
        ARGFRAME XSTACK, 14, STACK
        ARGFRAME IOVERLAY, 0, STATIC
        ARGFRAME DOVERLAY, 0, STATIC
        REQUIRE ?V0
        REQUIRE ?V1
        REQUIRE ?V2
        REQUIRE ?V3
        REQUIRE ?V4
        REQUIRE ?V5
        MOV       A,#-0xe
        LCALL     ?BANKED_ENTER_XDATA
          CFI DPH0 load(1, XDATA, add(CFA_XSP16, literal(-1)))
          CFI DPL0 load(1, XDATA, add(CFA_XSP16, literal(-2)))
          CFI ?BRET_EXT load(1, XDATA, add(CFA_XSP16, literal(-3)))
          CFI ?RET_HIGH load(1, XDATA, add(CFA_XSP16, literal(-4)))
          CFI ?RET_LOW load(1, XDATA, add(CFA_XSP16, literal(-5)))
          CFI R7 load(1, XDATA, add(CFA_XSP16, literal(-6)))
          CFI V5 load(1, XDATA, add(CFA_XSP16, literal(-7)))
          CFI V4 load(1, XDATA, add(CFA_XSP16, literal(-8)))
          CFI V3 load(1, XDATA, add(CFA_XSP16, literal(-9)))
          CFI V2 load(1, XDATA, add(CFA_XSP16, literal(-10)))
          CFI V1 load(1, XDATA, add(CFA_XSP16, literal(-11)))
          CFI V0 load(1, XDATA, add(CFA_XSP16, literal(-12)))
          CFI VB load(1, XDATA, add(CFA_XSP16, literal(-13)))
          CFI R6 load(1, XDATA, add(CFA_XSP16, literal(-14)))
          CFI CFA_SP SP+0
          CFI CFA_XSP16 add(XSP16, 14)
        ; Saved register size: 14
        ; Auto size: 0
        MOV       ?V4,R1
        MOV       ?V0,R2
        MOV       ?V1,R3
        MOV       ?V5,R4
//  707   BindingEntry_t *pBind;
//  708   byte skipped = 0;
        MOV       ?V2,#0x0
//  709   bindTableIndex_t x;
//  710 
//  711   for ( x = 0; x < gNWK_MAX_BINDING_ENTRIES; x++ )
        MOV       ?V3,#0x0
        SJMP      ??bindFind_0
//  712   {
//  713     pBind = &BindingTable[x];
//  714 
//  715     if ( ( pBind->srcEP == ep) && bindIsClusterIDinList( pBind, clusterID ))
//  716     {
//  717       if ( skipped < skipping )
//  718       {
//  719         skipped++;
??bindFind_1:
        INC       ?V2
//  720       }
??bindFind_2:
        INC       ?V3
??bindFind_0:
        MOV       DPTR,#gNWK_MAX_BINDING_ENTRIES
        CLR       A
        MOVC      A,@A+DPTR
        MOV       R0,A
        MOV       A,?V3
        CLR       C
        SUBB      A,R0
        JNC       ??bindFind_3
        MOV       A,?V3
        MOV       B,#0xe
        MUL       AB
        MOV       R0,A
        MOV       R1,B
        MOV       A,#BindingTable & 0xff
        ADD       A,R0
        MOV       R6,A
        MOV       A,#(BindingTable >> 8) & 0xff
        ADDC      A,R1
        MOV       R7,A
        MOV       DPL,R6
        MOV       DPH,R7
        MOVX      A,@DPTR
        XRL       A,?V4
        JNZ       ??bindFind_2
        ; Setup parameters for call to function bindIsClusterIDinList
        MOV       R4,?V0
        MOV       R5,?V1
        MOV       A,R6
        MOV       R2,A
        MOV       A,R7
        MOV       R3,A
        LCALL     `??bindIsClusterIDinList::?relay`; Banked call to: bindIsClusterIDinList
        MOV       A,R1
        JZ        ??bindFind_2
        MOV       A,?V2
        CLR       C
        SUBB      A,?V5
        JC        ??bindFind_1
//  721       else
//  722       {
//  723         return ( pBind );
        MOV       A,R6
        MOV       R2,A
        MOV       A,R7
        MOV       R3,A
        SJMP      ??bindFind_4
//  724       }
//  725     }
//  726   }
//  727 
//  728   return ( (BindingEntry_t *)NULL );
??bindFind_3:
        MOV       R2,#0x0
        MOV       R3,#0x0
??bindFind_4:
        LJMP      ??Subroutine38_0 & 0xFFFF
//  729 }
          CFI EndBlock cfiBlock109
//  730 
//  731 /*********************************************************************
//  732  * @fn      bindAddressClear
//  733  *
//  734  * @brief   Lookup a binding entry by specific Idx, if none is found
//  735  *          clears the BINDING user from Address Manager.
//  736  *
//  737  * @param   dstIdx - Source Address Manager Index
//  738  *
//  739  * @return  none
//  740  */

        RSEG BANKED_CODE:HUGECODE:NOROOT(0)
//  741 void bindAddressClear( uint16 dstIdx )
bindAddressClear:
          CFI Block cfiBlock110 Using cfiCommon0
          CFI Function bindAddressClear
        CODE
//  742 {
        FUNCALL bindAddressClear, AddrMgrEntryRelease
        LOCFRAME ISTACK, 2, STACK
        LOCFRAME PSTACK, 0, STACK
        LOCFRAME XSTACK, 13, STACK
        LOCFRAME IOVERLAY, 0, STATIC
        LOCFRAME DOVERLAY, 0, STATIC
        ARGFRAME ISTACK, 2, STACK
        ARGFRAME PSTACK, 0, STACK
        ARGFRAME XSTACK, 13, STACK
        ARGFRAME IOVERLAY, 0, STATIC
        ARGFRAME DOVERLAY, 0, STATIC
        PUSH      DPL
          CFI DPL0 Frame(CFA_SP, 4)
          CFI CFA_SP SP+-4
        PUSH      DPH
          CFI DPH0 Frame(CFA_SP, 5)
          CFI CFA_SP SP+-5
        ; Saved register size: 2
        ; Auto size: 13
        MOV       A,#-0xd
        LCALL     ?ALLOC_XSTACK8
          CFI CFA_XSP16 add(XSP16, 13)
//  743   bindTableIndex_t i;
//  744 
//  745   if ( dstIdx != INVALID_NODE_ADDR )
        MOV       A,#-0x2
        XRL       A,R2
        JNZ       ??bindAddressClear_0
        MOV       A,#-0x1
        XRL       A,R3
??bindAddressClear_0:
        JZ        ??bindAddressClear_1
//  746   {
//  747     // Looks for a specific Idx
//  748     for ( i = 0; i < gNWK_MAX_BINDING_ENTRIES; i++ )
        MOV       R4,#0x0
        SJMP      ??bindAddressClear_2
//  749     {
//  750       if ( ( BindingTable[i].dstGroupMode != AddrGroup ) &&
//  751            ( BindingTable[i].dstGroupMode == DSTGROUPMODE_ADDR ) &&
//  752            ( BindingTable[i].dstIdx == dstIdx ) )
??bindAddressClear_3:
        MOV       A,R4
        LCALL     ?Subroutine11 & 0xFFFF
//  753       {
//  754         break;  // found at least one
//  755       }
//  756     }
??CrossCallReturnLabel_12:
        JZ        ??bindAddressClear_4
        MOVX      A,@DPTR
        JNZ       ??bindAddressClear_4
        LCALL     ?Subroutine16 & 0xFFFF
??CrossCallReturnLabel_24:
        XRL       A,R2
        JNZ       ??bindAddressClear_5
        INC       DPTR
        MOVX      A,@DPTR
        XRL       A,R3
??bindAddressClear_5:
        JZ        ??bindAddressClear_1
??bindAddressClear_4:
        INC       R4
??bindAddressClear_2:
        MOV       DPTR,#gNWK_MAX_BINDING_ENTRIES
        CLR       A
        MOVC      A,@A+DPTR
        MOV       R0,A
        MOV       A,R4
        CLR       C
        SUBB      A,R0
        JC        ??bindAddressClear_3
//  757 
//  758     if ( i == gNWK_MAX_BINDING_ENTRIES )
        CLR       A
        MOVC      A,@A+DPTR
        XRL       A,R4
        JNZ       ??bindAddressClear_1
//  759     {
//  760       // No binding entry is associated with dstIdx.
//  761       // Remove user binding bit from the address manager entry corresponding to dstIdx.
//  762       AddrMgrEntry_t addrEntry;
//  763 
//  764       addrEntry.user = ADDRMGR_USER_BINDING;
        MOV       DPL,?XSP + 0
        MOV       DPH,?XSP + 1
        MOV       A,#0x4
        MOVX      @DPTR,A
//  765       addrEntry.index = dstIdx;
        MOV       A,#0xb
        LCALL     ?XSTACK_DISP0_8
        LCALL     ?Subroutine18 & 0xFFFF
//  766 
//  767       AddrMgrEntryRelease( &addrEntry );
//  768     }
//  769   }
??CrossCallReturnLabel_25:
        LCALL     `??AddrMgrEntryRelease::?relay`; Banked call to: AddrMgrEntryRelease
//  770 }
??bindAddressClear_1:
        SJMP      ??Subroutine40_0
          CFI EndBlock cfiBlock110

        RSEG BANKED_CODE:HUGECODE:NOROOT(0)
?Subroutine16:
          CFI Block cfiCond111 Using cfiCommon0
          CFI Function bindAddEntry
          CFI Conditional ??CrossCallReturnLabel_23
          CFI R6 load(1, XDATA, add(CFA_XSP16, literal(-20)))
          CFI VB load(1, XDATA, add(CFA_XSP16, literal(-19)))
          CFI V0 load(1, XDATA, add(CFA_XSP16, literal(-18)))
          CFI V1 load(1, XDATA, add(CFA_XSP16, literal(-17)))
          CFI V2 load(1, XDATA, add(CFA_XSP16, literal(-16)))
          CFI V3 load(1, XDATA, add(CFA_XSP16, literal(-15)))
          CFI V4 load(1, XDATA, add(CFA_XSP16, literal(-14)))
          CFI V5 load(1, XDATA, add(CFA_XSP16, literal(-13)))
          CFI V6 load(1, XDATA, add(CFA_XSP16, literal(-12)))
          CFI V7 load(1, XDATA, add(CFA_XSP16, literal(-11)))
          CFI V8 load(1, XDATA, add(CFA_XSP16, literal(-10)))
          CFI V9 load(1, XDATA, add(CFA_XSP16, literal(-9)))
          CFI V10 load(1, XDATA, add(CFA_XSP16, literal(-8)))
          CFI V11 load(1, XDATA, add(CFA_XSP16, literal(-7)))
          CFI R7 load(1, XDATA, add(CFA_XSP16, literal(-6)))
          CFI ?RET_LOW load(1, XDATA, add(CFA_XSP16, literal(-5)))
          CFI ?RET_HIGH load(1, XDATA, add(CFA_XSP16, literal(-4)))
          CFI ?BRET_EXT load(1, XDATA, add(CFA_XSP16, literal(-3)))
          CFI DPL0 load(1, XDATA, add(CFA_XSP16, literal(-2)))
          CFI DPH0 load(1, XDATA, add(CFA_XSP16, literal(-1)))
          CFI CFA_SP SP+-2
          CFI CFA_XSP16 add(XSP16, 20)
          CFI Block cfiCond112 Using cfiCommon0
          CFI (cfiCond112) Function bindAddressClear
          CFI (cfiCond112) Conditional ??CrossCallReturnLabel_24
          CFI (cfiCond112) DPL0 Frame(CFA_SP, 4)
          CFI (cfiCond112) DPH0 Frame(CFA_SP, 5)
          CFI (cfiCond112) CFA_SP SP+-7
          CFI (cfiCond112) CFA_XSP16 add(XSP16, 13)
          CFI Block cfiPicker113 Using cfiCommon1
          CFI (cfiPicker113) NoFunction
          CFI (cfiPicker113) Picker
        LCALL     ?Subroutine29 & 0xFFFF
??CrossCallReturnLabel_48:
        RET
          CFI EndBlock cfiCond111
          CFI EndBlock cfiCond112
          CFI EndBlock cfiPicker113

        RSEG BANKED_CODE:HUGECODE:NOROOT(0)
?Subroutine29:
          CFI Block cfiCond114 Using cfiCommon0
          CFI Function bindRemoveDev
          CFI Conditional ??CrossCallReturnLabel_47, ??CrossCallReturnLabel_13
          CFI R6 load(1, XDATA, add(CFA_XSP16, literal(-12)))
          CFI VB load(1, XDATA, add(CFA_XSP16, literal(-11)))
          CFI V0 load(1, XDATA, add(CFA_XSP16, literal(-10)))
          CFI V1 load(1, XDATA, add(CFA_XSP16, literal(-9)))
          CFI V2 load(1, XDATA, add(CFA_XSP16, literal(-8)))
          CFI V3 load(1, XDATA, add(CFA_XSP16, literal(-7)))
          CFI R7 load(1, XDATA, add(CFA_XSP16, literal(-6)))
          CFI ?RET_LOW load(1, XDATA, add(CFA_XSP16, literal(-5)))
          CFI ?RET_HIGH load(1, XDATA, add(CFA_XSP16, literal(-4)))
          CFI ?BRET_EXT load(1, XDATA, add(CFA_XSP16, literal(-3)))
          CFI DPL0 load(1, XDATA, add(CFA_XSP16, literal(-2)))
          CFI DPH0 load(1, XDATA, add(CFA_XSP16, literal(-1)))
          CFI CFA_SP SP+-4
          CFI CFA_XSP16 add(XSP16, 12)
          CFI Block cfiCond115 Using cfiCommon0
          CFI (cfiCond115) Function bindRemoveDev
          CFI (cfiCond115) Conditional ??CrossCallReturnLabel_47, ??CrossCallReturnLabel_14
          CFI (cfiCond115) R6 load(1, XDATA, add(CFA_XSP16, literal(-12)))
          CFI (cfiCond115) VB load(1, XDATA, add(CFA_XSP16, literal(-11)))
          CFI (cfiCond115) V0 load(1, XDATA, add(CFA_XSP16, literal(-10)))
          CFI (cfiCond115) V1 load(1, XDATA, add(CFA_XSP16, literal(-9)))
          CFI (cfiCond115) V2 load(1, XDATA, add(CFA_XSP16, literal(-8)))
          CFI (cfiCond115) V3 load(1, XDATA, add(CFA_XSP16, literal(-7)))
          CFI (cfiCond115) R7 load(1, XDATA, add(CFA_XSP16, literal(-6)))
          CFI (cfiCond115) ?RET_LOW load(1, XDATA, add(CFA_XSP16, literal(-5)))
          CFI (cfiCond115) ?RET_HIGH load(1, XDATA, add(CFA_XSP16, literal(-4)))
          CFI (cfiCond115) ?BRET_EXT load(1, XDATA, add(CFA_XSP16, literal(-3)))
          CFI (cfiCond115) DPL0 load(1, XDATA, add(CFA_XSP16, literal(-2)))
          CFI (cfiCond115) DPH0 load(1, XDATA, add(CFA_XSP16, literal(-1)))
          CFI (cfiCond115) CFA_SP SP+-4
          CFI (cfiCond115) CFA_XSP16 add(XSP16, 12)
          CFI Block cfiCond116 Using cfiCommon0
          CFI (cfiCond116) Function bindAddEntry
          CFI (cfiCond116) Conditional ??CrossCallReturnLabel_48, ??CrossCallReturnLabel_23
          CFI (cfiCond116) R6 load(1, XDATA, add(CFA_XSP16, literal(-20)))
          CFI (cfiCond116) VB load(1, XDATA, add(CFA_XSP16, literal(-19)))
          CFI (cfiCond116) V0 load(1, XDATA, add(CFA_XSP16, literal(-18)))
          CFI (cfiCond116) V1 load(1, XDATA, add(CFA_XSP16, literal(-17)))
          CFI (cfiCond116) V2 load(1, XDATA, add(CFA_XSP16, literal(-16)))
          CFI (cfiCond116) V3 load(1, XDATA, add(CFA_XSP16, literal(-15)))
          CFI (cfiCond116) V4 load(1, XDATA, add(CFA_XSP16, literal(-14)))
          CFI (cfiCond116) V5 load(1, XDATA, add(CFA_XSP16, literal(-13)))
          CFI (cfiCond116) V6 load(1, XDATA, add(CFA_XSP16, literal(-12)))
          CFI (cfiCond116) V7 load(1, XDATA, add(CFA_XSP16, literal(-11)))
          CFI (cfiCond116) V8 load(1, XDATA, add(CFA_XSP16, literal(-10)))
          CFI (cfiCond116) V9 load(1, XDATA, add(CFA_XSP16, literal(-9)))
          CFI (cfiCond116) V10 load(1, XDATA, add(CFA_XSP16, literal(-8)))
          CFI (cfiCond116) V11 load(1, XDATA, add(CFA_XSP16, literal(-7)))
          CFI (cfiCond116) R7 load(1, XDATA, add(CFA_XSP16, literal(-6)))
          CFI (cfiCond116) ?RET_LOW load(1, XDATA, add(CFA_XSP16, literal(-5)))
          CFI (cfiCond116) ?RET_HIGH load(1, XDATA, add(CFA_XSP16, literal(-4)))
          CFI (cfiCond116) ?BRET_EXT load(1, XDATA, add(CFA_XSP16, literal(-3)))
          CFI (cfiCond116) DPL0 load(1, XDATA, add(CFA_XSP16, literal(-2)))
          CFI (cfiCond116) DPH0 load(1, XDATA, add(CFA_XSP16, literal(-1)))
          CFI (cfiCond116) CFA_SP SP+-4
          CFI (cfiCond116) CFA_XSP16 add(XSP16, 20)
          CFI Block cfiCond117 Using cfiCommon0
          CFI (cfiCond117) Function bindAddressClear
          CFI (cfiCond117) Conditional ??CrossCallReturnLabel_48, ??CrossCallReturnLabel_24
          CFI (cfiCond117) DPL0 Frame(CFA_SP, 4)
          CFI (cfiCond117) DPH0 Frame(CFA_SP, 5)
          CFI (cfiCond117) CFA_SP SP+-9
          CFI (cfiCond117) CFA_XSP16 add(XSP16, 13)
          CFI Block cfiPicker118 Using cfiCommon1
          CFI (cfiPicker118) NoFunction
          CFI (cfiPicker118) Picker
        MOV       A,#(BindingTable + 2) & 0xff
        ADD       A,R0
        MOV       DPL,A
        MOV       A,#((BindingTable + 2) >> 8) & 0xff
        LCALL     ?Subroutine32 & 0xFFFF
??CrossCallReturnLabel_62:
        RET
          CFI EndBlock cfiCond114
          CFI EndBlock cfiCond115
          CFI EndBlock cfiCond116
          CFI EndBlock cfiCond117
          CFI EndBlock cfiPicker118

        RSEG BANKED_CODE:HUGECODE:NOROOT(0)
?Subroutine11:
          CFI Block cfiCond119 Using cfiCommon0
          CFI Function bindRemoveDev
          CFI Conditional ??CrossCallReturnLabel_11
          CFI R6 load(1, XDATA, add(CFA_XSP16, literal(-12)))
          CFI VB load(1, XDATA, add(CFA_XSP16, literal(-11)))
          CFI V0 load(1, XDATA, add(CFA_XSP16, literal(-10)))
          CFI V1 load(1, XDATA, add(CFA_XSP16, literal(-9)))
          CFI V2 load(1, XDATA, add(CFA_XSP16, literal(-8)))
          CFI V3 load(1, XDATA, add(CFA_XSP16, literal(-7)))
          CFI R7 load(1, XDATA, add(CFA_XSP16, literal(-6)))
          CFI ?RET_LOW load(1, XDATA, add(CFA_XSP16, literal(-5)))
          CFI ?RET_HIGH load(1, XDATA, add(CFA_XSP16, literal(-4)))
          CFI ?BRET_EXT load(1, XDATA, add(CFA_XSP16, literal(-3)))
          CFI DPL0 load(1, XDATA, add(CFA_XSP16, literal(-2)))
          CFI DPH0 load(1, XDATA, add(CFA_XSP16, literal(-1)))
          CFI CFA_SP SP+-2
          CFI CFA_XSP16 add(XSP16, 12)
          CFI Block cfiCond120 Using cfiCommon0
          CFI (cfiCond120) Function bindAddressClear
          CFI (cfiCond120) Conditional ??CrossCallReturnLabel_12
          CFI (cfiCond120) DPL0 Frame(CFA_SP, 4)
          CFI (cfiCond120) DPH0 Frame(CFA_SP, 5)
          CFI (cfiCond120) CFA_SP SP+-7
          CFI (cfiCond120) CFA_XSP16 add(XSP16, 13)
          CFI Block cfiPicker121 Using cfiCommon1
          CFI (cfiPicker121) NoFunction
          CFI (cfiPicker121) Picker
        MOV       B,#0xe
        MUL       AB
        MOV       R0,A
        MOV       R1,B
        LCALL     ?Subroutine28 & 0xFFFF
??CrossCallReturnLabel_45:
        XRL       A,#0x1
        RET
          CFI EndBlock cfiCond119
          CFI EndBlock cfiCond120
          CFI EndBlock cfiPicker121

        RSEG BANKED_CODE:HUGECODE:NOROOT(0)
?Subroutine1:
          CFI Block cfiBlock122 Using cfiCommon0
          CFI NoFunction
          CFI CFA_SP SP+-5
          CFI CFA_XSP16 add(XSP16, 13)
          CFI DPL0 Frame(CFA_SP, 4)
          CFI DPH0 Frame(CFA_SP, 5)
        MOV       A,#0xb
          CFI EndBlock cfiBlock122
        REQUIRE ??Subroutine39_0
        ; // Fall through to label ??Subroutine39_0

        RSEG BANKED_CODE:HUGECODE:NOROOT(0)
??Subroutine39_0:
          CFI Block cfiBlock123 Using cfiCommon0
          CFI NoFunction
          CFI CFA_SP SP+-5
          CFI CFA_XSP16 add(XSP16, 13)
          CFI DPL0 Frame(CFA_SP, 4)
          CFI DPH0 Frame(CFA_SP, 5)
        LCALL     ?XSTACK_DISP0_8
        LCALL     ??Subroutine42_0 & 0xFFFF
??CrossCallReturnLabel_76:
          CFI EndBlock cfiBlock123
        REQUIRE ??Subroutine40_0
        ; // Fall through to label ??Subroutine40_0

        RSEG BANKED_CODE:HUGECODE:NOROOT(0)
??Subroutine40_0:
          CFI Block cfiBlock124 Using cfiCommon0
          CFI NoFunction
          CFI CFA_SP SP+-5
          CFI CFA_XSP16 add(XSP16, 13)
          CFI DPL0 Frame(CFA_SP, 4)
          CFI DPH0 Frame(CFA_SP, 5)
        MOV       A,#0xd
        LCALL     ?DEALLOC_XSTACK8
          CFI EndBlock cfiBlock124
        REQUIRE ??Subroutine41_0
        ; // Fall through to label ??Subroutine41_0

        RSEG BANKED_CODE:HUGECODE:NOROOT(0)
??Subroutine41_0:
          CFI Block cfiBlock125 Using cfiCommon0
          CFI NoFunction
          CFI CFA_SP SP+-5
          CFI DPL0 Frame(CFA_SP, 4)
          CFI DPH0 Frame(CFA_SP, 5)
        POP       DPH
          CFI CFA_SP SP+-4
          CFI DPH0 SameValue
        POP       DPL
          CFI CFA_SP SP+-3
          CFI DPL0 SameValue
        LJMP      ?BRET
          CFI EndBlock cfiBlock125
//  771 
//  772 /*********************************************************************
//  773  * @fn          bindUpdateAddr
//  774  *
//  775  * @brief       Update the network address in the binding table.
//  776  *
//  777  * @param       oldAddr - old network address
//  778  * @param       newAddr - new network address
//  779  *
//  780  * @return      none
//  781  */

        RSEG BANKED_CODE:HUGECODE:NOROOT(0)
//  782 void bindUpdateAddr( uint16 oldAddr, uint16 newAddr )
bindUpdateAddr:
          CFI Block cfiBlock126 Using cfiCommon0
          CFI Function bindUpdateAddr
        CODE
//  783 {
        FUNCALL bindUpdateAddr, bindingAddrMgsHelperFind
        LOCFRAME ISTACK, 0, STACK
        LOCFRAME PSTACK, 0, STACK
        LOCFRAME XSTACK, 21, STACK
        LOCFRAME IOVERLAY, 0, STATIC
        LOCFRAME DOVERLAY, 0, STATIC
        ARGFRAME ISTACK, 0, STACK
        ARGFRAME PSTACK, 0, STACK
        ARGFRAME XSTACK, 21, STACK
        ARGFRAME IOVERLAY, 0, STATIC
        ARGFRAME DOVERLAY, 0, STATIC
        FUNCALL bindUpdateAddr, bindingAddrMgsHelperFind
        LOCFRAME ISTACK, 0, STACK
        LOCFRAME PSTACK, 0, STACK
        LOCFRAME XSTACK, 21, STACK
        LOCFRAME IOVERLAY, 0, STATIC
        LOCFRAME DOVERLAY, 0, STATIC
        ARGFRAME ISTACK, 0, STACK
        ARGFRAME PSTACK, 0, STACK
        ARGFRAME XSTACK, 21, STACK
        ARGFRAME IOVERLAY, 0, STATIC
        ARGFRAME DOVERLAY, 0, STATIC
        REQUIRE ?V0
        REQUIRE ?V1
        REQUIRE ?V2
        REQUIRE ?V3
        MOV       A,#-0xc
        LCALL     ?BANKED_ENTER_XDATA
          CFI DPH0 load(1, XDATA, add(CFA_XSP16, literal(-1)))
          CFI DPL0 load(1, XDATA, add(CFA_XSP16, literal(-2)))
          CFI ?BRET_EXT load(1, XDATA, add(CFA_XSP16, literal(-3)))
          CFI ?RET_HIGH load(1, XDATA, add(CFA_XSP16, literal(-4)))
          CFI ?RET_LOW load(1, XDATA, add(CFA_XSP16, literal(-5)))
          CFI R7 load(1, XDATA, add(CFA_XSP16, literal(-6)))
          CFI V3 load(1, XDATA, add(CFA_XSP16, literal(-7)))
          CFI V2 load(1, XDATA, add(CFA_XSP16, literal(-8)))
          CFI V1 load(1, XDATA, add(CFA_XSP16, literal(-9)))
          CFI V0 load(1, XDATA, add(CFA_XSP16, literal(-10)))
          CFI VB load(1, XDATA, add(CFA_XSP16, literal(-11)))
          CFI R6 load(1, XDATA, add(CFA_XSP16, literal(-12)))
          CFI CFA_SP SP+0
          CFI CFA_XSP16 add(XSP16, 12)
        ; Saved register size: 12
        ; Auto size: 9
        MOV       A,#-0x9
        LCALL     ?ALLOC_XSTACK8
          CFI CFA_XSP16 add(XSP16, 21)
        MOV       A,R4
        MOV       R6,A
        MOV       A,R5
        MOV       R7,A
//  784   uint16 oldIdx;
//  785   uint16 newIdx;
//  786   zAddrType_t addr;
//  787   bindTableIndex_t x;
//  788   BindingEntry_t *pBind;
//  789 
//  790   addr.addrMode = Addr16Bit;
        MOV       A,#0x8
        LCALL     ?XSTACK_DISP0_8
        MOV       A,#0x2
        MOVX      @DPTR,A
//  791   addr.addr.shortAddr = oldAddr;
        MOV       DPL,?XSP + 0
        MOV       DPH,?XSP + 1
        LCALL     ?Subroutine18 & 0xFFFF
//  792   oldIdx = bindingAddrMgsHelperFind( &addr );
??CrossCallReturnLabel_26:
        LCALL     `??bindingAddrMgsHelperFind::?relay`; Banked call to: bindingAddrMgsHelperFind
        MOV       ?V0,R2
        MOV       ?V1,R3
//  793   addr.addr.shortAddr = newAddr;
        MOV       DPL,?XSP + 0
        MOV       DPH,?XSP + 1
        MOV       A,R6
        MOVX      @DPTR,A
        INC       DPTR
        MOV       A,R7
        MOVX      @DPTR,A
//  794   newIdx = bindingAddrMgsHelperFind( &addr );
        ; Setup parameters for call to function bindingAddrMgsHelperFind
        MOV       R2,?XSP + 0
        MOV       R3,?XSP + 1
        LCALL     `??bindingAddrMgsHelperFind::?relay`; Banked call to: bindingAddrMgsHelperFind
        MOV       ?V2,R2
//  795 
//  796   for ( x = 0; x < gNWK_MAX_BINDING_ENTRIES; x++ )
        MOV       R2,#0x0
        SJMP      ??bindUpdateAddr_0
//  797   {
//  798     pBind = &BindingTable[x];
??bindUpdateAddr_1:
        MOV       A,R2
        LCALL     ?Subroutine17 & 0xFFFF
//  799 
//  800     if ( pBind->dstIdx == oldIdx )
??CrossCallReturnLabel_72:
        MOV       DPL,R0
        MOV       DPH,R1
        INC       DPTR
        INC       DPTR
        MOVX      A,@DPTR
        XRL       A,?V0
        JNZ       ??bindUpdateAddr_2
        INC       DPTR
        MOVX      A,@DPTR
        XRL       A,?V1
??bindUpdateAddr_2:
        JNZ       ??bindUpdateAddr_3
//  801     {
//  802       pBind->dstIdx = newIdx;
        MOV       DPL,R0
        MOV       DPH,R1
        INC       DPTR
        INC       DPTR
        MOV       A,?V2
        MOVX      @DPTR,A
        INC       DPTR
        MOV       A,R3
        MOVX      @DPTR,A
//  803     }
//  804   }
??bindUpdateAddr_3:
        INC       R2
??bindUpdateAddr_0:
        MOV       DPTR,#gNWK_MAX_BINDING_ENTRIES
        CLR       A
        MOVC      A,@A+DPTR
        MOV       R0,A
        MOV       A,R2
        CLR       C
        SUBB      A,R0
        JC        ??bindUpdateAddr_1
//  805 }
        MOV       A,#0x9
        LJMP      ?Subroutine3 & 0xFFFF
          CFI EndBlock cfiBlock126
//  806 
//  807 /*********************************************************************
//  808  * @fn      bindingAddrMgsHelperFind
//  809  *
//  810  * @brief   Turns an zAddrType_t to an Addr Manager index
//  811  *
//  812  * @param   addr - zAddrType_t
//  813  *
//  814  * @return  INVALID_NODE_ADDR if not found, otherwise an index
//  815  */

        RSEG BANKED_CODE:HUGECODE:NOROOT(0)
//  816 uint16 bindingAddrMgsHelperFind( zAddrType_t *addr )
bindingAddrMgsHelperFind:
          CFI Block cfiBlock127 Using cfiCommon0
          CFI Function bindingAddrMgsHelperFind
        CODE
//  817 {
        FUNCALL bindingAddrMgsHelperFind, AddrMgrEntryLookupNwk
        LOCFRAME ISTACK, 2, STACK
        LOCFRAME PSTACK, 0, STACK
        LOCFRAME XSTACK, 13, STACK
        LOCFRAME IOVERLAY, 0, STATIC
        LOCFRAME DOVERLAY, 0, STATIC
        ARGFRAME ISTACK, 2, STACK
        ARGFRAME PSTACK, 0, STACK
        ARGFRAME XSTACK, 13, STACK
        ARGFRAME IOVERLAY, 0, STATIC
        ARGFRAME DOVERLAY, 0, STATIC
        FUNCALL bindingAddrMgsHelperFind, AddrMgrExtAddrSet
        LOCFRAME ISTACK, 2, STACK
        LOCFRAME PSTACK, 0, STACK
        LOCFRAME XSTACK, 13, STACK
        LOCFRAME IOVERLAY, 0, STATIC
        LOCFRAME DOVERLAY, 0, STATIC
        ARGFRAME ISTACK, 2, STACK
        ARGFRAME PSTACK, 0, STACK
        ARGFRAME XSTACK, 13, STACK
        ARGFRAME IOVERLAY, 0, STATIC
        ARGFRAME DOVERLAY, 0, STATIC
        FUNCALL bindingAddrMgsHelperFind, AddrMgrEntryLookupExt
        LOCFRAME ISTACK, 2, STACK
        LOCFRAME PSTACK, 0, STACK
        LOCFRAME XSTACK, 13, STACK
        LOCFRAME IOVERLAY, 0, STATIC
        LOCFRAME DOVERLAY, 0, STATIC
        ARGFRAME ISTACK, 2, STACK
        ARGFRAME PSTACK, 0, STACK
        ARGFRAME XSTACK, 13, STACK
        ARGFRAME IOVERLAY, 0, STATIC
        ARGFRAME DOVERLAY, 0, STATIC
        PUSH      DPL
          CFI DPL0 Frame(CFA_SP, 4)
          CFI CFA_SP SP+-4
        PUSH      DPH
          CFI DPH0 Frame(CFA_SP, 5)
          CFI CFA_SP SP+-5
        ; Saved register size: 2
        ; Auto size: 13
        MOV       A,#-0xd
        LCALL     ?ALLOC_XSTACK8
          CFI CFA_XSP16 add(XSP16, 13)
//  818   AddrMgrEntry_t entry;
//  819 
//  820   // Resolve addresses with the address manager
//  821   entry.user = ADDRMGR_USER_BINDING;
        LCALL     ?Subroutine19 & 0xFFFF
//  822   if ( addr->addrMode == Addr16Bit )
??CrossCallReturnLabel_29:
        JNZ       ??bindingAddrMgsHelperFind_0
//  823   {
//  824     entry.nwkAddr = addr->addr.shortAddr;
        MOV       DPL,R2
        MOV       DPH,R3
        LCALL     ?Subroutine21 & 0xFFFF
//  825     AddrMgrEntryLookupNwk( &entry );
//  826   }
??CrossCallReturnLabel_33:
        LCALL     ?XSTACK_DISP0_8
        LCALL     ?Subroutine20 & 0xFFFF
??CrossCallReturnLabel_31:
        LCALL     `??AddrMgrEntryLookupNwk::?relay`; Banked call to: AddrMgrEntryLookupNwk
        SJMP      ??bindingAddrMgsHelperFind_1
//  827   else
//  828   {
//  829     AddrMgrExtAddrSet( entry.extAddr, addr->addr.extAddr );
??bindingAddrMgsHelperFind_0:
        ; Setup parameters for call to function AddrMgrExtAddrSet
        MOV       A,R2
        MOV       R4,A
        MOV       A,R3
        MOV       R5,A
        MOV       A,#0x3
        LCALL     ?XSTACK_DISP0_8
        MOV       R2,DPL
        MOV       R3,DPH
        LCALL     `??AddrMgrExtAddrSet::?relay`; Banked call to: AddrMgrExtAddrSet
//  830     AddrMgrEntryLookupExt( &entry );
        ; Setup parameters for call to function AddrMgrEntryLookupExt
        MOV       R2,?XSP + 0
        MOV       R3,?XSP + 1
        LCALL     `??AddrMgrEntryLookupExt::?relay`; Banked call to: AddrMgrEntryLookupExt
//  831   }
//  832 
//  833   return ( entry.index );
??bindingAddrMgsHelperFind_1:
        LJMP      ?Subroutine1 & 0xFFFF
//  834 }
          CFI EndBlock cfiBlock127
//  835 
//  836 /*********************************************************************
//  837  * @fn      bindingAddrMgsHelperConvert
//  838  *
//  839  * @brief   Convert an index into an zAddrType_t
//  840  *
//  841  * @param   idx -
//  842  * @param   addr - zAddrType_t
//  843  *
//  844  * @return  TRUE if found, FALSE if not
//  845  */

        RSEG BANKED_CODE:HUGECODE:NOROOT(0)
//  846 uint8 bindingAddrMgsHelperConvert( uint16 idx, zAddrType_t *addr )
bindingAddrMgsHelperConvert:
          CFI Block cfiBlock128 Using cfiCommon0
          CFI Function bindingAddrMgsHelperConvert
        CODE
//  847 {
        FUNCALL bindingAddrMgsHelperConvert, AddrMgrEntryGet
        LOCFRAME ISTACK, 0, STACK
        LOCFRAME PSTACK, 0, STACK
        LOCFRAME XSTACK, 22, STACK
        LOCFRAME IOVERLAY, 0, STATIC
        LOCFRAME DOVERLAY, 0, STATIC
        ARGFRAME ISTACK, 0, STACK
        ARGFRAME PSTACK, 0, STACK
        ARGFRAME XSTACK, 22, STACK
        ARGFRAME IOVERLAY, 0, STATIC
        ARGFRAME DOVERLAY, 0, STATIC
        FUNCALL bindingAddrMgsHelperConvert, sAddrExtCpy
        LOCFRAME ISTACK, 0, STACK
        LOCFRAME PSTACK, 0, STACK
        LOCFRAME XSTACK, 22, STACK
        LOCFRAME IOVERLAY, 0, STATIC
        LOCFRAME DOVERLAY, 0, STATIC
        ARGFRAME ISTACK, 0, STACK
        ARGFRAME PSTACK, 0, STACK
        ARGFRAME XSTACK, 22, STACK
        ARGFRAME IOVERLAY, 0, STATIC
        ARGFRAME DOVERLAY, 0, STATIC
        REQUIRE ?V0
        MOV       A,#-0x9
        LCALL     ?BANKED_ENTER_XDATA
          CFI DPH0 load(1, XDATA, add(CFA_XSP16, literal(-1)))
          CFI DPL0 load(1, XDATA, add(CFA_XSP16, literal(-2)))
          CFI ?BRET_EXT load(1, XDATA, add(CFA_XSP16, literal(-3)))
          CFI ?RET_HIGH load(1, XDATA, add(CFA_XSP16, literal(-4)))
          CFI ?RET_LOW load(1, XDATA, add(CFA_XSP16, literal(-5)))
          CFI R7 load(1, XDATA, add(CFA_XSP16, literal(-6)))
          CFI V0 load(1, XDATA, add(CFA_XSP16, literal(-7)))
          CFI VB load(1, XDATA, add(CFA_XSP16, literal(-8)))
          CFI R6 load(1, XDATA, add(CFA_XSP16, literal(-9)))
          CFI CFA_SP SP+0
          CFI CFA_XSP16 add(XSP16, 9)
        ; Saved register size: 9
        ; Auto size: 13
        MOV       A,#-0xd
        LCALL     ?ALLOC_XSTACK8
          CFI CFA_XSP16 add(XSP16, 22)
        MOV       A,R4
        MOV       R6,A
        MOV       A,R5
        MOV       R7,A
//  848   AddrMgrEntry_t entry;
//  849   uint8 stat;
//  850 
//  851   // Resolve addresses with the address manager
//  852   entry.user = ADDRMGR_USER_BINDING;
        MOV       DPL,?XSP + 0
        MOV       DPH,?XSP + 1
        MOV       A,#0x4
        MOVX      @DPTR,A
//  853   entry.index = idx;
        MOV       A,#0xb
        LCALL     ?XSTACK_DISP0_8
        LCALL     ?Subroutine18 & 0xFFFF
//  854   stat = AddrMgrEntryGet( &entry );
??CrossCallReturnLabel_27:
        LCALL     `??AddrMgrEntryGet::?relay`; Banked call to: AddrMgrEntryGet
        MOV       A,R1
        MOV       ?V0,A
//  855   if ( stat )
        JZ        ??bindingAddrMgsHelperConvert_0
//  856   {
//  857     addr->addrMode = Addr64Bit;
        MOV       DPL,R6
        MOV       DPH,R7
        INC       DPTR
        INC       DPTR
        INC       DPTR
        INC       DPTR
        INC       DPTR
        INC       DPTR
        INC       DPTR
        INC       DPTR
        MOV       A,#0x3
        MOVX      @DPTR,A
//  858     osal_cpyExtAddr( addr->addr.extAddr, entry.extAddr );
        ; Setup parameters for call to function sAddrExtCpy
        LCALL     ?XSTACK_DISP0_8
        MOV       R4,DPL
        MOV       R5,DPH
        MOV       A,R6
        MOV       R2,A
        MOV       A,R7
        MOV       R3,A
        LCALL     `??sAddrExtCpy::?relay`; Banked call to: sAddrExtCpy
//  859   }
//  860 
//  861   return ( stat );
??bindingAddrMgsHelperConvert_0:
        MOV       R1,?V0
        MOV       A,#0xd
        LCALL     ?DEALLOC_XSTACK8
          CFI CFA_XSP16 add(XSP16, 9)
        LJMP      ?Subroutine2 & 0xFFFF
//  862 }
          CFI EndBlock cfiBlock128

        RSEG BANKED_CODE:HUGECODE:NOROOT(0)
?Subroutine18:
          CFI Block cfiCond129 Using cfiCommon0
          CFI Function bindAddressClear
          CFI Conditional ??CrossCallReturnLabel_25
          CFI DPL0 Frame(CFA_SP, 4)
          CFI DPH0 Frame(CFA_SP, 5)
          CFI CFA_SP SP+-7
          CFI CFA_XSP16 add(XSP16, 13)
          CFI Block cfiCond130 Using cfiCommon0
          CFI (cfiCond130) Function bindUpdateAddr
          CFI (cfiCond130) Conditional ??CrossCallReturnLabel_26
          CFI (cfiCond130) R6 load(1, XDATA, add(CFA_XSP16, literal(-12)))
          CFI (cfiCond130) VB load(1, XDATA, add(CFA_XSP16, literal(-11)))
          CFI (cfiCond130) V0 load(1, XDATA, add(CFA_XSP16, literal(-10)))
          CFI (cfiCond130) V1 load(1, XDATA, add(CFA_XSP16, literal(-9)))
          CFI (cfiCond130) V2 load(1, XDATA, add(CFA_XSP16, literal(-8)))
          CFI (cfiCond130) V3 load(1, XDATA, add(CFA_XSP16, literal(-7)))
          CFI (cfiCond130) R7 load(1, XDATA, add(CFA_XSP16, literal(-6)))
          CFI (cfiCond130) ?RET_LOW load(1, XDATA, add(CFA_XSP16, literal(-5)))
          CFI (cfiCond130) ?RET_HIGH load(1, XDATA, add(CFA_XSP16, literal(-4)))
          CFI (cfiCond130) ?BRET_EXT load(1, XDATA, add(CFA_XSP16, literal(-3)))
          CFI (cfiCond130) DPL0 load(1, XDATA, add(CFA_XSP16, literal(-2)))
          CFI (cfiCond130) DPH0 load(1, XDATA, add(CFA_XSP16, literal(-1)))
          CFI (cfiCond130) CFA_SP SP+-2
          CFI (cfiCond130) CFA_XSP16 add(XSP16, 21)
          CFI Block cfiCond131 Using cfiCommon0
          CFI (cfiCond131) Function bindingAddrMgsHelperConvert
          CFI (cfiCond131) Conditional ??CrossCallReturnLabel_27
          CFI (cfiCond131) R6 load(1, XDATA, add(CFA_XSP16, literal(-9)))
          CFI (cfiCond131) VB load(1, XDATA, add(CFA_XSP16, literal(-8)))
          CFI (cfiCond131) V0 load(1, XDATA, add(CFA_XSP16, literal(-7)))
          CFI (cfiCond131) R7 load(1, XDATA, add(CFA_XSP16, literal(-6)))
          CFI (cfiCond131) ?RET_LOW load(1, XDATA, add(CFA_XSP16, literal(-5)))
          CFI (cfiCond131) ?RET_HIGH load(1, XDATA, add(CFA_XSP16, literal(-4)))
          CFI (cfiCond131) ?BRET_EXT load(1, XDATA, add(CFA_XSP16, literal(-3)))
          CFI (cfiCond131) DPL0 load(1, XDATA, add(CFA_XSP16, literal(-2)))
          CFI (cfiCond131) DPH0 load(1, XDATA, add(CFA_XSP16, literal(-1)))
          CFI (cfiCond131) CFA_SP SP+-2
          CFI (cfiCond131) CFA_XSP16 add(XSP16, 22)
          CFI Block cfiCond132 Using cfiCommon0
          CFI (cfiCond132) Function bindingAddrMgsHelperConvertShort
          CFI (cfiCond132) Conditional ??CrossCallReturnLabel_28
          CFI (cfiCond132) DPL0 Frame(CFA_SP, 4)
          CFI (cfiCond132) DPH0 Frame(CFA_SP, 5)
          CFI (cfiCond132) CFA_SP SP+-7
          CFI (cfiCond132) CFA_XSP16 add(XSP16, 13)
          CFI Block cfiPicker133 Using cfiCommon1
          CFI (cfiPicker133) NoFunction
          CFI (cfiPicker133) Picker
        MOV       A,R2
        MOVX      @DPTR,A
        INC       DPTR
        MOV       A,R3
        MOVX      @DPTR,A
        ; Setup parameters for call to function AddrMgrEntryRelease
        ; Setup parameters for call to function bindingAddrMgsHelperFind
        ; Setup parameters for call to function AddrMgrEntryGet
        ; Setup parameters for call to function AddrMgrEntryGet
        MOV       R2,?XSP + 0
        MOV       R3,?XSP + 1
        RET
          CFI EndBlock cfiCond129
          CFI EndBlock cfiCond130
          CFI EndBlock cfiCond131
          CFI EndBlock cfiCond132
          CFI EndBlock cfiPicker133
//  863 
//  864 /*********************************************************************
//  865  * @fn      bindingAddrMgsHelperConvertShort
//  866  *
//  867  * @brief   Convert an index into a short address
//  868  *
//  869  * @param   idx -
//  870  *
//  871  * @return  INVALID_NODE_ADDR if not available, otherwise the short address
//  872  */

        RSEG BANKED_CODE:HUGECODE:NOROOT(0)
//  873 uint16 bindingAddrMgsHelperConvertShort( uint16 idx )
bindingAddrMgsHelperConvertShort:
          CFI Block cfiBlock134 Using cfiCommon0
          CFI Function bindingAddrMgsHelperConvertShort
        CODE
//  874 {
        FUNCALL bindingAddrMgsHelperConvertShort, AddrMgrEntryGet
        LOCFRAME ISTACK, 2, STACK
        LOCFRAME PSTACK, 0, STACK
        LOCFRAME XSTACK, 13, STACK
        LOCFRAME IOVERLAY, 0, STATIC
        LOCFRAME DOVERLAY, 0, STATIC
        ARGFRAME ISTACK, 2, STACK
        ARGFRAME PSTACK, 0, STACK
        ARGFRAME XSTACK, 13, STACK
        ARGFRAME IOVERLAY, 0, STATIC
        ARGFRAME DOVERLAY, 0, STATIC
        PUSH      DPL
          CFI DPL0 Frame(CFA_SP, 4)
          CFI CFA_SP SP+-4
        PUSH      DPH
          CFI DPH0 Frame(CFA_SP, 5)
          CFI CFA_SP SP+-5
        ; Saved register size: 2
        ; Auto size: 13
        MOV       A,#-0xd
        LCALL     ?ALLOC_XSTACK8
          CFI CFA_XSP16 add(XSP16, 13)
//  875   AddrMgrEntry_t entry;
//  876 
//  877   // Resolve addresses with the address manager
//  878   entry.user = ADDRMGR_USER_BINDING;
        MOV       DPL,?XSP + 0
        MOV       DPH,?XSP + 1
        MOV       A,#0x4
        MOVX      @DPTR,A
//  879   entry.index = idx;
        MOV       A,#0xb
        LCALL     ?XSTACK_DISP0_8
        LCALL     ?Subroutine18 & 0xFFFF
//  880   AddrMgrEntryGet( &entry );
??CrossCallReturnLabel_28:
        LCALL     `??AddrMgrEntryGet::?relay`; Banked call to: AddrMgrEntryGet
//  881 
//  882   return ( entry.nwkAddr );
        MOV       A,#0x1
        LJMP      ??Subroutine39_0 & 0xFFFF
//  883 }
          CFI EndBlock cfiBlock134
//  884 
//  885 /*********************************************************************
//  886  * @fn      bindAddrMgrLocalLoad
//  887  *
//  888  * @brief   Load local(self and parent) address information into
//  889  *          Address Manager
//  890  *
//  891  * @param   none
//  892  *
//  893  * @return  none
//  894  */

        RSEG BANKED_CODE:HUGECODE:NOROOT(0)
//  895 void bindAddrMgrLocalLoad( void )
bindAddrMgrLocalLoad:
          CFI Block cfiBlock135 Using cfiCommon0
          CFI Function bindAddrMgrLocalLoad
        CODE
//  896 {
        FUNCALL bindAddrMgrLocalLoad, NLME_GetExtAddr
        LOCFRAME ISTACK, 0, STACK
        LOCFRAME PSTACK, 0, STACK
        LOCFRAME XSTACK, 23, STACK
        LOCFRAME IOVERLAY, 0, STATIC
        LOCFRAME DOVERLAY, 0, STATIC
        ARGFRAME ISTACK, 0, STACK
        ARGFRAME PSTACK, 0, STACK
        ARGFRAME XSTACK, 23, STACK
        ARGFRAME IOVERLAY, 0, STATIC
        ARGFRAME DOVERLAY, 0, STATIC
        FUNCALL bindAddrMgrLocalLoad, AddrMgrExtAddrSet
        LOCFRAME ISTACK, 0, STACK
        LOCFRAME PSTACK, 0, STACK
        LOCFRAME XSTACK, 23, STACK
        LOCFRAME IOVERLAY, 0, STATIC
        LOCFRAME DOVERLAY, 0, STATIC
        ARGFRAME ISTACK, 0, STACK
        ARGFRAME PSTACK, 0, STACK
        ARGFRAME XSTACK, 23, STACK
        ARGFRAME IOVERLAY, 0, STATIC
        ARGFRAME DOVERLAY, 0, STATIC
        FUNCALL bindAddrMgrLocalLoad, AddrMgrEntryUpdate
        LOCFRAME ISTACK, 0, STACK
        LOCFRAME PSTACK, 0, STACK
        LOCFRAME XSTACK, 23, STACK
        LOCFRAME IOVERLAY, 0, STATIC
        LOCFRAME DOVERLAY, 0, STATIC
        ARGFRAME ISTACK, 0, STACK
        ARGFRAME PSTACK, 0, STACK
        ARGFRAME XSTACK, 23, STACK
        ARGFRAME IOVERLAY, 0, STATIC
        ARGFRAME DOVERLAY, 0, STATIC
        FUNCALL bindAddrMgrLocalLoad, NLME_GetCoordShortAddr
        LOCFRAME ISTACK, 0, STACK
        LOCFRAME PSTACK, 0, STACK
        LOCFRAME XSTACK, 23, STACK
        LOCFRAME IOVERLAY, 0, STATIC
        LOCFRAME DOVERLAY, 0, STATIC
        ARGFRAME ISTACK, 0, STACK
        ARGFRAME PSTACK, 0, STACK
        ARGFRAME XSTACK, 23, STACK
        ARGFRAME IOVERLAY, 0, STATIC
        ARGFRAME DOVERLAY, 0, STATIC
        FUNCALL bindAddrMgrLocalLoad, NLME_GetCoordExtAddr
        LOCFRAME ISTACK, 0, STACK
        LOCFRAME PSTACK, 0, STACK
        LOCFRAME XSTACK, 23, STACK
        LOCFRAME IOVERLAY, 0, STATIC
        LOCFRAME DOVERLAY, 0, STATIC
        ARGFRAME ISTACK, 0, STACK
        ARGFRAME PSTACK, 0, STACK
        ARGFRAME XSTACK, 23, STACK
        ARGFRAME IOVERLAY, 0, STATIC
        ARGFRAME DOVERLAY, 0, STATIC
        FUNCALL bindAddrMgrLocalLoad, AddrMgrEntryUpdate
        LOCFRAME ISTACK, 0, STACK
        LOCFRAME PSTACK, 0, STACK
        LOCFRAME XSTACK, 23, STACK
        LOCFRAME IOVERLAY, 0, STATIC
        LOCFRAME DOVERLAY, 0, STATIC
        ARGFRAME ISTACK, 0, STACK
        ARGFRAME PSTACK, 0, STACK
        ARGFRAME XSTACK, 23, STACK
        ARGFRAME IOVERLAY, 0, STATIC
        ARGFRAME DOVERLAY, 0, STATIC
        REQUIRE ?V0
        REQUIRE ?V1
        MOV       A,#-0xa
        LCALL     ?BANKED_ENTER_XDATA
          CFI DPH0 load(1, XDATA, add(CFA_XSP16, literal(-1)))
          CFI DPL0 load(1, XDATA, add(CFA_XSP16, literal(-2)))
          CFI ?BRET_EXT load(1, XDATA, add(CFA_XSP16, literal(-3)))
          CFI ?RET_HIGH load(1, XDATA, add(CFA_XSP16, literal(-4)))
          CFI ?RET_LOW load(1, XDATA, add(CFA_XSP16, literal(-5)))
          CFI R7 load(1, XDATA, add(CFA_XSP16, literal(-6)))
          CFI V1 load(1, XDATA, add(CFA_XSP16, literal(-7)))
          CFI V0 load(1, XDATA, add(CFA_XSP16, literal(-8)))
          CFI VB load(1, XDATA, add(CFA_XSP16, literal(-9)))
          CFI R6 load(1, XDATA, add(CFA_XSP16, literal(-10)))
          CFI CFA_SP SP+0
          CFI CFA_XSP16 add(XSP16, 10)
        ; Saved register size: 10
        ; Auto size: 13
        MOV       A,#-0xd
        LCALL     ?ALLOC_XSTACK8
          CFI CFA_XSP16 add(XSP16, 23)
//  897   AddrMgrEntry_t entry;
//  898   uint16         parent;
//  899 
//  900   // add "local"(self and parent) address informtion into the Address
//  901   // Manager
//  902   if ( bindAddrMgrLocalLoaded == FALSE )
        MOV       DPTR,#bindAddrMgrLocalLoaded
        MOVX      A,@DPTR
        JNZ       ??bindAddrMgrLocalLoad_0
//  903   {
//  904     // add the device's address information
//  905     entry.user    = ADDRMGR_USER_BINDING;
        MOV       DPL,?XSP + 0
        MOV       DPH,?XSP + 1
        MOV       A,#0x4
        MOVX      @DPTR,A
//  906     entry.nwkAddr = _NIB.nwkDevAddress;
        MOV       DPTR,#_NIB + 20
        LCALL     ?Subroutine21 & 0xFFFF
??CrossCallReturnLabel_34:
        LCALL     ?XSTACK_DISP0_8
        MOV       A,R0
        MOVX      @DPTR,A
        INC       DPTR
        MOV       A,R1
        MOVX      @DPTR,A
//  907     AddrMgrExtAddrSet( entry.extAddr, NLME_GetExtAddr() );
        ; Setup parameters for call to function NLME_GetExtAddr
        LCALL     `??NLME_GetExtAddr::?relay`; Banked call to: NLME_GetExtAddr
        MOV       ?V0,R2
        MOV       ?V1,R3
        MOV       R4,?V0
        MOV       R5,?V1
