///////////////////////////////////////////////////////////////////////////////
//
// IAR C/C++ Compiler V10.10.1.4655 for 8051              16/Feb/2018  21:40:26
// Copyright 2004-2017 IAR Systems AB.
// Evaluation license - IAR Embedded Workbench for 8051, Evaluation version 10.10
//
//    Core               =  plain
//    Code model         =  banked
//    Data model         =  large
//    Calling convention =  xdata reentrant
//    Constant location  =  data_rom
//    Dptr setup         =  1,16
//                          
//    Source file        =  
//        C:\Texas Instruments\Z-Stack Home 1.2.2a.44539\Components\mt\MT.c
//    Command line       =  
//        -f C:\Users\Oskar\AppData\Local\Temp\EW5B4D.tmp ("C:\Texas
//        Instruments\Z-Stack Home 1.2.2a.44539\Components\mt\MT.c" -D
//        FEATURE_SYSTEM_STATS -D CC2531ZNP -D POWER_SAVING -D xTC_LINKKEY_JOIN
//        -lC "C:\Texas Instruments\Z-Stack Home
//        1.2.2a.44539\Projects\zstack\ZNP\CC253x\CC2531-Debug\List" -lA
//        "C:\Texas Instruments\Z-Stack Home
//        1.2.2a.44539\Projects\zstack\ZNP\CC253x\CC2531-Debug\List"
//        --diag_suppress Pe001,Pa010 -o "C:\Texas Instruments\Z-Stack Home
//        1.2.2a.44539\Projects\zstack\ZNP\CC253x\CC2531-Debug\Obj" -e --debug
//        --core=plain --dptr=16,1 --data_model=large --code_model=banked
//        --calling_convention=xdata_reentrant --place_constants=data_rom
//        --nr_virtual_regs 16 -f "C:\Texas Instruments\Z-Stack Home
//        1.2.2a.44539\Projects\zstack\ZNP\CC253x\..\Source\znp.cfg"
//        (-DMAC_CFG_APP_PENDING_QUEUE=TRUE
//        "-DZSTACK_DEVICE_BUILD=(DEVICE_BUILD_COORDINATOR |
//        DEVICE_BUILD_ROUTER | DEVICE_BUILD_ENDDEVICE)" -DNWK_AUTO_POLL
//        -DZNP_RUN_WDOG=FALSE -DZNP_UART_BAUD=HAL_UART_BR_115200 -DZIGBEEPRO
//        -DZIGBEE_FRAGMENTATION -DINTER_PAN -DOSAL_CLOCK -DOSAL_SAPI=FALSE
//        -DSAPI_CB_FUNC=FALSE -DHOLD_AUTO_START -DNV_RESTORE -DNV_INIT
//        -DNUM_DISC_ATTEMPTS=0 -DMT_UTIL_FUNC -DMT_SYS_FUNC -DMT_AF_FUNC
//        -DMT_SAPI_FUNC -DMT_SAPI_CB_FUNC -DMT_ZDO_CB_FUNC -DMT_ZDO_FUNC
//        -DMT_ZDO_MGMT -DMT_ZDO_EXTENSIONS -DMT_APP_FUNC) -f "C:\Texas
//        Instruments\Z-Stack Home
//        1.2.2a.44539\Projects\zstack\ZNP\CC253x\..\..\Tools\CC2530DB\f8wConfig.cfg"
//        (-DZIGBEEPRO -DSECURE=1 -DZG_SECURE_DYNAMIC=0 -DREFLECTOR
//        -DDEFAULT_CHANLIST=0x00000800 -DZDAPP_CONFIG_PAN_ID=0xFFFF
//        -DNWK_START_DELAY=100 -DEXTENDED_JOINING_RANDOM_MASK=0x007F
//        -DBEACON_REQUEST_DELAY=100 -DBEACON_REQ_DELAY_MASK=0x00FF
//        -DLINK_STATUS_JITTER_MASK=0x007F -DROUTE_EXPIRY_TIME=30
//        -DAPSC_ACK_WAIT_DURATION_POLLED=3000 -DNWK_INDIRECT_MSG_TIMEOUT=7
//        -DMAX_RREQ_ENTRIES=8 -DAPSC_MAX_FRAME_RETRIES=3
//        -DNWK_MAX_DATA_RETRIES=2 -DMAX_POLL_FAILURE_RETRIES=2 -DMAX_BCAST=9
//        -DAPS_MAX_GROUPS=16 -DMAX_RTG_ENTRIES=40 -DNWK_MAX_BINDING_ENTRIES=4
//        -DMAX_BINDING_CLUSTER_IDS=4 "-DDEFAULT_KEY={0x01, 0x03, 0x05, 0x07,
//        0x09, 0x0B, 0x0D, 0x0F, 0x00, 0x02, 0x04, 0x06, 0x08, 0x0A, 0x0C,
//        0x0D}" -DMAC_MAX_FRAME_SIZE=116 -DZDNWKMGR_MIN_TRANSMISSIONS=20
//        "-DCONST=const __code" -DGENERIC=__generic -DRFD_RCVC_ALWAYS_ON=FALSE
//        -DPOLL_RATE=1000 -DQUEUED_POLL_RATE=100 -DRESPONSE_POLL_RATE=100
//        -DREJOIN_POLL_RATE=440 -DREJOIN_BACKOFF=900000 -DREJOIN_SCAN=900000)
//        -f "C:\Texas Instruments\Z-Stack Home
//        1.2.2a.44539\Projects\zstack\ZNP\CC253x\..\..\Tools\CC2530DB\f8wZCL.cfg"
//        -I "C:\Texas Instruments\Z-Stack Home
//        1.2.2a.44539\Projects\zstack\ZNP\CC253x\" -I "C:\Texas
//        Instruments\Z-Stack Home
//        1.2.2a.44539\Projects\zstack\ZNP\CC253x\Source\" -I "C:\Texas
//        Instruments\Z-Stack Home
//        1.2.2a.44539\Projects\zstack\ZNP\CC253x\..\Source\" -I "C:\Texas
//        Instruments\Z-Stack Home
//        1.2.2a.44539\Projects\zstack\ZNP\CC253x\..\..\SE\Source\" -I
//        "C:\Texas Instruments\Z-Stack Home
//        1.2.2a.44539\Projects\zstack\ZNP\CC253x\..\..\ZMain\TI2530ZNP\" -I
//        "C:\Texas Instruments\Z-Stack Home
//        1.2.2a.44539\Projects\zstack\ZNP\CC253x\..\..\..\..\Components\hal\include\"
//        -I "C:\Texas Instruments\Z-Stack Home
//        1.2.2a.44539\Projects\zstack\ZNP\CC253x\..\..\..\..\Components\hal\target\CC2530USB\"
//        -I "C:\Texas Instruments\Z-Stack Home
//        1.2.2a.44539\Projects\zstack\ZNP\CC253x\..\..\..\..\Components\hal\target\CC2530USB\usb\library\"
//        -I "C:\Texas Instruments\Z-Stack Home
//        1.2.2a.44539\Projects\zstack\ZNP\CC253x\..\..\..\..\Components\hal\target\CC2530USB\usb\library\cc2531\"
//        -I "C:\Texas Instruments\Z-Stack Home
//        1.2.2a.44539\Projects\zstack\ZNP\CC253x\..\..\..\..\Components\hal\target\CC2530USB\usb\class_cdc\"
//        -I "C:\Texas Instruments\Z-Stack Home
//        1.2.2a.44539\Projects\zstack\ZNP\CC253x\..\..\..\..\Components\mac\include\"
//        -I "C:\Texas Instruments\Z-Stack Home
//        1.2.2a.44539\Projects\zstack\ZNP\CC253x\..\..\..\..\Components\mac\high_level\"
//        -I "C:\Texas Instruments\Z-Stack Home
//        1.2.2a.44539\Projects\zstack\ZNP\CC253x\..\..\..\..\Components\mac\low_level\srf04\"
//        -I "C:\Texas Instruments\Z-Stack Home
//        1.2.2a.44539\Projects\zstack\ZNP\CC253x\..\..\..\..\Components\mac\low_level\srf04\single_chip\"
//        -I "C:\Texas Instruments\Z-Stack Home
//        1.2.2a.44539\Projects\zstack\ZNP\CC253x\..\..\..\..\Components\mt\"
//        -I "C:\Texas Instruments\Z-Stack Home
//        1.2.2a.44539\Projects\zstack\ZNP\CC253x\..\..\..\..\Components\osal\include\"
//        -I "C:\Texas Instruments\Z-Stack Home
//        1.2.2a.44539\Projects\zstack\ZNP\CC253x\..\..\..\..\Components\services\ecc\binary163\"
//        -I "C:\Texas Instruments\Z-Stack Home
//        1.2.2a.44539\Projects\zstack\ZNP\CC253x\..\..\..\..\Components\services\ecc\binary283\"
//        -I "C:\Texas Instruments\Z-Stack Home
//        1.2.2a.44539\Projects\zstack\ZNP\CC253x\..\..\..\..\Components\services\saddr\"
//        -I "C:\Texas Instruments\Z-Stack Home
//        1.2.2a.44539\Projects\zstack\ZNP\CC253x\..\..\..\..\Components\services\sdata\"
//        -I "C:\Texas Instruments\Z-Stack Home
//        1.2.2a.44539\Projects\zstack\ZNP\CC253x\..\..\..\..\Components\stack\af\"
//        -I "C:\Texas Instruments\Z-Stack Home
//        1.2.2a.44539\Projects\zstack\ZNP\CC253x\..\..\..\..\Components\stack\nwk\"
//        -I "C:\Texas Instruments\Z-Stack Home
//        1.2.2a.44539\Projects\zstack\ZNP\CC253x\..\..\..\..\Components\stack\sapi\"
//        -I "C:\Texas Instruments\Z-Stack Home
//        1.2.2a.44539\Projects\zstack\ZNP\CC253x\..\..\..\..\Components\stack\sec\"
//        -I "C:\Texas Instruments\Z-Stack Home
//        1.2.2a.44539\Projects\zstack\ZNP\CC253x\..\..\..\..\Components\stack\sys\"
//        -I "C:\Texas Instruments\Z-Stack Home
//        1.2.2a.44539\Projects\zstack\ZNP\CC253x\..\..\..\..\Components\stack\zcl\"
//        -I "C:\Texas Instruments\Z-Stack Home
//        1.2.2a.44539\Projects\zstack\ZNP\CC253x\..\..\..\..\Components\stack\zdo\"
//        -I "C:\Texas Instruments\Z-Stack Home
//        1.2.2a.44539\Projects\zstack\ZNP\CC253x\..\..\..\..\Components\zmac\"
//        -I "C:\Texas Instruments\Z-Stack Home
//        1.2.2a.44539\Projects\zstack\ZNP\CC253x\..\..\..\..\Components\zmac\f8w\"
//        -Ohz --require_prototypes --no_code_motion)
//    Locale             =  German_Germany.1252
//    List file          =  
//        C:\Texas Instruments\Z-Stack Home
//        1.2.2a.44539\Projects\zstack\ZNP\CC253x\CC2531-Debug\List\MT.s51
//
///////////////////////////////////////////////////////////////////////////////

        NAME MT

        RTMODEL "__SystemLibrary", "CLib"
        RTMODEL "__calling_convention", "xdata_reentrant"
        RTMODEL "__code_model", "banked"
        RTMODEL "__core", "plain"
        RTMODEL "__data_model", "large"
        RTMODEL "__dptr_size", "16"
        RTMODEL "__extended_stack", "disabled"
        RTMODEL "__location_for_constants", "data"
        RTMODEL "__number_of_dptrs", "1"
        RTMODEL "__register_banks", "*"
        RTMODEL "__rt_version", "1"

        RSEG DOVERLAY:DATA:NOROOT(0)
        RSEG IOVERLAY:IDATA:NOROOT(0)
        RSEG ISTACK:IDATA:NOROOT(0)
        RSEG PSTACK:XDATA:NOROOT(0)
        RSEG XSTACK:XDATA:NOROOT(0)

        EXTERN ?V0
        EXTERN ?V1
        EXTERN ?V2
        EXTERN ?V3
        EXTERN ?V4
        EXTERN ?V5
        EXTERN ?V6
        EXTERN ?V7
        EXTERN ?ALLOC_XSTACK8
        EXTERN ?BANKED_ENTER_XDATA
        EXTERN ?BANKED_LEAVE_XDATA
        EXTERN ?BDISPATCH
        EXTERN ?BRET
        EXTERN ?CALL_IND
        EXTERN ?DEALLOC_XSTACK8
        EXTERN ?PUSH_XSTACK_I_THREE
        EXTERN ?XSP
        EXTERN ?XSTACK_DISP0_8
        EXTERN __INIT_XDATA_I
        EXTERN __INIT_XDATA_Z

        PUBLIC `??MTProcessAppRspMsg::?relay`
        FUNCTION `??MTProcessAppRspMsg::?relay`,0203H
        PUBLIC `??MT_BuildAndSendZToolResponse::?relay`
        FUNCTION `??MT_BuildAndSendZToolResponse::?relay`,0203H
        PUBLIC `??MT_BuildEndpointDesc::?relay`
        FUNCTION `??MT_BuildEndpointDesc::?relay`,0203H
        PUBLIC `??MT_Init::?relay`
        FUNCTION `??MT_Init::?relay`,0203H
        PUBLIC `??MT_ProcessIncoming::?relay`
        FUNCTION `??MT_ProcessIncoming::?relay`,0203H
        PUBLIC `??MT_ReverseBytes::?relay`
        FUNCTION `??MT_ReverseBytes::?relay`,0203H
        PUBLIC `??MT_Word2Buf::?relay`
        FUNCTION `??MT_Word2Buf::?relay`,0203H
        PUBLIC MTProcessAppRspMsg
        FUNCTION MTProcessAppRspMsg,021203H
        ARGFRAME XSTACK, 0, STACK
        LOCFRAME XSTACK, 9, STACK
        PUBLIC MT_BuildAndSendZToolResponse
        FUNCTION MT_BuildAndSendZToolResponse,0a1203H
        ARGFRAME XSTACK, 9, STACK
        ARGFRAME IOVERLAY, 0, STATIC
        ARGFRAME DOVERLAY, 0, STATIC
        LOCFRAME ISTACK, 1, STACK
        LOCFRAME XSTACK, 19, STACK
        PUBLIC MT_BuildEndpointDesc
        FUNCTION MT_BuildEndpointDesc,0a1203H
        ARGFRAME XSTACK, 0, STACK
        LOCFRAME ISTACK, 1, STACK
        LOCFRAME XSTACK, 16, STACK
        PUBLIC MT_Init
        FUNCTION MT_Init,021203H
        ARGFRAME XSTACK, 0, STACK
        LOCFRAME XSTACK, 9, STACK
        PUBLIC MT_ProcessIncoming
        FUNCTION MT_ProcessIncoming,021203H
        ARGFRAME XSTACK, 0, STACK
        LOCFRAME ISTACK, 3, STACK
        LOCFRAME XSTACK, 3, STACK
        PUBLIC MT_ReverseBytes
        FUNCTION MT_ReverseBytes,080203H
        ARGFRAME XSTACK, 0, STACK
        LOCFRAME ISTACK, 1, STACK
        LOCFRAME XSTACK, 11, STACK
        PUBLIC MT_Word2Buf
        FUNCTION MT_Word2Buf,0203H
        ARGFRAME XSTACK, 0, STACK
        LOCFRAME ISTACK, 1, STACK
        LOCFRAME XSTACK, 9, STACK
        PUBLIC debugCompId
        PUBLIC debugThreshold
        PUBLIC mtProcessIncoming
        
          CFI Names cfiNames0
          CFI StackFrame CFA_SP SP IDATA
          CFI StackFrame CFA_PSP16 PSP16 XDATA
          CFI StackFrame CFA_XSP16 XSP16 XDATA
          CFI StaticOverlayFrame CFA_IOVERLAY IOVERLAY
          CFI StaticOverlayFrame CFA_DOVERLAY DOVERLAY
          CFI Resource `PSW.CY`:1, `B.BR0`:1, `B.BR1`:1, `B.BR2`:1, `B.BR3`:1
          CFI Resource `B.BR4`:1, `B.BR5`:1, `B.BR6`:1, `B.BR7`:1, `VB.BR8`:1
          CFI Resource `VB.BR9`:1, `VB.BR10`:1, `VB.BR11`:1, `VB.BR12`:1
          CFI Resource `VB.BR13`:1, `VB.BR14`:1, `VB.BR15`:1, VB:8, B:8, A:8
          CFI Resource PSW:8, DPL0:8, DPH0:8, R0:8, R1:8, R2:8, R3:8, R4:8, R5:8
          CFI Resource R6:8, R7:8, V0:8, V1:8, V2:8, V3:8, V4:8, V5:8, V6:8, V7:8
          CFI Resource V8:8, V9:8, V10:8, V11:8, V12:8, V13:8, V14:8, V15:8, SP:8
          CFI Resource PSPH:8, PSPL:8, PSP16:16, XSPH:8, XSPL:8, XSP16:16
          CFI VirtualResource ?RET:24
          CFI Resource ?BRET_EXT:8
          CFI VirtualResource ?RET_HIGH:8, ?RET_LOW:8
          CFI ResourceParts PSP16 PSPH, PSPL
          CFI ResourceParts XSP16 XSPH, XSPL
          CFI ResourceParts ?RET ?BRET_EXT, ?RET_HIGH, ?RET_LOW
          CFI EndNames cfiNames0
        
          CFI Common cfiCommon0 Using cfiNames0
          CFI CodeAlign 1
          CFI DataAlign -1
          CFI ReturnAddress ?RET CODE
          CFI CFA_DOVERLAY Used
          CFI CFA_IOVERLAY Used
          CFI CFA_SP SP+-3
          CFI CFA_PSP16 PSP16+0
          CFI CFA_XSP16 XSP16+0
          CFI `PSW.CY` SameValue
          CFI `B.BR0` SameValue
          CFI `B.BR1` SameValue
          CFI `B.BR2` SameValue
          CFI `B.BR3` SameValue
          CFI `B.BR4` SameValue
          CFI `B.BR5` SameValue
          CFI `B.BR6` SameValue
          CFI `B.BR7` SameValue
          CFI `VB.BR8` SameValue
          CFI `VB.BR9` SameValue
          CFI `VB.BR10` SameValue
          CFI `VB.BR11` SameValue
          CFI `VB.BR12` SameValue
          CFI `VB.BR13` SameValue
          CFI `VB.BR14` SameValue
          CFI `VB.BR15` SameValue
          CFI VB SameValue
          CFI B Undefined
          CFI A Undefined
          CFI PSW SameValue
          CFI DPL0 SameValue
          CFI DPH0 SameValue
          CFI R0 Undefined
          CFI R1 Undefined
          CFI R2 Undefined
          CFI R3 Undefined
          CFI R4 Undefined
          CFI R5 Undefined
          CFI R6 SameValue
          CFI R7 SameValue
          CFI V0 SameValue
          CFI V1 SameValue
          CFI V2 SameValue
          CFI V3 SameValue
          CFI V4 SameValue
          CFI V5 SameValue
          CFI V6 SameValue
          CFI V7 SameValue
          CFI V8 SameValue
          CFI V9 SameValue
          CFI V10 SameValue
          CFI V11 SameValue
          CFI V12 SameValue
          CFI V13 SameValue
          CFI V14 SameValue
          CFI V15 SameValue
          CFI PSPH Undefined
          CFI PSPL Undefined
          CFI XSPH Undefined
          CFI XSPL Undefined
          CFI ?RET Concat
          CFI ?BRET_EXT Frame(CFA_SP, 3)
          CFI ?RET_HIGH Frame(CFA_SP, 2)
          CFI ?RET_LOW Frame(CFA_SP, 1)
          CFI EndCommon cfiCommon0
        
        
          CFI Common cfiCommon1 Using cfiNames0
          CFI CodeAlign 1
          CFI DataAlign -1
          CFI ReturnAddress ?RET CODE
          CFI CFA_DOVERLAY Used
          CFI CFA_IOVERLAY Used
          CFI CFA_SP SP+-2
          CFI CFA_PSP16 PSP16+0
          CFI CFA_XSP16 XSP16+0
          CFI `PSW.CY` SameValue
          CFI `B.BR0` SameValue
          CFI `B.BR1` SameValue
          CFI `B.BR2` SameValue
          CFI `B.BR3` SameValue
          CFI `B.BR4` SameValue
          CFI `B.BR5` SameValue
          CFI `B.BR6` SameValue
          CFI `B.BR7` SameValue
          CFI `VB.BR8` SameValue
          CFI `VB.BR9` SameValue
          CFI `VB.BR10` SameValue
          CFI `VB.BR11` SameValue
          CFI `VB.BR12` SameValue
          CFI `VB.BR13` SameValue
          CFI `VB.BR14` SameValue
          CFI `VB.BR15` SameValue
          CFI VB SameValue
          CFI B SameValue
          CFI A SameValue
          CFI PSW SameValue
          CFI DPL0 SameValue
          CFI DPH0 SameValue
          CFI R0 SameValue
          CFI R1 SameValue
          CFI R2 SameValue
          CFI R3 SameValue
          CFI R4 SameValue
          CFI R5 SameValue
          CFI R6 SameValue
          CFI R7 SameValue
          CFI V0 SameValue
          CFI V1 SameValue
          CFI V2 SameValue
          CFI V3 SameValue
          CFI V4 SameValue
          CFI V5 SameValue
          CFI V6 SameValue
          CFI V7 SameValue
          CFI V8 SameValue
          CFI V9 SameValue
          CFI V10 SameValue
          CFI V11 SameValue
          CFI V12 SameValue
          CFI V13 SameValue
          CFI V14 SameValue
          CFI V15 SameValue
          CFI PSPH Undefined
          CFI PSPL Undefined
          CFI XSPH Undefined
          CFI XSPL Undefined
          CFI ?RET Concat
          CFI ?BRET_EXT SameValue
          CFI ?RET_HIGH Frame(CFA_SP, 2)
          CFI ?RET_LOW Frame(CFA_SP, 1)
          CFI EndCommon cfiCommon1
        
`?<Name MT_AfCommandProcessi 0>` SYMBOL "MT_AfCommandProcessing"
`??MT_AfCommandProcessing::?relay` SYMBOL "?relay", `?<Name MT_AfCommandProcessi 0>`
`?<Name MT_AppCommandProcess 2>` SYMBOL "MT_AppCommandProcessing"
`??MT_AppCommandProcessing::?relay` SYMBOL "?relay", `?<Name MT_AppCommandProcess 2>`
`?<Name MT_SapiCommandProces 4>` SYMBOL "MT_SapiCommandProcessing"
`??MT_SapiCommandProcessing::?relay` SYMBOL "?relay", `?<Name MT_SapiCommandProces 4>`
`?<Name MT_SysCommandProcess 6>` SYMBOL "MT_SysCommandProcessing"
`??MT_SysCommandProcessing::?relay` SYMBOL "?relay", `?<Name MT_SysCommandProcess 6>`
MT_SysResetInd      SYMBOL "MT_SysResetInd"
`??MT_SysResetInd::?relay` SYMBOL "?relay", MT_SysResetInd
MT_TransportAlloc   SYMBOL "MT_TransportAlloc"
`??MT_TransportAlloc::?relay` SYMBOL "?relay", MT_TransportAlloc
MT_TransportSend    SYMBOL "MT_TransportSend"
`??MT_TransportSend::?relay` SYMBOL "?relay", MT_TransportSend
`?<Name MT_UtilCommandProces 14>` SYMBOL "MT_UtilCommandProcessing"
`??MT_UtilCommandProcessing::?relay` SYMBOL "?relay", `?<Name MT_UtilCommandProces 14>`
`?<Name MT_ZdoCommandProcess 16>` SYMBOL "MT_ZdoCommandProcessing"
`??MT_ZdoCommandProcessing::?relay` SYMBOL "?relay", `?<Name MT_ZdoCommandProcess 16>`
MT_ZdoInit          SYMBOL "MT_ZdoInit"
`??MT_ZdoInit::?relay` SYMBOL "?relay", MT_ZdoInit
afFindEndPointDesc  SYMBOL "afFindEndPointDesc"
`??afFindEndPointDesc::?relay` SYMBOL "?relay", afFindEndPointDesc
osal_mem_alloc      SYMBOL "osal_mem_alloc"
`??osal_mem_alloc::?relay` SYMBOL "?relay", osal_mem_alloc
osal_mem_free       SYMBOL "osal_mem_free"
`??osal_mem_free::?relay` SYMBOL "?relay", osal_mem_free
osal_memcpy         SYMBOL "osal_memcpy"
`??osal_memcpy::?relay` SYMBOL "?relay", osal_memcpy
MTProcessAppRspMsg  SYMBOL "MTProcessAppRspMsg"
`??MTProcessAppRspMsg::?relay` SYMBOL "?relay", MTProcessAppRspMsg
MT_BuildAndSendZToolResponse SYMBOL "MT_BuildAndSendZToolResponse"
`??MT_BuildAndSendZToolResponse::?relay` SYMBOL "?relay", MT_BuildAndSendZToolResponse
MT_BuildEndpointDesc SYMBOL "MT_BuildEndpointDesc"
`??MT_BuildEndpointDesc::?relay` SYMBOL "?relay", MT_BuildEndpointDesc
MT_Init             SYMBOL "MT_Init"
`??MT_Init::?relay` SYMBOL "?relay", MT_Init
MT_ProcessIncoming  SYMBOL "MT_ProcessIncoming"
`??MT_ProcessIncoming::?relay` SYMBOL "?relay", MT_ProcessIncoming
MT_ReverseBytes     SYMBOL "MT_ReverseBytes"
`??MT_ReverseBytes::?relay` SYMBOL "?relay", MT_ReverseBytes
MT_Word2Buf         SYMBOL "MT_Word2Buf"
`??MT_Word2Buf::?relay` SYMBOL "?relay", MT_Word2Buf

        EXTERN `??MT_AfCommandProcessing::?relay`
        FUNCTION `??MT_AfCommandProcessing::?relay`,00H
        EXTERN `??MT_AppCommandProcessing::?relay`
        FUNCTION `??MT_AppCommandProcessing::?relay`,00H
        EXTERN `??MT_SapiCommandProcessing::?relay`
        FUNCTION `??MT_SapiCommandProcessing::?relay`,00H
        EXTERN `??MT_SysCommandProcessing::?relay`
        FUNCTION `??MT_SysCommandProcessing::?relay`,00H
        EXTERN `??MT_SysResetInd::?relay`
        FUNCTION `??MT_SysResetInd::?relay`,00H
        EXTERN `??MT_TransportAlloc::?relay`
        FUNCTION `??MT_TransportAlloc::?relay`,00H
        EXTERN `??MT_TransportSend::?relay`
        FUNCTION `??MT_TransportSend::?relay`,00H
        EXTERN `??MT_UtilCommandProcessing::?relay`
        FUNCTION `??MT_UtilCommandProcessing::?relay`,00H
        EXTERN `??MT_ZdoCommandProcessing::?relay`
        FUNCTION `??MT_ZdoCommandProcessing::?relay`,00H
        EXTERN `??MT_ZdoInit::?relay`
        FUNCTION `??MT_ZdoInit::?relay`,00H
        EXTERN `??afFindEndPointDesc::?relay`
        FUNCTION `??afFindEndPointDesc::?relay`,00H
        EXTERN `??osal_mem_alloc::?relay`
        FUNCTION `??osal_mem_alloc::?relay`,00H
        EXTERN `??osal_mem_free::?relay`
        FUNCTION `??osal_mem_free::?relay`,00H
        EXTERN `??osal_memcpy::?relay`
        FUNCTION `??osal_memcpy::?relay`,00H
        EXTERN MT_SysResetInd
        FUNCTION MT_SysResetInd,0202H
        ARGFRAME ISTACK, 0, STACK
        ARGFRAME PSTACK, 0, STACK
        ARGFRAME XSTACK, 9, STACK
        ARGFRAME IOVERLAY, 0, STATIC
        ARGFRAME DOVERLAY, 0, STATIC
        EXTERN MT_TaskID
        EXTERN MT_TransportAlloc
        FUNCTION MT_TransportAlloc,0202H
        ARGFRAME ISTACK, 0, STACK
        ARGFRAME PSTACK, 0, STACK
        ARGFRAME XSTACK, 16, STACK
        ARGFRAME IOVERLAY, 0, STATIC
        ARGFRAME DOVERLAY, 0, STATIC
        EXTERN MT_TransportSend
        FUNCTION MT_TransportSend,0202H
        ARGFRAME ISTACK, 0, STACK
        ARGFRAME PSTACK, 0, STACK
        ARGFRAME XSTACK, 16, STACK
        ARGFRAME IOVERLAY, 0, STATIC
        ARGFRAME DOVERLAY, 0, STATIC
        EXTERN MT_ZdoInit
        FUNCTION MT_ZdoInit,0202H
        ARGFRAME ISTACK, 0, STACK
        ARGFRAME PSTACK, 0, STACK
        ARGFRAME XSTACK, 9, STACK
        ARGFRAME IOVERLAY, 0, STATIC
        ARGFRAME DOVERLAY, 0, STATIC
        EXTERN afFindEndPointDesc
        FUNCTION afFindEndPointDesc,0202H
        ARGFRAME ISTACK, 0, STACK
        ARGFRAME PSTACK, 0, STACK
        ARGFRAME XSTACK, 16, STACK
        ARGFRAME IOVERLAY, 0, STATIC
        ARGFRAME DOVERLAY, 0, STATIC
        EXTERN osal_mem_alloc
        FUNCTION osal_mem_alloc,0202H
        ARGFRAME ISTACK, 0, STACK
        ARGFRAME PSTACK, 0, STACK
        ARGFRAME XSTACK, 16, STACK
        ARGFRAME IOVERLAY, 0, STATIC
        ARGFRAME DOVERLAY, 0, STATIC
        EXTERN osal_mem_free
        FUNCTION osal_mem_free,0202H
        ARGFRAME ISTACK, 0, STACK
        ARGFRAME PSTACK, 0, STACK
        ARGFRAME XSTACK, 16, STACK
        ARGFRAME IOVERLAY, 0, STATIC
        ARGFRAME DOVERLAY, 0, STATIC
        EXTERN osal_memcpy
        FUNCTION osal_memcpy,0202H
        ARGFRAME ISTACK, 0, STACK
        ARGFRAME PSTACK, 0, STACK
        ARGFRAME XSTACK, 19, STACK
        ARGFRAME IOVERLAY, 0, STATIC
        ARGFRAME DOVERLAY, 0, STATIC

// C:\Texas Instruments\Z-Stack Home 1.2.2a.44539\Components\mt\MT.c
//    1 /***************************************************************************************************
//    2   Filename:       MT.c
//    3   Revised:        $Date: 2015-01-18 19:44:10 -0800 (Sun, 18 Jan 2015) $
//    4   Revision:       $Revision: 41896 $
//    5 
//    6   Description:    MonitorTest Event Loop functions.
//    7                   Everything in the MonitorTest Task (except the serial driver).
//    8 
//    9 
//   10   Copyright 2007-2014 Texas Instruments Incorporated. All rights reserved.
//   11 
//   12   IMPORTANT: Your use of this Software is limited to those specific rights
//   13   granted under the terms of a software license agreement between the user
//   14   who downloaded the software, his/her employer (which must be your employer)
//   15   and Texas Instruments Incorporated (the "License").  You may not use this
//   16   Software unless you agree to abide by the terms of the License. The License
//   17   limits your use, and you acknowledge, that the Software may not be modified,
//   18   copied or distributed unless embedded on a Texas Instruments microcontroller
//   19   or used solely and exclusively in conjunction with a Texas Instruments radio
//   20   frequency transceiver, which is integrated into your product.  Other than for
//   21   the foregoing purpose, you may not use, reproduce, copy, prepare derivative
//   22   works of, modify, distribute, perform, display or sell this Software and/or
//   23   its documentation for any purpose.
//   24 
//   25   YOU FURTHER ACKNOWLEDGE AND AGREE THAT THE SOFTWARE AND DOCUMENTATION ARE
//   26   PROVIDED “AS IS” WITHOUT WARRANTY OF ANY KIND, EITHER EXPRESS OR IMPLIED,
//   27   INCLUDING WITHOUT LIMITATION, ANY WARRANTY OF MERCHANTABILITY, TITLE,
//   28   NON-INFRINGEMENT AND FITNESS FOR A PARTICULAR PURPOSE. IN NO EVENT SHALL
//   29   TEXAS INSTRUMENTS OR ITS LICENSORS BE LIABLE OR OBLIGATED UNDER CONTRACT,
//   30   NEGLIGENCE, STRICT LIABILITY, CONTRIBUTION, BREACH OF WARRANTY, OR OTHER
//   31   LEGAL EQUITABLE THEORY ANY DIRECT OR INDIRECT DAMAGES OR EXPENSES
//   32   INCLUDING BUT NOT LIMITED TO ANY INCIDENTAL, SPECIAL, INDIRECT, PUNITIVE
//   33   OR CONSEQUENTIAL DAMAGES, LOST PROFITS OR LOST DATA, COST OF PROCUREMENT
//   34   OF SUBSTITUTE GOODS, TECHNOLOGY, SERVICES, OR ANY CLAIMS BY THIRD PARTIES
//   35   (INCLUDING BUT NOT LIMITED TO ANY DEFENSE THEREOF), OR OTHER SIMILAR COSTS.
//   36 
//   37   Should you have any questions regarding your right to use this Software,
//   38   contact Texas Instruments Incorporated at www.TI.com.
//   39 
//   40  **************************************************************************************************/
//   41 
//   42 /**************************************************************************************************
//   43  * INCLUDES
//   44  **************************************************************************************************/
//   45 
//   46 #include "ZComDef.h"
//   47 #include "MT.h"
//   48 #include "MT_APP.h"
//   49 #include "MT_DEBUG.h"
//   50 #include "MT_UTIL.h"
//   51 #include "MT_SYS.h"
//   52 
//   53 #include "OnBoard.h"
//   54 #include "OSAL.h"
//   55 #include "OSAL_Memory.h"
//   56 #include "OSAL_Nv.h"
//   57 
//   58 #include "DebugTrace.h"
//   59 #include "ZMAC.h"
//   60 
//   61 #if !defined ( NONWK )
//   62   #include "NLMEDE.h"
//   63   #include "nwk_bufs.h"
//   64   #include "ZDObject.h"
//   65   #include "ssp.h"
//   66   #include "nwk_util.h"
//   67   #include "AF.h"
//   68   #include "MT_SAPI.h"
//   69 #endif
//   70 
//   71 #if defined( MT_MAC_FUNC ) || defined( MT_MAC_CB_FUNC )
//   72   #include "MT_MAC.h"
//   73 #endif
//   74 #if defined( MT_NWK_FUNC ) || defined( MT_NWK_CB_FUNC )
//   75   #include "MT_NWK.h"
//   76   #include "nwk.h"
//   77   #include "nwk_bufs.h"
//   78 #endif
//   79 #if defined( MT_AF_FUNC ) || defined( MT_AF_CB_FUNC )
//   80   #include "MT_AF.h"
//   81 #endif
//   82 #if defined( MT_USER_TEST_FUNC )
//   83   #include "AF.h"
//   84 #endif
//   85 #if defined( MT_ZDO_FUNC )
//   86   #include "MT_ZDO.h"
//   87 #endif
//   88 #if defined (MT_SAPI_FUNC)
//   89 	#include "MT_SAPI.h"
//   90 #endif
//   91 #if defined (MT_OTA_FUNC)
//   92   #include "MT_OTA.h"
//   93 #endif
//   94 
//   95 #if defined( APP_TP )
//   96  #include "TestProfile.h"
//   97 #endif
//   98 #if defined( APP_TP2 )
//   99  #include "TestProfile2.h"
//  100 #endif
//  101 
//  102 #if defined(APP_TGEN)
//  103   #include "TrafficGenApp.h"
//  104 #endif
//  105 #if defined(APP_DEBUG)
//  106 	#include "DebugApp.h"
//  107 #endif
//  108 #if defined (NWK_TEST)
//  109 	#include "HWTTApp.h"
//  110 #endif
//  111 #if defined (MT_UBL_FUNC)
//  112   extern uint8 MT_UblCommandProcessing(uint8 *pBuf);
//  113 #endif
//  114 #if defined (MT_ZNP_FUNC)
//  115   #include "MT_ZNP.h"
//  116 #endif
//  117 #if defined (MT_MAC_PROTOBUF_FUNC)
//  118   #include "mtmacpb.h"
//  119 #endif
//  120 #if defined (MT_GP_FUNC)
//  121   #include "MT_GP.h"
//  122 #endif
//  123 
//  124 #include "hal_uart.h"
//  125 #include "hal_led.h"
//  126 #include "hal_key.h"
//  127 #include "MT_UART.h"
//  128 
//  129 #if defined (FEATURE_DUAL_MAC)
//  130   #include "dmmgr.h"
//  131 #endif 
//  132 
//  133 /**************************************************************************************************
//  134  * CONSTANTS
//  135  **************************************************************************************************/
//  136 

        RSEG XDATA_I:XDATA:NOROOT(0)
//  137 mtProcessMsg_t mtProcessIncoming[] =
mtProcessIncoming:
        DATA8
        DS 44
        REQUIRE `?<Initializer for mtProcessIncoming>`
        REQUIRE __INIT_XDATA_I
//  138 {
//  139   NULL,                               // MT_RPC_SYS_RES0
//  140 
//  141 #if defined (MT_SYS_FUNC)
//  142   MT_SysCommandProcessing,            // MT_RPC_SYS_SYS
//  143 #else
//  144   NULL,
//  145 #endif
//  146 
//  147 #if defined (MT_MAC_FUNC)
//  148   MT_MacCommandProcessing,            // MT_RPC_SYS_MAC
//  149 #else
//  150   NULL,
//  151 #endif
//  152 
//  153 #if defined (MT_NWK_FUNC)
//  154   MT_NwkCommandProcessing,            // MT_RPC_SYS_NWK
//  155 #else
//  156   NULL,
//  157 #endif
//  158 
//  159 #if defined (MT_AF_FUNC)
//  160   MT_AfCommandProcessing,             // MT_RPC_SYS_AF
//  161 #else
//  162   NULL,
//  163 #endif
//  164 
//  165 #if defined (MT_ZDO_FUNC)
//  166   MT_ZdoCommandProcessing,            // MT_RPC_SYS_ZDO
//  167 #else
//  168   NULL,
//  169 #endif
//  170 
//  171 #if defined (MT_SAPI_FUNC)
//  172   MT_SapiCommandProcessing,           // MT_RPC_SYS_SAPI
//  173 #else
//  174   NULL,
//  175 #endif
//  176 
//  177 #if defined (MT_UTIL_FUNC)
//  178   MT_UtilCommandProcessing,           // MT_RPC_SYS_UTIL
//  179 #else
//  180   NULL,
//  181 #endif
//  182 
//  183 #if defined (MT_DEBUG_FUNC)
//  184   MT_DebugCommandProcessing,          // MT_RPC_SYS_DBG
//  185 #else
//  186   NULL,
//  187 #endif
//  188 
//  189 #if defined (MT_APP_FUNC)
//  190   MT_AppCommandProcessing,            // MT_RPC_SYS_APP
//  191 #else
//  192   NULL,
//  193 #endif
//  194 
//  195 #if defined (MT_OTA_FUNC)
//  196   MT_OtaCommandProcessing,            // MT_RPC_SYS_OTA
//  197 #else
//  198   NULL,
//  199 #endif
//  200 
//  201 #if defined (MT_ZNP_FUNC)
//  202   MT_ZnpCommandProcessing,
//  203 #else
//  204   NULL,
//  205 #endif
//  206 
//  207   NULL,  // Spare sub-system 12.
//  208 
//  209 #if defined (MT_UBL_FUNC)
//  210   MT_UblCommandProcessing,
//  211 #else
//  212   NULL,
//  213 #endif
//  214 
//  215   NULL,                               // MT_RPC_SYS_RESERVED14
//  216   NULL,                               // MT_RPC_SYS_RESERVED15
//  217   NULL,                               // MT_RPC_SYS_RESERVED16
//  218 #if defined (MT_MAC_PROTOBUF_FUNC)
//  219   MT_MacPBCmdProc,                    // MT_RPC_SYS_PROTOBUF
//  220 #else
//  221   NULL,
//  222 #endif
//  223   NULL,                               // MT_RPC_SYS_RES18
//  224   NULL,                               // MT_RPC_SYS_RES19
//  225   NULL,                               // MT_RPC_SYS_RES20
//  226 #if defined (MT_GP_FUNC)
//  227   MT_GpCommandProcessing,
//  228 #else
//  229   NULL,
//  230 #endif
//  231 };
//  232 
//  233 /**************************************************************************************************
//  234  * GLOBAL VARIABLES
//  235  **************************************************************************************************/
//  236 

        RSEG XDATA_Z:XDATA:NOROOT(0)
        DATA8
//  237 byte debugThreshold;
debugThreshold:
        DS 1
        REQUIRE __INIT_XDATA_Z

        RSEG XDATA_Z:XDATA:NOROOT(0)
        DATA8
//  238 byte debugCompId;
debugCompId:
        DS 1
        REQUIRE __INIT_XDATA_Z
//  239 
//  240 /**************************************************************************************************
//  241  * LOCAL FUNCTIONS
//  242  **************************************************************************************************/
//  243 
//  244 void MT_MsgQueueInit( void );
//  245 void MT_ResetMsgQueue( void );
//  246 byte MT_QueueMsg( byte *msg , byte len );
//  247 void MT_ProcessQueue( void );
//  248 
//  249 #if defined ( MT_USER_TEST_FUNC )
//  250 void MT_ProcessAppUserCmd( byte *pData );
//  251 #endif
//  252 
//  253 /**************************************************************************************************
//  254  * @fn         MT_Init
//  255  *
//  256  * @brief      This function is the secondary initialization that resolves conflicts during
//  257  *             osalInitTasks(). For example, since MT is the highest priority task, and
//  258  *             specifically because the MT task is initialized before the ZDApp task, if MT_Init()
//  259  *             registers anything with ZDO_RegisterForZdoCB(), it is wiped out when ZDApp task
//  260  *             initialization invokes ZDApp_InitZdoCBFunc().
//  261  *             There may be other existing or future such races, so try to do all possible
//  262  *             MT initialization here vice in MT_TaskInit().
//  263  *
//  264  * input parameters
//  265  *
//  266  * None.
//  267  *
//  268  * output parameters
//  269  *
//  270  * None.
//  271  *
//  272  * @return      None.
//  273  **************************************************************************************************
//  274  */

        RSEG BANKED_CODE:HUGECODE:NOROOT(0)
//  275 void MT_Init(uint8 taskID)
MT_Init:
          CFI Block cfiBlock0 Using cfiCommon0
          CFI Function MT_Init
        CODE
//  276 {
        FUNCALL MT_Init, MT_ZdoInit
        LOCFRAME ISTACK, 0, STACK
        LOCFRAME PSTACK, 0, STACK
        LOCFRAME XSTACK, 9, STACK
        LOCFRAME IOVERLAY, 0, STATIC
        LOCFRAME DOVERLAY, 0, STATIC
        ARGFRAME ISTACK, 0, STACK
        ARGFRAME PSTACK, 0, STACK
        ARGFRAME XSTACK, 9, STACK
        ARGFRAME IOVERLAY, 0, STATIC
        ARGFRAME DOVERLAY, 0, STATIC
        FUNCALL MT_Init, MT_SysResetInd
        LOCFRAME ISTACK, 0, STACK
        LOCFRAME PSTACK, 0, STACK
        LOCFRAME XSTACK, 9, STACK
        LOCFRAME IOVERLAY, 0, STATIC
        LOCFRAME DOVERLAY, 0, STATIC
        ARGFRAME ISTACK, 0, STACK
        ARGFRAME PSTACK, 0, STACK
        ARGFRAME XSTACK, 9, STACK
        ARGFRAME IOVERLAY, 0, STATIC
        ARGFRAME DOVERLAY, 0, STATIC
        MOV       A,#-0x9
        LCALL     ?BANKED_ENTER_XDATA
          CFI DPH0 load(1, XDATA, add(CFA_XSP16, literal(-1)))
          CFI DPL0 load(1, XDATA, add(CFA_XSP16, literal(-2)))
          CFI ?BRET_EXT load(1, XDATA, add(CFA_XSP16, literal(-3)))
          CFI ?RET_HIGH load(1, XDATA, add(CFA_XSP16, literal(-4)))
          CFI ?RET_LOW load(1, XDATA, add(CFA_XSP16, literal(-5)))
          CFI R7 load(1, XDATA, add(CFA_XSP16, literal(-6)))
          CFI V0 load(1, XDATA, add(CFA_XSP16, literal(-7)))
          CFI VB load(1, XDATA, add(CFA_XSP16, literal(-8)))
          CFI R6 load(1, XDATA, add(CFA_XSP16, literal(-9)))
          CFI CFA_SP SP+0
          CFI CFA_XSP16 add(XSP16, 9)
        ; Saved register size: 9
        ; Auto size: 0
        MOV       A,R1
//  277   MT_TaskID = taskID;
        MOV       DPTR,#MT_TaskID
        MOVX      @DPTR,A
//  278   debugThreshold = 0;
        MOV       DPTR,#debugThreshold
        CLR       A
        MOVX      @DPTR,A
//  279   debugCompId = 0;
        MOV       DPTR,#debugCompId
        MOVX      @DPTR,A
//  280 
//  281 #if defined (MT_ZDO_FUNC)
//  282   MT_ZdoInit();
        ; Setup parameters for call to function MT_ZdoInit
        LCALL     `??MT_ZdoInit::?relay`; Banked call to: MT_ZdoInit
//  283 #endif
//  284 #ifndef ZBIT
//  285   MT_SysResetInd();
        ; Setup parameters for call to function MT_SysResetInd
        LCALL     `??MT_SysResetInd::?relay`; Banked call to: MT_SysResetInd
//  286 #endif /* !ZBIT */
//  287 }
          CFI EndBlock cfiBlock0
        REQUIRE ?Subroutine0
        ; // Fall through to label ?Subroutine0

        RSEG BANKED_CODE:HUGECODE:NOROOT(0)
?Subroutine0:
          CFI Block cfiBlock1 Using cfiCommon0
          CFI NoFunction
          CFI CFA_SP SP+0
          CFI CFA_XSP16 add(XSP16, 9)
          CFI VB load(1, XDATA, add(CFA_XSP16, literal(-8)))
          CFI DPL0 load(1, XDATA, add(CFA_XSP16, literal(-2)))
          CFI DPH0 load(1, XDATA, add(CFA_XSP16, literal(-1)))
          CFI R6 load(1, XDATA, add(CFA_XSP16, literal(-9)))
          CFI R7 load(1, XDATA, add(CFA_XSP16, literal(-6)))
          CFI V0 load(1, XDATA, add(CFA_XSP16, literal(-7)))
          CFI ?BRET_EXT load(1, XDATA, add(CFA_XSP16, literal(-3)))
          CFI ?RET_HIGH load(1, XDATA, add(CFA_XSP16, literal(-4)))
          CFI ?RET_LOW load(1, XDATA, add(CFA_XSP16, literal(-5)))
        MOV       R7,#0x1
        LJMP      ?BANKED_LEAVE_XDATA
          CFI EndBlock cfiBlock1
//  288 
//  289 /***************************************************************************************************
//  290  * @fn      MT_BuildAndSendZToolResponse
//  291  *
//  292  * @brief   Build and send a ZTOOL msg
//  293  * @param   uint8 cmdType - include type and subsystem
//  294  *          uint8 cmdId - command ID
//  295  *          byte dataLen
//  296  *          byte *pData
//  297  *
//  298  * @return  void
//  299  ***************************************************************************************************/
//  300 #if !defined(NPI)

        RSEG BANKED_CODE:HUGECODE:NOROOT(0)
//  301 void MT_BuildAndSendZToolResponse(uint8 cmdType, uint8 cmdId, uint8 dataLen, uint8 *pData)
MT_BuildAndSendZToolResponse:
          CFI Block cfiBlock2 Using cfiCommon0
          CFI Function MT_BuildAndSendZToolResponse
        CODE
//  302 {
        FUNCALL MT_BuildAndSendZToolResponse, MT_TransportAlloc
        LOCFRAME ISTACK, 0, STACK
        LOCFRAME PSTACK, 0, STACK
        LOCFRAME XSTACK, 16, STACK
        LOCFRAME IOVERLAY, 0, STATIC
        LOCFRAME DOVERLAY, 0, STATIC
        ARGFRAME ISTACK, 0, STACK
        ARGFRAME PSTACK, 0, STACK
        ARGFRAME XSTACK, 16, STACK
        ARGFRAME IOVERLAY, 0, STATIC
        ARGFRAME DOVERLAY, 0, STATIC
        FUNCALL MT_BuildAndSendZToolResponse, osal_memcpy
        LOCFRAME ISTACK, 0, STACK
        LOCFRAME PSTACK, 0, STACK
        LOCFRAME XSTACK, 19, STACK
        LOCFRAME IOVERLAY, 0, STATIC
        LOCFRAME DOVERLAY, 0, STATIC
        ARGFRAME ISTACK, 0, STACK
        ARGFRAME PSTACK, 0, STACK
        ARGFRAME XSTACK, 19, STACK
        ARGFRAME IOVERLAY, 0, STATIC
        ARGFRAME DOVERLAY, 0, STATIC
        FUNCALL MT_BuildAndSendZToolResponse, MT_TransportSend
        LOCFRAME ISTACK, 0, STACK
        LOCFRAME PSTACK, 0, STACK
        LOCFRAME XSTACK, 16, STACK
        LOCFRAME IOVERLAY, 0, STATIC
        LOCFRAME DOVERLAY, 0, STATIC
        ARGFRAME ISTACK, 0, STACK
        ARGFRAME PSTACK, 0, STACK
        ARGFRAME XSTACK, 16, STACK
        ARGFRAME IOVERLAY, 0, STATIC
        ARGFRAME DOVERLAY, 0, STATIC
        REQUIRE ?V0
        REQUIRE ?V1
        REQUIRE ?V2
        REQUIRE ?V3
        REQUIRE ?V4
        REQUIRE ?V5
        REQUIRE ?V6
        REQUIRE ?V7
        MOV       A,#-0x10
        LCALL     ?BANKED_ENTER_XDATA
          CFI DPH0 load(1, XDATA, add(CFA_XSP16, literal(-1)))
          CFI DPL0 load(1, XDATA, add(CFA_XSP16, literal(-2)))
          CFI ?BRET_EXT load(1, XDATA, add(CFA_XSP16, literal(-3)))
          CFI ?RET_HIGH load(1, XDATA, add(CFA_XSP16, literal(-4)))
          CFI ?RET_LOW load(1, XDATA, add(CFA_XSP16, literal(-5)))
          CFI R7 load(1, XDATA, add(CFA_XSP16, literal(-6)))
          CFI V7 load(1, XDATA, add(CFA_XSP16, literal(-7)))
          CFI V6 load(1, XDATA, add(CFA_XSP16, literal(-8)))
          CFI V5 load(1, XDATA, add(CFA_XSP16, literal(-9)))
          CFI V4 load(1, XDATA, add(CFA_XSP16, literal(-10)))
          CFI V3 load(1, XDATA, add(CFA_XSP16, literal(-11)))
          CFI V2 load(1, XDATA, add(CFA_XSP16, literal(-12)))
          CFI V1 load(1, XDATA, add(CFA_XSP16, literal(-13)))
          CFI V0 load(1, XDATA, add(CFA_XSP16, literal(-14)))
          CFI VB load(1, XDATA, add(CFA_XSP16, literal(-15)))
          CFI R6 load(1, XDATA, add(CFA_XSP16, literal(-16)))
          CFI CFA_SP SP+0
          CFI CFA_XSP16 add(XSP16, 16)
        ; Saved register size: 16
        ; Auto size: 0
        MOV       ?V3,R1
        MOV       ?V7,R2
        MOV       ?V2,R3
        MOV       ?V0,R4
        MOV       ?V1,R5
//  303   uint8 *msg_ptr;
//  304 
//  305 #ifdef FEATURE_DUAL_MAC
//  306   msg_ptr = DMMGR_BuildRspMsg( cmdType, cmdId, dataLen, pData );
//  307 
//  308   if ( msg_ptr )
//  309   {
//  310     MT_TransportSend(msg_ptr);
//  311   }
//  312 #else
//  313   if ((msg_ptr = MT_TransportAlloc((mtRpcCmdType_t)(cmdType & 0xE0), dataLen)) != NULL)
        ; Setup parameters for call to function MT_TransportAlloc
        MOV       R2,?V2
        MOV       A,#-0x20
        ANL       A,?V3
        MOV       R1,A
        LCALL     `??MT_TransportAlloc::?relay`; Banked call to: MT_TransportAlloc
        MOV       ?V4,R2
        MOV       ?V5,R3
        MOV       R6,?V4
        MOV       R7,?V5
        MOV       A,R6
        ORL       A,R7
        JZ        ??MT_BuildAndSendZToolResponse_0
//  314   {
//  315     msg_ptr[MT_RPC_POS_LEN] = dataLen;
        MOV       DPL,R6
        MOV       DPH,R7
        MOV       A,?V2
        MOVX      @DPTR,A
//  316     msg_ptr[MT_RPC_POS_CMD0] = cmdType;
        INC       DPTR
        MOV       A,?V3
        LCALL     ?Subroutine3 & 0xFFFF
//  317     msg_ptr[MT_RPC_POS_CMD1] = cmdId;
??CrossCallReturnLabel_2:
        MOV       A,?V7
        MOVX      @DPTR,A
//  318     (void)osal_memcpy(msg_ptr+MT_RPC_POS_DAT0, pData, dataLen);
        ; Setup parameters for call to function osal_memcpy
        MOV       ?V4,?V0
        MOV       ?V5,?V1
        MOV       ?V6,#0x0
        MOV       R0,#?V4
        LCALL     ?PUSH_XSTACK_I_THREE
          CFI CFA_XSP16 add(XSP16, 19)
        MOV       R4,?V2
        MOV       R5,#0x0
        MOV       A,R6
        ADD       A,#0x3
        MOV       R2,A
        CLR       A
        ADDC      A,R7
        MOV       R3,A
        LCALL     `??osal_memcpy::?relay`; Banked call to: osal_memcpy
        MOV       A,#0x3
        LCALL     ?DEALLOC_XSTACK8
          CFI CFA_XSP16 add(XSP16, 16)
//  319 
//  320     MT_TransportSend(msg_ptr);
        ; Setup parameters for call to function MT_TransportSend
        MOV       A,R6
        MOV       R2,A
        MOV       A,R7
        MOV       R3,A
        LCALL     `??MT_TransportSend::?relay`; Banked call to: MT_TransportSend
//  321   }
//  322 #endif /* FEATURE_DUAL_MAC */
//  323 }
??MT_BuildAndSendZToolResponse_0:
          CFI EndBlock cfiBlock2
        REQUIRE ?Subroutine1
        ; // Fall through to label ?Subroutine1

        RSEG BANKED_CODE:HUGECODE:NOROOT(0)
?Subroutine1:
          CFI Block cfiBlock3 Using cfiCommon0
          CFI NoFunction
          CFI CFA_SP SP+0
          CFI CFA_XSP16 add(XSP16, 16)
          CFI VB load(1, XDATA, add(CFA_XSP16, literal(-15)))
          CFI DPL0 load(1, XDATA, add(CFA_XSP16, literal(-2)))
          CFI DPH0 load(1, XDATA, add(CFA_XSP16, literal(-1)))
          CFI R6 load(1, XDATA, add(CFA_XSP16, literal(-16)))
          CFI R7 load(1, XDATA, add(CFA_XSP16, literal(-6)))
          CFI V0 load(1, XDATA, add(CFA_XSP16, literal(-14)))
          CFI V1 load(1, XDATA, add(CFA_XSP16, literal(-13)))
          CFI V2 load(1, XDATA, add(CFA_XSP16, literal(-12)))
          CFI V3 load(1, XDATA, add(CFA_XSP16, literal(-11)))
          CFI V4 load(1, XDATA, add(CFA_XSP16, literal(-10)))
          CFI V5 load(1, XDATA, add(CFA_XSP16, literal(-9)))
          CFI V6 load(1, XDATA, add(CFA_XSP16, literal(-8)))
          CFI V7 load(1, XDATA, add(CFA_XSP16, literal(-7)))
          CFI ?BRET_EXT load(1, XDATA, add(CFA_XSP16, literal(-3)))
          CFI ?RET_HIGH load(1, XDATA, add(CFA_XSP16, literal(-4)))
          CFI ?RET_LOW load(1, XDATA, add(CFA_XSP16, literal(-5)))
        MOV       R7,#0x8
        LJMP      ?BANKED_LEAVE_XDATA
          CFI EndBlock cfiBlock3
//  324 #endif /* NPI */
//  325 /***************************************************************************************************
//  326  * @fn      MT_ProcessIncoming
//  327  *
//  328  * @brief  Process Incoming Message.
//  329  *
//  330  * @param   byte *pBuf - pointer to event message
//  331  *
//  332  * @return  void
//  333  ***************************************************************************************************/

        RSEG BANKED_CODE:HUGECODE:NOROOT(0)
//  334 void MT_ProcessIncoming(uint8 *pBuf)
MT_ProcessIncoming:
          CFI Block cfiBlock4 Using cfiCommon0
          CFI Function MT_ProcessIncoming
        CODE
//  335 {
        FUNCALL MT_ProcessIncoming, MT_BuildAndSendZToolResponse
        LOCFRAME ISTACK, 2, STACK
        LOCFRAME PSTACK, 0, STACK
        LOCFRAME XSTACK, 3, STACK
        LOCFRAME IOVERLAY, 0, STATIC
        LOCFRAME DOVERLAY, 0, STATIC
        ARGFRAME ISTACK, 2, STACK
        ARGFRAME PSTACK, 0, STACK
        ARGFRAME XSTACK, 3, STACK
        ARGFRAME IOVERLAY, 0, STATIC
        ARGFRAME DOVERLAY, 0, STATIC
        PUSH      DPL
          CFI DPL0 Frame(CFA_SP, 4)
          CFI CFA_SP SP+-4
        PUSH      DPH
          CFI DPH0 Frame(CFA_SP, 5)
          CFI CFA_SP SP+-5
        ; Saved register size: 2
        ; Auto size: 3
        MOV       A,#-0x3
        LCALL     ?ALLOC_XSTACK8
          CFI CFA_XSP16 add(XSP16, 3)
//  336   mtProcessMsg_t func;
//  337   uint8 rsp[MT_RPC_FRAME_HDR_SZ];
//  338 
//  339   /* pre-build response message:  | status | cmd0 | cmd1 | */
//  340   rsp[1] = pBuf[MT_RPC_POS_CMD0];
        MOV       DPL,R2
        MOV       DPH,R3
        INC       DPTR
        MOVX      A,@DPTR
        PUSH      A
          CFI CFA_SP SP+-6
        MOV       A,#0x1
        LCALL     ?XSTACK_DISP0_8
        POP       A
          CFI CFA_SP SP+-5
        MOVX      @DPTR,A
//  341   rsp[2] = pBuf[MT_RPC_POS_CMD1];
        MOV       DPL,R2
        MOV       DPH,R3
        INC       DPTR
        INC       DPTR
        MOVX      A,@DPTR
        PUSH      A
          CFI CFA_SP SP+-6
        MOV       A,#0x2
        LCALL     ?XSTACK_DISP0_8
        POP       A
          CFI CFA_SP SP+-5
        MOVX      @DPTR,A
//  342 
//  343   /* check length */
//  344   if (pBuf[MT_RPC_POS_LEN] > MT_RPC_DATA_MAX)
        MOV       DPL,R2
        MOV       DPH,R3
        MOVX      A,@DPTR
        CLR       C
        SUBB      A,#-0x5
        JC        ??MT_ProcessIncoming_0
//  345   {
//  346     rsp[0] = MT_RPC_ERR_LENGTH;
        MOV       DPL,?XSP + 0
        MOV       DPH,?XSP + 1
        MOV       A,#0x4
        SJMP      ??MT_ProcessIncoming_1
//  347   }
//  348   /* check subsystem range */
//  349   else if ((rsp[1] & MT_RPC_SUBSYSTEM_MASK) < MT_RPC_SYS_MAX)
??MT_ProcessIncoming_0:
        MOV       A,#0x1
        LCALL     ?XSTACK_DISP0_8
        MOVX      A,@DPTR
        ANL       A,#0x1f
        CLR       C
        SUBB      A,#0x16
        JNC       ??MT_ProcessIncoming_2
//  350   {
//  351     /* look up processing function */
//  352     func = mtProcessIncoming[rsp[1] & MT_RPC_SUBSYSTEM_MASK];
        MOVX      A,@DPTR
        ANL       A,#0x1f
        ADD       A,0xE0 /* A   */
        MOV       R0,A
        MOV       A,#mtProcessIncoming & 0xff
        ADD       A,R0
        MOV       DPL,A
        CLR       A
        ADDC      A,#(mtProcessIncoming >> 8) & 0xff
        MOV       DPH,A
        MOVX      A,@DPTR
        MOV       R0,A
        INC       DPTR
        MOVX      A,@DPTR
        MOV       R1,A
        MOV       DPL,R0
        MOV       DPH,R1
//  353     if (func)
        MOV       A,DPL
        ORL       A,DPH
        JZ        ??MT_ProcessIncoming_2
//  354     {
//  355       /* execute processing function */
//  356       rsp[0] = (*func)(pBuf);
        ; Setup parameters for indirect call
        LCALL     ?CALL_IND
        MOV       A,R1
        MOV       DPL,?XSP + 0
        MOV       DPH,?XSP + 1
        MOVX      @DPTR,A
//  357     }
//  358     else
//  359     {
//  360       rsp[0] = MT_RPC_ERR_SUBSYSTEM;
//  361     }
//  362   }
//  363   else
//  364   {
//  365     rsp[0] = MT_RPC_ERR_SUBSYSTEM;
//  366   }
//  367 
//  368   /* if error and this was an SREQ, send error message */
//  369   if ((rsp[0] != MT_RPC_SUCCESS) && ((rsp[1] & MT_RPC_CMD_TYPE_MASK) == MT_RPC_CMD_SREQ))
        JNZ       ??MT_ProcessIncoming_3
        SJMP      ??MT_ProcessIncoming_4
??MT_ProcessIncoming_2:
        MOV       DPL,?XSP + 0
        MOV       DPH,?XSP + 1
        MOV       A,#0x1
??MT_ProcessIncoming_1:
        MOVX      @DPTR,A
??MT_ProcessIncoming_3:
        MOV       A,#0x1
        LCALL     ?XSTACK_DISP0_8
        MOVX      A,@DPTR
        ANL       A,#0xe0
        XRL       A,#0x20
        JNZ       ??MT_ProcessIncoming_4
//  370   {
//  371     MT_BuildAndSendZToolResponse(((uint8)MT_RPC_CMD_SRSP | (uint8)MT_RPC_SYS_RES0), 0,
//  372                                                                   MT_RPC_FRAME_HDR_SZ, rsp);
        ; Setup parameters for call to function MT_BuildAndSendZToolResponse
        MOV       R4,?XSP + 0
        MOV       R5,?XSP + 1
        MOV       R3,#0x3
        MOV       R2,#0x0
        MOV       R1,#0x60
        LCALL     `??MT_BuildAndSendZToolResponse::?relay`; Banked call to: MT_BuildAndSendZToolResponse
//  373   }
//  374 }
??MT_ProcessIncoming_4:
        MOV       A,#0x3
        LCALL     ?DEALLOC_XSTACK8
          CFI CFA_XSP16 XSP16+0
        POP       DPH
          CFI DPH0 SameValue
          CFI CFA_SP SP+-4
        POP       DPL
          CFI DPL0 SameValue
          CFI CFA_SP SP+-3
        LJMP      ?BRET
          CFI EndBlock cfiBlock4
//  375 
//  376 /***************************************************************************************************
//  377  * @fn      MTProcessAppRspMsg
//  378  *
//  379  * @brief   Process the User App Response Message
//  380  *
//  381  * @param   data - output serial buffer.  The first byte must be the
//  382  *          endpoint that send this message.
//  383  * @param   len - data length
//  384  *
//  385  * @return  none
//  386  ***************************************************************************************************/

        RSEG BANKED_CODE:HUGECODE:NOROOT(0)
//  387 void MTProcessAppRspMsg( byte *pData, byte len )
MTProcessAppRspMsg:
          CFI Block cfiBlock5 Using cfiCommon0
          CFI Function MTProcessAppRspMsg
        CODE
//  388 {
        FUNCALL MTProcessAppRspMsg, MT_BuildAndSendZToolResponse
        LOCFRAME ISTACK, 0, STACK
        LOCFRAME PSTACK, 0, STACK
        LOCFRAME XSTACK, 9, STACK
        LOCFRAME IOVERLAY, 0, STATIC
        LOCFRAME DOVERLAY, 0, STATIC
        ARGFRAME ISTACK, 0, STACK
        ARGFRAME PSTACK, 0, STACK
        ARGFRAME XSTACK, 9, STACK
        ARGFRAME IOVERLAY, 0, STATIC
        ARGFRAME DOVERLAY, 0, STATIC
        MOV       A,#-0x9
        LCALL     ?BANKED_ENTER_XDATA
          CFI DPH0 load(1, XDATA, add(CFA_XSP16, literal(-1)))
          CFI DPL0 load(1, XDATA, add(CFA_XSP16, literal(-2)))
          CFI ?BRET_EXT load(1, XDATA, add(CFA_XSP16, literal(-3)))
          CFI ?RET_HIGH load(1, XDATA, add(CFA_XSP16, literal(-4)))
          CFI ?RET_LOW load(1, XDATA, add(CFA_XSP16, literal(-5)))
          CFI R7 load(1, XDATA, add(CFA_XSP16, literal(-6)))
          CFI V0 load(1, XDATA, add(CFA_XSP16, literal(-7)))
          CFI VB load(1, XDATA, add(CFA_XSP16, literal(-8)))
          CFI R6 load(1, XDATA, add(CFA_XSP16, literal(-9)))
          CFI CFA_SP SP+0
          CFI CFA_XSP16 add(XSP16, 9)
        ; Saved register size: 9
        ; Auto size: 0
        MOV       A,R2
        MOV       R4,A
        MOV       A,R3
        MOV       R5,A
        MOV       A,R1
//  389   /* Send out Reset Response message */
//  390   MT_BuildAndSendZToolResponse( ((uint8)MT_RPC_CMD_SRSP | (uint8)MT_RPC_SYS_APP), MT_APP_RSP, len, pData );
        ; Setup parameters for call to function MT_BuildAndSendZToolResponse
        MOV       R3,A
        MOV       R2,#-0x80
        MOV       R1,#0x69
        LCALL     `??MT_BuildAndSendZToolResponse::?relay`; Banked call to: MT_BuildAndSendZToolResponse
//  391 }
        LJMP      ?Subroutine0 & 0xFFFF
          CFI EndBlock cfiBlock5
//  392 
//  393 
//  394 /***************************************************************************************************
//  395  * @fn      MT_ReverseBytes
//  396  *
//  397  * @brief
//  398  *
//  399  *   Reverses bytes within an array
//  400  *
//  401  * @param   data - ptr to data buffer to reverse
//  402  * @param    len - number of bytes in buffer
//  403  *
//  404  * @return  void
//  405  ***************************************************************************************************/

        RSEG BANKED_CODE:HUGECODE:NOROOT(0)
//  406 void MT_ReverseBytes( byte *pData, byte len )
MT_ReverseBytes:
          CFI Block cfiBlock6 Using cfiCommon0
          CFI Function MT_ReverseBytes
        CODE
//  407 {
        REQUIRE ?V0
        REQUIRE ?V1
        REQUIRE ?V2
        MOV       A,#-0xb
        LCALL     ?BANKED_ENTER_XDATA
          CFI DPH0 load(1, XDATA, add(CFA_XSP16, literal(-1)))
          CFI DPL0 load(1, XDATA, add(CFA_XSP16, literal(-2)))
          CFI ?BRET_EXT load(1, XDATA, add(CFA_XSP16, literal(-3)))
          CFI ?RET_HIGH load(1, XDATA, add(CFA_XSP16, literal(-4)))
          CFI ?RET_LOW load(1, XDATA, add(CFA_XSP16, literal(-5)))
          CFI R7 load(1, XDATA, add(CFA_XSP16, literal(-6)))
          CFI V2 load(1, XDATA, add(CFA_XSP16, literal(-7)))
          CFI V1 load(1, XDATA, add(CFA_XSP16, literal(-8)))
          CFI V0 load(1, XDATA, add(CFA_XSP16, literal(-9)))
          CFI VB load(1, XDATA, add(CFA_XSP16, literal(-10)))
          CFI R6 load(1, XDATA, add(CFA_XSP16, literal(-11)))
          CFI CFA_SP SP+0
          CFI CFA_XSP16 add(XSP16, 11)
        ; Saved register size: 11
        ; Auto size: 0
//  408   byte i,j;
//  409   byte temp;
//  410 
//  411   for ( i = 0, j = len-1; len > 1; len-=2 )
        MOV       ?V0,#0x0
        MOV       A,#-0x1
        ADD       A,R1
        MOV       R0,A
        SJMP      ??MT_ReverseBytes_0
//  412   {
//  413     temp = pData[i];
??MT_ReverseBytes_1:
        MOV       R4,?V0
        MOV       A,R2
        ADD       A,R4
        MOV       R4,A
        CLR       A
        ADDC      A,R3
        MOV       R5,A
        MOV       DPL,R4
        MOV       DPH,R5
        MOVX      A,@DPTR
        MOV       ?V1,A
//  414     pData[i++] = pData[j];
        MOV       A,R0
        MOV       R6,A
        MOV       A,R2
        ADD       A,R6
        MOV       R6,A
        CLR       A
        ADDC      A,R3
        MOV       R7,A
        MOV       DPL,R6
        MOV       DPH,R7
        MOVX      A,@DPTR
        MOV       DPL,R4
        MOV       DPH,R5
        MOVX      @DPTR,A
        INC       ?V0
//  415     pData[j--] = temp;
        MOV       DPL,R6
        MOV       DPH,R7
        MOV       A,?V1
        MOVX      @DPTR,A
        DEC       R0
//  416   }
        DEC       R1
        DEC       R1
??MT_ReverseBytes_0:
        MOV       A,R1
        CLR       C
        SUBB      A,#0x2
        JNC       ??MT_ReverseBytes_1
//  417 }
        MOV       R7,#0x3
        LJMP      ?BANKED_LEAVE_XDATA
          CFI EndBlock cfiBlock6
//  418 
//  419 
//  420 /***************************************************************************************************
//  421  * @fn      MT_Word2Buf
//  422  *
//  423  * @brief   Copy a uint16 array to a byte array, little endian.
//  424  *
//  425  * @param   pBuf - byte array
//  426  * @param   pWord - uint16 array
//  427  * @param   len - length of uint16 array
//  428  *
//  429  * @return  pointer to end of byte array
//  430  ***************************************************************************************************/

        RSEG BANKED_CODE:HUGECODE:NOROOT(0)
//  431 uint8 *MT_Word2Buf( uint8 *pBuf, uint16 *pWord, uint8 len )
MT_Word2Buf:
          CFI Block cfiBlock7 Using cfiCommon0
          CFI Function MT_Word2Buf
        CODE
//  432 {
        MOV       A,#-0x9
        LCALL     ?BANKED_ENTER_XDATA
          CFI DPH0 load(1, XDATA, add(CFA_XSP16, literal(-1)))
          CFI DPL0 load(1, XDATA, add(CFA_XSP16, literal(-2)))
          CFI ?BRET_EXT load(1, XDATA, add(CFA_XSP16, literal(-3)))
          CFI ?RET_HIGH load(1, XDATA, add(CFA_XSP16, literal(-4)))
          CFI ?RET_LOW load(1, XDATA, add(CFA_XSP16, literal(-5)))
          CFI R7 load(1, XDATA, add(CFA_XSP16, literal(-6)))
          CFI V0 load(1, XDATA, add(CFA_XSP16, literal(-7)))
          CFI VB load(1, XDATA, add(CFA_XSP16, literal(-8)))
          CFI R6 load(1, XDATA, add(CFA_XSP16, literal(-9)))
          CFI CFA_SP SP+0
          CFI CFA_XSP16 add(XSP16, 9)
        ; Saved register size: 9
        ; Auto size: 0
        SJMP      ??MT_Word2Buf_0
//  433   while ( len-- > 0 )
//  434   {
//  435     *pBuf++ = LO_UINT16( *pWord );
??MT_Word2Buf_1:
        MOV       DPL,R4
        MOV       DPH,R5
        MOVX      A,@DPTR
        MOV       DPL,R2
        MOV       DPH,R3
        MOVX      @DPTR,A
//  436     *pBuf++ = HI_UINT16( *pWord );
        MOV       DPL,R4
        MOV       DPH,R5
        INC       DPTR
        MOVX      A,@DPTR
        MOV       DPL,R2
        MOV       DPH,R3
        INC       DPTR
        MOVX      @DPTR,A
        MOV       A,R2
        ADD       A,#0x2
        MOV       R2,A
        JNC       ??MT_Word2Buf_2
        INC       R3
//  437     pWord++;
??MT_Word2Buf_2:
        MOV       A,R4
        ADD       A,#0x2
        MOV       R4,A
        JNC       ??MT_Word2Buf_0
        INC       R5
//  438   }
??MT_Word2Buf_0:
        MOV       A,R1
        MOV       R0,A
        MOV       A,#-0x1
        ADD       A,R0
        MOV       R1,A
        INC       A
        JNZ       ??MT_Word2Buf_1
//  439 
//  440   return pBuf;
        LJMP      ?Subroutine0 & 0xFFFF
//  441 }
          CFI EndBlock cfiBlock7
//  442 #if !defined(NONWK)
//  443 /***************************************************************************************************
//  444  * @fn      MT_BuildEndpointDesc
//  445  *
//  446  * @brief   Build endpoint descriptor and simple descriptor structure from incoming buffer
//  447  *
//  448  * @param   pBuf - byte array
//  449  *
//  450  * @return  epDesc - pointer to the endpoint descriptor
//  451  ***************************************************************************************************/

        RSEG BANKED_CODE:HUGECODE:NOROOT(0)
//  452 uint8 MT_BuildEndpointDesc( uint8 *pBuf, void *param )
MT_BuildEndpointDesc:
          CFI Block cfiBlock8 Using cfiCommon0
          CFI Function MT_BuildEndpointDesc
        CODE
//  453 {
        FUNCALL MT_BuildEndpointDesc, afFindEndPointDesc
        LOCFRAME ISTACK, 0, STACK
        LOCFRAME PSTACK, 0, STACK
        LOCFRAME XSTACK, 16, STACK
        LOCFRAME IOVERLAY, 0, STATIC
        LOCFRAME DOVERLAY, 0, STATIC
        ARGFRAME ISTACK, 0, STACK
        ARGFRAME PSTACK, 0, STACK
        ARGFRAME XSTACK, 16, STACK
        ARGFRAME IOVERLAY, 0, STATIC
        ARGFRAME DOVERLAY, 0, STATIC
        FUNCALL MT_BuildEndpointDesc, osal_mem_alloc
        LOCFRAME ISTACK, 0, STACK
        LOCFRAME PSTACK, 0, STACK
        LOCFRAME XSTACK, 16, STACK
        LOCFRAME IOVERLAY, 0, STATIC
        LOCFRAME DOVERLAY, 0, STATIC
        ARGFRAME ISTACK, 0, STACK
        ARGFRAME PSTACK, 0, STACK
        ARGFRAME XSTACK, 16, STACK
        ARGFRAME IOVERLAY, 0, STATIC
        ARGFRAME DOVERLAY, 0, STATIC
        FUNCALL MT_BuildEndpointDesc, osal_mem_alloc
        LOCFRAME ISTACK, 0, STACK
        LOCFRAME PSTACK, 0, STACK
        LOCFRAME XSTACK, 16, STACK
        LOCFRAME IOVERLAY, 0, STATIC
        LOCFRAME DOVERLAY, 0, STATIC
        ARGFRAME ISTACK, 0, STACK
        ARGFRAME PSTACK, 0, STACK
        ARGFRAME XSTACK, 16, STACK
        ARGFRAME IOVERLAY, 0, STATIC
        ARGFRAME DOVERLAY, 0, STATIC
        FUNCALL MT_BuildEndpointDesc, osal_mem_alloc
        LOCFRAME ISTACK, 0, STACK
        LOCFRAME PSTACK, 0, STACK
        LOCFRAME XSTACK, 16, STACK
        LOCFRAME IOVERLAY, 0, STATIC
        LOCFRAME DOVERLAY, 0, STATIC
        ARGFRAME ISTACK, 0, STACK
        ARGFRAME PSTACK, 0, STACK
        ARGFRAME XSTACK, 16, STACK
        ARGFRAME IOVERLAY, 0, STATIC
        ARGFRAME DOVERLAY, 0, STATIC
        FUNCALL MT_BuildEndpointDesc, osal_mem_free
        LOCFRAME ISTACK, 0, STACK
        LOCFRAME PSTACK, 0, STACK
        LOCFRAME XSTACK, 16, STACK
        LOCFRAME IOVERLAY, 0, STATIC
        LOCFRAME DOVERLAY, 0, STATIC
        ARGFRAME ISTACK, 0, STACK
        ARGFRAME PSTACK, 0, STACK
        ARGFRAME XSTACK, 16, STACK
        ARGFRAME IOVERLAY, 0, STATIC
        ARGFRAME DOVERLAY, 0, STATIC
        FUNCALL MT_BuildEndpointDesc, osal_mem_free
        LOCFRAME ISTACK, 0, STACK
        LOCFRAME PSTACK, 0, STACK
        LOCFRAME XSTACK, 16, STACK
        LOCFRAME IOVERLAY, 0, STATIC
        LOCFRAME DOVERLAY, 0, STATIC
        ARGFRAME ISTACK, 0, STACK
        ARGFRAME PSTACK, 0, STACK
        ARGFRAME XSTACK, 16, STACK
        ARGFRAME IOVERLAY, 0, STATIC
        ARGFRAME DOVERLAY, 0, STATIC
        FUNCALL MT_BuildEndpointDesc, osal_mem_free
        LOCFRAME ISTACK, 0, STACK
        LOCFRAME PSTACK, 0, STACK
        LOCFRAME XSTACK, 16, STACK
        LOCFRAME IOVERLAY, 0, STATIC
        LOCFRAME DOVERLAY, 0, STATIC
        ARGFRAME ISTACK, 0, STACK
        ARGFRAME PSTACK, 0, STACK
        ARGFRAME XSTACK, 16, STACK
        ARGFRAME IOVERLAY, 0, STATIC
        ARGFRAME DOVERLAY, 0, STATIC
        REQUIRE ?V0
        REQUIRE ?V1
        REQUIRE ?V2
        REQUIRE ?V4
        REQUIRE ?V5
        REQUIRE ?V6
        REQUIRE ?V7
        MOV       A,#-0x10
        LCALL     ?BANKED_ENTER_XDATA
          CFI DPH0 load(1, XDATA, add(CFA_XSP16, literal(-1)))
          CFI DPL0 load(1, XDATA, add(CFA_XSP16, literal(-2)))
          CFI ?BRET_EXT load(1, XDATA, add(CFA_XSP16, literal(-3)))
          CFI ?RET_HIGH load(1, XDATA, add(CFA_XSP16, literal(-4)))
          CFI ?RET_LOW load(1, XDATA, add(CFA_XSP16, literal(-5)))
          CFI R7 load(1, XDATA, add(CFA_XSP16, literal(-6)))
          CFI V7 load(1, XDATA, add(CFA_XSP16, literal(-7)))
          CFI V6 load(1, XDATA, add(CFA_XSP16, literal(-8)))
          CFI V5 load(1, XDATA, add(CFA_XSP16, literal(-9)))
          CFI V4 load(1, XDATA, add(CFA_XSP16, literal(-10)))
          CFI V3 load(1, XDATA, add(CFA_XSP16, literal(-11)))
          CFI V2 load(1, XDATA, add(CFA_XSP16, literal(-12)))
          CFI V1 load(1, XDATA, add(CFA_XSP16, literal(-13)))
          CFI V0 load(1, XDATA, add(CFA_XSP16, literal(-14)))
          CFI VB load(1, XDATA, add(CFA_XSP16, literal(-15)))
          CFI R6 load(1, XDATA, add(CFA_XSP16, literal(-16)))
          CFI CFA_SP SP+0
          CFI CFA_XSP16 add(XSP16, 16)
        ; Saved register size: 16
        ; Auto size: 0
        MOV       A,R2
        MOV       R6,A
        MOV       A,R3
        MOV       R7,A
        MOV       ?V0,R4
        MOV       ?V1,R5
//  454   uint8 i;
//  455   uint8 ret = ZSuccess;
        MOV       ?V2,#0x0
//  456   endPointDesc_t *epDesc;
//  457 
//  458   epDesc = (endPointDesc_t *)param;
//  459   /* check if this endpoint is already registered */
//  460   if ( afFindEndPointDesc( *pBuf ) != NULL )
        ; Setup parameters for call to function afFindEndPointDesc
        MOV       DPL,R6
        MOV       DPH,R7
        MOVX      A,@DPTR
        MOV       R1,A
        LCALL     `??afFindEndPointDesc::?relay`; Banked call to: afFindEndPointDesc
        MOV       ?V5,R3
        MOV       A,R2
        ORL       A,?V5
        JZ        ??MT_BuildEndpointDesc_0
//  461   {
//  462     ret = ZApsDuplicateEntry;
        MOV       ?V2,#-0x48
        LJMP      ??MT_BuildEndpointDesc_1 & 0xFFFF
//  463   }
//  464   else if ( epDesc )
??MT_BuildEndpointDesc_0:
        MOV       A,?V0
        ORL       A,?V1
        JNZ       $+5
        LJMP      ??MT_BuildEndpointDesc_1 & 0xFFFF
//  465   {
//  466     epDesc->endPoint = *pBuf;
        MOV       DPL,R6
        MOV       DPH,R7
        MOVX      A,@DPTR
        MOV       DPL,?V0
        MOV       DPH,?V1
        MOVX      @DPTR,A
//  467 
//  468     /* Ignore the latency reqs */
//  469     epDesc->latencyReq = noLatencyReqs;
        INC       DPTR
        INC       DPTR
        INC       DPTR
        INC       DPTR
        INC       DPTR
        CLR       A
        MOVX      @DPTR,A
//  470 
//  471     /* allocate memory for the simple descriptor */
//  472     epDesc->simpleDesc = (SimpleDescriptionFormat_t *) osal_mem_alloc(sizeof(SimpleDescriptionFormat_t));
        ; Setup parameters for call to function osal_mem_alloc
        MOV       R2,#0xc
        MOV       R3,A
        LCALL     `??osal_mem_alloc::?relay`; Banked call to: osal_mem_alloc
        MOV       ?V4,R2
        MOV       ?V5,R3
        MOV       R0,?V4
        MOV       R1,?V5
        MOV       A,?V0
        ADD       A,#0x3
        MOV       ?V4,A
        CLR       A
        ADDC      A,?V1
        MOV       ?V5,A
        MOV       DPL,?V4
        MOV       DPH,A
        MOV       A,R0
        MOVX      @DPTR,A
        INC       DPTR
        MOV       A,R1
        MOVX      @DPTR,A
//  473     if (epDesc->simpleDesc)
        MOV       A,R0
        ORL       A,R1
        JNZ       $+5
        LJMP      ??MT_BuildEndpointDesc_2 & 0xFFFF
//  474     {
//  475       /* Endpoint */
//  476       epDesc->simpleDesc->EndPoint = *pBuf++;
        MOV       DPL,R6
        MOV       DPH,R7
        MOVX      A,@DPTR
        PUSH      A
          CFI CFA_SP SP+-1
        LCALL     ?Subroutine16 & 0xFFFF
??CrossCallReturnLabel_24:
        POP       A
          CFI CFA_SP SP+0
        LCALL     ?Subroutine4 & 0xFFFF
//  477 
//  478       /* AppProfId */
//  479       epDesc->simpleDesc->AppProfId = BUILD_UINT16(pBuf[0], pBuf[1]);
??CrossCallReturnLabel_5:
        LCALL     ?Subroutine7 & 0xFFFF
??CrossCallReturnLabel_11:
        MOV       A,R2
        MOVX      @DPTR,A
        INC       DPTR
        MOV       A,R3
        MOVX      @DPTR,A
//  480       pBuf += sizeof(uint16);
        MOV       A,R6
        ADD       A,#0x2
        MOV       R6,A
        JNC       ??MT_BuildEndpointDesc_3
        INC       R7
//  481 
//  482       /* AppDeviceId */
//  483       epDesc->simpleDesc->AppDeviceId = BUILD_UINT16(pBuf[0],pBuf[1]);
??MT_BuildEndpointDesc_3:
        MOV       DPL,R6
        MOV       DPH,R7
        LCALL     ?Subroutine7 & 0xFFFF
??CrossCallReturnLabel_12:
        INC       DPTR
        INC       DPTR
        MOV       A,R2
        MOVX      @DPTR,A
        INC       DPTR
        MOV       A,R3
        LCALL     ?Subroutine3 & 0xFFFF
//  484       pBuf += sizeof(uint16);
//  485 
//  486       /* AppDevVer */
//  487       epDesc->simpleDesc->AppDevVer = (*pBuf++) & AF_APP_DEV_VER_MASK ;
??CrossCallReturnLabel_3:
        MOVX      A,@DPTR
        ANL       A,#0xf
        MOV       R2,A
        MOV       DPL,?V4
        MOV       DPH,?V5
        MOVX      A,@DPTR
        ADD       A,#0x5
        MOV       R0,A
        INC       DPTR
        MOVX      A,@DPTR
        ADDC      A,#0x0
        MOV       R1,A
        MOV       DPL,R0
        MOV       DPH,R1
        MOVX      A,@DPTR
        ANL       A,#0xf0
        ORL       A,R2
        LCALL     ?Subroutine3 & 0xFFFF
//  488 
//  489       /* LatencyReq */
//  490       pBuf++;
//  491 
//  492       /* AppNumInClusters */
//  493       epDesc->simpleDesc->AppNumInClusters = *pBuf++;
??CrossCallReturnLabel_4:
        INC       DPTR
        INC       DPTR
        MOVX      A,@DPTR
        PUSH      A
          CFI CFA_SP SP+-1
        LCALL     ?Subroutine11 & 0xFFFF
??CrossCallReturnLabel_29:
        LCALL     ?Subroutine17 & 0xFFFF
??CrossCallReturnLabel_26:
        POP       A
          CFI CFA_SP SP+0
        MOVX      @DPTR,A
        MOV       A,R6
        ADD       A,#0x5
        MOV       R6,A
        JNC       ??MT_BuildEndpointDesc_4
        INC       R7
//  494       if (epDesc->simpleDesc->AppNumInClusters)
??MT_BuildEndpointDesc_4:
        LCALL     ?Subroutine9 & 0xFFFF
??CrossCallReturnLabel_13:
        JZ        ??MT_BuildEndpointDesc_5
//  495       {
//  496         epDesc->simpleDesc->pAppInClusterList = (uint16 *)
//  497                   osal_mem_alloc((epDesc->simpleDesc->AppNumInClusters)*sizeof(uint16));
        ; Setup parameters for call to function osal_mem_alloc
        LCALL     ?Subroutine9 & 0xFFFF
??CrossCallReturnLabel_14:
        LCALL     ?Subroutine15 & 0xFFFF
??CrossCallReturnLabel_21:
        LCALL     `??osal_mem_alloc::?relay`; Banked call to: osal_mem_alloc
        LCALL     ?Subroutine11 & 0xFFFF
??CrossCallReturnLabel_30:
        ADD       A,#0x7
        LCALL     ?Subroutine2 & 0xFFFF
//  498         if ( epDesc->simpleDesc->pAppInClusterList )
??CrossCallReturnLabel_0:
        ADD       A,#0x7
        LCALL     ?Subroutine12 & 0xFFFF
??CrossCallReturnLabel_17:
        JZ        ??MT_BuildEndpointDesc_6
//  499         {
//  500           for (i=0; i<(epDesc->simpleDesc->AppNumInClusters); i++)
        MOV       R0,#0x0
??MT_BuildEndpointDesc_7:
        MOV       DPL,?V0
        MOV       DPH,?V1
        INC       DPTR
        INC       DPTR
        INC       DPTR
        MOVX      A,@DPTR
        MOV       R1,A
        INC       DPTR
        MOVX      A,@DPTR
        XCH       A,R1
        ADD       A,#0x6
        LCALL     ?Subroutine13 & 0xFFFF
??CrossCallReturnLabel_19:
        JNC       ??MT_BuildEndpointDesc_5
//  501           {
//  502             epDesc->simpleDesc->pAppInClusterList[i] = BUILD_UINT16(*pBuf, *(pBuf+1));
        LCALL     ?Subroutine6 & 0xFFFF
//  503             pBuf += 2;
//  504           }
??CrossCallReturnLabel_9:
        ADD       A,#0x7
        LCALL     ?Subroutine5 & 0xFFFF
??CrossCallReturnLabel_7:
        JNC       ??MT_BuildEndpointDesc_8
        INC       R7
??MT_BuildEndpointDesc_8:
        INC       R0
        SJMP      ??MT_BuildEndpointDesc_7
//  505         }
//  506         else
//  507         {
//  508           ret = ZMemError;
??MT_BuildEndpointDesc_6:
        MOV       ?V2,#0x10
//  509         }
//  510       }
//  511 
//  512       /* AppNumOutClusters */
//  513       epDesc->simpleDesc->AppNumOutClusters = *pBuf++;
??MT_BuildEndpointDesc_5:
        MOV       DPL,R6
        MOV       DPH,R7
        MOVX      A,@DPTR
        PUSH      A
          CFI CFA_SP SP+-1
        LCALL     ?Subroutine11 & 0xFFFF
??CrossCallReturnLabel_31:
        LCALL     ?Subroutine18 & 0xFFFF
??CrossCallReturnLabel_36:
        POP       A
          CFI CFA_SP SP+0
        LCALL     ?Subroutine4 & 0xFFFF
//  514       if (epDesc->simpleDesc->AppNumOutClusters)
??CrossCallReturnLabel_6:
        LCALL     ?Subroutine8 & 0xFFFF
??CrossCallReturnLabel_34:
        JZ        ??MT_BuildEndpointDesc_9
//  515       {
//  516         epDesc->simpleDesc->pAppOutClusterList = (uint16 *)
//  517                           osal_mem_alloc((epDesc->simpleDesc->AppNumOutClusters)*sizeof(uint16));
        ; Setup parameters for call to function osal_mem_alloc
        LCALL     ?Subroutine8 & 0xFFFF
??CrossCallReturnLabel_35:
        LCALL     ?Subroutine15 & 0xFFFF
??CrossCallReturnLabel_22:
        LCALL     `??osal_mem_alloc::?relay`; Banked call to: osal_mem_alloc
        LCALL     ?Subroutine11 & 0xFFFF
??CrossCallReturnLabel_32:
        ADD       A,#0xa
        LCALL     ?Subroutine2 & 0xFFFF
//  518         if (epDesc->simpleDesc->pAppOutClusterList)
??CrossCallReturnLabel_1:
        ADD       A,#0xa
        LCALL     ?Subroutine12 & 0xFFFF
??CrossCallReturnLabel_18:
        JZ        ??MT_BuildEndpointDesc_10
//  519         {
//  520           for (i=0; i<(epDesc->simpleDesc->AppNumOutClusters); i++)
        MOV       R0,#0x0
??MT_BuildEndpointDesc_11:
        MOV       DPL,?V0
        MOV       DPH,?V1
        INC       DPTR
        INC       DPTR
        INC       DPTR
        MOVX      A,@DPTR
        MOV       R1,A
        INC       DPTR
        MOVX      A,@DPTR
        XCH       A,R1
        ADD       A,#0x9
        LCALL     ?Subroutine13 & 0xFFFF
??CrossCallReturnLabel_20:
        JNC       ??MT_BuildEndpointDesc_9
//  521           {
//  522             epDesc->simpleDesc->pAppOutClusterList[i] = BUILD_UINT16(*pBuf, *(pBuf+1));
        LCALL     ?Subroutine6 & 0xFFFF
//  523             pBuf += 2;
//  524           }
??CrossCallReturnLabel_10:
        ADD       A,#0xa
        LCALL     ?Subroutine5 & 0xFFFF
??CrossCallReturnLabel_8:
        JNC       ??MT_BuildEndpointDesc_12
        INC       R7
??MT_BuildEndpointDesc_12:
        INC       R0
        SJMP      ??MT_BuildEndpointDesc_11
//  525         }
//  526         else
//  527         {
//  528           ret = ZMemError;
??MT_BuildEndpointDesc_10:
        MOV       ?V2,#0x10
        SJMP      ??MT_BuildEndpointDesc_13
//  529         }
//  530       }
//  531 
//  532       /* if any list cannot be allocated...free all */
//  533       if ( ret == ZMemError )
??MT_BuildEndpointDesc_9:
        MOV       A,#0x10
        XRL       A,?V2
        JNZ       ??MT_BuildEndpointDesc_1
//  534       {
//  535         if (epDesc->simpleDesc->pAppInClusterList)
??MT_BuildEndpointDesc_13:
        LCALL     ?Subroutine10 & 0xFFFF
??CrossCallReturnLabel_15:
        MOV       R0,A
        INC       DPTR
        MOVX      A,@DPTR
        MOV       R1,A
        MOV       A,R0
        ORL       A,R1
        JZ        ??MT_BuildEndpointDesc_14
//  536         {
//  537           osal_mem_free(epDesc->simpleDesc->pAppInClusterList);
        ; Setup parameters for call to function osal_mem_free
        LCALL     ?Subroutine10 & 0xFFFF
//  538         }
??CrossCallReturnLabel_16:
        MOV       R2,A
        INC       DPTR
        MOVX      A,@DPTR
        MOV       R3,A
        LCALL     `??osal_mem_free::?relay`; Banked call to: osal_mem_free
//  539 
//  540         if (epDesc->simpleDesc->AppNumOutClusters)
??MT_BuildEndpointDesc_14:
        MOV       DPL,?V0
        MOV       DPH,?V1
        INC       DPTR
        INC       DPTR
        INC       DPTR
        LCALL     ??Subroutine20_0 & 0xFFFF
??CrossCallReturnLabel_33:
        JZ        ??MT_BuildEndpointDesc_15
//  541         {
//  542           osal_mem_free(epDesc->simpleDesc->pAppOutClusterList);
        ; Setup parameters for call to function osal_mem_free
        MOV       DPL,?V0
        MOV       DPH,?V1
        INC       DPTR
        INC       DPTR
        INC       DPTR
        LCALL     ??Subroutine19_0 & 0xFFFF
//  543         }
??CrossCallReturnLabel_28:
        ADD       A,#0xa
        MOV       DPL,A
        CLR       A
        ADDC      A,R0
        MOV       DPH,A
        MOVX      A,@DPTR
        MOV       R2,A
        INC       DPTR
        MOVX      A,@DPTR
        MOV       R3,A
        LCALL     `??osal_mem_free::?relay`; Banked call to: osal_mem_free
//  544 
//  545         osal_mem_free(epDesc->simpleDesc);
??MT_BuildEndpointDesc_15:
        ; Setup parameters for call to function osal_mem_free
        MOV       DPL,?V0
        MOV       DPH,?V1
        INC       DPTR
        INC       DPTR
        INC       DPTR
        MOVX      A,@DPTR
        MOV       R2,A
        INC       DPTR
        MOVX      A,@DPTR
        MOV       R3,A
        LCALL     `??osal_mem_free::?relay`; Banked call to: osal_mem_free
        SJMP      ??MT_BuildEndpointDesc_1
//  546       }
//  547     }
//  548     else
//  549     {
//  550       ret = ZMemError;
??MT_BuildEndpointDesc_2:
        MOV       ?V2,#0x10
//  551     }
//  552   }
//  553 
//  554   return ret;
??MT_BuildEndpointDesc_1:
        MOV       R1,?V2
        LJMP      ?Subroutine1 & 0xFFFF
//  555 }
          CFI EndBlock cfiBlock8

        RSEG BANKED_CODE:HUGECODE:NOROOT(0)
?Subroutine13:
          CFI Block cfiCond9 Using cfiCommon0
          CFI Function MT_BuildEndpointDesc
          CFI Conditional ??CrossCallReturnLabel_19
          CFI R6 load(1, XDATA, add(CFA_XSP16, literal(-16)))
          CFI VB load(1, XDATA, add(CFA_XSP16, literal(-15)))
          CFI V0 load(1, XDATA, add(CFA_XSP16, literal(-14)))
          CFI V1 load(1, XDATA, add(CFA_XSP16, literal(-13)))
          CFI V2 load(1, XDATA, add(CFA_XSP16, literal(-12)))
          CFI V3 load(1, XDATA, add(CFA_XSP16, literal(-11)))
          CFI V4 load(1, XDATA, add(CFA_XSP16, literal(-10)))
          CFI V5 load(1, XDATA, add(CFA_XSP16, literal(-9)))
          CFI V6 load(1, XDATA, add(CFA_XSP16, literal(-8)))
          CFI V7 load(1, XDATA, add(CFA_XSP16, literal(-7)))
          CFI R7 load(1, XDATA, add(CFA_XSP16, literal(-6)))
          CFI ?RET_LOW load(1, XDATA, add(CFA_XSP16, literal(-5)))
          CFI ?RET_HIGH load(1, XDATA, add(CFA_XSP16, literal(-4)))
          CFI ?BRET_EXT load(1, XDATA, add(CFA_XSP16, literal(-3)))
          CFI DPL0 load(1, XDATA, add(CFA_XSP16, literal(-2)))
          CFI DPH0 load(1, XDATA, add(CFA_XSP16, literal(-1)))
          CFI CFA_SP SP+-2
          CFI CFA_XSP16 add(XSP16, 16)
          CFI Block cfiCond10 Using cfiCommon0
          CFI (cfiCond10) Function MT_BuildEndpointDesc
          CFI (cfiCond10) Conditional ??CrossCallReturnLabel_20
          CFI (cfiCond10) R6 load(1, XDATA, add(CFA_XSP16, literal(-16)))
          CFI (cfiCond10) VB load(1, XDATA, add(CFA_XSP16, literal(-15)))
          CFI (cfiCond10) V0 load(1, XDATA, add(CFA_XSP16, literal(-14)))
          CFI (cfiCond10) V1 load(1, XDATA, add(CFA_XSP16, literal(-13)))
          CFI (cfiCond10) V2 load(1, XDATA, add(CFA_XSP16, literal(-12)))
          CFI (cfiCond10) V3 load(1, XDATA, add(CFA_XSP16, literal(-11)))
          CFI (cfiCond10) V4 load(1, XDATA, add(CFA_XSP16, literal(-10)))
          CFI (cfiCond10) V5 load(1, XDATA, add(CFA_XSP16, literal(-9)))
          CFI (cfiCond10) V6 load(1, XDATA, add(CFA_XSP16, literal(-8)))
          CFI (cfiCond10) V7 load(1, XDATA, add(CFA_XSP16, literal(-7)))
          CFI (cfiCond10) R7 load(1, XDATA, add(CFA_XSP16, literal(-6)))
          CFI (cfiCond10) ?RET_LOW load(1, XDATA, add(CFA_XSP16, literal(-5)))
          CFI (cfiCond10) ?RET_HIGH load(1, XDATA, add(CFA_XSP16, literal(-4)))
          CFI (cfiCond10) ?BRET_EXT load(1, XDATA, add(CFA_XSP16, literal(-3)))
          CFI (cfiCond10) DPL0 load(1, XDATA, add(CFA_XSP16, literal(-2)))
          CFI (cfiCond10) DPH0 load(1, XDATA, add(CFA_XSP16, literal(-1)))
          CFI (cfiCond10) CFA_SP SP+-2
          CFI (cfiCond10) CFA_XSP16 add(XSP16, 16)
          CFI Block cfiPicker11 Using cfiCommon1
          CFI (cfiPicker11) NoFunction
          CFI (cfiPicker11) Picker
        MOV       DPL,A
        CLR       A
        ADDC      A,R1
        MOV       DPH,A
        MOVX      A,@DPTR
        MOV       R1,A
        MOV       A,R0
        CLR       C
        SUBB      A,R1
        RET
          CFI EndBlock cfiCond9
          CFI EndBlock cfiCond10
          CFI EndBlock cfiPicker11

        RSEG BANKED_CODE:HUGECODE:NOROOT(0)
?Subroutine12:
          CFI Block cfiCond12 Using cfiCommon0
          CFI Function MT_BuildEndpointDesc
          CFI Conditional ??CrossCallReturnLabel_17
          CFI R6 load(1, XDATA, add(CFA_XSP16, literal(-16)))
          CFI VB load(1, XDATA, add(CFA_XSP16, literal(-15)))
          CFI V0 load(1, XDATA, add(CFA_XSP16, literal(-14)))
          CFI V1 load(1, XDATA, add(CFA_XSP16, literal(-13)))
          CFI V2 load(1, XDATA, add(CFA_XSP16, literal(-12)))
          CFI V3 load(1, XDATA, add(CFA_XSP16, literal(-11)))
          CFI V4 load(1, XDATA, add(CFA_XSP16, literal(-10)))
          CFI V5 load(1, XDATA, add(CFA_XSP16, literal(-9)))
          CFI V6 load(1, XDATA, add(CFA_XSP16, literal(-8)))
          CFI V7 load(1, XDATA, add(CFA_XSP16, literal(-7)))
          CFI R7 load(1, XDATA, add(CFA_XSP16, literal(-6)))
          CFI ?RET_LOW load(1, XDATA, add(CFA_XSP16, literal(-5)))
          CFI ?RET_HIGH load(1, XDATA, add(CFA_XSP16, literal(-4)))
          CFI ?BRET_EXT load(1, XDATA, add(CFA_XSP16, literal(-3)))
          CFI DPL0 load(1, XDATA, add(CFA_XSP16, literal(-2)))
          CFI DPH0 load(1, XDATA, add(CFA_XSP16, literal(-1)))
          CFI CFA_SP SP+-2
          CFI CFA_XSP16 add(XSP16, 16)
          CFI Block cfiCond13 Using cfiCommon0
          CFI (cfiCond13) Function MT_BuildEndpointDesc
          CFI (cfiCond13) Conditional ??CrossCallReturnLabel_18
          CFI (cfiCond13) R6 load(1, XDATA, add(CFA_XSP16, literal(-16)))
          CFI (cfiCond13) VB load(1, XDATA, add(CFA_XSP16, literal(-15)))
          CFI (cfiCond13) V0 load(1, XDATA, add(CFA_XSP16, literal(-14)))
          CFI (cfiCond13) V1 load(1, XDATA, add(CFA_XSP16, literal(-13)))
          CFI (cfiCond13) V2 load(1, XDATA, add(CFA_XSP16, literal(-12)))
          CFI (cfiCond13) V3 load(1, XDATA, add(CFA_XSP16, literal(-11)))
          CFI (cfiCond13) V4 load(1, XDATA, add(CFA_XSP16, literal(-10)))
          CFI (cfiCond13) V5 load(1, XDATA, add(CFA_XSP16, literal(-9)))
          CFI (cfiCond13) V6 load(1, XDATA, add(CFA_XSP16, literal(-8)))
          CFI (cfiCond13) V7 load(1, XDATA, add(CFA_XSP16, literal(-7)))
          CFI (cfiCond13) R7 load(1, XDATA, add(CFA_XSP16, literal(-6)))
          CFI (cfiCond13) ?RET_LOW load(1, XDATA, add(CFA_XSP16, literal(-5)))
          CFI (cfiCond13) ?RET_HIGH load(1, XDATA, add(CFA_XSP16, literal(-4)))
          CFI (cfiCond13) ?BRET_EXT load(1, XDATA, add(CFA_XSP16, literal(-3)))
          CFI (cfiCond13) DPL0 load(1, XDATA, add(CFA_XSP16, literal(-2)))
          CFI (cfiCond13) DPH0 load(1, XDATA, add(CFA_XSP16, literal(-1)))
          CFI (cfiCond13) CFA_SP SP+-2
          CFI (cfiCond13) CFA_XSP16 add(XSP16, 16)
          CFI Block cfiPicker14 Using cfiCommon1
          CFI (cfiPicker14) NoFunction
          CFI (cfiPicker14) Picker
        MOV       DPL,A
        CLR       A
        ADDC      A,R0
        MOV       DPH,A
        MOVX      A,@DPTR
        MOV       R0,A
        INC       DPTR
        MOVX      A,@DPTR
        MOV       R1,A
        MOV       A,R0
        ORL       A,R1
        RET
          CFI EndBlock cfiCond12
          CFI EndBlock cfiCond13
          CFI EndBlock cfiPicker14

        RSEG BANKED_CODE:HUGECODE:NOROOT(0)
?Subroutine11:
          CFI Block cfiCond15 Using cfiCommon0
          CFI Function MT_BuildEndpointDesc
          CFI Conditional ??CrossCallReturnLabel_29
          CFI R6 load(1, XDATA, add(CFA_XSP16, literal(-16)))
          CFI VB load(1, XDATA, add(CFA_XSP16, literal(-15)))
          CFI V0 load(1, XDATA, add(CFA_XSP16, literal(-14)))
          CFI V1 load(1, XDATA, add(CFA_XSP16, literal(-13)))
          CFI V2 load(1, XDATA, add(CFA_XSP16, literal(-12)))
          CFI V3 load(1, XDATA, add(CFA_XSP16, literal(-11)))
          CFI V4 load(1, XDATA, add(CFA_XSP16, literal(-10)))
          CFI V5 load(1, XDATA, add(CFA_XSP16, literal(-9)))
          CFI V6 load(1, XDATA, add(CFA_XSP16, literal(-8)))
          CFI V7 load(1, XDATA, add(CFA_XSP16, literal(-7)))
          CFI R7 load(1, XDATA, add(CFA_XSP16, literal(-6)))
          CFI ?RET_LOW load(1, XDATA, add(CFA_XSP16, literal(-5)))
          CFI ?RET_HIGH load(1, XDATA, add(CFA_XSP16, literal(-4)))
          CFI ?BRET_EXT load(1, XDATA, add(CFA_XSP16, literal(-3)))
          CFI DPL0 load(1, XDATA, add(CFA_XSP16, literal(-2)))
          CFI DPH0 load(1, XDATA, add(CFA_XSP16, literal(-1)))
          CFI CFA_XSP16 add(XSP16, 16)
          CFI Block cfiCond16 Using cfiCommon0
          CFI (cfiCond16) Function MT_BuildEndpointDesc
          CFI (cfiCond16) Conditional ??CrossCallReturnLabel_30
          CFI (cfiCond16) R6 load(1, XDATA, add(CFA_XSP16, literal(-16)))
          CFI (cfiCond16) VB load(1, XDATA, add(CFA_XSP16, literal(-15)))
          CFI (cfiCond16) V0 load(1, XDATA, add(CFA_XSP16, literal(-14)))
          CFI (cfiCond16) V1 load(1, XDATA, add(CFA_XSP16, literal(-13)))
          CFI (cfiCond16) V2 load(1, XDATA, add(CFA_XSP16, literal(-12)))
          CFI (cfiCond16) V3 load(1, XDATA, add(CFA_XSP16, literal(-11)))
          CFI (cfiCond16) V4 load(1, XDATA, add(CFA_XSP16, literal(-10)))
          CFI (cfiCond16) V5 load(1, XDATA, add(CFA_XSP16, literal(-9)))
          CFI (cfiCond16) V6 load(1, XDATA, add(CFA_XSP16, literal(-8)))
          CFI (cfiCond16) V7 load(1, XDATA, add(CFA_XSP16, literal(-7)))
          CFI (cfiCond16) R7 load(1, XDATA, add(CFA_XSP16, literal(-6)))
          CFI (cfiCond16) ?RET_LOW load(1, XDATA, add(CFA_XSP16, literal(-5)))
          CFI (cfiCond16) ?RET_HIGH load(1, XDATA, add(CFA_XSP16, literal(-4)))
          CFI (cfiCond16) ?BRET_EXT load(1, XDATA, add(CFA_XSP16, literal(-3)))
          CFI (cfiCond16) DPL0 load(1, XDATA, add(CFA_XSP16, literal(-2)))
          CFI (cfiCond16) DPH0 load(1, XDATA, add(CFA_XSP16, literal(-1)))
          CFI (cfiCond16) CFA_SP SP+-2
          CFI (cfiCond16) CFA_XSP16 add(XSP16, 16)
          CFI Block cfiCond17 Using cfiCommon0
          CFI (cfiCond17) Function MT_BuildEndpointDesc
          CFI (cfiCond17) Conditional ??CrossCallReturnLabel_31
          CFI (cfiCond17) R6 load(1, XDATA, add(CFA_XSP16, literal(-16)))
          CFI (cfiCond17) VB load(1, XDATA, add(CFA_XSP16, literal(-15)))
          CFI (cfiCond17) V0 load(1, XDATA, add(CFA_XSP16, literal(-14)))
          CFI (cfiCond17) V1 load(1, XDATA, add(CFA_XSP16, literal(-13)))
          CFI (cfiCond17) V2 load(1, XDATA, add(CFA_XSP16, literal(-12)))
          CFI (cfiCond17) V3 load(1, XDATA, add(CFA_XSP16, literal(-11)))
          CFI (cfiCond17) V4 load(1, XDATA, add(CFA_XSP16, literal(-10)))
          CFI (cfiCond17) V5 load(1, XDATA, add(CFA_XSP16, literal(-9)))
          CFI (cfiCond17) V6 load(1, XDATA, add(CFA_XSP16, literal(-8)))
          CFI (cfiCond17) V7 load(1, XDATA, add(CFA_XSP16, literal(-7)))
          CFI (cfiCond17) R7 load(1, XDATA, add(CFA_XSP16, literal(-6)))
          CFI (cfiCond17) ?RET_LOW load(1, XDATA, add(CFA_XSP16, literal(-5)))
          CFI (cfiCond17) ?RET_HIGH load(1, XDATA, add(CFA_XSP16, literal(-4)))
          CFI (cfiCond17) ?BRET_EXT load(1, XDATA, add(CFA_XSP16, literal(-3)))
          CFI (cfiCond17) DPL0 load(1, XDATA, add(CFA_XSP16, literal(-2)))
          CFI (cfiCond17) DPH0 load(1, XDATA, add(CFA_XSP16, literal(-1)))
          CFI (cfiCond17) CFA_XSP16 add(XSP16, 16)
          CFI Block cfiCond18 Using cfiCommon0
          CFI (cfiCond18) Function MT_BuildEndpointDesc
          CFI (cfiCond18) Conditional ??CrossCallReturnLabel_32
          CFI (cfiCond18) R6 load(1, XDATA, add(CFA_XSP16, literal(-16)))
          CFI (cfiCond18) VB load(1, XDATA, add(CFA_XSP16, literal(-15)))
          CFI (cfiCond18) V0 load(1, XDATA, add(CFA_XSP16, literal(-14)))
          CFI (cfiCond18) V1 load(1, XDATA, add(CFA_XSP16, literal(-13)))
          CFI (cfiCond18) V2 load(1, XDATA, add(CFA_XSP16, literal(-12)))
          CFI (cfiCond18) V3 load(1, XDATA, add(CFA_XSP16, literal(-11)))
          CFI (cfiCond18) V4 load(1, XDATA, add(CFA_XSP16, literal(-10)))
          CFI (cfiCond18) V5 load(1, XDATA, add(CFA_XSP16, literal(-9)))
          CFI (cfiCond18) V6 load(1, XDATA, add(CFA_XSP16, literal(-8)))
          CFI (cfiCond18) V7 load(1, XDATA, add(CFA_XSP16, literal(-7)))
          CFI (cfiCond18) R7 load(1, XDATA, add(CFA_XSP16, literal(-6)))
          CFI (cfiCond18) ?RET_LOW load(1, XDATA, add(CFA_XSP16, literal(-5)))
          CFI (cfiCond18) ?RET_HIGH load(1, XDATA, add(CFA_XSP16, literal(-4)))
          CFI (cfiCond18) ?BRET_EXT load(1, XDATA, add(CFA_XSP16, literal(-3)))
          CFI (cfiCond18) DPL0 load(1, XDATA, add(CFA_XSP16, literal(-2)))
          CFI (cfiCond18) DPH0 load(1, XDATA, add(CFA_XSP16, literal(-1)))
          CFI (cfiCond18) CFA_SP SP+-2
          CFI (cfiCond18) CFA_XSP16 add(XSP16, 16)
          CFI Block cfiPicker19 Using cfiCommon1
          CFI (cfiPicker19) NoFunction
          CFI (cfiPicker19) Picker
        MOV       DPL,?V4
        MOV       DPH,?V5
          CFI EndBlock cfiCond15
          CFI EndBlock cfiCond16
          CFI EndBlock cfiCond17
          CFI EndBlock cfiCond18
          CFI EndBlock cfiPicker19
        REQUIRE ??Subroutine19_0
        ; // Fall through to label ??Subroutine19_0

        RSEG BANKED_CODE:HUGECODE:NOROOT(0)
??Subroutine19_0:
          CFI Block cfiCond20 Using cfiCommon0
          CFI Function MT_BuildEndpointDesc
          CFI Conditional ??CrossCallReturnLabel_28
          CFI R6 load(1, XDATA, add(CFA_XSP16, literal(-16)))
          CFI VB load(1, XDATA, add(CFA_XSP16, literal(-15)))
          CFI V0 load(1, XDATA, add(CFA_XSP16, literal(-14)))
          CFI V1 load(1, XDATA, add(CFA_XSP16, literal(-13)))
          CFI V2 load(1, XDATA, add(CFA_XSP16, literal(-12)))
          CFI V3 load(1, XDATA, add(CFA_XSP16, literal(-11)))
          CFI V4 load(1, XDATA, add(CFA_XSP16, literal(-10)))
          CFI V5 load(1, XDATA, add(CFA_XSP16, literal(-9)))
          CFI V6 load(1, XDATA, add(CFA_XSP16, literal(-8)))
          CFI V7 load(1, XDATA, add(CFA_XSP16, literal(-7)))
          CFI R7 load(1, XDATA, add(CFA_XSP16, literal(-6)))
          CFI ?RET_LOW load(1, XDATA, add(CFA_XSP16, literal(-5)))
          CFI ?RET_HIGH load(1, XDATA, add(CFA_XSP16, literal(-4)))
          CFI ?BRET_EXT load(1, XDATA, add(CFA_XSP16, literal(-3)))
          CFI DPL0 load(1, XDATA, add(CFA_XSP16, literal(-2)))
          CFI DPH0 load(1, XDATA, add(CFA_XSP16, literal(-1)))
          CFI CFA_SP SP+-2
          CFI CFA_XSP16 add(XSP16, 16)
          CFI Block cfiCond21 Using cfiCommon0
          CFI (cfiCond21) Function MT_BuildEndpointDesc
          CFI (cfiCond21) Conditional ??CrossCallReturnLabel_29
          CFI (cfiCond21) R6 load(1, XDATA, add(CFA_XSP16, literal(-16)))
          CFI (cfiCond21) VB load(1, XDATA, add(CFA_XSP16, literal(-15)))
          CFI (cfiCond21) V0 load(1, XDATA, add(CFA_XSP16, literal(-14)))
          CFI (cfiCond21) V1 load(1, XDATA, add(CFA_XSP16, literal(-13)))
          CFI (cfiCond21) V2 load(1, XDATA, add(CFA_XSP16, literal(-12)))
          CFI (cfiCond21) V3 load(1, XDATA, add(CFA_XSP16, literal(-11)))
          CFI (cfiCond21) V4 load(1, XDATA, add(CFA_XSP16, literal(-10)))
          CFI (cfiCond21) V5 load(1, XDATA, add(CFA_XSP16, literal(-9)))
          CFI (cfiCond21) V6 load(1, XDATA, add(CFA_XSP16, literal(-8)))
          CFI (cfiCond21) V7 load(1, XDATA, add(CFA_XSP16, literal(-7)))
          CFI (cfiCond21) R7 load(1, XDATA, add(CFA_XSP16, literal(-6)))
          CFI (cfiCond21) ?RET_LOW load(1, XDATA, add(CFA_XSP16, literal(-5)))
          CFI (cfiCond21) ?RET_HIGH load(1, XDATA, add(CFA_XSP16, literal(-4)))
          CFI (cfiCond21) ?BRET_EXT load(1, XDATA, add(CFA_XSP16, literal(-3)))
          CFI (cfiCond21) DPL0 load(1, XDATA, add(CFA_XSP16, literal(-2)))
          CFI (cfiCond21) DPH0 load(1, XDATA, add(CFA_XSP16, literal(-1)))
          CFI (cfiCond21) CFA_XSP16 add(XSP16, 16)
          CFI Block cfiCond22 Using cfiCommon0
          CFI (cfiCond22) Function MT_BuildEndpointDesc
          CFI (cfiCond22) Conditional ??CrossCallReturnLabel_30
          CFI (cfiCond22) R6 load(1, XDATA, add(CFA_XSP16, literal(-16)))
          CFI (cfiCond22) VB load(1, XDATA, add(CFA_XSP16, literal(-15)))
          CFI (cfiCond22) V0 load(1, XDATA, add(CFA_XSP16, literal(-14)))
          CFI (cfiCond22) V1 load(1, XDATA, add(CFA_XSP16, literal(-13)))
          CFI (cfiCond22) V2 load(1, XDATA, add(CFA_XSP16, literal(-12)))
          CFI (cfiCond22) V3 load(1, XDATA, add(CFA_XSP16, literal(-11)))
          CFI (cfiCond22) V4 load(1, XDATA, add(CFA_XSP16, literal(-10)))
          CFI (cfiCond22) V5 load(1, XDATA, add(CFA_XSP16, literal(-9)))
          CFI (cfiCond22) V6 load(1, XDATA, add(CFA_XSP16, literal(-8)))
          CFI (cfiCond22) V7 load(1, XDATA, add(CFA_XSP16, literal(-7)))
          CFI (cfiCond22) R7 load(1, XDATA, add(CFA_XSP16, literal(-6)))
          CFI (cfiCond22) ?RET_LOW load(1, XDATA, add(CFA_XSP16, literal(-5)))
          CFI (cfiCond22) ?RET_HIGH load(1, XDATA, add(CFA_XSP16, literal(-4)))
          CFI (cfiCond22) ?BRET_EXT load(1, XDATA, add(CFA_XSP16, literal(-3)))
          CFI (cfiCond22) DPL0 load(1, XDATA, add(CFA_XSP16, literal(-2)))
          CFI (cfiCond22) DPH0 load(1, XDATA, add(CFA_XSP16, literal(-1)))
          CFI (cfiCond22) CFA_SP SP+-2
          CFI (cfiCond22) CFA_XSP16 add(XSP16, 16)
          CFI Block cfiCond23 Using cfiCommon0
          CFI (cfiCond23) Function MT_BuildEndpointDesc
          CFI (cfiCond23) Conditional ??CrossCallReturnLabel_31
          CFI (cfiCond23) R6 load(1, XDATA, add(CFA_XSP16, literal(-16)))
          CFI (cfiCond23) VB load(1, XDATA, add(CFA_XSP16, literal(-15)))
          CFI (cfiCond23) V0 load(1, XDATA, add(CFA_XSP16, literal(-14)))
          CFI (cfiCond23) V1 load(1, XDATA, add(CFA_XSP16, literal(-13)))
          CFI (cfiCond23) V2 load(1, XDATA, add(CFA_XSP16, literal(-12)))
          CFI (cfiCond23) V3 load(1, XDATA, add(CFA_XSP16, literal(-11)))
          CFI (cfiCond23) V4 load(1, XDATA, add(CFA_XSP16, literal(-10)))
          CFI (cfiCond23) V5 load(1, XDATA, add(CFA_XSP16, literal(-9)))
          CFI (cfiCond23) V6 load(1, XDATA, add(CFA_XSP16, literal(-8)))
          CFI (cfiCond23) V7 load(1, XDATA, add(CFA_XSP16, literal(-7)))
          CFI (cfiCond23) R7 load(1, XDATA, add(CFA_XSP16, literal(-6)))
          CFI (cfiCond23) ?RET_LOW load(1, XDATA, add(CFA_XSP16, literal(-5)))
          CFI (cfiCond23) ?RET_HIGH load(1, XDATA, add(CFA_XSP16, literal(-4)))
          CFI (cfiCond23) ?BRET_EXT load(1, XDATA, add(CFA_XSP16, literal(-3)))
          CFI (cfiCond23) DPL0 load(1, XDATA, add(CFA_XSP16, literal(-2)))
          CFI (cfiCond23) DPH0 load(1, XDATA, add(CFA_XSP16, literal(-1)))
          CFI (cfiCond23) CFA_XSP16 add(XSP16, 16)
          CFI Block cfiCond24 Using cfiCommon0
          CFI (cfiCond24) Function MT_BuildEndpointDesc
          CFI (cfiCond24) Conditional ??CrossCallReturnLabel_32
          CFI (cfiCond24) R6 load(1, XDATA, add(CFA_XSP16, literal(-16)))
          CFI (cfiCond24) VB load(1, XDATA, add(CFA_XSP16, literal(-15)))
          CFI (cfiCond24) V0 load(1, XDATA, add(CFA_XSP16, literal(-14)))
          CFI (cfiCond24) V1 load(1, XDATA, add(CFA_XSP16, literal(-13)))
          CFI (cfiCond24) V2 load(1, XDATA, add(CFA_XSP16, literal(-12)))
          CFI (cfiCond24) V3 load(1, XDATA, add(CFA_XSP16, literal(-11)))
          CFI (cfiCond24) V4 load(1, XDATA, add(CFA_XSP16, literal(-10)))
          CFI (cfiCond24) V5 load(1, XDATA, add(CFA_XSP16, literal(-9)))
          CFI (cfiCond24) V6 load(1, XDATA, add(CFA_XSP16, literal(-8)))
          CFI (cfiCond24) V7 load(1, XDATA, add(CFA_XSP16, literal(-7)))
          CFI (cfiCond24) R7 load(1, XDATA, add(CFA_XSP16, literal(-6)))
          CFI (cfiCond24) ?RET_LOW load(1, XDATA, add(CFA_XSP16, literal(-5)))
          CFI (cfiCond24) ?RET_HIGH load(1, XDATA, add(CFA_XSP16, literal(-4)))
          CFI (cfiCond24) ?BRET_EXT load(1, XDATA, add(CFA_XSP16, literal(-3)))
          CFI (cfiCond24) DPL0 load(1, XDATA, add(CFA_XSP16, literal(-2)))
          CFI (cfiCond24) DPH0 load(1, XDATA, add(CFA_XSP16, literal(-1)))
          CFI (cfiCond24) CFA_SP SP+-2
          CFI (cfiCond24) CFA_XSP16 add(XSP16, 16)
          CFI Block cfiPicker25 Using cfiCommon1
          CFI (cfiPicker25) NoFunction
          CFI (cfiPicker25) Picker
        LCALL     ??Subroutine21_0 & 0xFFFF
??CrossCallReturnLabel_41:
        RET
          CFI EndBlock cfiCond20
          CFI EndBlock cfiCond21
          CFI EndBlock cfiCond22
          CFI EndBlock cfiCond23
          CFI EndBlock cfiCond24
          CFI EndBlock cfiPicker25

        RSEG BANKED_CODE:HUGECODE:NOROOT(0)
?Subroutine10:
          CFI Block cfiCond26 Using cfiCommon0
          CFI Function MT_BuildEndpointDesc
          CFI Conditional ??CrossCallReturnLabel_15
          CFI R6 load(1, XDATA, add(CFA_XSP16, literal(-16)))
          CFI VB load(1, XDATA, add(CFA_XSP16, literal(-15)))
          CFI V0 load(1, XDATA, add(CFA_XSP16, literal(-14)))
          CFI V1 load(1, XDATA, add(CFA_XSP16, literal(-13)))
          CFI V2 load(1, XDATA, add(CFA_XSP16, literal(-12)))
          CFI V3 load(1, XDATA, add(CFA_XSP16, literal(-11)))
          CFI V4 load(1, XDATA, add(CFA_XSP16, literal(-10)))
          CFI V5 load(1, XDATA, add(CFA_XSP16, literal(-9)))
          CFI V6 load(1, XDATA, add(CFA_XSP16, literal(-8)))
          CFI V7 load(1, XDATA, add(CFA_XSP16, literal(-7)))
          CFI R7 load(1, XDATA, add(CFA_XSP16, literal(-6)))
          CFI ?RET_LOW load(1, XDATA, add(CFA_XSP16, literal(-5)))
          CFI ?RET_HIGH load(1, XDATA, add(CFA_XSP16, literal(-4)))
          CFI ?BRET_EXT load(1, XDATA, add(CFA_XSP16, literal(-3)))
          CFI DPL0 load(1, XDATA, add(CFA_XSP16, literal(-2)))
          CFI DPH0 load(1, XDATA, add(CFA_XSP16, literal(-1)))
          CFI CFA_SP SP+-2
          CFI CFA_XSP16 add(XSP16, 16)
          CFI Block cfiCond27 Using cfiCommon0
          CFI (cfiCond27) Function MT_BuildEndpointDesc
          CFI (cfiCond27) Conditional ??CrossCallReturnLabel_16
          CFI (cfiCond27) R6 load(1, XDATA, add(CFA_XSP16, literal(-16)))
          CFI (cfiCond27) VB load(1, XDATA, add(CFA_XSP16, literal(-15)))
          CFI (cfiCond27) V0 load(1, XDATA, add(CFA_XSP16, literal(-14)))
          CFI (cfiCond27) V1 load(1, XDATA, add(CFA_XSP16, literal(-13)))
          CFI (cfiCond27) V2 load(1, XDATA, add(CFA_XSP16, literal(-12)))
          CFI (cfiCond27) V3 load(1, XDATA, add(CFA_XSP16, literal(-11)))
          CFI (cfiCond27) V4 load(1, XDATA, add(CFA_XSP16, literal(-10)))
          CFI (cfiCond27) V5 load(1, XDATA, add(CFA_XSP16, literal(-9)))
          CFI (cfiCond27) V6 load(1, XDATA, add(CFA_XSP16, literal(-8)))
          CFI (cfiCond27) V7 load(1, XDATA, add(CFA_XSP16, literal(-7)))
          CFI (cfiCond27) R7 load(1, XDATA, add(CFA_XSP16, literal(-6)))
          CFI (cfiCond27) ?RET_LOW load(1, XDATA, add(CFA_XSP16, literal(-5)))
          CFI (cfiCond27) ?RET_HIGH load(1, XDATA, add(CFA_XSP16, literal(-4)))
          CFI (cfiCond27) ?BRET_EXT load(1, XDATA, add(CFA_XSP16, literal(-3)))
          CFI (cfiCond27) DPL0 load(1, XDATA, add(CFA_XSP16, literal(-2)))
          CFI (cfiCond27) DPH0 load(1, XDATA, add(CFA_XSP16, literal(-1)))
          CFI (cfiCond27) CFA_SP SP+-2
          CFI (cfiCond27) CFA_XSP16 add(XSP16, 16)
          CFI Block cfiPicker28 Using cfiCommon1
          CFI (cfiPicker28) NoFunction
          CFI (cfiPicker28) Picker
        MOV       DPL,?V0
        MOV       DPH,?V1
        INC       DPTR
        INC       DPTR
        INC       DPTR
        LCALL     ??Subroutine21_0 & 0xFFFF
??CrossCallReturnLabel_38:
        ADD       A,#0x7
        MOV       DPL,A
        CLR       A
        ADDC      A,R0
        MOV       DPH,A
        MOVX      A,@DPTR
        RET
          CFI EndBlock cfiCond26
          CFI EndBlock cfiCond27
          CFI EndBlock cfiPicker28

        RSEG BANKED_CODE:HUGECODE:NOROOT(0)
?Subroutine9:
          CFI Block cfiCond29 Using cfiCommon0
          CFI Function MT_BuildEndpointDesc
          CFI Conditional ??CrossCallReturnLabel_13
          CFI R6 load(1, XDATA, add(CFA_XSP16, literal(-16)))
          CFI VB load(1, XDATA, add(CFA_XSP16, literal(-15)))
          CFI V0 load(1, XDATA, add(CFA_XSP16, literal(-14)))
          CFI V1 load(1, XDATA, add(CFA_XSP16, literal(-13)))
          CFI V2 load(1, XDATA, add(CFA_XSP16, literal(-12)))
          CFI V3 load(1, XDATA, add(CFA_XSP16, literal(-11)))
          CFI V4 load(1, XDATA, add(CFA_XSP16, literal(-10)))
          CFI V5 load(1, XDATA, add(CFA_XSP16, literal(-9)))
          CFI V6 load(1, XDATA, add(CFA_XSP16, literal(-8)))
          CFI V7 load(1, XDATA, add(CFA_XSP16, literal(-7)))
          CFI R7 load(1, XDATA, add(CFA_XSP16, literal(-6)))
          CFI ?RET_LOW load(1, XDATA, add(CFA_XSP16, literal(-5)))
          CFI ?RET_HIGH load(1, XDATA, add(CFA_XSP16, literal(-4)))
          CFI ?BRET_EXT load(1, XDATA, add(CFA_XSP16, literal(-3)))
          CFI DPL0 load(1, XDATA, add(CFA_XSP16, literal(-2)))
          CFI DPH0 load(1, XDATA, add(CFA_XSP16, literal(-1)))
          CFI CFA_SP SP+-2
          CFI CFA_XSP16 add(XSP16, 16)
          CFI Block cfiCond30 Using cfiCommon0
          CFI (cfiCond30) Function MT_BuildEndpointDesc
          CFI (cfiCond30) Conditional ??CrossCallReturnLabel_14
          CFI (cfiCond30) R6 load(1, XDATA, add(CFA_XSP16, literal(-16)))
          CFI (cfiCond30) VB load(1, XDATA, add(CFA_XSP16, literal(-15)))
          CFI (cfiCond30) V0 load(1, XDATA, add(CFA_XSP16, literal(-14)))
          CFI (cfiCond30) V1 load(1, XDATA, add(CFA_XSP16, literal(-13)))
          CFI (cfiCond30) V2 load(1, XDATA, add(CFA_XSP16, literal(-12)))
          CFI (cfiCond30) V3 load(1, XDATA, add(CFA_XSP16, literal(-11)))
          CFI (cfiCond30) V4 load(1, XDATA, add(CFA_XSP16, literal(-10)))
          CFI (cfiCond30) V5 load(1, XDATA, add(CFA_XSP16, literal(-9)))
          CFI (cfiCond30) V6 load(1, XDATA, add(CFA_XSP16, literal(-8)))
          CFI (cfiCond30) V7 load(1, XDATA, add(CFA_XSP16, literal(-7)))
          CFI (cfiCond30) R7 load(1, XDATA, add(CFA_XSP16, literal(-6)))
          CFI (cfiCond30) ?RET_LOW load(1, XDATA, add(CFA_XSP16, literal(-5)))
          CFI (cfiCond30) ?RET_HIGH load(1, XDATA, add(CFA_XSP16, literal(-4)))
          CFI (cfiCond30) ?BRET_EXT load(1, XDATA, add(CFA_XSP16, literal(-3)))
          CFI (cfiCond30) DPL0 load(1, XDATA, add(CFA_XSP16, literal(-2)))
          CFI (cfiCond30) DPH0 load(1, XDATA, add(CFA_XSP16, literal(-1)))
          CFI (cfiCond30) CFA_SP SP+-2
          CFI (cfiCond30) CFA_XSP16 add(XSP16, 16)
          CFI Block cfiPicker31 Using cfiCommon1
          CFI (cfiPicker31) NoFunction
          CFI (cfiPicker31) Picker
        LCALL     ?Subroutine14 & 0xFFFF
??CrossCallReturnLabel_40:
        LCALL     ?Subroutine17 & 0xFFFF
??CrossCallReturnLabel_27:
        MOVX      A,@DPTR
        RET
          CFI EndBlock cfiCond29
          CFI EndBlock cfiCond30
          CFI EndBlock cfiPicker31

        RSEG BANKED_CODE:HUGECODE:NOROOT(0)
?Subroutine17:
          CFI Block cfiCond32 Using cfiCommon0
          CFI Function MT_BuildEndpointDesc
          CFI Conditional ??CrossCallReturnLabel_26
          CFI R6 load(1, XDATA, add(CFA_XSP16, literal(-16)))
          CFI VB load(1, XDATA, add(CFA_XSP16, literal(-15)))
          CFI V0 load(1, XDATA, add(CFA_XSP16, literal(-14)))
          CFI V1 load(1, XDATA, add(CFA_XSP16, literal(-13)))
          CFI V2 load(1, XDATA, add(CFA_XSP16, literal(-12)))
          CFI V3 load(1, XDATA, add(CFA_XSP16, literal(-11)))
          CFI V4 load(1, XDATA, add(CFA_XSP16, literal(-10)))
          CFI V5 load(1, XDATA, add(CFA_XSP16, literal(-9)))
          CFI V6 load(1, XDATA, add(CFA_XSP16, literal(-8)))
          CFI V7 load(1, XDATA, add(CFA_XSP16, literal(-7)))
          CFI R7 load(1, XDATA, add(CFA_XSP16, literal(-6)))
          CFI ?RET_LOW load(1, XDATA, add(CFA_XSP16, literal(-5)))
          CFI ?RET_HIGH load(1, XDATA, add(CFA_XSP16, literal(-4)))
          CFI ?BRET_EXT load(1, XDATA, add(CFA_XSP16, literal(-3)))
          CFI DPL0 load(1, XDATA, add(CFA_XSP16, literal(-2)))
          CFI DPH0 load(1, XDATA, add(CFA_XSP16, literal(-1)))
          CFI CFA_XSP16 add(XSP16, 16)
          CFI Block cfiCond33 Using cfiCommon0
          CFI (cfiCond33) Function MT_BuildEndpointDesc
          CFI (cfiCond33) Conditional ??CrossCallReturnLabel_27, ??CrossCallReturnLabel_13
          CFI (cfiCond33) R6 load(1, XDATA, add(CFA_XSP16, literal(-16)))
          CFI (cfiCond33) VB load(1, XDATA, add(CFA_XSP16, literal(-15)))
          CFI (cfiCond33) V0 load(1, XDATA, add(CFA_XSP16, literal(-14)))
          CFI (cfiCond33) V1 load(1, XDATA, add(CFA_XSP16, literal(-13)))
          CFI (cfiCond33) V2 load(1, XDATA, add(CFA_XSP16, literal(-12)))
          CFI (cfiCond33) V3 load(1, XDATA, add(CFA_XSP16, literal(-11)))
          CFI (cfiCond33) V4 load(1, XDATA, add(CFA_XSP16, literal(-10)))
          CFI (cfiCond33) V5 load(1, XDATA, add(CFA_XSP16, literal(-9)))
          CFI (cfiCond33) V6 load(1, XDATA, add(CFA_XSP16, literal(-8)))
          CFI (cfiCond33) V7 load(1, XDATA, add(CFA_XSP16, literal(-7)))
          CFI (cfiCond33) R7 load(1, XDATA, add(CFA_XSP16, literal(-6)))
          CFI (cfiCond33) ?RET_LOW load(1, XDATA, add(CFA_XSP16, literal(-5)))
          CFI (cfiCond33) ?RET_HIGH load(1, XDATA, add(CFA_XSP16, literal(-4)))
          CFI (cfiCond33) ?BRET_EXT load(1, XDATA, add(CFA_XSP16, literal(-3)))
          CFI (cfiCond33) DPL0 load(1, XDATA, add(CFA_XSP16, literal(-2)))
          CFI (cfiCond33) DPH0 load(1, XDATA, add(CFA_XSP16, literal(-1)))
          CFI (cfiCond33) CFA_SP SP+-4
          CFI (cfiCond33) CFA_XSP16 add(XSP16, 16)
          CFI Block cfiCond34 Using cfiCommon0
          CFI (cfiCond34) Function MT_BuildEndpointDesc
          CFI (cfiCond34) Conditional ??CrossCallReturnLabel_27, ??CrossCallReturnLabel_14
          CFI (cfiCond34) R6 load(1, XDATA, add(CFA_XSP16, literal(-16)))
          CFI (cfiCond34) VB load(1, XDATA, add(CFA_XSP16, literal(-15)))
          CFI (cfiCond34) V0 load(1, XDATA, add(CFA_XSP16, literal(-14)))
          CFI (cfiCond34) V1 load(1, XDATA, add(CFA_XSP16, literal(-13)))
          CFI (cfiCond34) V2 load(1, XDATA, add(CFA_XSP16, literal(-12)))
          CFI (cfiCond34) V3 load(1, XDATA, add(CFA_XSP16, literal(-11)))
          CFI (cfiCond34) V4 load(1, XDATA, add(CFA_XSP16, literal(-10)))
          CFI (cfiCond34) V5 load(1, XDATA, add(CFA_XSP16, literal(-9)))
          CFI (cfiCond34) V6 load(1, XDATA, add(CFA_XSP16, literal(-8)))
          CFI (cfiCond34) V7 load(1, XDATA, add(CFA_XSP16, literal(-7)))
          CFI (cfiCond34) R7 load(1, XDATA, add(CFA_XSP16, literal(-6)))
          CFI (cfiCond34) ?RET_LOW load(1, XDATA, add(CFA_XSP16, literal(-5)))
          CFI (cfiCond34) ?RET_HIGH load(1, XDATA, add(CFA_XSP16, literal(-4)))
          CFI (cfiCond34) ?BRET_EXT load(1, XDATA, add(CFA_XSP16, literal(-3)))
          CFI (cfiCond34) DPL0 load(1, XDATA, add(CFA_XSP16, literal(-2)))
          CFI (cfiCond34) DPH0 load(1, XDATA, add(CFA_XSP16, literal(-1)))
          CFI (cfiCond34) CFA_SP SP+-4
          CFI (cfiCond34) CFA_XSP16 add(XSP16, 16)
          CFI Block cfiPicker35 Using cfiCommon1
          CFI (cfiPicker35) NoFunction
          CFI (cfiPicker35) Picker
        ADD       A,#0x6
        MOV       DPL,A
        CLR       A
        ADDC      A,R0
        MOV       DPH,A
        RET
          CFI EndBlock cfiCond32
          CFI EndBlock cfiCond33
          CFI EndBlock cfiCond34
          CFI EndBlock cfiPicker35

        RSEG BANKED_CODE:HUGECODE:NOROOT(0)
?Subroutine8:
          CFI Block cfiCond36 Using cfiCommon0
          CFI Function MT_BuildEndpointDesc
          CFI Conditional ??CrossCallReturnLabel_34
          CFI R6 load(1, XDATA, add(CFA_XSP16, literal(-16)))
          CFI VB load(1, XDATA, add(CFA_XSP16, literal(-15)))
          CFI V0 load(1, XDATA, add(CFA_XSP16, literal(-14)))
          CFI V1 load(1, XDATA, add(CFA_XSP16, literal(-13)))
          CFI V2 load(1, XDATA, add(CFA_XSP16, literal(-12)))
          CFI V3 load(1, XDATA, add(CFA_XSP16, literal(-11)))
          CFI V4 load(1, XDATA, add(CFA_XSP16, literal(-10)))
          CFI V5 load(1, XDATA, add(CFA_XSP16, literal(-9)))
          CFI V6 load(1, XDATA, add(CFA_XSP16, literal(-8)))
          CFI V7 load(1, XDATA, add(CFA_XSP16, literal(-7)))
          CFI R7 load(1, XDATA, add(CFA_XSP16, literal(-6)))
          CFI ?RET_LOW load(1, XDATA, add(CFA_XSP16, literal(-5)))
          CFI ?RET_HIGH load(1, XDATA, add(CFA_XSP16, literal(-4)))
          CFI ?BRET_EXT load(1, XDATA, add(CFA_XSP16, literal(-3)))
          CFI DPL0 load(1, XDATA, add(CFA_XSP16, literal(-2)))
          CFI DPH0 load(1, XDATA, add(CFA_XSP16, literal(-1)))
          CFI CFA_SP SP+-2
          CFI CFA_XSP16 add(XSP16, 16)
          CFI Block cfiCond37 Using cfiCommon0
          CFI (cfiCond37) Function MT_BuildEndpointDesc
          CFI (cfiCond37) Conditional ??CrossCallReturnLabel_35
          CFI (cfiCond37) R6 load(1, XDATA, add(CFA_XSP16, literal(-16)))
          CFI (cfiCond37) VB load(1, XDATA, add(CFA_XSP16, literal(-15)))
          CFI (cfiCond37) V0 load(1, XDATA, add(CFA_XSP16, literal(-14)))
          CFI (cfiCond37) V1 load(1, XDATA, add(CFA_XSP16, literal(-13)))
          CFI (cfiCond37) V2 load(1, XDATA, add(CFA_XSP16, literal(-12)))
          CFI (cfiCond37) V3 load(1, XDATA, add(CFA_XSP16, literal(-11)))
          CFI (cfiCond37) V4 load(1, XDATA, add(CFA_XSP16, literal(-10)))
          CFI (cfiCond37) V5 load(1, XDATA, add(CFA_XSP16, literal(-9)))
          CFI (cfiCond37) V6 load(1, XDATA, add(CFA_XSP16, literal(-8)))
          CFI (cfiCond37) V7 load(1, XDATA, add(CFA_XSP16, literal(-7)))
          CFI (cfiCond37) R7 load(1, XDATA, add(CFA_XSP16, literal(-6)))
          CFI (cfiCond37) ?RET_LOW load(1, XDATA, add(CFA_XSP16, literal(-5)))
          CFI (cfiCond37) ?RET_HIGH load(1, XDATA, add(CFA_XSP16, literal(-4)))
          CFI (cfiCond37) ?BRET_EXT load(1, XDATA, add(CFA_XSP16, literal(-3)))
          CFI (cfiCond37) DPL0 load(1, XDATA, add(CFA_XSP16, literal(-2)))
          CFI (cfiCond37) DPH0 load(1, XDATA, add(CFA_XSP16, literal(-1)))
          CFI (cfiCond37) CFA_SP SP+-2
          CFI (cfiCond37) CFA_XSP16 add(XSP16, 16)
          CFI Block cfiPicker38 Using cfiCommon1
          CFI (cfiPicker38) NoFunction
          CFI (cfiPicker38) Picker
        MOV       DPL,?V4
        MOV       DPH,?V5
          CFI EndBlock cfiCond36
          CFI EndBlock cfiCond37
          CFI EndBlock cfiPicker38
        REQUIRE ??Subroutine20_0
        ; // Fall through to label ??Subroutine20_0

        RSEG BANKED_CODE:HUGECODE:NOROOT(0)
??Subroutine20_0:
          CFI Block cfiCond39 Using cfiCommon0
          CFI Function MT_BuildEndpointDesc
          CFI Conditional ??CrossCallReturnLabel_33
          CFI R6 load(1, XDATA, add(CFA_XSP16, literal(-16)))
          CFI VB load(1, XDATA, add(CFA_XSP16, literal(-15)))
          CFI V0 load(1, XDATA, add(CFA_XSP16, literal(-14)))
          CFI V1 load(1, XDATA, add(CFA_XSP16, literal(-13)))
          CFI V2 load(1, XDATA, add(CFA_XSP16, literal(-12)))
          CFI V3 load(1, XDATA, add(CFA_XSP16, literal(-11)))
          CFI V4 load(1, XDATA, add(CFA_XSP16, literal(-10)))
          CFI V5 load(1, XDATA, add(CFA_XSP16, literal(-9)))
          CFI V6 load(1, XDATA, add(CFA_XSP16, literal(-8)))
          CFI V7 load(1, XDATA, add(CFA_XSP16, literal(-7)))
          CFI R7 load(1, XDATA, add(CFA_XSP16, literal(-6)))
          CFI ?RET_LOW load(1, XDATA, add(CFA_XSP16, literal(-5)))
          CFI ?RET_HIGH load(1, XDATA, add(CFA_XSP16, literal(-4)))
          CFI ?BRET_EXT load(1, XDATA, add(CFA_XSP16, literal(-3)))
          CFI DPL0 load(1, XDATA, add(CFA_XSP16, literal(-2)))
          CFI DPH0 load(1, XDATA, add(CFA_XSP16, literal(-1)))
          CFI CFA_SP SP+-2
          CFI CFA_XSP16 add(XSP16, 16)
          CFI Block cfiCond40 Using cfiCommon0
          CFI (cfiCond40) Function MT_BuildEndpointDesc
          CFI (cfiCond40) Conditional ??CrossCallReturnLabel_34
          CFI (cfiCond40) R6 load(1, XDATA, add(CFA_XSP16, literal(-16)))
          CFI (cfiCond40) VB load(1, XDATA, add(CFA_XSP16, literal(-15)))
          CFI (cfiCond40) V0 load(1, XDATA, add(CFA_XSP16, literal(-14)))
          CFI (cfiCond40) V1 load(1, XDATA, add(CFA_XSP16, literal(-13)))
          CFI (cfiCond40) V2 load(1, XDATA, add(CFA_XSP16, literal(-12)))
          CFI (cfiCond40) V3 load(1, XDATA, add(CFA_XSP16, literal(-11)))
          CFI (cfiCond40) V4 load(1, XDATA, add(CFA_XSP16, literal(-10)))
          CFI (cfiCond40) V5 load(1, XDATA, add(CFA_XSP16, literal(-9)))
          CFI (cfiCond40) V6 load(1, XDATA, add(CFA_XSP16, literal(-8)))
          CFI (cfiCond40) V7 load(1, XDATA, add(CFA_XSP16, literal(-7)))
          CFI (cfiCond40) R7 load(1, XDATA, add(CFA_XSP16, literal(-6)))
          CFI (cfiCond40) ?RET_LOW load(1, XDATA, add(CFA_XSP16, literal(-5)))
          CFI (cfiCond40) ?RET_HIGH load(1, XDATA, add(CFA_XSP16, literal(-4)))
          CFI (cfiCond40) ?BRET_EXT load(1, XDATA, add(CFA_XSP16, literal(-3)))
          CFI (cfiCond40) DPL0 load(1, XDATA, add(CFA_XSP16, literal(-2)))
          CFI (cfiCond40) DPH0 load(1, XDATA, add(CFA_XSP16, literal(-1)))
          CFI (cfiCond40) CFA_SP SP+-2
          CFI (cfiCond40) CFA_XSP16 add(XSP16, 16)
          CFI Block cfiCond41 Using cfiCommon0
          CFI (cfiCond41) Function MT_BuildEndpointDesc
          CFI (cfiCond41) Conditional ??CrossCallReturnLabel_35
          CFI (cfiCond41) R6 load(1, XDATA, add(CFA_XSP16, literal(-16)))
          CFI (cfiCond41) VB load(1, XDATA, add(CFA_XSP16, literal(-15)))
          CFI (cfiCond41) V0 load(1, XDATA, add(CFA_XSP16, literal(-14)))
          CFI (cfiCond41) V1 load(1, XDATA, add(CFA_XSP16, literal(-13)))
          CFI (cfiCond41) V2 load(1, XDATA, add(CFA_XSP16, literal(-12)))
          CFI (cfiCond41) V3 load(1, XDATA, add(CFA_XSP16, literal(-11)))
          CFI (cfiCond41) V4 load(1, XDATA, add(CFA_XSP16, literal(-10)))
          CFI (cfiCond41) V5 load(1, XDATA, add(CFA_XSP16, literal(-9)))
          CFI (cfiCond41) V6 load(1, XDATA, add(CFA_XSP16, literal(-8)))
          CFI (cfiCond41) V7 load(1, XDATA, add(CFA_XSP16, literal(-7)))
          CFI (cfiCond41) R7 load(1, XDATA, add(CFA_XSP16, literal(-6)))
          CFI (cfiCond41) ?RET_LOW load(1, XDATA, add(CFA_XSP16, literal(-5)))
          CFI (cfiCond41) ?RET_HIGH load(1, XDATA, add(CFA_XSP16, literal(-4)))
          CFI (cfiCond41) ?BRET_EXT load(1, XDATA, add(CFA_XSP16, literal(-3)))
          CFI (cfiCond41) DPL0 load(1, XDATA, add(CFA_XSP16, literal(-2)))
          CFI (cfiCond41) DPH0 load(1, XDATA, add(CFA_XSP16, literal(-1)))
          CFI (cfiCond41) CFA_SP SP+-2
          CFI (cfiCond41) CFA_XSP16 add(XSP16, 16)
          CFI Block cfiPicker42 Using cfiCommon1
          CFI (cfiPicker42) NoFunction
          CFI (cfiPicker42) Picker
        LCALL     ??Subroutine21_0 & 0xFFFF
??CrossCallReturnLabel_42:
        LCALL     ?Subroutine18 & 0xFFFF
??CrossCallReturnLabel_37:
        MOVX      A,@DPTR
        RET
          CFI EndBlock cfiCond39
          CFI EndBlock cfiCond40
          CFI EndBlock cfiCond41
          CFI EndBlock cfiPicker42

        RSEG BANKED_CODE:HUGECODE:NOROOT(0)
?Subroutine18:
          CFI Block cfiCond43 Using cfiCommon0
          CFI Function MT_BuildEndpointDesc
          CFI Conditional ??CrossCallReturnLabel_36
          CFI R6 load(1, XDATA, add(CFA_XSP16, literal(-16)))
          CFI VB load(1, XDATA, add(CFA_XSP16, literal(-15)))
          CFI V0 load(1, XDATA, add(CFA_XSP16, literal(-14)))
          CFI V1 load(1, XDATA, add(CFA_XSP16, literal(-13)))
          CFI V2 load(1, XDATA, add(CFA_XSP16, literal(-12)))
          CFI V3 load(1, XDATA, add(CFA_XSP16, literal(-11)))
          CFI V4 load(1, XDATA, add(CFA_XSP16, literal(-10)))
          CFI V5 load(1, XDATA, add(CFA_XSP16, literal(-9)))
          CFI V6 load(1, XDATA, add(CFA_XSP16, literal(-8)))
          CFI V7 load(1, XDATA, add(CFA_XSP16, literal(-7)))
          CFI R7 load(1, XDATA, add(CFA_XSP16, literal(-6)))
          CFI ?RET_LOW load(1, XDATA, add(CFA_XSP16, literal(-5)))
          CFI ?RET_HIGH load(1, XDATA, add(CFA_XSP16, literal(-4)))
          CFI ?BRET_EXT load(1, XDATA, add(CFA_XSP16, literal(-3)))
          CFI DPL0 load(1, XDATA, add(CFA_XSP16, literal(-2)))
          CFI DPH0 load(1, XDATA, add(CFA_XSP16, literal(-1)))
          CFI CFA_XSP16 add(XSP16, 16)
          CFI Block cfiCond44 Using cfiCommon0
          CFI (cfiCond44) Function MT_BuildEndpointDesc
          CFI (cfiCond44) Conditional ??CrossCallReturnLabel_37, ??CrossCallReturnLabel_34
          CFI (cfiCond44) R6 load(1, XDATA, add(CFA_XSP16, literal(-16)))
          CFI (cfiCond44) VB load(1, XDATA, add(CFA_XSP16, literal(-15)))
          CFI (cfiCond44) V0 load(1, XDATA, add(CFA_XSP16, literal(-14)))
          CFI (cfiCond44) V1 load(1, XDATA, add(CFA_XSP16, literal(-13)))
          CFI (cfiCond44) V2 load(1, XDATA, add(CFA_XSP16, literal(-12)))
          CFI (cfiCond44) V3 load(1, XDATA, add(CFA_XSP16, literal(-11)))
          CFI (cfiCond44) V4 load(1, XDATA, add(CFA_XSP16, literal(-10)))
          CFI (cfiCond44) V5 load(1, XDATA, add(CFA_XSP16, literal(-9)))
          CFI (cfiCond44) V6 load(1, XDATA, add(CFA_XSP16, literal(-8)))
          CFI (cfiCond44) V7 load(1, XDATA, add(CFA_XSP16, literal(-7)))
          CFI (cfiCond44) R7 load(1, XDATA, add(CFA_XSP16, literal(-6)))
          CFI (cfiCond44) ?RET_LOW load(1, XDATA, add(CFA_XSP16, literal(-5)))
          CFI (cfiCond44) ?RET_HIGH load(1, XDATA, add(CFA_XSP16, literal(-4)))
          CFI (cfiCond44) ?BRET_EXT load(1, XDATA, add(CFA_XSP16, literal(-3)))
          CFI (cfiCond44) DPL0 load(1, XDATA, add(CFA_XSP16, literal(-2)))
          CFI (cfiCond44) DPH0 load(1, XDATA, add(CFA_XSP16, literal(-1)))
          CFI (cfiCond44) CFA_SP SP+-4
          CFI (cfiCond44) CFA_XSP16 add(XSP16, 16)
          CFI Block cfiCond45 Using cfiCommon0
          CFI (cfiCond45) Function MT_BuildEndpointDesc
          CFI (cfiCond45) Conditional ??CrossCallReturnLabel_37, ??CrossCallReturnLabel_35
          CFI (cfiCond45) R6 load(1, XDATA, add(CFA_XSP16, literal(-16)))
          CFI (cfiCond45) VB load(1, XDATA, add(CFA_XSP16, literal(-15)))
          CFI (cfiCond45) V0 load(1, XDATA, add(CFA_XSP16, literal(-14)))
          CFI (cfiCond45) V1 load(1, XDATA, add(CFA_XSP16, literal(-13)))
          CFI (cfiCond45) V2 load(1, XDATA, add(CFA_XSP16, literal(-12)))
          CFI (cfiCond45) V3 load(1, XDATA, add(CFA_XSP16, literal(-11)))
          CFI (cfiCond45) V4 load(1, XDATA, add(CFA_XSP16, literal(-10)))
          CFI (cfiCond45) V5 load(1, XDATA, add(CFA_XSP16, literal(-9)))
          CFI (cfiCond45) V6 load(1, XDATA, add(CFA_XSP16, literal(-8)))
          CFI (cfiCond45) V7 load(1, XDATA, add(CFA_XSP16, literal(-7)))
          CFI (cfiCond45) R7 load(1, XDATA, add(CFA_XSP16, literal(-6)))
          CFI (cfiCond45) ?RET_LOW load(1, XDATA, add(CFA_XSP16, literal(-5)))
          CFI (cfiCond45) ?RET_HIGH load(1, XDATA, add(CFA_XSP16, literal(-4)))
          CFI (cfiCond45) ?BRET_EXT load(1, XDATA, add(CFA_XSP16, literal(-3)))
          CFI (cfiCond45) DPL0 load(1, XDATA, add(CFA_XSP16, literal(-2)))
          CFI (cfiCond45) DPH0 load(1, XDATA, add(CFA_XSP16, literal(-1)))
          CFI (cfiCond45) CFA_SP SP+-4
          CFI (cfiCond45) CFA_XSP16 add(XSP16, 16)
          CFI Block cfiCond46 Using cfiCommon0
          CFI (cfiCond46) Function MT_BuildEndpointDesc
          CFI (cfiCond46) Conditional ??CrossCallReturnLabel_37, ??CrossCallReturnLabel_33
          CFI (cfiCond46) R6 load(1, XDATA, add(CFA_XSP16, literal(-16)))
          CFI (cfiCond46) VB load(1, XDATA, add(CFA_XSP16, literal(-15)))
          CFI (cfiCond46) V0 load(1, XDATA, add(CFA_XSP16, literal(-14)))
          CFI (cfiCond46) V1 load(1, XDATA, add(CFA_XSP16, literal(-13)))
          CFI (cfiCond46) V2 load(1, XDATA, add(CFA_XSP16, literal(-12)))
          CFI (cfiCond46) V3 load(1, XDATA, add(CFA_XSP16, literal(-11)))
          CFI (cfiCond46) V4 load(1, XDATA, add(CFA_XSP16, literal(-10)))
          CFI (cfiCond46) V5 load(1, XDATA, add(CFA_XSP16, literal(-9)))
          CFI (cfiCond46) V6 load(1, XDATA, add(CFA_XSP16, literal(-8)))
          CFI (cfiCond46) V7 load(1, XDATA, add(CFA_XSP16, literal(-7)))
          CFI (cfiCond46) R7 load(1, XDATA, add(CFA_XSP16, literal(-6)))
          CFI (cfiCond46) ?RET_LOW load(1, XDATA, add(CFA_XSP16, literal(-5)))
          CFI (cfiCond46) ?RET_HIGH load(1, XDATA, add(CFA_XSP16, literal(-4)))
          CFI (cfiCond46) ?BRET_EXT load(1, XDATA, add(CFA_XSP16, literal(-3)))
          CFI (cfiCond46) DPL0 load(1, XDATA, add(CFA_XSP16, literal(-2)))
          CFI (cfiCond46) DPH0 load(1, XDATA, add(CFA_XSP16, literal(-1)))
          CFI (cfiCond46) CFA_SP SP+-4
          CFI (cfiCond46) CFA_XSP16 add(XSP16, 16)
          CFI Block cfiPicker47 Using cfiCommon1
          CFI (cfiPicker47) NoFunction
          CFI (cfiPicker47) Picker
        ADD       A,#0x9
        MOV       DPL,A
        CLR       A
        ADDC      A,R0
        MOV       DPH,A
        RET
          CFI EndBlock cfiCond43
          CFI EndBlock cfiCond44
          CFI EndBlock cfiCond45
          CFI EndBlock cfiCond46
          CFI EndBlock cfiPicker47

        RSEG BANKED_CODE:HUGECODE:NOROOT(0)
?Subroutine7:
          CFI Block cfiCond48 Using cfiCommon0
          CFI Function MT_BuildEndpointDesc
          CFI Conditional ??CrossCallReturnLabel_11
          CFI R6 load(1, XDATA, add(CFA_XSP16, literal(-16)))
          CFI VB load(1, XDATA, add(CFA_XSP16, literal(-15)))
          CFI V0 load(1, XDATA, add(CFA_XSP16, literal(-14)))
          CFI V1 load(1, XDATA, add(CFA_XSP16, literal(-13)))
          CFI V2 load(1, XDATA, add(CFA_XSP16, literal(-12)))
          CFI V3 load(1, XDATA, add(CFA_XSP16, literal(-11)))
          CFI V4 load(1, XDATA, add(CFA_XSP16, literal(-10)))
          CFI V5 load(1, XDATA, add(CFA_XSP16, literal(-9)))
          CFI V6 load(1, XDATA, add(CFA_XSP16, literal(-8)))
          CFI V7 load(1, XDATA, add(CFA_XSP16, literal(-7)))
          CFI R7 load(1, XDATA, add(CFA_XSP16, literal(-6)))
          CFI ?RET_LOW load(1, XDATA, add(CFA_XSP16, literal(-5)))
          CFI ?RET_HIGH load(1, XDATA, add(CFA_XSP16, literal(-4)))
          CFI ?BRET_EXT load(1, XDATA, add(CFA_XSP16, literal(-3)))
          CFI DPL0 load(1, XDATA, add(CFA_XSP16, literal(-2)))
          CFI DPH0 load(1, XDATA, add(CFA_XSP16, literal(-1)))
          CFI CFA_SP SP+-2
          CFI CFA_XSP16 add(XSP16, 16)
          CFI Block cfiCond49 Using cfiCommon0
          CFI (cfiCond49) Function MT_BuildEndpointDesc
          CFI (cfiCond49) Conditional ??CrossCallReturnLabel_12
          CFI (cfiCond49) R6 load(1, XDATA, add(CFA_XSP16, literal(-16)))
          CFI (cfiCond49) VB load(1, XDATA, add(CFA_XSP16, literal(-15)))
          CFI (cfiCond49) V0 load(1, XDATA, add(CFA_XSP16, literal(-14)))
          CFI (cfiCond49) V1 load(1, XDATA, add(CFA_XSP16, literal(-13)))
          CFI (cfiCond49) V2 load(1, XDATA, add(CFA_XSP16, literal(-12)))
          CFI (cfiCond49) V3 load(1, XDATA, add(CFA_XSP16, literal(-11)))
          CFI (cfiCond49) V4 load(1, XDATA, add(CFA_XSP16, literal(-10)))
          CFI (cfiCond49) V5 load(1, XDATA, add(CFA_XSP16, literal(-9)))
          CFI (cfiCond49) V6 load(1, XDATA, add(CFA_XSP16, literal(-8)))
          CFI (cfiCond49) V7 load(1, XDATA, add(CFA_XSP16, literal(-7)))
          CFI (cfiCond49) R7 load(1, XDATA, add(CFA_XSP16, literal(-6)))
          CFI (cfiCond49) ?RET_LOW load(1, XDATA, add(CFA_XSP16, literal(-5)))
          CFI (cfiCond49) ?RET_HIGH load(1, XDATA, add(CFA_XSP16, literal(-4)))
          CFI (cfiCond49) ?BRET_EXT load(1, XDATA, add(CFA_XSP16, literal(-3)))
          CFI (cfiCond49) DPL0 load(1, XDATA, add(CFA_XSP16, literal(-2)))
          CFI (cfiCond49) DPH0 load(1, XDATA, add(CFA_XSP16, literal(-1)))
          CFI (cfiCond49) CFA_SP SP+-2
          CFI (cfiCond49) CFA_XSP16 add(XSP16, 16)
          CFI Block cfiPicker50 Using cfiCommon1
          CFI (cfiPicker50) NoFunction
          CFI (cfiPicker50) Picker
        MOVX      A,@DPTR
        MOV       R2,A
        INC       DPTR
        MOVX      A,@DPTR
        MOV       R0,A
        CLR       A
        XCH       A,R0
        MOV       R1,A
        MOV       A,R2
        ADD       A,R0
        CLR       A
        ADDC      A,R1
        MOV       R3,A
        LCALL     ?Subroutine16 & 0xFFFF
??CrossCallReturnLabel_25:
        INC       DPTR
        RET
          CFI EndBlock cfiCond48
          CFI EndBlock cfiCond49
          CFI EndBlock cfiPicker50

        RSEG BANKED_CODE:HUGECODE:NOROOT(0)
?Subroutine16:
          CFI Block cfiCond51 Using cfiCommon0
          CFI Function MT_BuildEndpointDesc
          CFI Conditional ??CrossCallReturnLabel_24
          CFI R6 load(1, XDATA, add(CFA_XSP16, literal(-16)))
          CFI VB load(1, XDATA, add(CFA_XSP16, literal(-15)))
          CFI V0 load(1, XDATA, add(CFA_XSP16, literal(-14)))
          CFI V1 load(1, XDATA, add(CFA_XSP16, literal(-13)))
          CFI V2 load(1, XDATA, add(CFA_XSP16, literal(-12)))
          CFI V3 load(1, XDATA, add(CFA_XSP16, literal(-11)))
          CFI V4 load(1, XDATA, add(CFA_XSP16, literal(-10)))
          CFI V5 load(1, XDATA, add(CFA_XSP16, literal(-9)))
          CFI V6 load(1, XDATA, add(CFA_XSP16, literal(-8)))
          CFI V7 load(1, XDATA, add(CFA_XSP16, literal(-7)))
          CFI R7 load(1, XDATA, add(CFA_XSP16, literal(-6)))
          CFI ?RET_LOW load(1, XDATA, add(CFA_XSP16, literal(-5)))
          CFI ?RET_HIGH load(1, XDATA, add(CFA_XSP16, literal(-4)))
          CFI ?BRET_EXT load(1, XDATA, add(CFA_XSP16, literal(-3)))
          CFI DPL0 load(1, XDATA, add(CFA_XSP16, literal(-2)))
          CFI DPH0 load(1, XDATA, add(CFA_XSP16, literal(-1)))
          CFI CFA_XSP16 add(XSP16, 16)
          CFI Block cfiCond52 Using cfiCommon0
          CFI (cfiCond52) Function MT_BuildEndpointDesc
          CFI (cfiCond52) Conditional ??CrossCallReturnLabel_25, ??CrossCallReturnLabel_11
          CFI (cfiCond52) R6 load(1, XDATA, add(CFA_XSP16, literal(-16)))
          CFI (cfiCond52) VB load(1, XDATA, add(CFA_XSP16, literal(-15)))
          CFI (cfiCond52) V0 load(1, XDATA, add(CFA_XSP16, literal(-14)))
          CFI (cfiCond52) V1 load(1, XDATA, add(CFA_XSP16, literal(-13)))
          CFI (cfiCond52) V2 load(1, XDATA, add(CFA_XSP16, literal(-12)))
          CFI (cfiCond52) V3 load(1, XDATA, add(CFA_XSP16, literal(-11)))
          CFI (cfiCond52) V4 load(1, XDATA, add(CFA_XSP16, literal(-10)))
          CFI (cfiCond52) V5 load(1, XDATA, add(CFA_XSP16, literal(-9)))
          CFI (cfiCond52) V6 load(1, XDATA, add(CFA_XSP16, literal(-8)))
          CFI (cfiCond52) V7 load(1, XDATA, add(CFA_XSP16, literal(-7)))
          CFI (cfiCond52) R7 load(1, XDATA, add(CFA_XSP16, literal(-6)))
          CFI (cfiCond52) ?RET_LOW load(1, XDATA, add(CFA_XSP16, literal(-5)))
          CFI (cfiCond52) ?RET_HIGH load(1, XDATA, add(CFA_XSP16, literal(-4)))
          CFI (cfiCond52) ?BRET_EXT load(1, XDATA, add(CFA_XSP16, literal(-3)))
          CFI (cfiCond52) DPL0 load(1, XDATA, add(CFA_XSP16, literal(-2)))
          CFI (cfiCond52) DPH0 load(1, XDATA, add(CFA_XSP16, literal(-1)))
          CFI (cfiCond52) CFA_SP SP+-4
          CFI (cfiCond52) CFA_XSP16 add(XSP16, 16)
          CFI Block cfiCond53 Using cfiCommon0
          CFI (cfiCond53) Function MT_BuildEndpointDesc
          CFI (cfiCond53) Conditional ??CrossCallReturnLabel_25, ??CrossCallReturnLabel_12
          CFI (cfiCond53) R6 load(1, XDATA, add(CFA_XSP16, literal(-16)))
          CFI (cfiCond53) VB load(1, XDATA, add(CFA_XSP16, literal(-15)))
          CFI (cfiCond53) V0 load(1, XDATA, add(CFA_XSP16, literal(-14)))
          CFI (cfiCond53) V1 load(1, XDATA, add(CFA_XSP16, literal(-13)))
          CFI (cfiCond53) V2 load(1, XDATA, add(CFA_XSP16, literal(-12)))
          CFI (cfiCond53) V3 load(1, XDATA, add(CFA_XSP16, literal(-11)))
          CFI (cfiCond53) V4 load(1, XDATA, add(CFA_XSP16, literal(-10)))
          CFI (cfiCond53) V5 load(1, XDATA, add(CFA_XSP16, literal(-9)))
          CFI (cfiCond53) V6 load(1, XDATA, add(CFA_XSP16, literal(-8)))
          CFI (cfiCond53) V7 load(1, XDATA, add(CFA_XSP16, literal(-7)))
          CFI (cfiCond53) R7 load(1, XDATA, add(CFA_XSP16, literal(-6)))
          CFI (cfiCond53) ?RET_LOW load(1, XDATA, add(CFA_XSP16, literal(-5)))
          CFI (cfiCond53) ?RET_HIGH load(1, XDATA, add(CFA_XSP16, literal(-4)))
          CFI (cfiCond53) ?BRET_EXT load(1, XDATA, add(CFA_XSP16, literal(-3)))
          CFI (cfiCond53) DPL0 load(1, XDATA, add(CFA_XSP16, literal(-2)))
          CFI (cfiCond53) DPH0 load(1, XDATA, add(CFA_XSP16, literal(-1)))
          CFI (cfiCond53) CFA_SP SP+-4
          CFI (cfiCond53) CFA_XSP16 add(XSP16, 16)
          CFI Block cfiPicker54 Using cfiCommon1
          CFI (cfiPicker54) NoFunction
          CFI (cfiPicker54) Picker
        MOV       DPL,?V4
        MOV       DPH,?V5
        MOVX      A,@DPTR
        MOV       R0,A
        INC       DPTR
        MOVX      A,@DPTR
        MOV       DPH,A
        MOV       DPL,R0
        RET
          CFI EndBlock cfiCond51
          CFI EndBlock cfiCond52
          CFI EndBlock cfiCond53
          CFI EndBlock cfiPicker54

        RSEG BANKED_CODE:HUGECODE:NOROOT(0)
?Subroutine6:
          CFI Block cfiCond55 Using cfiCommon0
          CFI Function MT_BuildEndpointDesc
          CFI Conditional ??CrossCallReturnLabel_9
          CFI R6 load(1, XDATA, add(CFA_XSP16, literal(-16)))
          CFI VB load(1, XDATA, add(CFA_XSP16, literal(-15)))
          CFI V0 load(1, XDATA, add(CFA_XSP16, literal(-14)))
          CFI V1 load(1, XDATA, add(CFA_XSP16, literal(-13)))
          CFI V2 load(1, XDATA, add(CFA_XSP16, literal(-12)))
          CFI V3 load(1, XDATA, add(CFA_XSP16, literal(-11)))
          CFI V4 load(1, XDATA, add(CFA_XSP16, literal(-10)))
          CFI V5 load(1, XDATA, add(CFA_XSP16, literal(-9)))
          CFI V6 load(1, XDATA, add(CFA_XSP16, literal(-8)))
          CFI V7 load(1, XDATA, add(CFA_XSP16, literal(-7)))
          CFI R7 load(1, XDATA, add(CFA_XSP16, literal(-6)))
          CFI ?RET_LOW load(1, XDATA, add(CFA_XSP16, literal(-5)))
          CFI ?RET_HIGH load(1, XDATA, add(CFA_XSP16, literal(-4)))
          CFI ?BRET_EXT load(1, XDATA, add(CFA_XSP16, literal(-3)))
          CFI DPL0 load(1, XDATA, add(CFA_XSP16, literal(-2)))
          CFI DPH0 load(1, XDATA, add(CFA_XSP16, literal(-1)))
          CFI CFA_SP SP+-2
          CFI CFA_XSP16 add(XSP16, 16)
          CFI Block cfiCond56 Using cfiCommon0
          CFI (cfiCond56) Function MT_BuildEndpointDesc
          CFI (cfiCond56) Conditional ??CrossCallReturnLabel_10
          CFI (cfiCond56) R6 load(1, XDATA, add(CFA_XSP16, literal(-16)))
          CFI (cfiCond56) VB load(1, XDATA, add(CFA_XSP16, literal(-15)))
          CFI (cfiCond56) V0 load(1, XDATA, add(CFA_XSP16, literal(-14)))
          CFI (cfiCond56) V1 load(1, XDATA, add(CFA_XSP16, literal(-13)))
          CFI (cfiCond56) V2 load(1, XDATA, add(CFA_XSP16, literal(-12)))
          CFI (cfiCond56) V3 load(1, XDATA, add(CFA_XSP16, literal(-11)))
          CFI (cfiCond56) V4 load(1, XDATA, add(CFA_XSP16, literal(-10)))
          CFI (cfiCond56) V5 load(1, XDATA, add(CFA_XSP16, literal(-9)))
          CFI (cfiCond56) V6 load(1, XDATA, add(CFA_XSP16, literal(-8)))
          CFI (cfiCond56) V7 load(1, XDATA, add(CFA_XSP16, literal(-7)))
          CFI (cfiCond56) R7 load(1, XDATA, add(CFA_XSP16, literal(-6)))
          CFI (cfiCond56) ?RET_LOW load(1, XDATA, add(CFA_XSP16, literal(-5)))
          CFI (cfiCond56) ?RET_HIGH load(1, XDATA, add(CFA_XSP16, literal(-4)))
          CFI (cfiCond56) ?BRET_EXT load(1, XDATA, add(CFA_XSP16, literal(-3)))
          CFI (cfiCond56) DPL0 load(1, XDATA, add(CFA_XSP16, literal(-2)))
          CFI (cfiCond56) DPH0 load(1, XDATA, add(CFA_XSP16, literal(-1)))
          CFI (cfiCond56) CFA_SP SP+-2
          CFI (cfiCond56) CFA_XSP16 add(XSP16, 16)
          CFI Block cfiPicker57 Using cfiCommon1
          CFI (cfiPicker57) NoFunction
          CFI (cfiPicker57) Picker
        MOV       DPL,R6
        MOV       DPH,R7
        MOVX      A,@DPTR
        MOV       R4,A
        INC       DPTR
        MOVX      A,@DPTR
        MOV       R2,A
        CLR       A
        XCH       A,R2
        MOV       R3,A
        MOV       A,R4
        ADD       A,R2
        CLR       A
        ADDC      A,R3
        MOV       R5,A
        MOV       A,R0
        LCALL     ?Subroutine15 & 0xFFFF
??CrossCallReturnLabel_23:
        MOV       DPL,?V0
        MOV       DPH,?V1
        INC       DPTR
        INC       DPTR
        INC       DPTR
        MOVX      A,@DPTR
        MOV       R1,A
        INC       DPTR
        MOVX      A,@DPTR
        XCH       A,R1
        RET
          CFI EndBlock cfiCond55
          CFI EndBlock cfiCond56
          CFI EndBlock cfiPicker57

        RSEG BANKED_CODE:HUGECODE:NOROOT(0)
?Subroutine15:
          CFI Block cfiCond58 Using cfiCommon0
          CFI Function MT_BuildEndpointDesc
          CFI Conditional ??CrossCallReturnLabel_21
          CFI R6 load(1, XDATA, add(CFA_XSP16, literal(-16)))
          CFI VB load(1, XDATA, add(CFA_XSP16, literal(-15)))
          CFI V0 load(1, XDATA, add(CFA_XSP16, literal(-14)))
          CFI V1 load(1, XDATA, add(CFA_XSP16, literal(-13)))
          CFI V2 load(1, XDATA, add(CFA_XSP16, literal(-12)))
          CFI V3 load(1, XDATA, add(CFA_XSP16, literal(-11)))
          CFI V4 load(1, XDATA, add(CFA_XSP16, literal(-10)))
          CFI V5 load(1, XDATA, add(CFA_XSP16, literal(-9)))
          CFI V6 load(1, XDATA, add(CFA_XSP16, literal(-8)))
          CFI V7 load(1, XDATA, add(CFA_XSP16, literal(-7)))
          CFI R7 load(1, XDATA, add(CFA_XSP16, literal(-6)))
          CFI ?RET_LOW load(1, XDATA, add(CFA_XSP16, literal(-5)))
          CFI ?RET_HIGH load(1, XDATA, add(CFA_XSP16, literal(-4)))
          CFI ?BRET_EXT load(1, XDATA, add(CFA_XSP16, literal(-3)))
          CFI DPL0 load(1, XDATA, add(CFA_XSP16, literal(-2)))
          CFI DPH0 load(1, XDATA, add(CFA_XSP16, literal(-1)))
          CFI CFA_SP SP+-2
          CFI CFA_XSP16 add(XSP16, 16)
          CFI Block cfiCond59 Using cfiCommon0
          CFI (cfiCond59) Function MT_BuildEndpointDesc
          CFI (cfiCond59) Conditional ??CrossCallReturnLabel_22
          CFI (cfiCond59) R6 load(1, XDATA, add(CFA_XSP16, literal(-16)))
          CFI (cfiCond59) VB load(1, XDATA, add(CFA_XSP16, literal(-15)))
          CFI (cfiCond59) V0 load(1, XDATA, add(CFA_XSP16, literal(-14)))
          CFI (cfiCond59) V1 load(1, XDATA, add(CFA_XSP16, literal(-13)))
          CFI (cfiCond59) V2 load(1, XDATA, add(CFA_XSP16, literal(-12)))
          CFI (cfiCond59) V3 load(1, XDATA, add(CFA_XSP16, literal(-11)))
          CFI (cfiCond59) V4 load(1, XDATA, add(CFA_XSP16, literal(-10)))
          CFI (cfiCond59) V5 load(1, XDATA, add(CFA_XSP16, literal(-9)))
          CFI (cfiCond59) V6 load(1, XDATA, add(CFA_XSP16, literal(-8)))
          CFI (cfiCond59) V7 load(1, XDATA, add(CFA_XSP16, literal(-7)))
          CFI (cfiCond59) R7 load(1, XDATA, add(CFA_XSP16, literal(-6)))
          CFI (cfiCond59) ?RET_LOW load(1, XDATA, add(CFA_XSP16, literal(-5)))
          CFI (cfiCond59) ?RET_HIGH load(1, XDATA, add(CFA_XSP16, literal(-4)))
          CFI (cfiCond59) ?BRET_EXT load(1, XDATA, add(CFA_XSP16, literal(-3)))
          CFI (cfiCond59) DPL0 load(1, XDATA, add(CFA_XSP16, literal(-2)))
          CFI (cfiCond59) DPH0 load(1, XDATA, add(CFA_XSP16, literal(-1)))
          CFI (cfiCond59) CFA_SP SP+-2
          CFI (cfiCond59) CFA_XSP16 add(XSP16, 16)
          CFI Block cfiCond60 Using cfiCommon0
          CFI (cfiCond60) Function MT_BuildEndpointDesc
          CFI (cfiCond60) Conditional ??CrossCallReturnLabel_23, ??CrossCallReturnLabel_9
          CFI (cfiCond60) R6 load(1, XDATA, add(CFA_XSP16, literal(-16)))
          CFI (cfiCond60) VB load(1, XDATA, add(CFA_XSP16, literal(-15)))
          CFI (cfiCond60) V0 load(1, XDATA, add(CFA_XSP16, literal(-14)))
          CFI (cfiCond60) V1 load(1, XDATA, add(CFA_XSP16, literal(-13)))
          CFI (cfiCond60) V2 load(1, XDATA, add(CFA_XSP16, literal(-12)))
          CFI (cfiCond60) V3 load(1, XDATA, add(CFA_XSP16, literal(-11)))
          CFI (cfiCond60) V4 load(1, XDATA, add(CFA_XSP16, literal(-10)))
          CFI (cfiCond60) V5 load(1, XDATA, add(CFA_XSP16, literal(-9)))
          CFI (cfiCond60) V6 load(1, XDATA, add(CFA_XSP16, literal(-8)))
          CFI (cfiCond60) V7 load(1, XDATA, add(CFA_XSP16, literal(-7)))
          CFI (cfiCond60) R7 load(1, XDATA, add(CFA_XSP16, literal(-6)))
          CFI (cfiCond60) ?RET_LOW load(1, XDATA, add(CFA_XSP16, literal(-5)))
          CFI (cfiCond60) ?RET_HIGH load(1, XDATA, add(CFA_XSP16, literal(-4)))
          CFI (cfiCond60) ?BRET_EXT load(1, XDATA, add(CFA_XSP16, literal(-3)))
          CFI (cfiCond60) DPL0 load(1, XDATA, add(CFA_XSP16, literal(-2)))
          CFI (cfiCond60) DPH0 load(1, XDATA, add(CFA_XSP16, literal(-1)))
          CFI (cfiCond60) CFA_SP SP+-4
          CFI (cfiCond60) CFA_XSP16 add(XSP16, 16)
          CFI Block cfiCond61 Using cfiCommon0
          CFI (cfiCond61) Function MT_BuildEndpointDesc
          CFI (cfiCond61) Conditional ??CrossCallReturnLabel_23, ??CrossCallReturnLabel_10
          CFI (cfiCond61) R6 load(1, XDATA, add(CFA_XSP16, literal(-16)))
          CFI (cfiCond61) VB load(1, XDATA, add(CFA_XSP16, literal(-15)))
          CFI (cfiCond61) V0 load(1, XDATA, add(CFA_XSP16, literal(-14)))
          CFI (cfiCond61) V1 load(1, XDATA, add(CFA_XSP16, literal(-13)))
          CFI (cfiCond61) V2 load(1, XDATA, add(CFA_XSP16, literal(-12)))
          CFI (cfiCond61) V3 load(1, XDATA, add(CFA_XSP16, literal(-11)))
          CFI (cfiCond61) V4 load(1, XDATA, add(CFA_XSP16, literal(-10)))
          CFI (cfiCond61) V5 load(1, XDATA, add(CFA_XSP16, literal(-9)))
          CFI (cfiCond61) V6 load(1, XDATA, add(CFA_XSP16, literal(-8)))
          CFI (cfiCond61) V7 load(1, XDATA, add(CFA_XSP16, literal(-7)))
          CFI (cfiCond61) R7 load(1, XDATA, add(CFA_XSP16, literal(-6)))
          CFI (cfiCond61) ?RET_LOW load(1, XDATA, add(CFA_XSP16, literal(-5)))
          CFI (cfiCond61) ?RET_HIGH load(1, XDATA, add(CFA_XSP16, literal(-4)))
          CFI (cfiCond61) ?BRET_EXT load(1, XDATA, add(CFA_XSP16, literal(-3)))
          CFI (cfiCond61) DPL0 load(1, XDATA, add(CFA_XSP16, literal(-2)))
          CFI (cfiCond61) DPH0 load(1, XDATA, add(CFA_XSP16, literal(-1)))
          CFI (cfiCond61) CFA_SP SP+-4
          CFI (cfiCond61) CFA_XSP16 add(XSP16, 16)
          CFI Block cfiPicker62 Using cfiCommon1
          CFI (cfiPicker62) NoFunction
          CFI (cfiPicker62) Picker
        ADD       A,0xE0 /* A   */
        MOV       R2,A
        CLR       A
        RLC       A
        MOV       R3,A
        RET
          CFI EndBlock cfiCond58
          CFI EndBlock cfiCond59
          CFI EndBlock cfiCond60
          CFI EndBlock cfiCond61
          CFI EndBlock cfiPicker62

        RSEG BANKED_CODE:HUGECODE:NOROOT(0)
?Subroutine5:
          CFI Block cfiCond63 Using cfiCommon0
          CFI Function MT_BuildEndpointDesc
          CFI Conditional ??CrossCallReturnLabel_7
          CFI R6 load(1, XDATA, add(CFA_XSP16, literal(-16)))
          CFI VB load(1, XDATA, add(CFA_XSP16, literal(-15)))
          CFI V0 load(1, XDATA, add(CFA_XSP16, literal(-14)))
          CFI V1 load(1, XDATA, add(CFA_XSP16, literal(-13)))
          CFI V2 load(1, XDATA, add(CFA_XSP16, literal(-12)))
          CFI V3 load(1, XDATA, add(CFA_XSP16, literal(-11)))
          CFI V4 load(1, XDATA, add(CFA_XSP16, literal(-10)))
          CFI V5 load(1, XDATA, add(CFA_XSP16, literal(-9)))
          CFI V6 load(1, XDATA, add(CFA_XSP16, literal(-8)))
          CFI V7 load(1, XDATA, add(CFA_XSP16, literal(-7)))
          CFI R7 load(1, XDATA, add(CFA_XSP16, literal(-6)))
          CFI ?RET_LOW load(1, XDATA, add(CFA_XSP16, literal(-5)))
          CFI ?RET_HIGH load(1, XDATA, add(CFA_XSP16, literal(-4)))
          CFI ?BRET_EXT load(1, XDATA, add(CFA_XSP16, literal(-3)))
          CFI DPL0 load(1, XDATA, add(CFA_XSP16, literal(-2)))
          CFI DPH0 load(1, XDATA, add(CFA_XSP16, literal(-1)))
          CFI CFA_SP SP+-2
          CFI CFA_XSP16 add(XSP16, 16)
          CFI Block cfiCond64 Using cfiCommon0
          CFI (cfiCond64) Function MT_BuildEndpointDesc
          CFI (cfiCond64) Conditional ??CrossCallReturnLabel_8
          CFI (cfiCond64) R6 load(1, XDATA, add(CFA_XSP16, literal(-16)))
          CFI (cfiCond64) VB load(1, XDATA, add(CFA_XSP16, literal(-15)))
          CFI (cfiCond64) V0 load(1, XDATA, add(CFA_XSP16, literal(-14)))
          CFI (cfiCond64) V1 load(1, XDATA, add(CFA_XSP16, literal(-13)))
          CFI (cfiCond64) V2 load(1, XDATA, add(CFA_XSP16, literal(-12)))
          CFI (cfiCond64) V3 load(1, XDATA, add(CFA_XSP16, literal(-11)))
          CFI (cfiCond64) V4 load(1, XDATA, add(CFA_XSP16, literal(-10)))
          CFI (cfiCond64) V5 load(1, XDATA, add(CFA_XSP16, literal(-9)))
          CFI (cfiCond64) V6 load(1, XDATA, add(CFA_XSP16, literal(-8)))
          CFI (cfiCond64) V7 load(1, XDATA, add(CFA_XSP16, literal(-7)))
          CFI (cfiCond64) R7 load(1, XDATA, add(CFA_XSP16, literal(-6)))
          CFI (cfiCond64) ?RET_LOW load(1, XDATA, add(CFA_XSP16, literal(-5)))
          CFI (cfiCond64) ?RET_HIGH load(1, XDATA, add(CFA_XSP16, literal(-4)))
          CFI (cfiCond64) ?BRET_EXT load(1, XDATA, add(CFA_XSP16, literal(-3)))
          CFI (cfiCond64) DPL0 load(1, XDATA, add(CFA_XSP16, literal(-2)))
          CFI (cfiCond64) DPH0 load(1, XDATA, add(CFA_XSP16, literal(-1)))
          CFI (cfiCond64) CFA_SP SP+-2
          CFI (cfiCond64) CFA_XSP16 add(XSP16, 16)
          CFI Block cfiPicker65 Using cfiCommon1
          CFI (cfiPicker65) NoFunction
          CFI (cfiPicker65) Picker
        MOV       DPL,A
        CLR       A
        ADDC      A,R1
        MOV       DPH,A
        MOVX      A,@DPTR
        ADD       A,R2
        MOV       R1,A
        INC       DPTR
        MOVX      A,@DPTR
        ADDC      A,R3
        MOV       DPL,R1
        MOV       DPH,A
        MOV       A,R4
        MOVX      @DPTR,A
        INC       DPTR
        MOV       A,R5
        MOVX      @DPTR,A
        MOV       A,R6
        ADD       A,#0x2
        MOV       R6,A
        RET
          CFI EndBlock cfiCond63
          CFI EndBlock cfiCond64
          CFI EndBlock cfiPicker65

        RSEG BANKED_CODE:HUGECODE:NOROOT(0)
?Subroutine4:
          CFI Block cfiCond66 Using cfiCommon0
          CFI Function MT_BuildEndpointDesc
          CFI Conditional ??CrossCallReturnLabel_5
          CFI R6 load(1, XDATA, add(CFA_XSP16, literal(-16)))
          CFI VB load(1, XDATA, add(CFA_XSP16, literal(-15)))
          CFI V0 load(1, XDATA, add(CFA_XSP16, literal(-14)))
          CFI V1 load(1, XDATA, add(CFA_XSP16, literal(-13)))
          CFI V2 load(1, XDATA, add(CFA_XSP16, literal(-12)))
          CFI V3 load(1, XDATA, add(CFA_XSP16, literal(-11)))
          CFI V4 load(1, XDATA, add(CFA_XSP16, literal(-10)))
          CFI V5 load(1, XDATA, add(CFA_XSP16, literal(-9)))
          CFI V6 load(1, XDATA, add(CFA_XSP16, literal(-8)))
          CFI V7 load(1, XDATA, add(CFA_XSP16, literal(-7)))
          CFI R7 load(1, XDATA, add(CFA_XSP16, literal(-6)))
          CFI ?RET_LOW load(1, XDATA, add(CFA_XSP16, literal(-5)))
          CFI ?RET_HIGH load(1, XDATA, add(CFA_XSP16, literal(-4)))
          CFI ?BRET_EXT load(1, XDATA, add(CFA_XSP16, literal(-3)))
          CFI DPL0 load(1, XDATA, add(CFA_XSP16, literal(-2)))
          CFI DPH0 load(1, XDATA, add(CFA_XSP16, literal(-1)))
          CFI CFA_SP SP+-2
          CFI CFA_XSP16 add(XSP16, 16)
          CFI Block cfiCond67 Using cfiCommon0
          CFI (cfiCond67) Function MT_BuildEndpointDesc
          CFI (cfiCond67) Conditional ??CrossCallReturnLabel_6
          CFI (cfiCond67) R6 load(1, XDATA, add(CFA_XSP16, literal(-16)))
          CFI (cfiCond67) VB load(1, XDATA, add(CFA_XSP16, literal(-15)))
          CFI (cfiCond67) V0 load(1, XDATA, add(CFA_XSP16, literal(-14)))
          CFI (cfiCond67) V1 load(1, XDATA, add(CFA_XSP16, literal(-13)))
          CFI (cfiCond67) V2 load(1, XDATA, add(CFA_XSP16, literal(-12)))
          CFI (cfiCond67) V3 load(1, XDATA, add(CFA_XSP16, literal(-11)))
          CFI (cfiCond67) V4 load(1, XDATA, add(CFA_XSP16, literal(-10)))
          CFI (cfiCond67) V5 load(1, XDATA, add(CFA_XSP16, literal(-9)))
          CFI (cfiCond67) V6 load(1, XDATA, add(CFA_XSP16, literal(-8)))
          CFI (cfiCond67) V7 load(1, XDATA, add(CFA_XSP16, literal(-7)))
          CFI (cfiCond67) R7 load(1, XDATA, add(CFA_XSP16, literal(-6)))
          CFI (cfiCond67) ?RET_LOW load(1, XDATA, add(CFA_XSP16, literal(-5)))
          CFI (cfiCond67) ?RET_HIGH load(1, XDATA, add(CFA_XSP16, literal(-4)))
          CFI (cfiCond67) ?BRET_EXT load(1, XDATA, add(CFA_XSP16, literal(-3)))
          CFI (cfiCond67) DPL0 load(1, XDATA, add(CFA_XSP16, literal(-2)))
          CFI (cfiCond67) DPH0 load(1, XDATA, add(CFA_XSP16, literal(-1)))
          CFI (cfiCond67) CFA_SP SP+-2
          CFI (cfiCond67) CFA_XSP16 add(XSP16, 16)
          CFI Block cfiPicker68 Using cfiCommon1
          CFI (cfiPicker68) NoFunction
          CFI (cfiPicker68) Picker
        MOVX      @DPTR,A
        MOV       DPL,R6
        MOV       DPH,R7
        INC       DPTR
        MOV       R6,DPL
        MOV       R7,DPH
        RET
          CFI EndBlock cfiCond66
          CFI EndBlock cfiCond67
          CFI EndBlock cfiPicker68

        RSEG BANKED_CODE:HUGECODE:NOROOT(0)
?Subroutine3:
          CFI Block cfiCond69 Using cfiCommon0
          CFI Function MT_BuildAndSendZToolResponse
          CFI Conditional ??CrossCallReturnLabel_2
          CFI R6 load(1, XDATA, add(CFA_XSP16, literal(-16)))
          CFI VB load(1, XDATA, add(CFA_XSP16, literal(-15)))
          CFI V0 load(1, XDATA, add(CFA_XSP16, literal(-14)))
          CFI V1 load(1, XDATA, add(CFA_XSP16, literal(-13)))
          CFI V2 load(1, XDATA, add(CFA_XSP16, literal(-12)))
          CFI V3 load(1, XDATA, add(CFA_XSP16, literal(-11)))
          CFI V4 load(1, XDATA, add(CFA_XSP16, literal(-10)))
          CFI V5 load(1, XDATA, add(CFA_XSP16, literal(-9)))
          CFI V6 load(1, XDATA, add(CFA_XSP16, literal(-8)))
          CFI V7 load(1, XDATA, add(CFA_XSP16, literal(-7)))
          CFI R7 load(1, XDATA, add(CFA_XSP16, literal(-6)))
          CFI ?RET_LOW load(1, XDATA, add(CFA_XSP16, literal(-5)))
          CFI ?RET_HIGH load(1, XDATA, add(CFA_XSP16, literal(-4)))
          CFI ?BRET_EXT load(1, XDATA, add(CFA_XSP16, literal(-3)))
          CFI DPL0 load(1, XDATA, add(CFA_XSP16, literal(-2)))
          CFI DPH0 load(1, XDATA, add(CFA_XSP16, literal(-1)))
          CFI CFA_SP SP+-2
          CFI CFA_XSP16 add(XSP16, 16)
          CFI Block cfiCond70 Using cfiCommon0
          CFI (cfiCond70) Function MT_BuildEndpointDesc
          CFI (cfiCond70) Conditional ??CrossCallReturnLabel_3
          CFI (cfiCond70) R6 load(1, XDATA, add(CFA_XSP16, literal(-16)))
          CFI (cfiCond70) VB load(1, XDATA, add(CFA_XSP16, literal(-15)))
          CFI (cfiCond70) V0 load(1, XDATA, add(CFA_XSP16, literal(-14)))
          CFI (cfiCond70) V1 load(1, XDATA, add(CFA_XSP16, literal(-13)))
          CFI (cfiCond70) V2 load(1, XDATA, add(CFA_XSP16, literal(-12)))
          CFI (cfiCond70) V3 load(1, XDATA, add(CFA_XSP16, literal(-11)))
          CFI (cfiCond70) V4 load(1, XDATA, add(CFA_XSP16, literal(-10)))
          CFI (cfiCond70) V5 load(1, XDATA, add(CFA_XSP16, literal(-9)))
          CFI (cfiCond70) V6 load(1, XDATA, add(CFA_XSP16, literal(-8)))
          CFI (cfiCond70) V7 load(1, XDATA, add(CFA_XSP16, literal(-7)))
          CFI (cfiCond70) R7 load(1, XDATA, add(CFA_XSP16, literal(-6)))
          CFI (cfiCond70) ?RET_LOW load(1, XDATA, add(CFA_XSP16, literal(-5)))
          CFI (cfiCond70) ?RET_HIGH load(1, XDATA, add(CFA_XSP16, literal(-4)))
          CFI (cfiCond70) ?BRET_EXT load(1, XDATA, add(CFA_XSP16, literal(-3)))
          CFI (cfiCond70) DPL0 load(1, XDATA, add(CFA_XSP16, literal(-2)))
          CFI (cfiCond70) DPH0 load(1, XDATA, add(CFA_XSP16, literal(-1)))
          CFI (cfiCond70) CFA_SP SP+-2
          CFI (cfiCond70) CFA_XSP16 add(XSP16, 16)
          CFI Block cfiCond71 Using cfiCommon0
          CFI (cfiCond71) Function MT_BuildEndpointDesc
          CFI (cfiCond71) Conditional ??CrossCallReturnLabel_4
          CFI (cfiCond71) R6 load(1, XDATA, add(CFA_XSP16, literal(-16)))
          CFI (cfiCond71) VB load(1, XDATA, add(CFA_XSP16, literal(-15)))
          CFI (cfiCond71) V0 load(1, XDATA, add(CFA_XSP16, literal(-14)))
          CFI (cfiCond71) V1 load(1, XDATA, add(CFA_XSP16, literal(-13)))
          CFI (cfiCond71) V2 load(1, XDATA, add(CFA_XSP16, literal(-12)))
          CFI (cfiCond71) V3 load(1, XDATA, add(CFA_XSP16, literal(-11)))
          CFI (cfiCond71) V4 load(1, XDATA, add(CFA_XSP16, literal(-10)))
          CFI (cfiCond71) V5 load(1, XDATA, add(CFA_XSP16, literal(-9)))
          CFI (cfiCond71) V6 load(1, XDATA, add(CFA_XSP16, literal(-8)))
          CFI (cfiCond71) V7 load(1, XDATA, add(CFA_XSP16, literal(-7)))
          CFI (cfiCond71) R7 load(1, XDATA, add(CFA_XSP16, literal(-6)))
          CFI (cfiCond71) ?RET_LOW load(1, XDATA, add(CFA_XSP16, literal(-5)))
          CFI (cfiCond71) ?RET_HIGH load(1, XDATA, add(CFA_XSP16, literal(-4)))
          CFI (cfiCond71) ?BRET_EXT load(1, XDATA, add(CFA_XSP16, literal(-3)))
          CFI (cfiCond71) DPL0 load(1, XDATA, add(CFA_XSP16, literal(-2)))
          CFI (cfiCond71) DPH0 load(1, XDATA, add(CFA_XSP16, literal(-1)))
          CFI (cfiCond71) CFA_SP SP+-2
          CFI (cfiCond71) CFA_XSP16 add(XSP16, 16)
          CFI Block cfiPicker72 Using cfiCommon1
          CFI (cfiPicker72) NoFunction
          CFI (cfiPicker72) Picker
        MOVX      @DPTR,A
        MOV       DPL,R6
        MOV       DPH,R7
        INC       DPTR
        INC       DPTR
        RET
          CFI EndBlock cfiCond69
          CFI EndBlock cfiCond70
          CFI EndBlock cfiCond71
          CFI EndBlock cfiPicker72

        RSEG BANKED_CODE:HUGECODE:NOROOT(0)
?Subroutine2:
          CFI Block cfiCond73 Using cfiCommon0
          CFI Function MT_BuildEndpointDesc
          CFI Conditional ??CrossCallReturnLabel_0
          CFI R6 load(1, XDATA, add(CFA_XSP16, literal(-16)))
          CFI VB load(1, XDATA, add(CFA_XSP16, literal(-15)))
          CFI V0 load(1, XDATA, add(CFA_XSP16, literal(-14)))
          CFI V1 load(1, XDATA, add(CFA_XSP16, literal(-13)))
          CFI V2 load(1, XDATA, add(CFA_XSP16, literal(-12)))
          CFI V3 load(1, XDATA, add(CFA_XSP16, literal(-11)))
          CFI V4 load(1, XDATA, add(CFA_XSP16, literal(-10)))
          CFI V5 load(1, XDATA, add(CFA_XSP16, literal(-9)))
          CFI V6 load(1, XDATA, add(CFA_XSP16, literal(-8)))
          CFI V7 load(1, XDATA, add(CFA_XSP16, literal(-7)))
          CFI R7 load(1, XDATA, add(CFA_XSP16, literal(-6)))
          CFI ?RET_LOW load(1, XDATA, add(CFA_XSP16, literal(-5)))
          CFI ?RET_HIGH load(1, XDATA, add(CFA_XSP16, literal(-4)))
          CFI ?BRET_EXT load(1, XDATA, add(CFA_XSP16, literal(-3)))
          CFI DPL0 load(1, XDATA, add(CFA_XSP16, literal(-2)))
          CFI DPH0 load(1, XDATA, add(CFA_XSP16, literal(-1)))
          CFI CFA_SP SP+-2
          CFI CFA_XSP16 add(XSP16, 16)
          CFI Block cfiCond74 Using cfiCommon0
          CFI (cfiCond74) Function MT_BuildEndpointDesc
          CFI (cfiCond74) Conditional ??CrossCallReturnLabel_1
          CFI (cfiCond74) R6 load(1, XDATA, add(CFA_XSP16, literal(-16)))
          CFI (cfiCond74) VB load(1, XDATA, add(CFA_XSP16, literal(-15)))
          CFI (cfiCond74) V0 load(1, XDATA, add(CFA_XSP16, literal(-14)))
          CFI (cfiCond74) V1 load(1, XDATA, add(CFA_XSP16, literal(-13)))
          CFI (cfiCond74) V2 load(1, XDATA, add(CFA_XSP16, literal(-12)))
          CFI (cfiCond74) V3 load(1, XDATA, add(CFA_XSP16, literal(-11)))
          CFI (cfiCond74) V4 load(1, XDATA, add(CFA_XSP16, literal(-10)))
          CFI (cfiCond74) V5 load(1, XDATA, add(CFA_XSP16, literal(-9)))
          CFI (cfiCond74) V6 load(1, XDATA, add(CFA_XSP16, literal(-8)))
          CFI (cfiCond74) V7 load(1, XDATA, add(CFA_XSP16, literal(-7)))
          CFI (cfiCond74) R7 load(1, XDATA, add(CFA_XSP16, literal(-6)))
          CFI (cfiCond74) ?RET_LOW load(1, XDATA, add(CFA_XSP16, literal(-5)))
          CFI (cfiCond74) ?RET_HIGH load(1, XDATA, add(CFA_XSP16, literal(-4)))
          CFI (cfiCond74) ?BRET_EXT load(1, XDATA, add(CFA_XSP16, literal(-3)))
          CFI (cfiCond74) DPL0 load(1, XDATA, add(CFA_XSP16, literal(-2)))
          CFI (cfiCond74) DPH0 load(1, XDATA, add(CFA_XSP16, literal(-1)))
          CFI (cfiCond74) CFA_SP SP+-2
          CFI (cfiCond74) CFA_XSP16 add(XSP16, 16)
          CFI Block cfiPicker75 Using cfiCommon1
          CFI (cfiPicker75) NoFunction
          CFI (cfiPicker75) Picker
        MOV       DPL,A
        CLR       A
        ADDC      A,R0
        MOV       DPH,A
        MOV       A,R2
        MOVX      @DPTR,A
        INC       DPTR
        MOV       A,R3
        MOVX      @DPTR,A
        LCALL     ?Subroutine14 & 0xFFFF
??CrossCallReturnLabel_39:
        RET
          CFI EndBlock cfiCond73
          CFI EndBlock cfiCond74
          CFI EndBlock cfiPicker75

        RSEG BANKED_CODE:HUGECODE:NOROOT(0)
?Subroutine14:
          CFI Block cfiCond76 Using cfiCommon0
          CFI Function MT_BuildEndpointDesc
          CFI Conditional ??CrossCallReturnLabel_40, ??CrossCallReturnLabel_13
          CFI R6 load(1, XDATA, add(CFA_XSP16, literal(-16)))
          CFI VB load(1, XDATA, add(CFA_XSP16, literal(-15)))
          CFI V0 load(1, XDATA, add(CFA_XSP16, literal(-14)))
          CFI V1 load(1, XDATA, add(CFA_XSP16, literal(-13)))
          CFI V2 load(1, XDATA, add(CFA_XSP16, literal(-12)))
          CFI V3 load(1, XDATA, add(CFA_XSP16, literal(-11)))
          CFI V4 load(1, XDATA, add(CFA_XSP16, literal(-10)))
          CFI V5 load(1, XDATA, add(CFA_XSP16, literal(-9)))
          CFI V6 load(1, XDATA, add(CFA_XSP16, literal(-8)))
          CFI V7 load(1, XDATA, add(CFA_XSP16, literal(-7)))
          CFI R7 load(1, XDATA, add(CFA_XSP16, literal(-6)))
          CFI ?RET_LOW load(1, XDATA, add(CFA_XSP16, literal(-5)))
          CFI ?RET_HIGH load(1, XDATA, add(CFA_XSP16, literal(-4)))
          CFI ?BRET_EXT load(1, XDATA, add(CFA_XSP16, literal(-3)))
          CFI DPL0 load(1, XDATA, add(CFA_XSP16, literal(-2)))
          CFI DPH0 load(1, XDATA, add(CFA_XSP16, literal(-1)))
          CFI CFA_SP SP+-4
          CFI CFA_XSP16 add(XSP16, 16)
          CFI Block cfiCond77 Using cfiCommon0
          CFI (cfiCond77) Function MT_BuildEndpointDesc
          CFI (cfiCond77) Conditional ??CrossCallReturnLabel_40, ??CrossCallReturnLabel_14
          CFI (cfiCond77) R6 load(1, XDATA, add(CFA_XSP16, literal(-16)))
          CFI (cfiCond77) VB load(1, XDATA, add(CFA_XSP16, literal(-15)))
          CFI (cfiCond77) V0 load(1, XDATA, add(CFA_XSP16, literal(-14)))
          CFI (cfiCond77) V1 load(1, XDATA, add(CFA_XSP16, literal(-13)))
          CFI (cfiCond77) V2 load(1, XDATA, add(CFA_XSP16, literal(-12)))
          CFI (cfiCond77) V3 load(1, XDATA, add(CFA_XSP16, literal(-11)))
          CFI (cfiCond77) V4 load(1, XDATA, add(CFA_XSP16, literal(-10)))
          CFI (cfiCond77) V5 load(1, XDATA, add(CFA_XSP16, literal(-9)))
          CFI (cfiCond77) V6 load(1, XDATA, add(CFA_XSP16, literal(-8)))
          CFI (cfiCond77) V7 load(1, XDATA, add(CFA_XSP16, literal(-7)))
          CFI (cfiCond77) R7 load(1, XDATA, add(CFA_XSP16, literal(-6)))
          CFI (cfiCond77) ?RET_LOW load(1, XDATA, add(CFA_XSP16, literal(-5)))
          CFI (cfiCond77) ?RET_HIGH load(1, XDATA, add(CFA_XSP16, literal(-4)))
          CFI (cfiCond77) ?BRET_EXT load(1, XDATA, add(CFA_XSP16, literal(-3)))
          CFI (cfiCond77) DPL0 load(1, XDATA, add(CFA_XSP16, literal(-2)))
          CFI (cfiCond77) DPH0 load(1, XDATA, add(CFA_XSP16, literal(-1)))
          CFI (cfiCond77) CFA_SP SP+-4
          CFI (cfiCond77) CFA_XSP16 add(XSP16, 16)
          CFI Block cfiCond78 Using cfiCommon0
          CFI (cfiCond78) Function MT_BuildEndpointDesc
          CFI (cfiCond78) Conditional ??CrossCallReturnLabel_39, ??CrossCallReturnLabel_0
          CFI (cfiCond78) R6 load(1, XDATA, add(CFA_XSP16, literal(-16)))
          CFI (cfiCond78) VB load(1, XDATA, add(CFA_XSP16, literal(-15)))
          CFI (cfiCond78) V0 load(1, XDATA, add(CFA_XSP16, literal(-14)))
          CFI (cfiCond78) V1 load(1, XDATA, add(CFA_XSP16, literal(-13)))
          CFI (cfiCond78) V2 load(1, XDATA, add(CFA_XSP16, literal(-12)))
          CFI (cfiCond78) V3 load(1, XDATA, add(CFA_XSP16, literal(-11)))
          CFI (cfiCond78) V4 load(1, XDATA, add(CFA_XSP16, literal(-10)))
          CFI (cfiCond78) V5 load(1, XDATA, add(CFA_XSP16, literal(-9)))
          CFI (cfiCond78) V6 load(1, XDATA, add(CFA_XSP16, literal(-8)))
          CFI (cfiCond78) V7 load(1, XDATA, add(CFA_XSP16, literal(-7)))
          CFI (cfiCond78) R7 load(1, XDATA, add(CFA_XSP16, literal(-6)))
          CFI (cfiCond78) ?RET_LOW load(1, XDATA, add(CFA_XSP16, literal(-5)))
          CFI (cfiCond78) ?RET_HIGH load(1, XDATA, add(CFA_XSP16, literal(-4)))
          CFI (cfiCond78) ?BRET_EXT load(1, XDATA, add(CFA_XSP16, literal(-3)))
          CFI (cfiCond78) DPL0 load(1, XDATA, add(CFA_XSP16, literal(-2)))
          CFI (cfiCond78) DPH0 load(1, XDATA, add(CFA_XSP16, literal(-1)))
          CFI (cfiCond78) CFA_SP SP+-4
          CFI (cfiCond78) CFA_XSP16 add(XSP16, 16)
          CFI Block cfiCond79 Using cfiCommon0
          CFI (cfiCond79) Function MT_BuildEndpointDesc
          CFI (cfiCond79) Conditional ??CrossCallReturnLabel_39, ??CrossCallReturnLabel_1
          CFI (cfiCond79) R6 load(1, XDATA, add(CFA_XSP16, literal(-16)))
          CFI (cfiCond79) VB load(1, XDATA, add(CFA_XSP16, literal(-15)))
          CFI (cfiCond79) V0 load(1, XDATA, add(CFA_XSP16, literal(-14)))
          CFI (cfiCond79) V1 load(1, XDATA, add(CFA_XSP16, literal(-13)))
          CFI (cfiCond79) V2 load(1, XDATA, add(CFA_XSP16, literal(-12)))
          CFI (cfiCond79) V3 load(1, XDATA, add(CFA_XSP16, literal(-11)))
          CFI (cfiCond79) V4 load(1, XDATA, add(CFA_XSP16, literal(-10)))
          CFI (cfiCond79) V5 load(1, XDATA, add(CFA_XSP16, literal(-9)))
          CFI (cfiCond79) V6 load(1, XDATA, add(CFA_XSP16, literal(-8)))
          CFI (cfiCond79) V7 load(1, XDATA, add(CFA_XSP16, literal(-7)))
          CFI (cfiCond79) R7 load(1, XDATA, add(CFA_XSP16, literal(-6)))
          CFI (cfiCond79) ?RET_LOW load(1, XDATA, add(CFA_XSP16, literal(-5)))
          CFI (cfiCond79) ?RET_HIGH load(1, XDATA, add(CFA_XSP16, literal(-4)))
          CFI (cfiCond79) ?BRET_EXT load(1, XDATA, add(CFA_XSP16, literal(-3)))
          CFI (cfiCond79) DPL0 load(1, XDATA, add(CFA_XSP16, literal(-2)))
          CFI (cfiCond79) DPH0 load(1, XDATA, add(CFA_XSP16, literal(-1)))
          CFI (cfiCond79) CFA_SP SP+-4
          CFI (cfiCond79) CFA_XSP16 add(XSP16, 16)
          CFI Block cfiPicker80 Using cfiCommon1
          CFI (cfiPicker80) NoFunction
          CFI (cfiPicker80) Picker
        MOV       DPL,?V4
        MOV       DPH,?V5
          CFI EndBlock cfiCond76
          CFI EndBlock cfiCond77
          CFI EndBlock cfiCond78
          CFI EndBlock cfiCond79
          CFI EndBlock cfiPicker80
        REQUIRE ??Subroutine21_0
        ; // Fall through to label ??Subroutine21_0

        RSEG BANKED_CODE:HUGECODE:NOROOT(0)
??Subroutine21_0:
          CFI Block cfiCond81 Using cfiCommon0
          CFI Function MT_BuildEndpointDesc
          CFI Conditional ??CrossCallReturnLabel_41, ??CrossCallReturnLabel_29
          CFI R6 load(1, XDATA, add(CFA_XSP16, literal(-16)))
          CFI VB load(1, XDATA, add(CFA_XSP16, literal(-15)))
          CFI V0 load(1, XDATA, add(CFA_XSP16, literal(-14)))
          CFI V1 load(1, XDATA, add(CFA_XSP16, literal(-13)))
          CFI V2 load(1, XDATA, add(CFA_XSP16, literal(-12)))
          CFI V3 load(1, XDATA, add(CFA_XSP16, literal(-11)))
          CFI V4 load(1, XDATA, add(CFA_XSP16, literal(-10)))
          CFI V5 load(1, XDATA, add(CFA_XSP16, literal(-9)))
          CFI V6 load(1, XDATA, add(CFA_XSP16, literal(-8)))
          CFI V7 load(1, XDATA, add(CFA_XSP16, literal(-7)))
          CFI R7 load(1, XDATA, add(CFA_XSP16, literal(-6)))
          CFI ?RET_LOW load(1, XDATA, add(CFA_XSP16, literal(-5)))
          CFI ?RET_HIGH load(1, XDATA, add(CFA_XSP16, literal(-4)))
          CFI ?BRET_EXT load(1, XDATA, add(CFA_XSP16, literal(-3)))
          CFI DPL0 load(1, XDATA, add(CFA_XSP16, literal(-2)))
          CFI DPH0 load(1, XDATA, add(CFA_XSP16, literal(-1)))
          CFI CFA_SP SP+-5
          CFI CFA_XSP16 add(XSP16, 16)
          CFI Block cfiCond82 Using cfiCommon0
          CFI (cfiCond82) Function MT_BuildEndpointDesc
          CFI (cfiCond82) Conditional ??CrossCallReturnLabel_41, ??CrossCallReturnLabel_30
          CFI (cfiCond82) R6 load(1, XDATA, add(CFA_XSP16, literal(-16)))
          CFI (cfiCond82) VB load(1, XDATA, add(CFA_XSP16, literal(-15)))
          CFI (cfiCond82) V0 load(1, XDATA, add(CFA_XSP16, literal(-14)))
          CFI (cfiCond82) V1 load(1, XDATA, add(CFA_XSP16, literal(-13)))
          CFI (cfiCond82) V2 load(1, XDATA, add(CFA_XSP16, literal(-12)))
          CFI (cfiCond82) V3 load(1, XDATA, add(CFA_XSP16, literal(-11)))
          CFI (cfiCond82) V4 load(1, XDATA, add(CFA_XSP16, literal(-10)))
          CFI (cfiCond82) V5 load(1, XDATA, add(CFA_XSP16, literal(-9)))
          CFI (cfiCond82) V6 load(1, XDATA, add(CFA_XSP16, literal(-8)))
          CFI (cfiCond82) V7 load(1, XDATA, add(CFA_XSP16, literal(-7)))
          CFI (cfiCond82) R7 load(1, XDATA, add(CFA_XSP16, literal(-6)))
          CFI (cfiCond82) ?RET_LOW load(1, XDATA, add(CFA_XSP16, literal(-5)))
          CFI (cfiCond82) ?RET_HIGH load(1, XDATA, add(CFA_XSP16, literal(-4)))
          CFI (cfiCond82) ?BRET_EXT load(1, XDATA, add(CFA_XSP16, literal(-3)))
          CFI (cfiCond82) DPL0 load(1, XDATA, add(CFA_XSP16, literal(-2)))
          CFI (cfiCond82) DPH0 load(1, XDATA, add(CFA_XSP16, literal(-1)))
          CFI (cfiCond82) CFA_SP SP+-4
          CFI (cfiCond82) CFA_XSP16 add(XSP16, 16)
          CFI Block cfiCond83 Using cfiCommon0
          CFI (cfiCond83) Function MT_BuildEndpointDesc
          CFI (cfiCond83) Conditional ??CrossCallReturnLabel_41, ??CrossCallReturnLabel_31
          CFI (cfiCond83) R6 load(1, XDATA, add(CFA_XSP16, literal(-16)))
          CFI (cfiCond83) VB load(1, XDATA, add(CFA_XSP16, literal(-15)))
          CFI (cfiCond83) V0 load(1, XDATA, add(CFA_XSP16, literal(-14)))
          CFI (cfiCond83) V1 load(1, XDATA, add(CFA_XSP16, literal(-13)))
          CFI (cfiCond83) V2 load(1, XDATA, add(CFA_XSP16, literal(-12)))
          CFI (cfiCond83) V3 load(1, XDATA, add(CFA_XSP16, literal(-11)))
          CFI (cfiCond83) V4 load(1, XDATA, add(CFA_XSP16, literal(-10)))
          CFI (cfiCond83) V5 load(1, XDATA, add(CFA_XSP16, literal(-9)))
          CFI (cfiCond83) V6 load(1, XDATA, add(CFA_XSP16, literal(-8)))
          CFI (cfiCond83) V7 load(1, XDATA, add(CFA_XSP16, literal(-7)))
          CFI (cfiCond83) R7 load(1, XDATA, add(CFA_XSP16, literal(-6)))
          CFI (cfiCond83) ?RET_LOW load(1, XDATA, add(CFA_XSP16, literal(-5)))
          CFI (cfiCond83) ?RET_HIGH load(1, XDATA, add(CFA_XSP16, literal(-4)))
          CFI (cfiCond83) ?BRET_EXT load(1, XDATA, add(CFA_XSP16, literal(-3)))
          CFI (cfiCond83) DPL0 load(1, XDATA, add(CFA_XSP16, literal(-2)))
          CFI (cfiCond83) DPH0 load(1, XDATA, add(CFA_XSP16, literal(-1)))
          CFI (cfiCond83) CFA_SP SP+-5
          CFI (cfiCond83) CFA_XSP16 add(XSP16, 16)
          CFI Block cfiCond84 Using cfiCommon0
          CFI (cfiCond84) Function MT_BuildEndpointDesc
          CFI (cfiCond84) Conditional ??CrossCallReturnLabel_41, ??CrossCallReturnLabel_32
          CFI (cfiCond84) R6 load(1, XDATA, add(CFA_XSP16, literal(-16)))
          CFI (cfiCond84) VB load(1, XDATA, add(CFA_XSP16, literal(-15)))
          CFI (cfiCond84) V0 load(1, XDATA, add(CFA_XSP16, literal(-14)))
          CFI (cfiCond84) V1 load(1, XDATA, add(CFA_XSP16, literal(-13)))
          CFI (cfiCond84) V2 load(1, XDATA, add(CFA_XSP16, literal(-12)))
          CFI (cfiCond84) V3 load(1, XDATA, add(CFA_XSP16, literal(-11)))
          CFI (cfiCond84) V4 load(1, XDATA, add(CFA_XSP16, literal(-10)))
          CFI (cfiCond84) V5 load(1, XDATA, add(CFA_XSP16, literal(-9)))
          CFI (cfiCond84) V6 load(1, XDATA, add(CFA_XSP16, literal(-8)))
          CFI (cfiCond84) V7 load(1, XDATA, add(CFA_XSP16, literal(-7)))
          CFI (cfiCond84) R7 load(1, XDATA, add(CFA_XSP16, literal(-6)))
          CFI (cfiCond84) ?RET_LOW load(1, XDATA, add(CFA_XSP16, literal(-5)))
          CFI (cfiCond84) ?RET_HIGH load(1, XDATA, add(CFA_XSP16, literal(-4)))
          CFI (cfiCond84) ?BRET_EXT load(1, XDATA, add(CFA_XSP16, literal(-3)))
          CFI (cfiCond84) DPL0 load(1, XDATA, add(CFA_XSP16, literal(-2)))
          CFI (cfiCond84) DPH0 load(1, XDATA, add(CFA_XSP16, literal(-1)))
          CFI (cfiCond84) CFA_SP SP+-4
          CFI (cfiCond84) CFA_XSP16 add(XSP16, 16)
          CFI Block cfiCond85 Using cfiCommon0
          CFI (cfiCond85) Function MT_BuildEndpointDesc
          CFI (cfiCond85) Conditional ??CrossCallReturnLabel_41, ??CrossCallReturnLabel_28
          CFI (cfiCond85) R6 load(1, XDATA, add(CFA_XSP16, literal(-16)))
          CFI (cfiCond85) VB load(1, XDATA, add(CFA_XSP16, literal(-15)))
          CFI (cfiCond85) V0 load(1, XDATA, add(CFA_XSP16, literal(-14)))
          CFI (cfiCond85) V1 load(1, XDATA, add(CFA_XSP16, literal(-13)))
          CFI (cfiCond85) V2 load(1, XDATA, add(CFA_XSP16, literal(-12)))
          CFI (cfiCond85) V3 load(1, XDATA, add(CFA_XSP16, literal(-11)))
          CFI (cfiCond85) V4 load(1, XDATA, add(CFA_XSP16, literal(-10)))
          CFI (cfiCond85) V5 load(1, XDATA, add(CFA_XSP16, literal(-9)))
          CFI (cfiCond85) V6 load(1, XDATA, add(CFA_XSP16, literal(-8)))
          CFI (cfiCond85) V7 load(1, XDATA, add(CFA_XSP16, literal(-7)))
          CFI (cfiCond85) R7 load(1, XDATA, add(CFA_XSP16, literal(-6)))
          CFI (cfiCond85) ?RET_LOW load(1, XDATA, add(CFA_XSP16, literal(-5)))
          CFI (cfiCond85) ?RET_HIGH load(1, XDATA, add(CFA_XSP16, literal(-4)))
          CFI (cfiCond85) ?BRET_EXT load(1, XDATA, add(CFA_XSP16, literal(-3)))
          CFI (cfiCond85) DPL0 load(1, XDATA, add(CFA_XSP16, literal(-2)))
          CFI (cfiCond85) DPH0 load(1, XDATA, add(CFA_XSP16, literal(-1)))
          CFI (cfiCond85) CFA_SP SP+-4
          CFI (cfiCond85) CFA_XSP16 add(XSP16, 16)
          CFI Block cfiCond86 Using cfiCommon0
          CFI (cfiCond86) Function MT_BuildEndpointDesc
          CFI (cfiCond86) Conditional ??CrossCallReturnLabel_38, ??CrossCallReturnLabel_15
          CFI (cfiCond86) R6 load(1, XDATA, add(CFA_XSP16, literal(-16)))
          CFI (cfiCond86) VB load(1, XDATA, add(CFA_XSP16, literal(-15)))
          CFI (cfiCond86) V0 load(1, XDATA, add(CFA_XSP16, literal(-14)))
          CFI (cfiCond86) V1 load(1, XDATA, add(CFA_XSP16, literal(-13)))
          CFI (cfiCond86) V2 load(1, XDATA, add(CFA_XSP16, literal(-12)))
          CFI (cfiCond86) V3 load(1, XDATA, add(CFA_XSP16, literal(-11)))
          CFI (cfiCond86) V4 load(1, XDATA, add(CFA_XSP16, literal(-10)))
          CFI (cfiCond86) V5 load(1, XDATA, add(CFA_XSP16, literal(-9)))
          CFI (cfiCond86) V6 load(1, XDATA, add(CFA_XSP16, literal(-8)))
          CFI (cfiCond86) V7 load(1, XDATA, add(CFA_XSP16, literal(-7)))
          CFI (cfiCond86) R7 load(1, XDATA, add(CFA_XSP16, literal(-6)))
          CFI (cfiCond86) ?RET_LOW load(1, XDATA, add(CFA_XSP16, literal(-5)))
          CFI (cfiCond86) ?RET_HIGH load(1, XDATA, add(CFA_XSP16, literal(-4)))
          CFI (cfiCond86) ?BRET_EXT load(1, XDATA, add(CFA_XSP16, literal(-3)))
          CFI (cfiCond86) DPL0 load(1, XDATA, add(CFA_XSP16, literal(-2)))
          CFI (cfiCond86) DPH0 load(1, XDATA, add(CFA_XSP16, literal(-1)))
          CFI (cfiCond86) CFA_SP SP+-4
          CFI (cfiCond86) CFA_XSP16 add(XSP16, 16)
          CFI Block cfiCond87 Using cfiCommon0
          CFI (cfiCond87) Function MT_BuildEndpointDesc
          CFI (cfiCond87) Conditional ??CrossCallReturnLabel_38, ??CrossCallReturnLabel_16
          CFI (cfiCond87) R6 load(1, XDATA, add(CFA_XSP16, literal(-16)))
          CFI (cfiCond87) VB load(1, XDATA, add(CFA_XSP16, literal(-15)))
          CFI (cfiCond87) V0 load(1, XDATA, add(CFA_XSP16, literal(-14)))
          CFI (cfiCond87) V1 load(1, XDATA, add(CFA_XSP16, literal(-13)))
          CFI (cfiCond87) V2 load(1, XDATA, add(CFA_XSP16, literal(-12)))
          CFI (cfiCond87) V3 load(1, XDATA, add(CFA_XSP16, literal(-11)))
          CFI (cfiCond87) V4 load(1, XDATA, add(CFA_XSP16, literal(-10)))
          CFI (cfiCond87) V5 load(1, XDATA, add(CFA_XSP16, literal(-9)))
          CFI (cfiCond87) V6 load(1, XDATA, add(CFA_XSP16, literal(-8)))
          CFI (cfiCond87) V7 load(1, XDATA, add(CFA_XSP16, literal(-7)))
          CFI (cfiCond87) R7 load(1, XDATA, add(CFA_XSP16, literal(-6)))
          CFI (cfiCond87) ?RET_LOW load(1, XDATA, add(CFA_XSP16, literal(-5)))
          CFI (cfiCond87) ?RET_HIGH load(1, XDATA, add(CFA_XSP16, literal(-4)))
          CFI (cfiCond87) ?BRET_EXT load(1, XDATA, add(CFA_XSP16, literal(-3)))
          CFI (cfiCond87) DPL0 load(1, XDATA, add(CFA_XSP16, literal(-2)))
          CFI (cfiCond87) DPH0 load(1, XDATA, add(CFA_XSP16, literal(-1)))
          CFI (cfiCond87) CFA_SP SP+-4
          CFI (cfiCond87) CFA_XSP16 add(XSP16, 16)
          CFI Block cfiCond88 Using cfiCommon0
          CFI (cfiCond88) Function MT_BuildEndpointDesc
          CFI (cfiCond88) Conditional ??CrossCallReturnLabel_42, ??CrossCallReturnLabel_34
          CFI (cfiCond88) R6 load(1, XDATA, add(CFA_XSP16, literal(-16)))
          CFI (cfiCond88) VB load(1, XDATA, add(CFA_XSP16, literal(-15)))
          CFI (cfiCond88) V0 load(1, XDATA, add(CFA_XSP16, literal(-14)))
          CFI (cfiCond88) V1 load(1, XDATA, add(CFA_XSP16, literal(-13)))
          CFI (cfiCond88) V2 load(1, XDATA, add(CFA_XSP16, literal(-12)))
          CFI (cfiCond88) V3 load(1, XDATA, add(CFA_XSP16, literal(-11)))
          CFI (cfiCond88) V4 load(1, XDATA, add(CFA_XSP16, literal(-10)))
          CFI (cfiCond88) V5 load(1, XDATA, add(CFA_XSP16, literal(-9)))
          CFI (cfiCond88) V6 load(1, XDATA, add(CFA_XSP16, literal(-8)))
          CFI (cfiCond88) V7 load(1, XDATA, add(CFA_XSP16, literal(-7)))
          CFI (cfiCond88) R7 load(1, XDATA, add(CFA_XSP16, literal(-6)))
          CFI (cfiCond88) ?RET_LOW load(1, XDATA, add(CFA_XSP16, literal(-5)))
          CFI (cfiCond88) ?RET_HIGH load(1, XDATA, add(CFA_XSP16, literal(-4)))
          CFI (cfiCond88) ?BRET_EXT load(1, XDATA, add(CFA_XSP16, literal(-3)))
          CFI (cfiCond88) DPL0 load(1, XDATA, add(CFA_XSP16, literal(-2)))
          CFI (cfiCond88) DPH0 load(1, XDATA, add(CFA_XSP16, literal(-1)))
          CFI (cfiCond88) CFA_SP SP+-4
          CFI (cfiCond88) CFA_XSP16 add(XSP16, 16)
          CFI Block cfiCond89 Using cfiCommon0
          CFI (cfiCond89) Function MT_BuildEndpointDesc
          CFI (cfiCond89) Conditional ??CrossCallReturnLabel_42, ??CrossCallReturnLabel_35
          CFI (cfiCond89) R6 load(1, XDATA, add(CFA_XSP16, literal(-16)))
          CFI (cfiCond89) VB load(1, XDATA, add(CFA_XSP16, literal(-15)))
          CFI (cfiCond89) V0 load(1, XDATA, add(CFA_XSP16, literal(-14)))
          CFI (cfiCond89) V1 load(1, XDATA, add(CFA_XSP16, literal(-13)))
          CFI (cfiCond89) V2 load(1, XDATA, add(CFA_XSP16, literal(-12)))
          CFI (cfiCond89) V3 load(1, XDATA, add(CFA_XSP16, literal(-11)))
          CFI (cfiCond89) V4 load(1, XDATA, add(CFA_XSP16, literal(-10)))
          CFI (cfiCond89) V5 load(1, XDATA, add(CFA_XSP16, literal(-9)))
          CFI (cfiCond89) V6 load(1, XDATA, add(CFA_XSP16, literal(-8)))
          CFI (cfiCond89) V7 load(1, XDATA, add(CFA_XSP16, literal(-7)))
          CFI (cfiCond89) R7 load(1, XDATA, add(CFA_XSP16, literal(-6)))
          CFI (cfiCond89) ?RET_LOW load(1, XDATA, add(CFA_XSP16, literal(-5)))
          CFI (cfiCond89) ?RET_HIGH load(1, XDATA, add(CFA_XSP16, literal(-4)))
          CFI (cfiCond89) ?BRET_EXT load(1, XDATA, add(CFA_XSP16, literal(-3)))
          CFI (cfiCond89) DPL0 load(1, XDATA, add(CFA_XSP16, literal(-2)))
          CFI (cfiCond89) DPH0 load(1, XDATA, add(CFA_XSP16, literal(-1)))
          CFI (cfiCond89) CFA_SP SP+-4
          CFI (cfiCond89) CFA_XSP16 add(XSP16, 16)
          CFI Block cfiCond90 Using cfiCommon0
          CFI (cfiCond90) Function MT_BuildEndpointDesc
          CFI (cfiCond90) Conditional ??CrossCallReturnLabel_42, ??CrossCallReturnLabel_33
          CFI (cfiCond90) R6 load(1, XDATA, add(CFA_XSP16, literal(-16)))
          CFI (cfiCond90) VB load(1, XDATA, add(CFA_XSP16, literal(-15)))
          CFI (cfiCond90) V0 load(1, XDATA, add(CFA_XSP16, literal(-14)))
          CFI (cfiCond90) V1 load(1, XDATA, add(CFA_XSP16, literal(-13)))
          CFI (cfiCond90) V2 load(1, XDATA, add(CFA_XSP16, literal(-12)))
          CFI (cfiCond90) V3 load(1, XDATA, add(CFA_XSP16, literal(-11)))
          CFI (cfiCond90) V4 load(1, XDATA, add(CFA_XSP16, literal(-10)))
          CFI (cfiCond90) V5 load(1, XDATA, add(CFA_XSP16, literal(-9)))
          CFI (cfiCond90) V6 load(1, XDATA, add(CFA_XSP16, literal(-8)))
          CFI (cfiCond90) V7 load(1, XDATA, add(CFA_XSP16, literal(-7)))
          CFI (cfiCond90) R7 load(1, XDATA, add(CFA_XSP16, literal(-6)))
          CFI (cfiCond90) ?RET_LOW load(1, XDATA, add(CFA_XSP16, literal(-5)))
          CFI (cfiCond90) ?RET_HIGH load(1, XDATA, add(CFA_XSP16, literal(-4)))
          CFI (cfiCond90) ?BRET_EXT load(1, XDATA, add(CFA_XSP16, literal(-3)))
          CFI (cfiCond90) DPL0 load(1, XDATA, add(CFA_XSP16, literal(-2)))
          CFI (cfiCond90) DPH0 load(1, XDATA, add(CFA_XSP16, literal(-1)))
          CFI (cfiCond90) CFA_SP SP+-4
          CFI (cfiCond90) CFA_XSP16 add(XSP16, 16)
          CFI Block cfiCond91 Using cfiCommon0
          CFI (cfiCond91) Function MT_BuildEndpointDesc
          CFI (cfiCond91) Conditional ??CrossCallReturnLabel_40, ??CrossCallReturnLabel_13
          CFI (cfiCond91) R6 load(1, XDATA, add(CFA_XSP16, literal(-16)))
          CFI (cfiCond91) VB load(1, XDATA, add(CFA_XSP16, literal(-15)))
          CFI (cfiCond91) V0 load(1, XDATA, add(CFA_XSP16, literal(-14)))
          CFI (cfiCond91) V1 load(1, XDATA, add(CFA_XSP16, literal(-13)))
          CFI (cfiCond91) V2 load(1, XDATA, add(CFA_XSP16, literal(-12)))
          CFI (cfiCond91) V3 load(1, XDATA, add(CFA_XSP16, literal(-11)))
          CFI (cfiCond91) V4 load(1, XDATA, add(CFA_XSP16, literal(-10)))
          CFI (cfiCond91) V5 load(1, XDATA, add(CFA_XSP16, literal(-9)))
          CFI (cfiCond91) V6 load(1, XDATA, add(CFA_XSP16, literal(-8)))
          CFI (cfiCond91) V7 load(1, XDATA, add(CFA_XSP16, literal(-7)))
          CFI (cfiCond91) R7 load(1, XDATA, add(CFA_XSP16, literal(-6)))
          CFI (cfiCond91) ?RET_LOW load(1, XDATA, add(CFA_XSP16, literal(-5)))
          CFI (cfiCond91) ?RET_HIGH load(1, XDATA, add(CFA_XSP16, literal(-4)))
          CFI (cfiCond91) ?BRET_EXT load(1, XDATA, add(CFA_XSP16, literal(-3)))
          CFI (cfiCond91) DPL0 load(1, XDATA, add(CFA_XSP16, literal(-2)))
          CFI (cfiCond91) DPH0 load(1, XDATA, add(CFA_XSP16, literal(-1)))
          CFI (cfiCond91) CFA_SP SP+-4
          CFI (cfiCond91) CFA_XSP16 add(XSP16, 16)
          CFI Block cfiCond92 Using cfiCommon0
          CFI (cfiCond92) Function MT_BuildEndpointDesc
          CFI (cfiCond92) Conditional ??CrossCallReturnLabel_40, ??CrossCallReturnLabel_14
          CFI (cfiCond92) R6 load(1, XDATA, add(CFA_XSP16, literal(-16)))
          CFI (cfiCond92) VB load(1, XDATA, add(CFA_XSP16, literal(-15)))
          CFI (cfiCond92) V0 load(1, XDATA, add(CFA_XSP16, literal(-14)))
          CFI (cfiCond92) V1 load(1, XDATA, add(CFA_XSP16, literal(-13)))
          CFI (cfiCond92) V2 load(1, XDATA, add(CFA_XSP16, literal(-12)))
          CFI (cfiCond92) V3 load(1, XDATA, add(CFA_XSP16, literal(-11)))
          CFI (cfiCond92) V4 load(1, XDATA, add(CFA_XSP16, literal(-10)))
          CFI (cfiCond92) V5 load(1, XDATA, add(CFA_XSP16, literal(-9)))
          CFI (cfiCond92) V6 load(1, XDATA, add(CFA_XSP16, literal(-8)))
          CFI (cfiCond92) V7 load(1, XDATA, add(CFA_XSP16, literal(-7)))
          CFI (cfiCond92) R7 load(1, XDATA, add(CFA_XSP16, literal(-6)))
          CFI (cfiCond92) ?RET_LOW load(1, XDATA, add(CFA_XSP16, literal(-5)))
          CFI (cfiCond92) ?RET_HIGH load(1, XDATA, add(CFA_XSP16, literal(-4)))
          CFI (cfiCond92) ?BRET_EXT load(1, XDATA, add(CFA_XSP16, literal(-3)))
          CFI (cfiCond92) DPL0 load(1, XDATA, add(CFA_XSP16, literal(-2)))
          CFI (cfiCond92) DPH0 load(1, XDATA, add(CFA_XSP16, literal(-1)))
          CFI (cfiCond92) CFA_SP SP+-4
          CFI (cfiCond92) CFA_XSP16 add(XSP16, 16)
          CFI Block cfiCond93 Using cfiCommon0
          CFI (cfiCond93) Function MT_BuildEndpointDesc
          CFI (cfiCond93) Conditional ??CrossCallReturnLabel_39, ??CrossCallReturnLabel_0
          CFI (cfiCond93) R6 load(1, XDATA, add(CFA_XSP16, literal(-16)))
          CFI (cfiCond93) VB load(1, XDATA, add(CFA_XSP16, literal(-15)))
          CFI (cfiCond93) V0 load(1, XDATA, add(CFA_XSP16, literal(-14)))
          CFI (cfiCond93) V1 load(1, XDATA, add(CFA_XSP16, literal(-13)))
          CFI (cfiCond93) V2 load(1, XDATA, add(CFA_XSP16, literal(-12)))
          CFI (cfiCond93) V3 load(1, XDATA, add(CFA_XSP16, literal(-11)))
          CFI (cfiCond93) V4 load(1, XDATA, add(CFA_XSP16, literal(-10)))
          CFI (cfiCond93) V5 load(1, XDATA, add(CFA_XSP16, literal(-9)))
          CFI (cfiCond93) V6 load(1, XDATA, add(CFA_XSP16, literal(-8)))
          CFI (cfiCond93) V7 load(1, XDATA, add(CFA_XSP16, literal(-7)))
          CFI (cfiCond93) R7 load(1, XDATA, add(CFA_XSP16, literal(-6)))
          CFI (cfiCond93) ?RET_LOW load(1, XDATA, add(CFA_XSP16, literal(-5)))
          CFI (cfiCond93) ?RET_HIGH load(1, XDATA, add(CFA_XSP16, literal(-4)))
          CFI (cfiCond93) ?BRET_EXT load(1, XDATA, add(CFA_XSP16, literal(-3)))
          CFI (cfiCond93) DPL0 load(1, XDATA, add(CFA_XSP16, literal(-2)))
          CFI (cfiCond93) DPH0 load(1, XDATA, add(CFA_XSP16, literal(-1)))
          CFI (cfiCond93) CFA_SP SP+-4
          CFI (cfiCond93) CFA_XSP16 add(XSP16, 16)
          CFI Block cfiCond94 Using cfiCommon0
          CFI (cfiCond94) Function MT_BuildEndpointDesc
          CFI (cfiCond94) Conditional ??CrossCallReturnLabel_39, ??CrossCallReturnLabel_1
          CFI (cfiCond94) R6 load(1, XDATA, add(CFA_XSP16, literal(-16)))
          CFI (cfiCond94) VB load(1, XDATA, add(CFA_XSP16, literal(-15)))
          CFI (cfiCond94) V0 load(1, XDATA, add(CFA_XSP16, literal(-14)))
          CFI (cfiCond94) V1 load(1, XDATA, add(CFA_XSP16, literal(-13)))
          CFI (cfiCond94) V2 load(1, XDATA, add(CFA_XSP16, literal(-12)))
          CFI (cfiCond94) V3 load(1, XDATA, add(CFA_XSP16, literal(-11)))
          CFI (cfiCond94) V4 load(1, XDATA, add(CFA_XSP16, literal(-10)))
          CFI (cfiCond94) V5 load(1, XDATA, add(CFA_XSP16, literal(-9)))
          CFI (cfiCond94) V6 load(1, XDATA, add(CFA_XSP16, literal(-8)))
          CFI (cfiCond94) V7 load(1, XDATA, add(CFA_XSP16, literal(-7)))
          CFI (cfiCond94) R7 load(1, XDATA, add(CFA_XSP16, literal(-6)))
          CFI (cfiCond94) ?RET_LOW load(1, XDATA, add(CFA_XSP16, literal(-5)))
          CFI (cfiCond94) ?RET_HIGH load(1, XDATA, add(CFA_XSP16, literal(-4)))
          CFI (cfiCond94) ?BRET_EXT load(1, XDATA, add(CFA_XSP16, literal(-3)))
          CFI (cfiCond94) DPL0 load(1, XDATA, add(CFA_XSP16, literal(-2)))
          CFI (cfiCond94) DPH0 load(1, XDATA, add(CFA_XSP16, literal(-1)))
          CFI (cfiCond94) CFA_SP SP+-4
          CFI (cfiCond94) CFA_XSP16 add(XSP16, 16)
          CFI Block cfiPicker95 Using cfiCommon1
          CFI (cfiPicker95) NoFunction
          CFI (cfiPicker95) Picker
        MOVX      A,@DPTR
        MOV       R0,A
        INC       DPTR
        MOVX      A,@DPTR
        XCH       A,R0
        RET
          CFI EndBlock cfiCond81
          CFI EndBlock cfiCond82
          CFI EndBlock cfiCond83
          CFI EndBlock cfiCond84
          CFI EndBlock cfiCond85
          CFI EndBlock cfiCond86
          CFI EndBlock cfiCond87
          CFI EndBlock cfiCond88
          CFI EndBlock cfiCond89
          CFI EndBlock cfiCond90
          CFI EndBlock cfiCond91
          CFI EndBlock cfiCond92
          CFI EndBlock cfiCond93
          CFI EndBlock cfiCond94
          CFI EndBlock cfiPicker95

        RSEG XDATA_ID:CODE:NOROOT(0)
`?<Initializer for mtProcessIncoming>`:
        DATA16
        DW 0H
        DW `??MT_SysCommandProcessing::?relay`
        DW 0H
        DW 0H
        DW `??MT_AfCommandProcessing::?relay`
        DW `??MT_ZdoCommandProcessing::?relay`
        DW `??MT_SapiCommandProcessing::?relay`
        DW `??MT_UtilCommandProcessing::?relay`
        DW 0H
        DW `??MT_AppCommandProcessing::?relay`
        DW 0H
        DW 0H
        DW 0H
        DW 0H
        DW 0H
        DW 0H
        DW 0H
        DW 0H
        DW 0H
        DW 0H
        DW 0H
        DW 0H

        RSEG BANK_RELAYS:CODE:REORDER:NOROOT(0)
`??MT_Init::?relay`:
        CODE
        LCALL   ?BDISPATCH
        DATA24
        DC24    MT_Init

        RSEG BANK_RELAYS:CODE:REORDER:NOROOT(0)
`??MT_BuildAndSendZToolResponse::?relay`:
        CODE
        LCALL   ?BDISPATCH
        DATA24
        DC24    MT_BuildAndSendZToolResponse

        RSEG BANK_RELAYS:CODE:REORDER:NOROOT(0)
`??MT_ProcessIncoming::?relay`:
        CODE
        LCALL   ?BDISPATCH
        DATA24
        DC24    MT_ProcessIncoming

        RSEG BANK_RELAYS:CODE:REORDER:NOROOT(0)
`??MTProcessAppRspMsg::?relay`:
        CODE
        LCALL   ?BDISPATCH
        DATA24
        DC24    MTProcessAppRspMsg

        RSEG BANK_RELAYS:CODE:REORDER:NOROOT(0)
`??MT_ReverseBytes::?relay`:
        CODE
        LCALL   ?BDISPATCH
        DATA24
        DC24    MT_ReverseBytes

        RSEG BANK_RELAYS:CODE:REORDER:NOROOT(0)
`??MT_Word2Buf::?relay`:
        CODE
        LCALL   ?BDISPATCH
        DATA24
        DC24    MT_Word2Buf

        RSEG BANK_RELAYS:CODE:REORDER:NOROOT(0)
`??MT_BuildEndpointDesc::?relay`:
        CODE
        LCALL   ?BDISPATCH
        DATA24
        DC24    MT_BuildEndpointDesc

        END
//  556 #endif
//  557 /***************************************************************************************************
//  558 ***************************************************************************************************/
// 
// 1 146 bytes in segment BANKED_CODE
//    42 bytes in segment BANK_RELAYS
//    44 bytes in segment XDATA_I
//    44 bytes in segment XDATA_ID
//     2 bytes in segment XDATA_Z
// 
//    86 bytes of CODE     memory
// 1 146 bytes of HUGECODE memory
//    46 bytes of XDATA    memory
//
//Errors: none
//Warnings: none
