///////////////////////////////////////////////////////////////////////////////
//
// IAR C/C++ Compiler V10.10.1.4655 for 8051              16/Feb/2018  21:40:27
// Copyright 2004-2017 IAR Systems AB.
// Evaluation license - IAR Embedded Workbench for 8051, Evaluation version 10.10
//
//    Core               =  plain
//    Code model         =  banked
//    Data model         =  large
//    Calling convention =  xdata reentrant
//    Constant location  =  data_rom
//    Dptr setup         =  1,16
//                          
//    Source file        =  
//        C:\Texas Instruments\Z-Stack Home 1.2.2a.44539\Components\mt\MT_APP.c
//    Command line       =  
//        -f C:\Users\Oskar\AppData\Local\Temp\EW5CA6.tmp ("C:\Texas
//        Instruments\Z-Stack Home 1.2.2a.44539\Components\mt\MT_APP.c" -D
//        FEATURE_SYSTEM_STATS -D CC2531ZNP -D POWER_SAVING -D xTC_LINKKEY_JOIN
//        -lC "C:\Texas Instruments\Z-Stack Home
//        1.2.2a.44539\Projects\zstack\ZNP\CC253x\CC2531-Debug\List" -lA
//        "C:\Texas Instruments\Z-Stack Home
//        1.2.2a.44539\Projects\zstack\ZNP\CC253x\CC2531-Debug\List"
//        --diag_suppress Pe001,Pa010 -o "C:\Texas Instruments\Z-Stack Home
//        1.2.2a.44539\Projects\zstack\ZNP\CC253x\CC2531-Debug\Obj" -e --debug
//        --core=plain --dptr=16,1 --data_model=large --code_model=banked
//        --calling_convention=xdata_reentrant --place_constants=data_rom
//        --nr_virtual_regs 16 -f "C:\Texas Instruments\Z-Stack Home
//        1.2.2a.44539\Projects\zstack\ZNP\CC253x\..\Source\znp.cfg"
//        (-DMAC_CFG_APP_PENDING_QUEUE=TRUE
//        "-DZSTACK_DEVICE_BUILD=(DEVICE_BUILD_COORDINATOR |
//        DEVICE_BUILD_ROUTER | DEVICE_BUILD_ENDDEVICE)" -DNWK_AUTO_POLL
//        -DZNP_RUN_WDOG=FALSE -DZNP_UART_BAUD=HAL_UART_BR_115200 -DZIGBEEPRO
//        -DZIGBEE_FRAGMENTATION -DINTER_PAN -DOSAL_CLOCK -DOSAL_SAPI=FALSE
//        -DSAPI_CB_FUNC=FALSE -DHOLD_AUTO_START -DNV_RESTORE -DNV_INIT
//        -DNUM_DISC_ATTEMPTS=0 -DMT_UTIL_FUNC -DMT_SYS_FUNC -DMT_AF_FUNC
//        -DMT_SAPI_FUNC -DMT_SAPI_CB_FUNC -DMT_ZDO_CB_FUNC -DMT_ZDO_FUNC
//        -DMT_ZDO_MGMT -DMT_ZDO_EXTENSIONS -DMT_APP_FUNC) -f "C:\Texas
//        Instruments\Z-Stack Home
//        1.2.2a.44539\Projects\zstack\ZNP\CC253x\..\..\Tools\CC2530DB\f8wConfig.cfg"
//        (-DZIGBEEPRO -DSECURE=1 -DZG_SECURE_DYNAMIC=0 -DREFLECTOR
//        -DDEFAULT_CHANLIST=0x00000800 -DZDAPP_CONFIG_PAN_ID=0xFFFF
//        -DNWK_START_DELAY=100 -DEXTENDED_JOINING_RANDOM_MASK=0x007F
//        -DBEACON_REQUEST_DELAY=100 -DBEACON_REQ_DELAY_MASK=0x00FF
//        -DLINK_STATUS_JITTER_MASK=0x007F -DROUTE_EXPIRY_TIME=30
//        -DAPSC_ACK_WAIT_DURATION_POLLED=3000 -DNWK_INDIRECT_MSG_TIMEOUT=7
//        -DMAX_RREQ_ENTRIES=8 -DAPSC_MAX_FRAME_RETRIES=3
//        -DNWK_MAX_DATA_RETRIES=2 -DMAX_POLL_FAILURE_RETRIES=2 -DMAX_BCAST=9
//        -DAPS_MAX_GROUPS=16 -DMAX_RTG_ENTRIES=40 -DNWK_MAX_BINDING_ENTRIES=4
//        -DMAX_BINDING_CLUSTER_IDS=4 "-DDEFAULT_KEY={0x01, 0x03, 0x05, 0x07,
//        0x09, 0x0B, 0x0D, 0x0F, 0x00, 0x02, 0x04, 0x06, 0x08, 0x0A, 0x0C,
//        0x0D}" -DMAC_MAX_FRAME_SIZE=116 -DZDNWKMGR_MIN_TRANSMISSIONS=20
//        "-DCONST=const __code" -DGENERIC=__generic -DRFD_RCVC_ALWAYS_ON=FALSE
//        -DPOLL_RATE=1000 -DQUEUED_POLL_RATE=100 -DRESPONSE_POLL_RATE=100
//        -DREJOIN_POLL_RATE=440 -DREJOIN_BACKOFF=900000 -DREJOIN_SCAN=900000)
//        -f "C:\Texas Instruments\Z-Stack Home
//        1.2.2a.44539\Projects\zstack\ZNP\CC253x\..\..\Tools\CC2530DB\f8wZCL.cfg"
//        -I "C:\Texas Instruments\Z-Stack Home
//        1.2.2a.44539\Projects\zstack\ZNP\CC253x\" -I "C:\Texas
//        Instruments\Z-Stack Home
//        1.2.2a.44539\Projects\zstack\ZNP\CC253x\Source\" -I "C:\Texas
//        Instruments\Z-Stack Home
//        1.2.2a.44539\Projects\zstack\ZNP\CC253x\..\Source\" -I "C:\Texas
//        Instruments\Z-Stack Home
//        1.2.2a.44539\Projects\zstack\ZNP\CC253x\..\..\SE\Source\" -I
//        "C:\Texas Instruments\Z-Stack Home
//        1.2.2a.44539\Projects\zstack\ZNP\CC253x\..\..\ZMain\TI2530ZNP\" -I
//        "C:\Texas Instruments\Z-Stack Home
//        1.2.2a.44539\Projects\zstack\ZNP\CC253x\..\..\..\..\Components\hal\include\"
//        -I "C:\Texas Instruments\Z-Stack Home
//        1.2.2a.44539\Projects\zstack\ZNP\CC253x\..\..\..\..\Components\hal\target\CC2530USB\"
//        -I "C:\Texas Instruments\Z-Stack Home
//        1.2.2a.44539\Projects\zstack\ZNP\CC253x\..\..\..\..\Components\hal\target\CC2530USB\usb\library\"
//        -I "C:\Texas Instruments\Z-Stack Home
//        1.2.2a.44539\Projects\zstack\ZNP\CC253x\..\..\..\..\Components\hal\target\CC2530USB\usb\library\cc2531\"
//        -I "C:\Texas Instruments\Z-Stack Home
//        1.2.2a.44539\Projects\zstack\ZNP\CC253x\..\..\..\..\Components\hal\target\CC2530USB\usb\class_cdc\"
//        -I "C:\Texas Instruments\Z-Stack Home
//        1.2.2a.44539\Projects\zstack\ZNP\CC253x\..\..\..\..\Components\mac\include\"
//        -I "C:\Texas Instruments\Z-Stack Home
//        1.2.2a.44539\Projects\zstack\ZNP\CC253x\..\..\..\..\Components\mac\high_level\"
//        -I "C:\Texas Instruments\Z-Stack Home
//        1.2.2a.44539\Projects\zstack\ZNP\CC253x\..\..\..\..\Components\mac\low_level\srf04\"
//        -I "C:\Texas Instruments\Z-Stack Home
//        1.2.2a.44539\Projects\zstack\ZNP\CC253x\..\..\..\..\Components\mac\low_level\srf04\single_chip\"
//        -I "C:\Texas Instruments\Z-Stack Home
//        1.2.2a.44539\Projects\zstack\ZNP\CC253x\..\..\..\..\Components\mt\"
//        -I "C:\Texas Instruments\Z-Stack Home
//        1.2.2a.44539\Projects\zstack\ZNP\CC253x\..\..\..\..\Components\osal\include\"
//        -I "C:\Texas Instruments\Z-Stack Home
//        1.2.2a.44539\Projects\zstack\ZNP\CC253x\..\..\..\..\Components\services\ecc\binary163\"
//        -I "C:\Texas Instruments\Z-Stack Home
//        1.2.2a.44539\Projects\zstack\ZNP\CC253x\..\..\..\..\Components\services\ecc\binary283\"
//        -I "C:\Texas Instruments\Z-Stack Home
//        1.2.2a.44539\Projects\zstack\ZNP\CC253x\..\..\..\..\Components\services\saddr\"
//        -I "C:\Texas Instruments\Z-Stack Home
//        1.2.2a.44539\Projects\zstack\ZNP\CC253x\..\..\..\..\Components\services\sdata\"
//        -I "C:\Texas Instruments\Z-Stack Home
//        1.2.2a.44539\Projects\zstack\ZNP\CC253x\..\..\..\..\Components\stack\af\"
//        -I "C:\Texas Instruments\Z-Stack Home
//        1.2.2a.44539\Projects\zstack\ZNP\CC253x\..\..\..\..\Components\stack\nwk\"
//        -I "C:\Texas Instruments\Z-Stack Home
//        1.2.2a.44539\Projects\zstack\ZNP\CC253x\..\..\..\..\Components\stack\sapi\"
//        -I "C:\Texas Instruments\Z-Stack Home
//        1.2.2a.44539\Projects\zstack\ZNP\CC253x\..\..\..\..\Components\stack\sec\"
//        -I "C:\Texas Instruments\Z-Stack Home
//        1.2.2a.44539\Projects\zstack\ZNP\CC253x\..\..\..\..\Components\stack\sys\"
//        -I "C:\Texas Instruments\Z-Stack Home
//        1.2.2a.44539\Projects\zstack\ZNP\CC253x\..\..\..\..\Components\stack\zcl\"
//        -I "C:\Texas Instruments\Z-Stack Home
//        1.2.2a.44539\Projects\zstack\ZNP\CC253x\..\..\..\..\Components\stack\zdo\"
//        -I "C:\Texas Instruments\Z-Stack Home
//        1.2.2a.44539\Projects\zstack\ZNP\CC253x\..\..\..\..\Components\zmac\"
//        -I "C:\Texas Instruments\Z-Stack Home
//        1.2.2a.44539\Projects\zstack\ZNP\CC253x\..\..\..\..\Components\zmac\f8w\"
//        -Ohz --require_prototypes --no_code_motion)
//    Locale             =  German_Germany.1252
//    List file          =  
//        C:\Texas Instruments\Z-Stack Home
//        1.2.2a.44539\Projects\zstack\ZNP\CC253x\CC2531-Debug\List\MT_APP.s51
//
///////////////////////////////////////////////////////////////////////////////

        NAME MT_APP

        RTMODEL "__SystemLibrary", "CLib"
        RTMODEL "__calling_convention", "xdata_reentrant"
        RTMODEL "__code_model", "banked"
        RTMODEL "__core", "plain"
        RTMODEL "__data_model", "large"
        RTMODEL "__dptr_size", "16"
        RTMODEL "__extended_stack", "disabled"
        RTMODEL "__location_for_constants", "data"
        RTMODEL "__number_of_dptrs", "1"
        RTMODEL "__register_banks", "*"
        RTMODEL "__rt_version", "1"

        RSEG DOVERLAY:DATA:NOROOT(0)
        RSEG IOVERLAY:IDATA:NOROOT(0)
        RSEG ISTACK:IDATA:NOROOT(0)
        RSEG PSTACK:XDATA:NOROOT(0)
        RSEG XSTACK:XDATA:NOROOT(0)

        EXTERN ?V0
        EXTERN ?V1
        EXTERN ?V2
        EXTERN ?V3
        EXTERN ?V4
        EXTERN ?V5
        EXTERN ?V6
        EXTERN ?V8
        EXTERN ?V9
        EXTERN ?V10
        EXTERN ?ALLOC_XSTACK8
        EXTERN ?BANKED_ENTER_XDATA
        EXTERN ?BANKED_LEAVE_XDATA
        EXTERN ?BDISPATCH
        EXTERN ?DEALLOC_XSTACK8
        EXTERN ?PUSH_XSTACK_I_THREE
        EXTERN ?XSP

        PUBLIC `??MT_AppCommandProcessing::?relay`
        FUNCTION `??MT_AppCommandProcessing::?relay`,0203H
        FUNCTION `??MT_AppMsg::?relay`,0203H
        PUBLIC `??MT_AppPB_ZCLInd::?relay`
        FUNCTION `??MT_AppPB_ZCLInd::?relay`,0203H
        PUBLIC MT_AppCommandProcessing
        FUNCTION MT_AppCommandProcessing,021203H
        ARGFRAME XSTACK, 0, STACK
        LOCFRAME XSTACK, 10, STACK
        FUNCTION MT_AppMsg,0a1203H
        ARGFRAME XSTACK, 10, STACK
        ARGFRAME IOVERLAY, 0, STATIC
        ARGFRAME DOVERLAY, 0, STATIC
        LOCFRAME ISTACK, 1, STACK
        LOCFRAME XSTACK, 23, STACK
        PUBLIC MT_AppPB_ZCLInd
        FUNCTION MT_AppPB_ZCLInd,0a1203H
        ARGFRAME XSTACK, 0, STACK
        LOCFRAME ISTACK, 1, STACK
        LOCFRAME XSTACK, 18, STACK
        
          CFI Names cfiNames0
          CFI StackFrame CFA_SP SP IDATA
          CFI StackFrame CFA_PSP16 PSP16 XDATA
          CFI StackFrame CFA_XSP16 XSP16 XDATA
          CFI StaticOverlayFrame CFA_IOVERLAY IOVERLAY
          CFI StaticOverlayFrame CFA_DOVERLAY DOVERLAY
          CFI Resource `PSW.CY`:1, `B.BR0`:1, `B.BR1`:1, `B.BR2`:1, `B.BR3`:1
          CFI Resource `B.BR4`:1, `B.BR5`:1, `B.BR6`:1, `B.BR7`:1, `VB.BR8`:1
          CFI Resource `VB.BR9`:1, `VB.BR10`:1, `VB.BR11`:1, `VB.BR12`:1
          CFI Resource `VB.BR13`:1, `VB.BR14`:1, `VB.BR15`:1, VB:8, B:8, A:8
          CFI Resource PSW:8, DPL0:8, DPH0:8, R0:8, R1:8, R2:8, R3:8, R4:8, R5:8
          CFI Resource R6:8, R7:8, V0:8, V1:8, V2:8, V3:8, V4:8, V5:8, V6:8, V7:8
          CFI Resource V8:8, V9:8, V10:8, V11:8, V12:8, V13:8, V14:8, V15:8, SP:8
          CFI Resource PSPH:8, PSPL:8, PSP16:16, XSPH:8, XSPL:8, XSP16:16
          CFI VirtualResource ?RET:24
          CFI Resource ?BRET_EXT:8
          CFI VirtualResource ?RET_HIGH:8, ?RET_LOW:8
          CFI ResourceParts PSP16 PSPH, PSPL
          CFI ResourceParts XSP16 XSPH, XSPL
          CFI ResourceParts ?RET ?BRET_EXT, ?RET_HIGH, ?RET_LOW
          CFI EndNames cfiNames0
        
          CFI Common cfiCommon0 Using cfiNames0
          CFI CodeAlign 1
          CFI DataAlign -1
          CFI ReturnAddress ?RET CODE
          CFI CFA_DOVERLAY Used
          CFI CFA_IOVERLAY Used
          CFI CFA_SP SP+-3
          CFI CFA_PSP16 PSP16+0
          CFI CFA_XSP16 XSP16+0
          CFI `PSW.CY` SameValue
          CFI `B.BR0` SameValue
          CFI `B.BR1` SameValue
          CFI `B.BR2` SameValue
          CFI `B.BR3` SameValue
          CFI `B.BR4` SameValue
          CFI `B.BR5` SameValue
          CFI `B.BR6` SameValue
          CFI `B.BR7` SameValue
          CFI `VB.BR8` SameValue
          CFI `VB.BR9` SameValue
          CFI `VB.BR10` SameValue
          CFI `VB.BR11` SameValue
          CFI `VB.BR12` SameValue
          CFI `VB.BR13` SameValue
          CFI `VB.BR14` SameValue
          CFI `VB.BR15` SameValue
          CFI VB SameValue
          CFI B Undefined
          CFI A Undefined
          CFI PSW SameValue
          CFI DPL0 SameValue
          CFI DPH0 SameValue
          CFI R0 Undefined
          CFI R1 Undefined
          CFI R2 Undefined
          CFI R3 Undefined
          CFI R4 Undefined
          CFI R5 Undefined
          CFI R6 SameValue
          CFI R7 SameValue
          CFI V0 SameValue
          CFI V1 SameValue
          CFI V2 SameValue
          CFI V3 SameValue
          CFI V4 SameValue
          CFI V5 SameValue
          CFI V6 SameValue
          CFI V7 SameValue
          CFI V8 SameValue
          CFI V9 SameValue
          CFI V10 SameValue
          CFI V11 SameValue
          CFI V12 SameValue
          CFI V13 SameValue
          CFI V14 SameValue
          CFI V15 SameValue
          CFI PSPH Undefined
          CFI PSPL Undefined
          CFI XSPH Undefined
          CFI XSPL Undefined
          CFI ?RET Concat
          CFI ?BRET_EXT Frame(CFA_SP, 3)
          CFI ?RET_HIGH Frame(CFA_SP, 2)
          CFI ?RET_LOW Frame(CFA_SP, 1)
          CFI EndCommon cfiCommon0
        
        
          CFI Common cfiCommon1 Using cfiNames0
          CFI CodeAlign 1
          CFI DataAlign -1
          CFI ReturnAddress ?RET CODE
          CFI CFA_DOVERLAY Used
          CFI CFA_IOVERLAY Used
          CFI CFA_SP SP+-2
          CFI CFA_PSP16 PSP16+0
          CFI CFA_XSP16 XSP16+0
          CFI `PSW.CY` SameValue
          CFI `B.BR0` SameValue
          CFI `B.BR1` SameValue
          CFI `B.BR2` SameValue
          CFI `B.BR3` SameValue
          CFI `B.BR4` SameValue
          CFI `B.BR5` SameValue
          CFI `B.BR6` SameValue
          CFI `B.BR7` SameValue
          CFI `VB.BR8` SameValue
          CFI `VB.BR9` SameValue
          CFI `VB.BR10` SameValue
          CFI `VB.BR11` SameValue
          CFI `VB.BR12` SameValue
          CFI `VB.BR13` SameValue
          CFI `VB.BR14` SameValue
          CFI `VB.BR15` SameValue
          CFI VB SameValue
          CFI B SameValue
          CFI A SameValue
          CFI PSW SameValue
          CFI DPL0 SameValue
          CFI DPH0 SameValue
          CFI R0 SameValue
          CFI R1 SameValue
          CFI R2 SameValue
          CFI R3 SameValue
          CFI R4 SameValue
          CFI R5 SameValue
          CFI R6 SameValue
          CFI R7 SameValue
          CFI V0 SameValue
          CFI V1 SameValue
          CFI V2 SameValue
          CFI V3 SameValue
          CFI V4 SameValue
          CFI V5 SameValue
          CFI V6 SameValue
          CFI V7 SameValue
          CFI V8 SameValue
          CFI V9 SameValue
          CFI V10 SameValue
          CFI V11 SameValue
          CFI V12 SameValue
          CFI V13 SameValue
          CFI V14 SameValue
          CFI V15 SameValue
          CFI PSPH Undefined
          CFI PSPL Undefined
          CFI XSPH Undefined
          CFI XSPL Undefined
          CFI ?RET Concat
          CFI ?BRET_EXT SameValue
          CFI ?RET_HIGH Frame(CFA_SP, 2)
          CFI ?RET_LOW Frame(CFA_SP, 1)
          CFI EndCommon cfiCommon1
        
MT_BuildAndSendZToolResponse SYMBOL "MT_BuildAndSendZToolResponse"
`??MT_BuildAndSendZToolResponse::?relay` SYMBOL "?relay", MT_BuildAndSendZToolResponse
afFindEndPointDesc  SYMBOL "afFindEndPointDesc"
`??afFindEndPointDesc::?relay` SYMBOL "?relay", afFindEndPointDesc
osal_mem_alloc      SYMBOL "osal_mem_alloc"
`??osal_mem_alloc::?relay` SYMBOL "?relay", osal_mem_alloc
osal_mem_free       SYMBOL "osal_mem_free"
`??osal_mem_free::?relay` SYMBOL "?relay", osal_mem_free
osal_memcpy         SYMBOL "osal_memcpy"
`??osal_memcpy::?relay` SYMBOL "?relay", osal_memcpy
osal_msg_allocate   SYMBOL "osal_msg_allocate"
`??osal_msg_allocate::?relay` SYMBOL "?relay", osal_msg_allocate
osal_msg_send       SYMBOL "osal_msg_send"
`??osal_msg_send::?relay` SYMBOL "?relay", osal_msg_send
MT_AppCommandProcessing SYMBOL "MT_AppCommandProcessing"
`??MT_AppCommandProcessing::?relay` SYMBOL "?relay", MT_AppCommandProcessing
MT_AppPB_ZCLInd     SYMBOL "MT_AppPB_ZCLInd"
`??MT_AppPB_ZCLInd::?relay` SYMBOL "?relay", MT_AppPB_ZCLInd

        EXTERN `??MT_BuildAndSendZToolResponse::?relay`
        FUNCTION `??MT_BuildAndSendZToolResponse::?relay`,00H
        EXTERN `??afFindEndPointDesc::?relay`
        FUNCTION `??afFindEndPointDesc::?relay`,00H
        EXTERN `??osal_mem_alloc::?relay`
        FUNCTION `??osal_mem_alloc::?relay`,00H
        EXTERN `??osal_mem_free::?relay`
        FUNCTION `??osal_mem_free::?relay`,00H
        EXTERN `??osal_memcpy::?relay`
        FUNCTION `??osal_memcpy::?relay`,00H
        EXTERN `??osal_msg_allocate::?relay`
        FUNCTION `??osal_msg_allocate::?relay`,00H
        EXTERN `??osal_msg_send::?relay`
        FUNCTION `??osal_msg_send::?relay`,00H
        EXTERN MT_BuildAndSendZToolResponse
        FUNCTION MT_BuildAndSendZToolResponse,0202H
        ARGFRAME ISTACK, 0, STACK
        ARGFRAME PSTACK, 0, STACK
        ARGFRAME XSTACK, 20, STACK
        ARGFRAME IOVERLAY, 0, STATIC
        ARGFRAME DOVERLAY, 0, STATIC
        EXTERN afFindEndPointDesc
        FUNCTION afFindEndPointDesc,0202H
        ARGFRAME ISTACK, 0, STACK
        ARGFRAME PSTACK, 0, STACK
        ARGFRAME XSTACK, 20, STACK
        ARGFRAME IOVERLAY, 0, STATIC
        ARGFRAME DOVERLAY, 0, STATIC
        EXTERN osal_mem_alloc
        FUNCTION osal_mem_alloc,0202H
        ARGFRAME ISTACK, 0, STACK
        ARGFRAME PSTACK, 0, STACK
        ARGFRAME XSTACK, 15, STACK
        ARGFRAME IOVERLAY, 0, STATIC
        ARGFRAME DOVERLAY, 0, STATIC
        EXTERN osal_mem_free
        FUNCTION osal_mem_free,0202H
        ARGFRAME ISTACK, 0, STACK
        ARGFRAME PSTACK, 0, STACK
        ARGFRAME XSTACK, 15, STACK
        ARGFRAME IOVERLAY, 0, STATIC
        ARGFRAME DOVERLAY, 0, STATIC
        EXTERN osal_memcpy
        FUNCTION osal_memcpy,0202H
        ARGFRAME ISTACK, 0, STACK
        ARGFRAME PSTACK, 0, STACK
        ARGFRAME XSTACK, 23, STACK
        ARGFRAME IOVERLAY, 0, STATIC
        ARGFRAME DOVERLAY, 0, STATIC
        EXTERN osal_msg_allocate
        FUNCTION osal_msg_allocate,0202H
        ARGFRAME ISTACK, 0, STACK
        ARGFRAME PSTACK, 0, STACK
        ARGFRAME XSTACK, 20, STACK
        ARGFRAME IOVERLAY, 0, STATIC
        ARGFRAME DOVERLAY, 0, STATIC
        EXTERN osal_msg_send
        FUNCTION osal_msg_send,0202H
        ARGFRAME ISTACK, 0, STACK
        ARGFRAME PSTACK, 0, STACK
        ARGFRAME XSTACK, 20, STACK
        ARGFRAME IOVERLAY, 0, STATIC
        ARGFRAME DOVERLAY, 0, STATIC

// C:\Texas Instruments\Z-Stack Home 1.2.2a.44539\Components\mt\MT_APP.c
//    1 /***************************************************************************************************
//    2   Filename:       MT_APP.c
//    3   Revised:        $Date: 2015-01-26 08:25:50 -0800 (Mon, 26 Jan 2015) $
//    4   Revision:       $Revision: 42025 $
//    5 
//    6   Description:    MonitorTest processing for APP commands
//    7 
//    8   Copyright 2007-2015 Texas Instruments Incorporated. All rights reserved.
//    9 
//   10   IMPORTANT: Your use of this Software is limited to those specific rights
//   11   granted under the terms of a software license agreement between the user
//   12   who downloaded the software, his/her employer (which must be your employer)
//   13   and Texas Instruments Incorporated (the "License"). You may not use this
//   14   Software unless you agree to abide by the terms of the License. The License
//   15   limits your use, and you acknowledge, that the Software may not be modified,
//   16   copied or distributed unless embedded on a Texas Instruments microcontroller
//   17   or used solely and exclusively in conjunction with a Texas Instruments radio
//   18   frequency transceiver, which is integrated into your product. Other than for
//   19   the foregoing purpose, you may not use, reproduce, copy, prepare derivative
//   20   works of, modify, distribute, perform, display or sell this Software and/or
//   21   its documentation for any purpose.
//   22 
//   23   YOU FURTHER ACKNOWLEDGE AND AGREE THAT THE SOFTWARE AND DOCUMENTATION ARE
//   24   PROVIDED “AS IS” WITHOUT WARRANTY OF ANY KIND, EITHER EXPRESS OR IMPLIED,
//   25   INCLUDING WITHOUT LIMITATION, ANY WARRANTY OF MERCHANTABILITY, TITLE,
//   26   NON-INFRINGEMENT AND FITNESS FOR A PARTICULAR PURPOSE. IN NO EVENT SHALL
//   27   TEXAS INSTRUMENTS OR ITS LICENSORS BE LIABLE OR OBLIGATED UNDER CONTRACT,
//   28   NEGLIGENCE, STRICT LIABILITY, CONTRIBUTION, BREACH OF WARRANTY, OR OTHER
//   29   LEGAL EQUITABLE THEORY ANY DIRECT OR INDIRECT DAMAGES OR EXPENSES
//   30   INCLUDING BUT NOT LIMITED TO ANY INCIDENTAL, SPECIAL, INDIRECT, PUNITIVE
//   31   OR CONSEQUENTIAL DAMAGES, LOST PROFITS OR LOST DATA, COST OF PROCUREMENT
//   32   OF SUBSTITUTE GOODS, TECHNOLOGY, SERVICES, OR ANY CLAIMS BY THIRD PARTIES
//   33   (INCLUDING BUT NOT LIMITED TO ANY DEFENSE THEREOF), OR OTHER SIMILAR COSTS.
//   34 
//   35   Should you have any questions regarding your right to use this Software,
//   36   contact Texas Instruments Incorporated at www.TI.com.
//   37 
//   38  ***************************************************************************************************/
//   39 
//   40 /***************************************************************************************************
//   41  * INCLUDES
//   42  ***************************************************************************************************/
//   43 #include "ZComDef.h"
//   44 #include "MT.h"        /* This is here because all the SPI_CMD_XXX are defined in this header */
//   45 #include "MT_APP.h"
//   46 #include "MT_AF.h"     /* This is here because this MT_APP makes some routine call to AF */
//   47 #include "MT_RPC.h"
//   48 
//   49 #if defined( APP_TP )
//   50  #include "TestProfile.h"
//   51 #endif
//   52 #if defined( APP_TP2 )
//   53  #include "TestProfile2.h"
//   54  #include "nwk_util.h"
//   55 #endif
//   56 
//   57 /***************************************************************************************************
//   58  * LOCAL FUNCTIONS
//   59  ***************************************************************************************************/
//   60 #if defined (MT_APP_FUNC)
//   61 static void MT_AppMsg(uint8 *pBuf);
//   62 static void MT_AppUserCmd(byte *pData);
//   63 #if defined ( MT_APP_PB_ZCL_FUNC )
//   64 static void MT_AppPB_ZCLMsg(byte *pData);
//   65 static void MT_AppPB_ZCLCfg(byte *pData);
//   66 #endif // MT_APP_PB_ZCL_FUNC
//   67 #endif // MT_APP_FUNC
//   68 
//   69 #if defined (MT_APP_FUNC)
//   70 /***************************************************************************************************
//   71  * @fn      MT_AppCommandProcessing
//   72  *
//   73  * @brief  Process all the APP commands that are issued by test tool
//   74  *
//   75  * @param   pBuf - pointer to the received buffer
//   76  *
//   77  * @return  status
//   78  ***************************************************************************************************/

        RSEG BANKED_CODE:HUGECODE:NOROOT(0)
//   79 uint8 MT_AppCommandProcessing(uint8 *pBuf)
MT_AppCommandProcessing:
          CFI Block cfiBlock0 Using cfiCommon0
          CFI Function MT_AppCommandProcessing
        CODE
//   80 {
        FUNCALL MT_AppCommandProcessing, MT_AppMsg
        LOCFRAME ISTACK, 0, STACK
        LOCFRAME PSTACK, 0, STACK
        LOCFRAME XSTACK, 10, STACK
        LOCFRAME IOVERLAY, 0, STATIC
        LOCFRAME DOVERLAY, 0, STATIC
        ARGFRAME ISTACK, 0, STACK
        ARGFRAME PSTACK, 0, STACK
        ARGFRAME XSTACK, 10, STACK
        ARGFRAME IOVERLAY, 0, STATIC
        ARGFRAME DOVERLAY, 0, STATIC
        FUNCALL MT_AppCommandProcessing, MT_BuildAndSendZToolResponse
        LOCFRAME ISTACK, 0, STACK
        LOCFRAME PSTACK, 0, STACK
        LOCFRAME XSTACK, 10, STACK
        LOCFRAME IOVERLAY, 0, STATIC
        LOCFRAME DOVERLAY, 0, STATIC
        ARGFRAME ISTACK, 0, STACK
        ARGFRAME PSTACK, 0, STACK
        ARGFRAME XSTACK, 10, STACK
        ARGFRAME IOVERLAY, 0, STATIC
        ARGFRAME DOVERLAY, 0, STATIC
        MOV       A,#-0x9
        LCALL     ?BANKED_ENTER_XDATA
          CFI DPH0 load(1, XDATA, add(CFA_XSP16, literal(-1)))
          CFI DPL0 load(1, XDATA, add(CFA_XSP16, literal(-2)))
          CFI ?BRET_EXT load(1, XDATA, add(CFA_XSP16, literal(-3)))
          CFI ?RET_HIGH load(1, XDATA, add(CFA_XSP16, literal(-4)))
          CFI ?RET_LOW load(1, XDATA, add(CFA_XSP16, literal(-5)))
          CFI R7 load(1, XDATA, add(CFA_XSP16, literal(-6)))
          CFI V0 load(1, XDATA, add(CFA_XSP16, literal(-7)))
          CFI VB load(1, XDATA, add(CFA_XSP16, literal(-8)))
          CFI R6 load(1, XDATA, add(CFA_XSP16, literal(-9)))
          CFI CFA_SP SP+0
          CFI CFA_XSP16 add(XSP16, 9)
        ; Saved register size: 9
        ; Auto size: 1
        MOV       A,#-0x1
        LCALL     ?ALLOC_XSTACK8
          CFI CFA_XSP16 add(XSP16, 10)
//   81   uint8 status = MT_RPC_SUCCESS;
        MOV       R6,#0x0
//   82 
//   83   switch (pBuf[MT_RPC_POS_CMD1])
        MOV       DPL,R2
        MOV       DPH,R3
        INC       DPTR
        INC       DPTR
        MOVX      A,@DPTR
        JZ        ??MT_AppCommandProcessing_0
        DEC       A
        JZ        ??MT_AppCommandProcessing_1
        SJMP      ??MT_AppCommandProcessing_2
//   84   {
//   85     case MT_APP_MSG:
//   86       MT_AppMsg(pBuf);
??MT_AppCommandProcessing_0:
        ; Setup parameters for call to function MT_AppMsg
        LCALL     `??MT_AppMsg::?relay`; Banked call to: MT_AppMsg
//   87       break;
        SJMP      ??MT_AppCommandProcessing_3
//   88 
//   89     case MT_APP_USER_TEST:
//   90       MT_AppUserCmd(pBuf);
??MT_AppCommandProcessing_1:
        MOV       DPL,R2
        MOV       DPH,R3
        INC       DPTR
        INC       DPTR
        MOVX      A,@DPTR
        MOV       R2,A
        MOV       DPL,?XSP + 0
        MOV       DPH,?XSP + 1
        MOV       A,#0x3
        MOVX      @DPTR,A
        ; Setup parameters for call to function MT_BuildAndSendZToolResponse
        MOV       R4,?XSP + 0
        MOV       R5,?XSP + 1
        MOV       R3,#0x1
        MOV       R1,#0x69
        LCALL     `??MT_BuildAndSendZToolResponse::?relay`; Banked call to: MT_BuildAndSendZToolResponse
//   91       break;
        SJMP      ??MT_AppCommandProcessing_3
//   92 
//   93 #if defined ( MT_APP_PB_ZCL_FUNC )
//   94     case MT_APP_PB_ZCL_MSG:
//   95       MT_AppPB_ZCLMsg(pBuf);
//   96       break;
//   97 
//   98     case MT_APP_PB_ZCL_CFG:
//   99       MT_AppPB_ZCLCfg(pBuf);
//  100       break;
//  101 #endif // MT_APP_PB_ZCL_FUNC
//  102 
//  103     default:
//  104       status = MT_RPC_ERR_COMMAND_ID;
??MT_AppCommandProcessing_2:
        MOV       R6,#0x2
//  105       break;
//  106   }
//  107 
//  108   return status;
??MT_AppCommandProcessing_3:
        MOV       A,R6
        MOV       R1,A
        MOV       A,#0x1
        LCALL     ?DEALLOC_XSTACK8
          CFI CFA_XSP16 add(XSP16, 9)
        MOV       R7,#0x1
        LJMP      ?BANKED_LEAVE_XDATA
//  109 }
          CFI EndBlock cfiBlock0
//  110 
//  111 /***************************************************************************************************
//  112  * @fn      MT_AppMsg
//  113  *
//  114  * @brief   Process APP_MSG command
//  115  *
//  116  * @param   pBuf - pointer to the received buffer
//  117  *
//  118  * @return  void
//  119  ***************************************************************************************************/

        RSEG BANKED_CODE:HUGECODE:NOROOT(0)
//  120 static void MT_AppMsg(uint8 *pBuf)
MT_AppMsg:
          CFI Block cfiBlock1 Using cfiCommon0
          CFI Function MT_AppMsg
        CODE
//  121 {
        FUNCALL MT_AppMsg, afFindEndPointDesc
        LOCFRAME ISTACK, 0, STACK
        LOCFRAME PSTACK, 0, STACK
        LOCFRAME XSTACK, 20, STACK
        LOCFRAME IOVERLAY, 0, STATIC
        LOCFRAME DOVERLAY, 0, STATIC
        ARGFRAME ISTACK, 0, STACK
        ARGFRAME PSTACK, 0, STACK
        ARGFRAME XSTACK, 20, STACK
        ARGFRAME IOVERLAY, 0, STATIC
        ARGFRAME DOVERLAY, 0, STATIC
        FUNCALL MT_AppMsg, osal_msg_allocate
        LOCFRAME ISTACK, 0, STACK
        LOCFRAME PSTACK, 0, STACK
        LOCFRAME XSTACK, 20, STACK
        LOCFRAME IOVERLAY, 0, STATIC
        LOCFRAME DOVERLAY, 0, STATIC
        ARGFRAME ISTACK, 0, STACK
        ARGFRAME PSTACK, 0, STACK
        ARGFRAME XSTACK, 20, STACK
        ARGFRAME IOVERLAY, 0, STATIC
        ARGFRAME DOVERLAY, 0, STATIC
        FUNCALL MT_AppMsg, osal_memcpy
        LOCFRAME ISTACK, 0, STACK
        LOCFRAME PSTACK, 0, STACK
        LOCFRAME XSTACK, 23, STACK
        LOCFRAME IOVERLAY, 0, STATIC
        LOCFRAME DOVERLAY, 0, STATIC
        ARGFRAME ISTACK, 0, STACK
        ARGFRAME PSTACK, 0, STACK
        ARGFRAME XSTACK, 23, STACK
        ARGFRAME IOVERLAY, 0, STATIC
        ARGFRAME DOVERLAY, 0, STATIC
        FUNCALL MT_AppMsg, osal_msg_send
        LOCFRAME ISTACK, 0, STACK
        LOCFRAME PSTACK, 0, STACK
        LOCFRAME XSTACK, 20, STACK
        LOCFRAME IOVERLAY, 0, STATIC
        LOCFRAME DOVERLAY, 0, STATIC
        ARGFRAME ISTACK, 0, STACK
        ARGFRAME PSTACK, 0, STACK
        ARGFRAME XSTACK, 20, STACK
        ARGFRAME IOVERLAY, 0, STATIC
        ARGFRAME DOVERLAY, 0, STATIC
        FUNCALL MT_AppMsg, MT_BuildAndSendZToolResponse
        LOCFRAME ISTACK, 0, STACK
        LOCFRAME PSTACK, 0, STACK
        LOCFRAME XSTACK, 20, STACK
        LOCFRAME IOVERLAY, 0, STATIC
        LOCFRAME DOVERLAY, 0, STATIC
        ARGFRAME ISTACK, 0, STACK
        ARGFRAME PSTACK, 0, STACK
        ARGFRAME XSTACK, 20, STACK
        ARGFRAME IOVERLAY, 0, STATIC
        ARGFRAME DOVERLAY, 0, STATIC
        REQUIRE ?V0
        REQUIRE ?V1
        REQUIRE ?V2
        REQUIRE ?V3
        REQUIRE ?V4
        REQUIRE ?V5
        REQUIRE ?V6
        REQUIRE ?V8
        REQUIRE ?V9
        REQUIRE ?V10
        MOV       A,#-0x13
        LCALL     ?BANKED_ENTER_XDATA
          CFI DPH0 load(1, XDATA, add(CFA_XSP16, literal(-1)))
          CFI DPL0 load(1, XDATA, add(CFA_XSP16, literal(-2)))
          CFI ?BRET_EXT load(1, XDATA, add(CFA_XSP16, literal(-3)))
          CFI ?RET_HIGH load(1, XDATA, add(CFA_XSP16, literal(-4)))
          CFI ?RET_LOW load(1, XDATA, add(CFA_XSP16, literal(-5)))
          CFI R7 load(1, XDATA, add(CFA_XSP16, literal(-6)))
          CFI V10 load(1, XDATA, add(CFA_XSP16, literal(-7)))
          CFI V9 load(1, XDATA, add(CFA_XSP16, literal(-8)))
          CFI V8 load(1, XDATA, add(CFA_XSP16, literal(-9)))
          CFI V7 load(1, XDATA, add(CFA_XSP16, literal(-10)))
          CFI V6 load(1, XDATA, add(CFA_XSP16, literal(-11)))
          CFI V5 load(1, XDATA, add(CFA_XSP16, literal(-12)))
          CFI V4 load(1, XDATA, add(CFA_XSP16, literal(-13)))
          CFI V3 load(1, XDATA, add(CFA_XSP16, literal(-14)))
          CFI V2 load(1, XDATA, add(CFA_XSP16, literal(-15)))
          CFI V1 load(1, XDATA, add(CFA_XSP16, literal(-16)))
          CFI V0 load(1, XDATA, add(CFA_XSP16, literal(-17)))
          CFI VB load(1, XDATA, add(CFA_XSP16, literal(-18)))
          CFI R6 load(1, XDATA, add(CFA_XSP16, literal(-19)))
          CFI CFA_SP SP+0
          CFI CFA_XSP16 add(XSP16, 19)
        ; Saved register size: 19
        ; Auto size: 1
        MOV       A,#-0x1
        LCALL     ?ALLOC_XSTACK8
          CFI CFA_XSP16 add(XSP16, 20)
        MOV       ?V1,R3
//  122   uint8 retValue = ZFailure;
        MOV       DPL,?XSP + 0
        MOV       DPH,?XSP + 1
        MOV       A,#0x1
        MOVX      @DPTR,A
//  123   uint8 endpoint;
//  124   endPointDesc_t *epDesc;
//  125   mtSysAppMsg_t *msg;
//  126   uint8 cmdId, dataLen;
//  127 
//  128   /* parse header */
//  129   dataLen = pBuf[MT_RPC_POS_LEN];
        MOV       DPL,R2
        MOV       DPH,R3
        MOVX      A,@DPTR
        MOV       ?V5,A
//  130   cmdId = pBuf[MT_RPC_POS_CMD1];
        INC       DPTR
        INC       DPTR
        MOVX      A,@DPTR
        MOV       ?V4,A
//  131   pBuf += MT_RPC_FRAME_HDR_SZ;
//  132 
//  133   /* Get the endpoint and skip past it.*/
//  134   endpoint = *pBuf++;
        MOV       DPL,R2
        MOV       DPH,R3
        INC       DPTR
        INC       DPTR
        INC       DPTR
        MOVX      A,@DPTR
        MOV       ?V6,A
        MOV       A,R2
        ADD       A,#0x4
        MOV       ?V0,A
        JNC       ??MT_AppMsg_0
        INC       ?V1
//  135   dataLen--;
??MT_AppMsg_0:
        DEC       ?V5
//  136 
//  137   /* Look up the endpoint */
//  138   epDesc = afFindEndPointDesc( endpoint );
        ; Setup parameters for call to function afFindEndPointDesc
        MOV       R1,?V6
        LCALL     `??afFindEndPointDesc::?relay`; Banked call to: afFindEndPointDesc
        MOV       ?V2,R2
        MOV       ?V3,R3
//  139 
//  140   if (epDesc)
        MOV       A,R2
        ORL       A,?V3
        JZ        ??MT_AppMsg_1
//  141   {
//  142     /* Build and send the message to the APP */
//  143     msg = (mtSysAppMsg_t *)osal_msg_allocate(sizeof(mtSysAppMsg_t) + (dataLen));
        ; Setup parameters for call to function osal_msg_allocate
        MOV       A,?V5
        ADD       A,#0x6
        MOV       R2,A
        CLR       A
        ADDC      A,#0x0
        MOV       R3,A
        LCALL     `??osal_msg_allocate::?relay`; Banked call to: osal_msg_allocate
        MOV       ?V8,R2
        MOV       ?V9,R3
        MOV       R6,?V8
        MOV       R7,?V9
//  144     if ( msg )
        MOV       A,R6
        ORL       A,R7
        JZ        ??MT_AppMsg_1
//  145     {
//  146       /* Build and send message up the app */
//  147       msg->hdr.event = MT_SYS_APP_MSG;
        MOV       DPL,R6
        MOV       DPH,R7
        MOV       A,#0x23
        MOVX      @DPTR,A
//  148       msg->endpoint = endpoint;
        INC       DPTR
        INC       DPTR
        MOV       A,?V6
        MOVX      @DPTR,A
//  149       msg->appDataLen = dataLen;
        MOV       DPL,R6
        MOV       DPH,R7
        INC       DPTR
        INC       DPTR
        INC       DPTR
        MOV       A,?V5
        MOVX      @DPTR,A
//  150       msg->appData = (uint8*)(msg+1);
        MOV       A,R6
        ADD       A,#0x6
        MOV       R2,A
        CLR       A
        ADDC      A,R7
        MOV       R3,A
        MOV       DPL,R6
        MOV       DPH,R7
        INC       DPTR
        INC       DPTR
        INC       DPTR
        INC       DPTR
        MOV       A,R2
        MOVX      @DPTR,A
        INC       DPTR
        MOV       A,R3
        MOVX      @DPTR,A
//  151       osal_memcpy( msg->appData, pBuf, dataLen);
        ; Setup parameters for call to function osal_memcpy
        MOV       ?V8,?V0
        MOV       ?V9,?V1
        MOV       ?V10,#0x0
        MOV       R0,#?V8
        LCALL     ?PUSH_XSTACK_I_THREE
          CFI CFA_XSP16 add(XSP16, 23)
        MOV       R4,?V5
        MOV       R5,#0x0
        LCALL     `??osal_memcpy::?relay`; Banked call to: osal_memcpy
        MOV       A,#0x3
        LCALL     ?DEALLOC_XSTACK8
          CFI CFA_XSP16 add(XSP16, 20)
//  152       osal_msg_send( *(epDesc->task_id), (uint8 *)msg );
        ; Setup parameters for call to function osal_msg_send
        MOV       A,R6
        MOV       R2,A
        MOV       A,R7
        MOV       R3,A
        MOV       DPL,?V2
        MOV       DPH,?V3
        INC       DPTR
        MOVX      A,@DPTR
        MOV       R0,A
        INC       DPTR
        MOVX      A,@DPTR
        MOV       DPH,A
        MOV       DPL,R0
        MOVX      A,@DPTR
        MOV       R1,A
        LCALL     `??osal_msg_send::?relay`; Banked call to: osal_msg_send
//  153 
//  154       /* Info for response */
//  155       retValue = ZSuccess;
        MOV       DPL,?XSP + 0
        MOV       DPH,?XSP + 1
        CLR       A
        MOVX      @DPTR,A
//  156     }
//  157   }
//  158 
//  159   /* Build and send back the response */
//  160   MT_BuildAndSendZToolResponse(((uint8)MT_RPC_CMD_SRSP | (uint8)MT_RPC_SYS_APP), cmdId, 1, &retValue);
??MT_AppMsg_1:
        ; Setup parameters for call to function MT_BuildAndSendZToolResponse
        MOV       R4,?XSP + 0
        MOV       R5,?XSP + 1
        MOV       R3,#0x1
        MOV       R2,?V4
        MOV       R1,#0x69
        LCALL     `??MT_BuildAndSendZToolResponse::?relay`; Banked call to: MT_BuildAndSendZToolResponse
//  161 }
        MOV       A,#0x1
        LCALL     ?DEALLOC_XSTACK8
          CFI CFA_XSP16 add(XSP16, 19)
        MOV       R7,#0xb
        LJMP      ?BANKED_LEAVE_XDATA
          CFI EndBlock cfiBlock1
//  162 
//  163 /***************************************************************************************************
//  164  * @fn      MT_AppMsg
//  165  *
//  166  * @brief   Process APP_MSG command
//  167  *
//  168  * @param   pBuf - pointer to the received buffer
//  169  *
//  170  * @return  void
//  171  ***************************************************************************************************/
//  172 static void MT_AppUserCmd(uint8 *pBuf)
//  173 {
//  174 
//  175   uint8 retValue, cmdId;
//  176 
//  177 #if defined (APP_TGEN) || defined (NWK_TEST) || defined (APP_TP) || defined (APP_TP2) || defined (OSAL_TOTAL_MEM) || defined (APP_DEBUG)
//  178   uint16 app_cmd;
//  179   uint8 srcEp;
//  180   uint16 param1;
//  181   uint16 param2;
//  182 #endif
//  183 #if defined (OSAL_TOTAL_MEM)
//  184   uint8 pData[2];
//  185 #endif
//  186 
//  187   /* parse header */
//  188   cmdId = pBuf[MT_RPC_POS_CMD1];
//  189   pBuf += MT_RPC_FRAME_HDR_SZ;
//  190 
//  191   retValue = INVALID_TASK;     //should be changed later
//  192 
//  193 #if defined (APP_TGEN) || defined (NWK_TEST) || defined (APP_TP) || defined (APP_TP2) || defined (OSAL_TOTAL_MEM) || defined (APP_DEBUG)
//  194 
//  195   srcEp = *pBuf++;
//  196 
//  197   app_cmd = osal_build_uint16( pBuf );
//  198   pBuf = pBuf + sizeof( uint16 );
//  199 
//  200   param1 = osal_build_uint16( pBuf );
//  201   pBuf = pBuf + sizeof( uint16 );
//  202 
//  203   param2 = osal_build_uint16( pBuf );
//  204 
//  205   switch ( app_cmd )
//  206   {
//  207 
//  208 #if defined (APP_TGEN)
//  209     case TGEN_START:
//  210       TrafficGenApp_SendCmdMSG( param1, param2, TRAFFICGENAPP_CMD_START );
//  211       retValue = ZSUCCESS;
//  212       break;
//  213 
//  214     case TGEN_STOP:
//  215       TrafficGenApp_SendCmdMSG( param1, param2, TRAFFICGENAPP_CMD_STOP );
//  216       retValue = ZSUCCESS;
//  217       break;
//  218 
//  219     case TGEN_COUNT:
//  220       retValue = TrafficGenApp_CountPkt( param1, param2 );
//  221       return;
//  222       break;
//  223 #endif
//  224 
//  225 #if defined (NWK_TEST)
//  226     case HW_TEST:
//  227       HwApp_Start( HI_UINT16(param1), LO_UINT16(param1), HI_UINT16(param2),
//  228                     1000, LO_UINT16(param2), 3, 0 );
//  229       break;
//  230 
//  231     case HW_DISPLAY_RESULT:
//  232       HwApp_TestInfo();
//  233       break;
//  234 
//  235     case HW_SEND_STATUS:
//  236       HwApp_SendStats();
//  237       break;
//  238 #endif
//  239 
//  240 #if defined( APP_TP ) || defined ( APP_TP2 )
//  241   #if defined( APP_TP )
//  242     case TP_SEND_NODATA:
//  243       retValue = TestProfileApp_SendNoData( srcEp, (byte)param1 );
//  244       break;
//  245   #endif // APP_TP
//  246 
//  247     case TP_SEND_BUFFERTEST:
//  248       retValue = TestProfileApp_SendBufferReq( srcEp, (uint8)param1, (uint8)param2 );
//  249       break;
//  250 
//  251   #if defined( APP_TP )
//  252     case TP_SEND_UINT8:
//  253       retValue = TestProfileApp_SendUint8( srcEp, (byte)param1 );
//  254       break;
//  255 
//  256     case TP_SEND_INT8:
//  257       retValue = TestProfileApp_SendInt8( srcEp, (byte)param1 );
//  258       break;
//  259 
//  260     case TP_SEND_UINT16:
//  261       retValue = TestProfileApp_SendUint16( srcEp, (byte)param1 );
//  262       break;
//  263 
//  264     case TP_SEND_INT16:
//  265       retValue = TestProfileApp_SendInt16( srcEp, (byte)param1 );
//  266       break;
//  267 
//  268     case TP_SEND_SEMIPREC:
//  269       retValue = TestProfileApp_SendSemiPrec( srcEp, (byte)param1 );
//  270       break;
//  271 
//  272     case TP_SEND_FREEFORM:
//  273       retValue = TestProfileApp_SendFreeFormReq( srcEp, (byte)param1 );
//  274       break;
//  275 
//  276   #else // APP_TP
//  277     case TP_SEND_FREEFORM:
//  278       retValue = TestProfileApp_SendFreeFormReq(srcEp, (byte)param1, (byte)param2);
//  279       break;
//  280   #endif
//  281 
//  282   #if defined( APP_TP )
//  283     case TP_SEND_ABS_TIME:
//  284       retValue = TestProfileApp_SendAbsTime( srcEp, (byte)param1 );
//  285       break;
//  286 
//  287     case TP_SEND_REL_TIME:
//  288       retValue = TestProfileApp_SendRelativeTime( srcEp, (byte)param1 );
//  289       break;
//  290 
//  291     case TP_SEND_CHAR_STRING:
//  292       retValue = TestProfileApp_SendCharString( srcEp, (byte)param1 );
//  293       break;
//  294 
//  295     case TP_SEND_OCTET_STRING:
//  296       retValue = TestProfileApp_SendOctetString( srcEp, (byte)param1 );
//  297       break;
//  298   #endif // APP_TP
//  299 
//  300     case TP_SET_DSTADDRESS:
//  301       retValue = TestProfileApp_SetDestAddress(HI_UINT16(param1), LO_UINT16(param1), param2);
//  302       break;
//  303 
//  304   #if defined( APP_TP2 )
//  305     case TP_SEND_BUFFER_GROUP:
//  306       retValue = TestProfileApp_SendBufferGroup( srcEp, (byte)param1 );
//  307       break;
//  308   #endif // APP_TP
//  309 
//  310     case TP_SEND_BUFFER:
//  311       retValue = TestProfileApp_SendBuffer( srcEp, (byte)param1 );
//  312       break;
//  313 
//  314   #if defined( APP_TP )
//  315     case TP_SEND_MULT_KVP_8BIT:
//  316       TestProfileApp_SendMultiKVP_8bit( srcEp, (byte)param1 );
//  317       retValue = ZSuccess;
//  318       break;
//  319 
//  320     case TP_SEND_MULT_KVP_16BIT:
//  321       TestProfileApp_SendMultiKVP_16bit( srcEp, (byte)param1 );
//  322       retValue = ZSuccess;
//  323       break;
//  324 
//  325     case TP_SEND_MULT_KVP_TIME:
//  326       TestProfileApp_SendMultiKVP_Time( srcEp, (byte)param1 );
//  327       retValue = ZSuccess;
//  328       break;
//  329 
//  330     case TP_SEND_MULT_KVP_STRING:
//  331       TestProfileApp_SendMultiKVP_String( srcEp, (byte)param1 );
//  332       retValue = ZSuccess;
//  333       break;
//  334 
//  335     case TP_SEND_MULTI_KVP_STR_TIME:
//  336       retValue = ZSuccess;
//  337       TestProfileApp_SendMultiKVP_String_Time( srcEp, (byte)param1 );
//  338       break;
//  339   #endif // APP_TP
//  340 
//  341     case TP_SEND_COUNTED_PKTS:
//  342       TestProfileApp_SendCountedPktsReq(HI_UINT16(param1), LO_UINT16(param1), param2);
//  343       retValue = ZSuccess;
//  344       break;
//  345 
//  346     case TP_SEND_RESET_COUNTER:
//  347       TestProfileApp_CountedPakts_ResetCounterReq( (byte)param1 );
//  348       retValue = ZSuccess;
//  349       break;
//  350 
//  351     case TP_SEND_GET_COUNTER:
//  352       TestProfileApp_CountedPakts_GetCounterReq( srcEp, (byte)param1 );
//  353       retValue = ZSuccess;
//  354       break;
//  355 
//  356     case TP_SET_PERMIT_JOIN:
//  357       if ( ZG_BUILD_RTR_TYPE && ZG_DEVICE_RTR_TYPE )
//  358       {
//  359         NLME_PermitJoiningRequest( (byte)param1 );
//  360         retValue = ZSuccess;
//  361       }
//  362       else
//  363       {
//  364         retValue = ZFailure;
//  365       }
//  366       break;
//  367 
//  368   #if defined ( APP_TP2 )
//  369     case TP_ADD_GROUP:
//  370       retValue = TestProfileApp_SetGroup( srcEp, param1 );
//  371       break;
//  372 
//  373     case TP_REMOVE_GROUP:
//  374       retValue = TestProfileApp_RemoveGroup( srcEp, param1 );
//  375       break;
//  376 
//  377     case TP_SEND_UPDATE_KEY:
//  378       retValue = TestProfileApp_UpdateKey( srcEp, (uint8)param1, param2 );
//  379       break;
//  380 
//  381     case TP_SEND_SWITCH_KEY:
//  382       retValue = TestProfileApp_SwitchKey(  srcEp, (uint8)param1, param2 );
//  383       break;
//  384 
//  385     case TP_SEND_BUFFERTEST_GROUP:
//  386       retValue = TestProfileApp_SendBufferGroupReq( srcEp, (byte)param1, (byte)param2 );
//  387       break;
//  388 
//  389     case TP_SEND_ROUTE_DISC_REQ:
//  390       retValue = TestProfileApp_SendRouteDiscReq( srcEp, param1,
//  391                                   HI_UINT16( param2 ), LO_UINT16( param2 ) );
//  392       break;
//  393 
//  394     case TP_SEND_ROUTE_DISCOVERY:
//  395       if ( ZG_BUILD_RTR_TYPE && ZG_DEVICE_RTR_TYPE )
//  396       {
//  397         retValue = TestProfileApp_SendRouteDiscovery( param1,
//  398                                     HI_UINT16( param2 ), LO_UINT16( param2 ) );
//  399       }
//  400       break;
//  401 
//  402     case TP_SEND_NEW_ADDR:
//  403       retValue = TestProfileApp_ChangeShortAddr( param1, LO_UINT16(param2) );
//  404       break;
//  405 
//  406     case TP_SEND_NWK_UPDATE:
//  407       /* Send out a Network Update command. */
//  408       retValue = NLME_SendNetworkUpdate( NWK_BROADCAST_SHORTADDR, NWKUPDATE_PANID_UPDATE,
//  409                                         _NIB.extendedPANID, _NIB.nwkUpdateId+1, param1 );
//  410       break;
//  411 
//  412     case TP_NWK_ADDR_CONFLICT:
//  413       retValue = NLME_SendNetworkStatus( NWK_BROADCAST_SHORTADDR_DEVZCZR, param1,
//  414                                          NWKSTAT_ADDRESS_CONFLICT, FALSE );
//  415       break;
//  416 
//  417  #if (ZG_BUILD_JOINING_TYPE)
//  418     case TP_AK_SETUP_PARTNER:
//  419       retValue = TestProfileApp_AppKeySetupPartner( srcEp, param1, param2 );
//  420       break;
//  421 
//  422     case TP_AK_REQ_KEY:
//  423       retValue = TestProfileApp_AppKeyRequest( srcEp, param1, param2 );
//  424       break;
//  425 
//  426     case TP_AK_PARTNER_NWKADDR:
//  427       retValue = TestProfileApp_SetPartnerNwkAddr( srcEp, param1, param2 );
//  428       break;
//  429 
//  430     case TP_AK_PARTNER_EXTADDR7654:
//  431        retValue = TestProfileApp_SetPartnerExtAddr7654( srcEp, param1, param2 );
//  432       break;
//  433 
//  434     case TP_AK_PARTNER_EXTADDR3210:
//  435       retValue = TestProfileApp_SetPartnerExtAddr3210( srcEp, param1, param2 );
//  436       break;
//  437 
//  438     case TP_AK_PARTNER_SET:
//  439       retValue = TestProfileApp_SetPartner( srcEp, param1, param2 );
//  440       break;
//  441 #endif /* ZG_BUILD_JOINING_TYPE */
//  442 
//  443 #if (ZG_BUILD_COORDINATOR_TYPE)
//  444     case TP_AK_TYPE_SET:
//  445       retValue = TestProfileApp_AppKeyTypeSet( srcEp, param1, param2 );
//  446       break;
//  447 #endif /* ZG_BUILD_COORDINATOR_TYPE */
//  448 
//  449 #if defined ( ZIGBEE_FRAGMENTATION )
//  450     case TP_FRAG_SKIP_BLOCK:
//  451       retValue = TestProfileApp_FragSkipBlock( (uint8)param1 );
//  452       break;
//  453 #endif
//  454 
//  455     case TP_APS_REMOVE:
//  456       retValue = TestProfileApp_APSRemove( param1, param2 );
//  457       break;
//  458 
//  459 #if defined ( APP_TP2_TEST_MODE )
//  460     case TP_GU_SET_TX_APS_SEC:
//  461       retValue = TestProfileApp_GuSetTxApsSecurity( LO_UINT16(param1), param2 );
//  462       break;
//  463 
//  464     case TP_GU_SET_RX_APS_SEC:
//  465       retValue = TestProfileApp_GuSetRxApsSecurity( LO_UINT16(param1), param2 );
//  466       break;
//  467 #endif
//  468 
//  469     case TP_SET_LEAVE_REQ_ALLOWED:
//  470       retValue = TestProfileApp_SetLeaveReqAllowed( LO_UINT16(param1) );
//  471       break;
//  472 
//  473   case TP_SEND_REJOIN_REQ_SECURE:
//  474       retValue = TestProfileApp_SendRejoinReqSecurity( param1, param2 );
//  475       break;
//  476 #endif // APP_TP2
//  477 
//  478 #endif  // APP_TP || APP_TP2
//  479 
//  480 #if defined ( OSAL_TOTAL_MEM )
//  481     case OSAL_MEM_STACK_HIGH_WATER:
//  482     case OSAL_MEM_HEAP_HIGH_WATER:
//  483       if ( app_cmd == OSAL_MEM_STACK_HIGH_WATER)
//  484       {
//  485         param1 = osal_stack_used();
//  486       }
//  487       else
//  488       {
//  489         param1 = osal_heap_high_water();
//  490       }
//  491 
//  492       pData[0] = LO_UINT16( param1 );
//  493       pData[1] = HI_UINT16( param1 );
//  494 
//  495       MT_BuildAndSendZToolResponse((MT_RPC_CMD_SRSP | (uint8)MT_RPC_SYS_APP), cmdId, 2, pData);
//  496       return;
//  497 #endif
//  498 
//  499 #if defined ( APP_DEBUG )
//  500     case DEBUG_GET:
//  501       DebugApp_SendQuery( param1 );
//  502       retValue = ZSUCCESS;
//  503       break;
//  504 #endif
//  505 
//  506 #if defined ( APP_TP2 )
//  507     case TP_SEND_BCAST_RSP:
//  508       retValue = TestProfileApp_SendBcastRsp( srcEp, (byte)param1 );
//  509       break;
//  510 #endif
//  511 
//  512     default:
//  513       break;
//  514   }
//  515 #endif // (APP_TGEN) || (NWK_TEST) || (APP_TP) || (APP_TP2) || (OSAL_TOTAL_MEM) || (APP_DEBUG)
//  516 
//  517   /* Build and send back the response */
//  518   MT_BuildAndSendZToolResponse(((uint8)MT_RPC_CMD_SRSP | (uint8)MT_RPC_SYS_APP), cmdId, 1, &retValue);
//  519 }
//  520 
//  521 #if defined ( MT_APP_PB_ZCL_FUNC )
//  522 /***************************************************************************************************
//  523  * @fn      MT_AppPB_ZCLMsg
//  524  *
//  525  * @brief   Process MT_APP_PB_ZCL_MSG command
//  526  *
//  527  * @param   pBuf - pointer to the received buffer
//  528  *
//  529  * @return  void
//  530  ***************************************************************************************************/
//  531 static void MT_AppPB_ZCLMsg( uint8 *pBuf )
//  532 {
//  533   uint8 retValue = ZFailure;
//  534   uint8 appEP;
//  535   endPointDesc_t *epDesc;
//  536   mtAppPB_ZCLMsg_t *cmd;
//  537   uint8 cmdId;
//  538   uint8 dataLen;
//  539 
//  540   /* Parse the RPC header */
//  541   dataLen = pBuf[MT_RPC_POS_LEN] - MT_APP_PB_ZCL_MSG_HDR_LEN;
//  542   cmdId = pBuf[MT_RPC_POS_CMD1];
//  543   pBuf += MT_RPC_FRAME_HDR_SZ;
//  544 
//  545   /* Application End Point */
//  546   appEP = *pBuf++;
//  547 
//  548   /* Look up the endpoint */
//  549   epDesc = afFindEndPointDesc( appEP );
//  550 
//  551   if ( epDesc )
//  552   {
//  553     /* Build and send the message to the APP */
//  554     cmd = (mtAppPB_ZCLMsg_t *)osal_msg_allocate( sizeof( mtAppPB_ZCLMsg_t ) + dataLen );
//  555     if ( cmd )
//  556     {
//  557       /* Build and send message to the app */
//  558       cmd->hdr.event = MT_SYS_APP_PB_ZCL_CMD;
//  559 
//  560       /* PB ZCL command type */
//  561       cmd->type = MT_APP_PB_ZCL_CMD_MSG;
//  562 
//  563       /* Application End Point */
//  564       cmd->appEP = appEP;
//  565 
//  566       /* Destination Address */
//  567       cmd->dstAddr.addr.shortAddr = osal_build_uint16( pBuf );
//  568       pBuf += sizeof(uint16);
//  569 
//  570       /* Destination Address Mode */
//  571       cmd->dstAddr.addrMode = afAddr16Bit;
//  572 
//  573       /* Destination End Point */
//  574       cmd->dstAddr.endPoint = *pBuf++;;
//  575 
//  576       /* Use Default PAN ID */
//  577       cmd->dstAddr.panId = 0xFFFF;
//  578 
//  579       /* Cluster ID */
//  580       cmd->clusterID = osal_build_uint16( pBuf );
//  581       pBuf += sizeof( uint16 );
//  582 
//  583       /* Command ID */
//  584       cmd->commandID = *pBuf++;
//  585 
//  586       /* Cluster Specific Command */
//  587       cmd->specific = *pBuf++;
//  588 
//  589       /* Command Direction */
//  590       cmd->direction = *pBuf++;
//  591 
//  592       /* Disable Default Response */
//  593       cmd->disableDefRsp = *pBuf++;
//  594 
//  595       /* Manufacturer Code */
//  596       cmd->manuCode = osal_build_uint16( pBuf );
//  597       pBuf += sizeof( uint16 );
//  598 
//  599       /* ZCL Transaction Sequence Number */
//  600       cmd->transSeqNum  = *pBuf++;
//  601 
//  602       /* Application Data Length */
//  603       cmd->appPBDataLen = dataLen;
//  604 
//  605       /* Application Data */
//  606       cmd->appPBData = (uint8 *)( cmd + 1 );
//  607       osal_memcpy( cmd->appPBData, pBuf, dataLen );
//  608 
//  609       /* Send the message */
//  610       osal_msg_send( *(epDesc->task_id), (uint8 *)cmd );
//  611 
//  612       /* Info for response */
//  613       retValue = ZSuccess;
//  614     }
//  615   }
//  616 
//  617   /* Build and send back the response */
//  618   MT_BuildAndSendZToolResponse( ( (uint8)MT_RPC_CMD_SRSP | (uint8)MT_RPC_SYS_APP ),
//  619                                 cmdId, 1, &retValue);
//  620 }
//  621 #endif
//  622 
//  623 #if defined ( MT_APP_PB_ZCL_FUNC )
//  624 /***************************************************************************************************
//  625  * @fn      MT_AppPB_ZCLCfg
//  626  *
//  627  * @brief   Process MT_APP_PB_ZCL_CFG command
//  628  *
//  629  * @param   pBuf - pointer to the received buffer
//  630  *
//  631  * @return  void
//  632  ***************************************************************************************************/
//  633 static void MT_AppPB_ZCLCfg( uint8 *pBuf )
//  634 {
//  635   uint8 retValue = ZFailure;
//  636   uint8 appEP;
//  637   endPointDesc_t *epDesc;
//  638   mtAppPB_ZCLCfg_t *cmd;
//  639   uint8 cmdId;
//  640 
//  641   /* Parse the RPC header */
//  642   cmdId = pBuf[MT_RPC_POS_CMD1];
//  643   pBuf += MT_RPC_FRAME_HDR_SZ;
//  644 
//  645   /* Application End Point */
//  646   appEP = *pBuf++;
//  647 
//  648   /* Look up the endpoint */
//  649   epDesc = afFindEndPointDesc( appEP );
//  650 
//  651   if ( epDesc )
//  652   {
//  653     /* Build and send the message to the APP */
//  654     cmd = (mtAppPB_ZCLCfg_t *)osal_msg_allocate( sizeof( mtAppPB_ZCLCfg_t ) );
//  655 
//  656     if ( cmd )
//  657     {
//  658       /* Build and send message to the app */
//  659       cmd->hdr.event = MT_SYS_APP_PB_ZCL_CMD;
//  660 
//  661       /* PB ZCL command type*/
//  662       cmd->type = MT_APP_PB_ZCL_CMD_CFG;
//  663 
//  664       /* PB ZCL Config Mode */
//  665       cmd->mode = *pBuf++;
//  666 
//  667       /* Send the message */
//  668       osal_msg_send( *(epDesc->task_id), (uint8 *)cmd );
//  669 
//  670       /* Info for response */
//  671       retValue = ZSuccess;
//  672     }
//  673   }
//  674 
//  675   /* Build and send back the response */
//  676   MT_BuildAndSendZToolResponse( ( (uint8)MT_RPC_CMD_SRSP | (uint8)MT_RPC_SYS_APP ),
//  677                                 cmdId, 1, &retValue );
//  678 }
//  679 #endif
//  680 
//  681 /***************************************************************************************************
//  682  * @fn      MT_AppPB_ZCLInd
//  683  *
//  684  * @brief   Send an MT_APP_PB_ZCL_IND command
//  685  *
//  686  * @param   pInd - pointer to the indication
//  687  *
//  688  * @return  void
//  689  ***************************************************************************************************/

        RSEG BANKED_CODE:HUGECODE:NOROOT(0)
//  690 void MT_AppPB_ZCLInd( mtAppPB_ZCLInd_t *pInd )
MT_AppPB_ZCLInd:
          CFI Block cfiBlock2 Using cfiCommon0
          CFI Function MT_AppPB_ZCLInd
        CODE
//  691 {
        FUNCALL MT_AppPB_ZCLInd, osal_mem_alloc
        LOCFRAME ISTACK, 0, STACK
        LOCFRAME PSTACK, 0, STACK
        LOCFRAME XSTACK, 15, STACK
        LOCFRAME IOVERLAY, 0, STATIC
        LOCFRAME DOVERLAY, 0, STATIC
        ARGFRAME ISTACK, 0, STACK
        ARGFRAME PSTACK, 0, STACK
        ARGFRAME XSTACK, 15, STACK
        ARGFRAME IOVERLAY, 0, STATIC
        ARGFRAME DOVERLAY, 0, STATIC
        FUNCALL MT_AppPB_ZCLInd, osal_memcpy
        LOCFRAME ISTACK, 0, STACK
        LOCFRAME PSTACK, 0, STACK
        LOCFRAME XSTACK, 18, STACK
        LOCFRAME IOVERLAY, 0, STATIC
        LOCFRAME DOVERLAY, 0, STATIC
        ARGFRAME ISTACK, 0, STACK
        ARGFRAME PSTACK, 0, STACK
        ARGFRAME XSTACK, 18, STACK
        ARGFRAME IOVERLAY, 0, STATIC
        ARGFRAME DOVERLAY, 0, STATIC
        FUNCALL MT_AppPB_ZCLInd, MT_BuildAndSendZToolResponse
        LOCFRAME ISTACK, 0, STACK
        LOCFRAME PSTACK, 0, STACK
        LOCFRAME XSTACK, 15, STACK
        LOCFRAME IOVERLAY, 0, STATIC
        LOCFRAME DOVERLAY, 0, STATIC
        ARGFRAME ISTACK, 0, STACK
        ARGFRAME PSTACK, 0, STACK
        ARGFRAME XSTACK, 15, STACK
        ARGFRAME IOVERLAY, 0, STATIC
        ARGFRAME DOVERLAY, 0, STATIC
        FUNCALL MT_AppPB_ZCLInd, osal_mem_free
        LOCFRAME ISTACK, 0, STACK
        LOCFRAME PSTACK, 0, STACK
        LOCFRAME XSTACK, 15, STACK
        LOCFRAME IOVERLAY, 0, STATIC
        LOCFRAME DOVERLAY, 0, STATIC
        ARGFRAME ISTACK, 0, STACK
        ARGFRAME PSTACK, 0, STACK
        ARGFRAME XSTACK, 15, STACK
        ARGFRAME IOVERLAY, 0, STATIC
        ARGFRAME DOVERLAY, 0, STATIC
        REQUIRE ?V0
        REQUIRE ?V1
        REQUIRE ?V2
        REQUIRE ?V3
        REQUIRE ?V4
        REQUIRE ?V5
        REQUIRE ?V6
        MOV       A,#-0xf
        LCALL     ?BANKED_ENTER_XDATA
          CFI DPH0 load(1, XDATA, add(CFA_XSP16, literal(-1)))
          CFI DPL0 load(1, XDATA, add(CFA_XSP16, literal(-2)))
          CFI ?BRET_EXT load(1, XDATA, add(CFA_XSP16, literal(-3)))
          CFI ?RET_HIGH load(1, XDATA, add(CFA_XSP16, literal(-4)))
          CFI ?RET_LOW load(1, XDATA, add(CFA_XSP16, literal(-5)))
          CFI R7 load(1, XDATA, add(CFA_XSP16, literal(-6)))
          CFI V6 load(1, XDATA, add(CFA_XSP16, literal(-7)))
          CFI V5 load(1, XDATA, add(CFA_XSP16, literal(-8)))
          CFI V4 load(1, XDATA, add(CFA_XSP16, literal(-9)))
          CFI V3 load(1, XDATA, add(CFA_XSP16, literal(-10)))
          CFI V2 load(1, XDATA, add(CFA_XSP16, literal(-11)))
          CFI V1 load(1, XDATA, add(CFA_XSP16, literal(-12)))
          CFI V0 load(1, XDATA, add(CFA_XSP16, literal(-13)))
          CFI VB load(1, XDATA, add(CFA_XSP16, literal(-14)))
          CFI R6 load(1, XDATA, add(CFA_XSP16, literal(-15)))
          CFI CFA_SP SP+0
          CFI CFA_XSP16 add(XSP16, 15)
        ; Saved register size: 15
        ; Auto size: 0
        MOV       ?V2,R2
        MOV       ?V3,R3
//  692   uint8 *pData;
//  693   uint8 *pBuf;
//  694   uint8 len;
//  695 
//  696   len = MT_APP_PB_ZCL_IND_HDR_LEN + pInd->appPBDataLen;
        MOV       A,R2
        LCALL     ?Subroutine4 & 0xFFFF
??CrossCallReturnLabel_8:
        ADD       A,#0xd
        MOV       R6,A
//  697 
//  698   pData = (uint8 *)osal_mem_alloc( len );
        ; Setup parameters for call to function osal_mem_alloc
        MOV       R2,A
        MOV       R3,#0x0
        LCALL     `??osal_mem_alloc::?relay`; Banked call to: osal_mem_alloc
        MOV       ?V0,R2
        MOV       ?V1,R3
//  699   if ( pData != NULL )
        MOV       A,R2
        ORL       A,?V1
        JNZ       $+5
        LJMP      ??MT_AppPB_ZCLInd_0 & 0xFFFF
//  700   {
//  701     pBuf = pData;
//  702     *pBuf++ = pInd->appEP;
        MOV       DPL,?V2
        MOV       DPH,?V3
        LCALL     ??Subroutine12_0 & 0xFFFF
??CrossCallReturnLabel_23:
        LCALL     ?Subroutine7 & 0xFFFF
//  703     *pBuf++ = LO_UINT16( pInd->srcAddr );
??CrossCallReturnLabel_15:
        MOV       R0,DPL
        MOV       R1,DPH
        LCALL     ?Subroutine6 & 0xFFFF
??CrossCallReturnLabel_12:
        LCALL     ?Subroutine3 & 0xFFFF
//  704     *pBuf++ = HI_UINT16( pInd->srcAddr );
??CrossCallReturnLabel_6:
        INC       DPTR
        INC       DPTR
        LCALL     ?Subroutine7 & 0xFFFF
//  705     *pBuf++ = pInd->srcEP;
??CrossCallReturnLabel_16:
        INC       DPTR
        LCALL     ?Subroutine5 & 0xFFFF
??CrossCallReturnLabel_10:
        MOVX      @DPTR,A
//  706     *pBuf++ = LO_UINT16( pInd->clusterID );
        MOV       A,?V2
        ADD       A,#0x4
        LCALL     ?Subroutine0 & 0xFFFF
??CrossCallReturnLabel_0:
        LCALL     ?Subroutine3 & 0xFFFF
//  707     *pBuf++ = HI_UINT16( pInd->clusterID );
??CrossCallReturnLabel_7:
        LCALL     ?Subroutine2 & 0xFFFF
//  708     *pBuf++ = pInd->commandID;
??CrossCallReturnLabel_4:
        LCALL     ?Subroutine6 & 0xFFFF
??CrossCallReturnLabel_13:
        LCALL     ?Subroutine2 & 0xFFFF
//  709     *pBuf++ = pInd->specific;
??CrossCallReturnLabel_5:
        LCALL     ?Subroutine10 & 0xFFFF
??CrossCallReturnLabel_25:
        LCALL     ?Subroutine1 & 0xFFFF
//  710     *pBuf++ = pInd->direction;
??CrossCallReturnLabel_2:
        LCALL     ?Subroutine6 & 0xFFFF
??CrossCallReturnLabel_14:
        LCALL     ?Subroutine1 & 0xFFFF
//  711     *pBuf++ = pInd->disableDefRsp;
??CrossCallReturnLabel_3:
        LCALL     ?Subroutine5 & 0xFFFF
??CrossCallReturnLabel_11:
        INC       DPTR
        INC       DPTR
        INC       DPTR
        INC       DPTR
        INC       DPTR
        INC       DPTR
        MOVX      @DPTR,A
//  712     *pBuf++ = LO_UINT16( pInd->manuCode );
        MOV       A,?V2
        ADD       A,#0xa
        LCALL     ?Subroutine0 & 0xFFFF
??CrossCallReturnLabel_1:
        INC       DPTR
        INC       DPTR
        INC       DPTR
        INC       DPTR
        INC       DPTR
        INC       DPTR
        MOVX      @DPTR,A
//  713     *pBuf++ = HI_UINT16( pInd->manuCode );
        MOV       DPL,R0
        MOV       DPH,R1
        INC       DPTR
        MOVX      A,@DPTR
        PUSH      A
          CFI CFA_SP SP+-1
        MOV       A,R2
        ADD       A,#0xb
        MOV       DPL,A
        CLR       A
        ADDC      A,?V1
        MOV       DPH,A
        POP       A
          CFI CFA_SP SP+0
        MOVX      @DPTR,A
//  714     *pBuf++ = pInd->transSeqNum;
        MOV       A,?V2
        ADD       A,#0xc
        MOV       DPL,A
        CLR       A
        ADDC      A,?V3
        MOV       DPH,A
        MOVX      A,@DPTR
        PUSH      A
          CFI CFA_SP SP+-1
        MOV       A,R2
        ADD       A,#0xc
        MOV       DPL,A
        CLR       A
        ADDC      A,?V1
        MOV       DPH,A
        POP       A
          CFI CFA_SP SP+0
        MOVX      @DPTR,A
//  715     osal_memcpy( pBuf, pInd->appPBData, pInd->appPBDataLen );
        ; Setup parameters for call to function osal_memcpy
        MOV       A,?V2
        ADD       A,#0xe
        MOV       DPL,A
        CLR       A
        ADDC      A,?V3
        MOV       DPH,A
        MOVX      A,@DPTR
        MOV       ?V4,A
        INC       DPTR
        MOVX      A,@DPTR
        MOV       ?V5,A
        MOV       ?V6,#0x0
        MOV       R0,#?V4
        LCALL     ?PUSH_XSTACK_I_THREE
          CFI CFA_XSP16 add(XSP16, 18)
        MOV       A,?V2
        LCALL     ?Subroutine4 & 0xFFFF
??CrossCallReturnLabel_9:
        MOV       R4,A
        MOV       R5,#0x0
        MOV       A,R2
        ADD       A,#0xd
        MOV       R2,A
        CLR       A
        ADDC      A,?V1
        MOV       R3,A
        LCALL     `??osal_memcpy::?relay`; Banked call to: osal_memcpy
        MOV       A,#0x3
        LCALL     ?DEALLOC_XSTACK8
          CFI CFA_XSP16 add(XSP16, 15)
//  716 
//  717     MT_BuildAndSendZToolResponse( ( (uint8)MT_RPC_CMD_AREQ | (uint8)MT_RPC_SYS_APP ),
//  718                                   MT_APP_PB_ZCL_IND, len, pData );
        ; Setup parameters for call to function MT_BuildAndSendZToolResponse
        MOV       R4,?V0
        MOV       R5,?V1
        MOV       A,R6
        MOV       R3,A
        MOV       R2,#-0x7e
        MOV       R1,#0x49
        LCALL     `??MT_BuildAndSendZToolResponse::?relay`; Banked call to: MT_BuildAndSendZToolResponse
//  719     osal_mem_free( pData );
        ; Setup parameters for call to function osal_mem_free
        MOV       R2,?V0
        MOV       R3,?V1
        LCALL     `??osal_mem_free::?relay`; Banked call to: osal_mem_free
//  720   }
//  721 }
??MT_AppPB_ZCLInd_0:
        MOV       R7,#0x7
        LJMP      ?BANKED_LEAVE_XDATA
          CFI EndBlock cfiBlock2

        RSEG BANKED_CODE:HUGECODE:NOROOT(0)
?Subroutine7:
          CFI Block cfiCond3 Using cfiCommon0
          CFI Function MT_AppPB_ZCLInd
          CFI Conditional ??CrossCallReturnLabel_15
          CFI R6 load(1, XDATA, add(CFA_XSP16, literal(-15)))
          CFI VB load(1, XDATA, add(CFA_XSP16, literal(-14)))
          CFI V0 load(1, XDATA, add(CFA_XSP16, literal(-13)))
          CFI V1 load(1, XDATA, add(CFA_XSP16, literal(-12)))
          CFI V2 load(1, XDATA, add(CFA_XSP16, literal(-11)))
          CFI V3 load(1, XDATA, add(CFA_XSP16, literal(-10)))
          CFI V4 load(1, XDATA, add(CFA_XSP16, literal(-9)))
          CFI V5 load(1, XDATA, add(CFA_XSP16, literal(-8)))
          CFI V6 load(1, XDATA, add(CFA_XSP16, literal(-7)))
          CFI R7 load(1, XDATA, add(CFA_XSP16, literal(-6)))
          CFI ?RET_LOW load(1, XDATA, add(CFA_XSP16, literal(-5)))
          CFI ?RET_HIGH load(1, XDATA, add(CFA_XSP16, literal(-4)))
          CFI ?BRET_EXT load(1, XDATA, add(CFA_XSP16, literal(-3)))
          CFI DPL0 load(1, XDATA, add(CFA_XSP16, literal(-2)))
          CFI DPH0 load(1, XDATA, add(CFA_XSP16, literal(-1)))
          CFI CFA_SP SP+-2
          CFI CFA_XSP16 add(XSP16, 15)
          CFI Block cfiCond4 Using cfiCommon0
          CFI (cfiCond4) Function MT_AppPB_ZCLInd
          CFI (cfiCond4) Conditional ??CrossCallReturnLabel_16
          CFI (cfiCond4) R6 load(1, XDATA, add(CFA_XSP16, literal(-15)))
          CFI (cfiCond4) VB load(1, XDATA, add(CFA_XSP16, literal(-14)))
          CFI (cfiCond4) V0 load(1, XDATA, add(CFA_XSP16, literal(-13)))
          CFI (cfiCond4) V1 load(1, XDATA, add(CFA_XSP16, literal(-12)))
          CFI (cfiCond4) V2 load(1, XDATA, add(CFA_XSP16, literal(-11)))
          CFI (cfiCond4) V3 load(1, XDATA, add(CFA_XSP16, literal(-10)))
          CFI (cfiCond4) V4 load(1, XDATA, add(CFA_XSP16, literal(-9)))
          CFI (cfiCond4) V5 load(1, XDATA, add(CFA_XSP16, literal(-8)))
          CFI (cfiCond4) V6 load(1, XDATA, add(CFA_XSP16, literal(-7)))
          CFI (cfiCond4) R7 load(1, XDATA, add(CFA_XSP16, literal(-6)))
          CFI (cfiCond4) ?RET_LOW load(1, XDATA, add(CFA_XSP16, literal(-5)))
          CFI (cfiCond4) ?RET_HIGH load(1, XDATA, add(CFA_XSP16, literal(-4)))
          CFI (cfiCond4) ?BRET_EXT load(1, XDATA, add(CFA_XSP16, literal(-3)))
          CFI (cfiCond4) DPL0 load(1, XDATA, add(CFA_XSP16, literal(-2)))
          CFI (cfiCond4) DPH0 load(1, XDATA, add(CFA_XSP16, literal(-1)))
          CFI (cfiCond4) CFA_SP SP+-2
          CFI (cfiCond4) CFA_XSP16 add(XSP16, 15)
          CFI Block cfiPicker5 Using cfiCommon1
          CFI (cfiPicker5) NoFunction
          CFI (cfiPicker5) Picker
        LCALL     ?Subroutine11 & 0xFFFF
??CrossCallReturnLabel_21:
        RET
          CFI EndBlock cfiCond3
          CFI EndBlock cfiCond4
          CFI EndBlock cfiPicker5

        RSEG BANKED_CODE:HUGECODE:NOROOT(0)
?Subroutine11:
          CFI Block cfiCond6 Using cfiCommon0
          CFI Function MT_AppPB_ZCLInd
          CFI Conditional ??CrossCallReturnLabel_21, ??CrossCallReturnLabel_15
          CFI R6 load(1, XDATA, add(CFA_XSP16, literal(-15)))
          CFI VB load(1, XDATA, add(CFA_XSP16, literal(-14)))
          CFI V0 load(1, XDATA, add(CFA_XSP16, literal(-13)))
          CFI V1 load(1, XDATA, add(CFA_XSP16, literal(-12)))
          CFI V2 load(1, XDATA, add(CFA_XSP16, literal(-11)))
          CFI V3 load(1, XDATA, add(CFA_XSP16, literal(-10)))
          CFI V4 load(1, XDATA, add(CFA_XSP16, literal(-9)))
          CFI V5 load(1, XDATA, add(CFA_XSP16, literal(-8)))
          CFI V6 load(1, XDATA, add(CFA_XSP16, literal(-7)))
          CFI R7 load(1, XDATA, add(CFA_XSP16, literal(-6)))
          CFI ?RET_LOW load(1, XDATA, add(CFA_XSP16, literal(-5)))
          CFI ?RET_HIGH load(1, XDATA, add(CFA_XSP16, literal(-4)))
          CFI ?BRET_EXT load(1, XDATA, add(CFA_XSP16, literal(-3)))
          CFI DPL0 load(1, XDATA, add(CFA_XSP16, literal(-2)))
          CFI DPH0 load(1, XDATA, add(CFA_XSP16, literal(-1)))
          CFI CFA_SP SP+-4
          CFI CFA_XSP16 add(XSP16, 15)
          CFI Block cfiCond7 Using cfiCommon0
          CFI (cfiCond7) Function MT_AppPB_ZCLInd
          CFI (cfiCond7) Conditional ??CrossCallReturnLabel_21, ??CrossCallReturnLabel_16
          CFI (cfiCond7) R6 load(1, XDATA, add(CFA_XSP16, literal(-15)))
          CFI (cfiCond7) VB load(1, XDATA, add(CFA_XSP16, literal(-14)))
          CFI (cfiCond7) V0 load(1, XDATA, add(CFA_XSP16, literal(-13)))
          CFI (cfiCond7) V1 load(1, XDATA, add(CFA_XSP16, literal(-12)))
          CFI (cfiCond7) V2 load(1, XDATA, add(CFA_XSP16, literal(-11)))
          CFI (cfiCond7) V3 load(1, XDATA, add(CFA_XSP16, literal(-10)))
          CFI (cfiCond7) V4 load(1, XDATA, add(CFA_XSP16, literal(-9)))
          CFI (cfiCond7) V5 load(1, XDATA, add(CFA_XSP16, literal(-8)))
          CFI (cfiCond7) V6 load(1, XDATA, add(CFA_XSP16, literal(-7)))
          CFI (cfiCond7) R7 load(1, XDATA, add(CFA_XSP16, literal(-6)))
          CFI (cfiCond7) ?RET_LOW load(1, XDATA, add(CFA_XSP16, literal(-5)))
          CFI (cfiCond7) ?RET_HIGH load(1, XDATA, add(CFA_XSP16, literal(-4)))
          CFI (cfiCond7) ?BRET_EXT load(1, XDATA, add(CFA_XSP16, literal(-3)))
          CFI (cfiCond7) DPL0 load(1, XDATA, add(CFA_XSP16, literal(-2)))
          CFI (cfiCond7) DPH0 load(1, XDATA, add(CFA_XSP16, literal(-1)))
          CFI (cfiCond7) CFA_SP SP+-4
          CFI (cfiCond7) CFA_XSP16 add(XSP16, 15)
          CFI Block cfiCond8 Using cfiCommon0
          CFI (cfiCond8) Function MT_AppPB_ZCLInd
          CFI (cfiCond8) Conditional ??CrossCallReturnLabel_22, ??CrossCallReturnLabel_17, ??CrossCallReturnLabel_4
          CFI (cfiCond8) R6 load(1, XDATA, add(CFA_XSP16, literal(-15)))
          CFI (cfiCond8) VB load(1, XDATA, add(CFA_XSP16, literal(-14)))
          CFI (cfiCond8) V0 load(1, XDATA, add(CFA_XSP16, literal(-13)))
          CFI (cfiCond8) V1 load(1, XDATA, add(CFA_XSP16, literal(-12)))
          CFI (cfiCond8) V2 load(1, XDATA, add(CFA_XSP16, literal(-11)))
          CFI (cfiCond8) V3 load(1, XDATA, add(CFA_XSP16, literal(-10)))
          CFI (cfiCond8) V4 load(1, XDATA, add(CFA_XSP16, literal(-9)))
          CFI (cfiCond8) V5 load(1, XDATA, add(CFA_XSP16, literal(-8)))
          CFI (cfiCond8) V6 load(1, XDATA, add(CFA_XSP16, literal(-7)))
          CFI (cfiCond8) R7 load(1, XDATA, add(CFA_XSP16, literal(-6)))
          CFI (cfiCond8) ?RET_LOW load(1, XDATA, add(CFA_XSP16, literal(-5)))
          CFI (cfiCond8) ?RET_HIGH load(1, XDATA, add(CFA_XSP16, literal(-4)))
          CFI (cfiCond8) ?BRET_EXT load(1, XDATA, add(CFA_XSP16, literal(-3)))
          CFI (cfiCond8) DPL0 load(1, XDATA, add(CFA_XSP16, literal(-2)))
          CFI (cfiCond8) DPH0 load(1, XDATA, add(CFA_XSP16, literal(-1)))
          CFI (cfiCond8) CFA_SP SP+-6
          CFI (cfiCond8) CFA_XSP16 add(XSP16, 15)
          CFI Block cfiCond9 Using cfiCommon0
          CFI (cfiCond9) Function MT_AppPB_ZCLInd
          CFI (cfiCond9) Conditional ??CrossCallReturnLabel_22, ??CrossCallReturnLabel_17, ??CrossCallReturnLabel_5
          CFI (cfiCond9) R6 load(1, XDATA, add(CFA_XSP16, literal(-15)))
          CFI (cfiCond9) VB load(1, XDATA, add(CFA_XSP16, literal(-14)))
          CFI (cfiCond9) V0 load(1, XDATA, add(CFA_XSP16, literal(-13)))
          CFI (cfiCond9) V1 load(1, XDATA, add(CFA_XSP16, literal(-12)))
          CFI (cfiCond9) V2 load(1, XDATA, add(CFA_XSP16, literal(-11)))
          CFI (cfiCond9) V3 load(1, XDATA, add(CFA_XSP16, literal(-10)))
          CFI (cfiCond9) V4 load(1, XDATA, add(CFA_XSP16, literal(-9)))
          CFI (cfiCond9) V5 load(1, XDATA, add(CFA_XSP16, literal(-8)))
          CFI (cfiCond9) V6 load(1, XDATA, add(CFA_XSP16, literal(-7)))
          CFI (cfiCond9) R7 load(1, XDATA, add(CFA_XSP16, literal(-6)))
          CFI (cfiCond9) ?RET_LOW load(1, XDATA, add(CFA_XSP16, literal(-5)))
          CFI (cfiCond9) ?RET_HIGH load(1, XDATA, add(CFA_XSP16, literal(-4)))
          CFI (cfiCond9) ?BRET_EXT load(1, XDATA, add(CFA_XSP16, literal(-3)))
          CFI (cfiCond9) DPL0 load(1, XDATA, add(CFA_XSP16, literal(-2)))
          CFI (cfiCond9) DPH0 load(1, XDATA, add(CFA_XSP16, literal(-1)))
          CFI (cfiCond9) CFA_SP SP+-6
          CFI (cfiCond9) CFA_XSP16 add(XSP16, 15)
          CFI Block cfiCond10 Using cfiCommon0
          CFI (cfiCond10) Function MT_AppPB_ZCLInd
          CFI (cfiCond10) Conditional ??CrossCallReturnLabel_22, ??CrossCallReturnLabel_18, ??CrossCallReturnLabel_2
          CFI (cfiCond10) R6 load(1, XDATA, add(CFA_XSP16, literal(-15)))
          CFI (cfiCond10) VB load(1, XDATA, add(CFA_XSP16, literal(-14)))
          CFI (cfiCond10) V0 load(1, XDATA, add(CFA_XSP16, literal(-13)))
          CFI (cfiCond10) V1 load(1, XDATA, add(CFA_XSP16, literal(-12)))
          CFI (cfiCond10) V2 load(1, XDATA, add(CFA_XSP16, literal(-11)))
          CFI (cfiCond10) V3 load(1, XDATA, add(CFA_XSP16, literal(-10)))
          CFI (cfiCond10) V4 load(1, XDATA, add(CFA_XSP16, literal(-9)))
          CFI (cfiCond10) V5 load(1, XDATA, add(CFA_XSP16, literal(-8)))
          CFI (cfiCond10) V6 load(1, XDATA, add(CFA_XSP16, literal(-7)))
          CFI (cfiCond10) R7 load(1, XDATA, add(CFA_XSP16, literal(-6)))
          CFI (cfiCond10) ?RET_LOW load(1, XDATA, add(CFA_XSP16, literal(-5)))
          CFI (cfiCond10) ?RET_HIGH load(1, XDATA, add(CFA_XSP16, literal(-4)))
          CFI (cfiCond10) ?BRET_EXT load(1, XDATA, add(CFA_XSP16, literal(-3)))
          CFI (cfiCond10) DPL0 load(1, XDATA, add(CFA_XSP16, literal(-2)))
          CFI (cfiCond10) DPH0 load(1, XDATA, add(CFA_XSP16, literal(-1)))
          CFI (cfiCond10) CFA_SP SP+-6
          CFI (cfiCond10) CFA_XSP16 add(XSP16, 15)
          CFI Block cfiCond11 Using cfiCommon0
          CFI (cfiCond11) Function MT_AppPB_ZCLInd
          CFI (cfiCond11) Conditional ??CrossCallReturnLabel_22, ??CrossCallReturnLabel_18, ??CrossCallReturnLabel_3
          CFI (cfiCond11) R6 load(1, XDATA, add(CFA_XSP16, literal(-15)))
          CFI (cfiCond11) VB load(1, XDATA, add(CFA_XSP16, literal(-14)))
          CFI (cfiCond11) V0 load(1, XDATA, add(CFA_XSP16, literal(-13)))
          CFI (cfiCond11) V1 load(1, XDATA, add(CFA_XSP16, literal(-12)))
          CFI (cfiCond11) V2 load(1, XDATA, add(CFA_XSP16, literal(-11)))
          CFI (cfiCond11) V3 load(1, XDATA, add(CFA_XSP16, literal(-10)))
          CFI (cfiCond11) V4 load(1, XDATA, add(CFA_XSP16, literal(-9)))
          CFI (cfiCond11) V5 load(1, XDATA, add(CFA_XSP16, literal(-8)))
          CFI (cfiCond11) V6 load(1, XDATA, add(CFA_XSP16, literal(-7)))
          CFI (cfiCond11) R7 load(1, XDATA, add(CFA_XSP16, literal(-6)))
          CFI (cfiCond11) ?RET_LOW load(1, XDATA, add(CFA_XSP16, literal(-5)))
          CFI (cfiCond11) ?RET_HIGH load(1, XDATA, add(CFA_XSP16, literal(-4)))
          CFI (cfiCond11) ?BRET_EXT load(1, XDATA, add(CFA_XSP16, literal(-3)))
          CFI (cfiCond11) DPL0 load(1, XDATA, add(CFA_XSP16, literal(-2)))
          CFI (cfiCond11) DPH0 load(1, XDATA, add(CFA_XSP16, literal(-1)))
          CFI (cfiCond11) CFA_SP SP+-6
          CFI (cfiCond11) CFA_XSP16 add(XSP16, 15)
          CFI Block cfiPicker12 Using cfiCommon1
          CFI (cfiPicker12) NoFunction
          CFI (cfiPicker12) Picker
        MOVX      @DPTR,A
        MOV       DPL,?V2
        MOV       DPH,?V3
        INC       DPTR
        RET
          CFI EndBlock cfiCond6
          CFI EndBlock cfiCond7
          CFI EndBlock cfiCond8
          CFI EndBlock cfiCond9
          CFI EndBlock cfiCond10
          CFI EndBlock cfiCond11
          CFI EndBlock cfiPicker12

        RSEG BANKED_CODE:HUGECODE:NOROOT(0)
?Subroutine6:
          CFI Block cfiCond13 Using cfiCommon0
          CFI Function MT_AppPB_ZCLInd
          CFI Conditional ??CrossCallReturnLabel_12
          CFI R6 load(1, XDATA, add(CFA_XSP16, literal(-15)))
          CFI VB load(1, XDATA, add(CFA_XSP16, literal(-14)))
          CFI V0 load(1, XDATA, add(CFA_XSP16, literal(-13)))
          CFI V1 load(1, XDATA, add(CFA_XSP16, literal(-12)))
          CFI V2 load(1, XDATA, add(CFA_XSP16, literal(-11)))
          CFI V3 load(1, XDATA, add(CFA_XSP16, literal(-10)))
          CFI V4 load(1, XDATA, add(CFA_XSP16, literal(-9)))
          CFI V5 load(1, XDATA, add(CFA_XSP16, literal(-8)))
          CFI V6 load(1, XDATA, add(CFA_XSP16, literal(-7)))
          CFI R7 load(1, XDATA, add(CFA_XSP16, literal(-6)))
          CFI ?RET_LOW load(1, XDATA, add(CFA_XSP16, literal(-5)))
          CFI ?RET_HIGH load(1, XDATA, add(CFA_XSP16, literal(-4)))
          CFI ?BRET_EXT load(1, XDATA, add(CFA_XSP16, literal(-3)))
          CFI DPL0 load(1, XDATA, add(CFA_XSP16, literal(-2)))
          CFI DPH0 load(1, XDATA, add(CFA_XSP16, literal(-1)))
          CFI CFA_SP SP+-2
          CFI CFA_XSP16 add(XSP16, 15)
          CFI Block cfiCond14 Using cfiCommon0
          CFI (cfiCond14) Function MT_AppPB_ZCLInd
          CFI (cfiCond14) Conditional ??CrossCallReturnLabel_13
          CFI (cfiCond14) R6 load(1, XDATA, add(CFA_XSP16, literal(-15)))
          CFI (cfiCond14) VB load(1, XDATA, add(CFA_XSP16, literal(-14)))
          CFI (cfiCond14) V0 load(1, XDATA, add(CFA_XSP16, literal(-13)))
          CFI (cfiCond14) V1 load(1, XDATA, add(CFA_XSP16, literal(-12)))
          CFI (cfiCond14) V2 load(1, XDATA, add(CFA_XSP16, literal(-11)))
          CFI (cfiCond14) V3 load(1, XDATA, add(CFA_XSP16, literal(-10)))
          CFI (cfiCond14) V4 load(1, XDATA, add(CFA_XSP16, literal(-9)))
          CFI (cfiCond14) V5 load(1, XDATA, add(CFA_XSP16, literal(-8)))
          CFI (cfiCond14) V6 load(1, XDATA, add(CFA_XSP16, literal(-7)))
          CFI (cfiCond14) R7 load(1, XDATA, add(CFA_XSP16, literal(-6)))
          CFI (cfiCond14) ?RET_LOW load(1, XDATA, add(CFA_XSP16, literal(-5)))
          CFI (cfiCond14) ?RET_HIGH load(1, XDATA, add(CFA_XSP16, literal(-4)))
          CFI (cfiCond14) ?BRET_EXT load(1, XDATA, add(CFA_XSP16, literal(-3)))
          CFI (cfiCond14) DPL0 load(1, XDATA, add(CFA_XSP16, literal(-2)))
          CFI (cfiCond14) DPH0 load(1, XDATA, add(CFA_XSP16, literal(-1)))
          CFI (cfiCond14) CFA_SP SP+-2
          CFI (cfiCond14) CFA_XSP16 add(XSP16, 15)
          CFI Block cfiCond15 Using cfiCommon0
          CFI (cfiCond15) Function MT_AppPB_ZCLInd
          CFI (cfiCond15) Conditional ??CrossCallReturnLabel_14
          CFI (cfiCond15) R6 load(1, XDATA, add(CFA_XSP16, literal(-15)))
          CFI (cfiCond15) VB load(1, XDATA, add(CFA_XSP16, literal(-14)))
          CFI (cfiCond15) V0 load(1, XDATA, add(CFA_XSP16, literal(-13)))
          CFI (cfiCond15) V1 load(1, XDATA, add(CFA_XSP16, literal(-12)))
          CFI (cfiCond15) V2 load(1, XDATA, add(CFA_XSP16, literal(-11)))
          CFI (cfiCond15) V3 load(1, XDATA, add(CFA_XSP16, literal(-10)))
          CFI (cfiCond15) V4 load(1, XDATA, add(CFA_XSP16, literal(-9)))
          CFI (cfiCond15) V5 load(1, XDATA, add(CFA_XSP16, literal(-8)))
          CFI (cfiCond15) V6 load(1, XDATA, add(CFA_XSP16, literal(-7)))
          CFI (cfiCond15) R7 load(1, XDATA, add(CFA_XSP16, literal(-6)))
          CFI (cfiCond15) ?RET_LOW load(1, XDATA, add(CFA_XSP16, literal(-5)))
          CFI (cfiCond15) ?RET_HIGH load(1, XDATA, add(CFA_XSP16, literal(-4)))
          CFI (cfiCond15) ?BRET_EXT load(1, XDATA, add(CFA_XSP16, literal(-3)))
          CFI (cfiCond15) DPL0 load(1, XDATA, add(CFA_XSP16, literal(-2)))
          CFI (cfiCond15) DPH0 load(1, XDATA, add(CFA_XSP16, literal(-1)))
          CFI (cfiCond15) CFA_SP SP+-2
          CFI (cfiCond15) CFA_XSP16 add(XSP16, 15)
          CFI Block cfiPicker16 Using cfiCommon1
          CFI (cfiPicker16) NoFunction
          CFI (cfiPicker16) Picker
        LCALL     ??Subroutine12_0 & 0xFFFF
??CrossCallReturnLabel_24:
        INC       DPTR
        RET
          CFI EndBlock cfiCond13
          CFI EndBlock cfiCond14
          CFI EndBlock cfiCond15
          CFI EndBlock cfiPicker16

        RSEG BANKED_CODE:HUGECODE:NOROOT(0)
?Subroutine5:
          CFI Block cfiCond17 Using cfiCommon0
          CFI Function MT_AppPB_ZCLInd
          CFI Conditional ??CrossCallReturnLabel_10
          CFI R6 load(1, XDATA, add(CFA_XSP16, literal(-15)))
          CFI VB load(1, XDATA, add(CFA_XSP16, literal(-14)))
          CFI V0 load(1, XDATA, add(CFA_XSP16, literal(-13)))
          CFI V1 load(1, XDATA, add(CFA_XSP16, literal(-12)))
          CFI V2 load(1, XDATA, add(CFA_XSP16, literal(-11)))
          CFI V3 load(1, XDATA, add(CFA_XSP16, literal(-10)))
          CFI V4 load(1, XDATA, add(CFA_XSP16, literal(-9)))
          CFI V5 load(1, XDATA, add(CFA_XSP16, literal(-8)))
          CFI V6 load(1, XDATA, add(CFA_XSP16, literal(-7)))
          CFI R7 load(1, XDATA, add(CFA_XSP16, literal(-6)))
          CFI ?RET_LOW load(1, XDATA, add(CFA_XSP16, literal(-5)))
          CFI ?RET_HIGH load(1, XDATA, add(CFA_XSP16, literal(-4)))
          CFI ?BRET_EXT load(1, XDATA, add(CFA_XSP16, literal(-3)))
          CFI DPL0 load(1, XDATA, add(CFA_XSP16, literal(-2)))
          CFI DPH0 load(1, XDATA, add(CFA_XSP16, literal(-1)))
          CFI CFA_SP SP+-2
          CFI CFA_XSP16 add(XSP16, 15)
          CFI Block cfiCond18 Using cfiCommon0
          CFI (cfiCond18) Function MT_AppPB_ZCLInd
          CFI (cfiCond18) Conditional ??CrossCallReturnLabel_11
          CFI (cfiCond18) R6 load(1, XDATA, add(CFA_XSP16, literal(-15)))
          CFI (cfiCond18) VB load(1, XDATA, add(CFA_XSP16, literal(-14)))
          CFI (cfiCond18) V0 load(1, XDATA, add(CFA_XSP16, literal(-13)))
          CFI (cfiCond18) V1 load(1, XDATA, add(CFA_XSP16, literal(-12)))
          CFI (cfiCond18) V2 load(1, XDATA, add(CFA_XSP16, literal(-11)))
          CFI (cfiCond18) V3 load(1, XDATA, add(CFA_XSP16, literal(-10)))
          CFI (cfiCond18) V4 load(1, XDATA, add(CFA_XSP16, literal(-9)))
          CFI (cfiCond18) V5 load(1, XDATA, add(CFA_XSP16, literal(-8)))
          CFI (cfiCond18) V6 load(1, XDATA, add(CFA_XSP16, literal(-7)))
          CFI (cfiCond18) R7 load(1, XDATA, add(CFA_XSP16, literal(-6)))
          CFI (cfiCond18) ?RET_LOW load(1, XDATA, add(CFA_XSP16, literal(-5)))
          CFI (cfiCond18) ?RET_HIGH load(1, XDATA, add(CFA_XSP16, literal(-4)))
          CFI (cfiCond18) ?BRET_EXT load(1, XDATA, add(CFA_XSP16, literal(-3)))
          CFI (cfiCond18) DPL0 load(1, XDATA, add(CFA_XSP16, literal(-2)))
          CFI (cfiCond18) DPH0 load(1, XDATA, add(CFA_XSP16, literal(-1)))
          CFI (cfiCond18) CFA_SP SP+-2
          CFI (cfiCond18) CFA_XSP16 add(XSP16, 15)
          CFI Block cfiPicker19 Using cfiCommon1
          CFI (cfiPicker19) NoFunction
          CFI (cfiPicker19) Picker
        INC       DPTR
        LCALL     ?Subroutine9 & 0xFFFF
??CrossCallReturnLabel_20:
        RET
          CFI EndBlock cfiCond17
          CFI EndBlock cfiCond18
          CFI EndBlock cfiPicker19

        RSEG BANKED_CODE:HUGECODE:NOROOT(0)
?Subroutine9:
          CFI Block cfiCond20 Using cfiCommon0
          CFI Function MT_AppPB_ZCLInd
          CFI Conditional ??CrossCallReturnLabel_20, ??CrossCallReturnLabel_10
          CFI R6 load(1, XDATA, add(CFA_XSP16, literal(-15)))
          CFI VB load(1, XDATA, add(CFA_XSP16, literal(-14)))
          CFI V0 load(1, XDATA, add(CFA_XSP16, literal(-13)))
          CFI V1 load(1, XDATA, add(CFA_XSP16, literal(-12)))
          CFI V2 load(1, XDATA, add(CFA_XSP16, literal(-11)))
          CFI V3 load(1, XDATA, add(CFA_XSP16, literal(-10)))
          CFI V4 load(1, XDATA, add(CFA_XSP16, literal(-9)))
          CFI V5 load(1, XDATA, add(CFA_XSP16, literal(-8)))
          CFI V6 load(1, XDATA, add(CFA_XSP16, literal(-7)))
          CFI R7 load(1, XDATA, add(CFA_XSP16, literal(-6)))
          CFI ?RET_LOW load(1, XDATA, add(CFA_XSP16, literal(-5)))
          CFI ?RET_HIGH load(1, XDATA, add(CFA_XSP16, literal(-4)))
          CFI ?BRET_EXT load(1, XDATA, add(CFA_XSP16, literal(-3)))
          CFI DPL0 load(1, XDATA, add(CFA_XSP16, literal(-2)))
          CFI DPH0 load(1, XDATA, add(CFA_XSP16, literal(-1)))
          CFI CFA_SP SP+-4
          CFI CFA_XSP16 add(XSP16, 15)
          CFI Block cfiCond21 Using cfiCommon0
          CFI (cfiCond21) Function MT_AppPB_ZCLInd
          CFI (cfiCond21) Conditional ??CrossCallReturnLabel_20, ??CrossCallReturnLabel_11
          CFI (cfiCond21) R6 load(1, XDATA, add(CFA_XSP16, literal(-15)))
          CFI (cfiCond21) VB load(1, XDATA, add(CFA_XSP16, literal(-14)))
          CFI (cfiCond21) V0 load(1, XDATA, add(CFA_XSP16, literal(-13)))
          CFI (cfiCond21) V1 load(1, XDATA, add(CFA_XSP16, literal(-12)))
          CFI (cfiCond21) V2 load(1, XDATA, add(CFA_XSP16, literal(-11)))
          CFI (cfiCond21) V3 load(1, XDATA, add(CFA_XSP16, literal(-10)))
          CFI (cfiCond21) V4 load(1, XDATA, add(CFA_XSP16, literal(-9)))
          CFI (cfiCond21) V5 load(1, XDATA, add(CFA_XSP16, literal(-8)))
          CFI (cfiCond21) V6 load(1, XDATA, add(CFA_XSP16, literal(-7)))
          CFI (cfiCond21) R7 load(1, XDATA, add(CFA_XSP16, literal(-6)))
          CFI (cfiCond21) ?RET_LOW load(1, XDATA, add(CFA_XSP16, literal(-5)))
          CFI (cfiCond21) ?RET_HIGH load(1, XDATA, add(CFA_XSP16, literal(-4)))
          CFI (cfiCond21) ?BRET_EXT load(1, XDATA, add(CFA_XSP16, literal(-3)))
          CFI (cfiCond21) DPL0 load(1, XDATA, add(CFA_XSP16, literal(-2)))
          CFI (cfiCond21) DPH0 load(1, XDATA, add(CFA_XSP16, literal(-1)))
          CFI (cfiCond21) CFA_SP SP+-4
          CFI (cfiCond21) CFA_XSP16 add(XSP16, 15)
          CFI Block cfiCond22 Using cfiCommon0
          CFI (cfiCond22) Function MT_AppPB_ZCLInd
          CFI (cfiCond22) Conditional ??CrossCallReturnLabel_19, ??CrossCallReturnLabel_0
          CFI (cfiCond22) R6 load(1, XDATA, add(CFA_XSP16, literal(-15)))
          CFI (cfiCond22) VB load(1, XDATA, add(CFA_XSP16, literal(-14)))
          CFI (cfiCond22) V0 load(1, XDATA, add(CFA_XSP16, literal(-13)))
          CFI (cfiCond22) V1 load(1, XDATA, add(CFA_XSP16, literal(-12)))
          CFI (cfiCond22) V2 load(1, XDATA, add(CFA_XSP16, literal(-11)))
          CFI (cfiCond22) V3 load(1, XDATA, add(CFA_XSP16, literal(-10)))
          CFI (cfiCond22) V4 load(1, XDATA, add(CFA_XSP16, literal(-9)))
          CFI (cfiCond22) V5 load(1, XDATA, add(CFA_XSP16, literal(-8)))
          CFI (cfiCond22) V6 load(1, XDATA, add(CFA_XSP16, literal(-7)))
          CFI (cfiCond22) R7 load(1, XDATA, add(CFA_XSP16, literal(-6)))
          CFI (cfiCond22) ?RET_LOW load(1, XDATA, add(CFA_XSP16, literal(-5)))
          CFI (cfiCond22) ?RET_HIGH load(1, XDATA, add(CFA_XSP16, literal(-4)))
          CFI (cfiCond22) ?BRET_EXT load(1, XDATA, add(CFA_XSP16, literal(-3)))
          CFI (cfiCond22) DPL0 load(1, XDATA, add(CFA_XSP16, literal(-2)))
          CFI (cfiCond22) DPH0 load(1, XDATA, add(CFA_XSP16, literal(-1)))
          CFI (cfiCond22) CFA_SP SP+-4
          CFI (cfiCond22) CFA_XSP16 add(XSP16, 15)
          CFI Block cfiCond23 Using cfiCommon0
          CFI (cfiCond23) Function MT_AppPB_ZCLInd
          CFI (cfiCond23) Conditional ??CrossCallReturnLabel_19, ??CrossCallReturnLabel_1
          CFI (cfiCond23) R6 load(1, XDATA, add(CFA_XSP16, literal(-15)))
          CFI (cfiCond23) VB load(1, XDATA, add(CFA_XSP16, literal(-14)))
          CFI (cfiCond23) V0 load(1, XDATA, add(CFA_XSP16, literal(-13)))
          CFI (cfiCond23) V1 load(1, XDATA, add(CFA_XSP16, literal(-12)))
          CFI (cfiCond23) V2 load(1, XDATA, add(CFA_XSP16, literal(-11)))
          CFI (cfiCond23) V3 load(1, XDATA, add(CFA_XSP16, literal(-10)))
          CFI (cfiCond23) V4 load(1, XDATA, add(CFA_XSP16, literal(-9)))
          CFI (cfiCond23) V5 load(1, XDATA, add(CFA_XSP16, literal(-8)))
          CFI (cfiCond23) V6 load(1, XDATA, add(CFA_XSP16, literal(-7)))
          CFI (cfiCond23) R7 load(1, XDATA, add(CFA_XSP16, literal(-6)))
          CFI (cfiCond23) ?RET_LOW load(1, XDATA, add(CFA_XSP16, literal(-5)))
          CFI (cfiCond23) ?RET_HIGH load(1, XDATA, add(CFA_XSP16, literal(-4)))
          CFI (cfiCond23) ?BRET_EXT load(1, XDATA, add(CFA_XSP16, literal(-3)))
          CFI (cfiCond23) DPL0 load(1, XDATA, add(CFA_XSP16, literal(-2)))
          CFI (cfiCond23) DPH0 load(1, XDATA, add(CFA_XSP16, literal(-1)))
          CFI (cfiCond23) CFA_SP SP+-4
          CFI (cfiCond23) CFA_XSP16 add(XSP16, 15)
          CFI Block cfiPicker24 Using cfiCommon1
          CFI (cfiPicker24) NoFunction
          CFI (cfiPicker24) Picker
        MOVX      A,@DPTR
        MOV       DPL,R2
        MOV       DPH,R3
        INC       DPTR
        INC       DPTR
        INC       DPTR
        RET
          CFI EndBlock cfiCond20
          CFI EndBlock cfiCond21
          CFI EndBlock cfiCond22
          CFI EndBlock cfiCond23
          CFI EndBlock cfiPicker24

        RSEG BANKED_CODE:HUGECODE:NOROOT(0)
?Subroutine4:
          CFI Block cfiCond25 Using cfiCommon0
          CFI Function MT_AppPB_ZCLInd
          CFI Conditional ??CrossCallReturnLabel_8
          CFI R6 load(1, XDATA, add(CFA_XSP16, literal(-15)))
          CFI VB load(1, XDATA, add(CFA_XSP16, literal(-14)))
          CFI V0 load(1, XDATA, add(CFA_XSP16, literal(-13)))
          CFI V1 load(1, XDATA, add(CFA_XSP16, literal(-12)))
          CFI V2 load(1, XDATA, add(CFA_XSP16, literal(-11)))
          CFI V3 load(1, XDATA, add(CFA_XSP16, literal(-10)))
          CFI V4 load(1, XDATA, add(CFA_XSP16, literal(-9)))
          CFI V5 load(1, XDATA, add(CFA_XSP16, literal(-8)))
          CFI V6 load(1, XDATA, add(CFA_XSP16, literal(-7)))
          CFI R7 load(1, XDATA, add(CFA_XSP16, literal(-6)))
          CFI ?RET_LOW load(1, XDATA, add(CFA_XSP16, literal(-5)))
          CFI ?RET_HIGH load(1, XDATA, add(CFA_XSP16, literal(-4)))
          CFI ?BRET_EXT load(1, XDATA, add(CFA_XSP16, literal(-3)))
          CFI DPL0 load(1, XDATA, add(CFA_XSP16, literal(-2)))
          CFI DPH0 load(1, XDATA, add(CFA_XSP16, literal(-1)))
          CFI CFA_SP SP+-2
          CFI CFA_XSP16 add(XSP16, 15)
          CFI Block cfiCond26 Using cfiCommon0
          CFI (cfiCond26) Function MT_AppPB_ZCLInd
          CFI (cfiCond26) Conditional ??CrossCallReturnLabel_9
          CFI (cfiCond26) R6 load(1, XDATA, add(CFA_XSP16, literal(-15)))
          CFI (cfiCond26) VB load(1, XDATA, add(CFA_XSP16, literal(-14)))
          CFI (cfiCond26) V0 load(1, XDATA, add(CFA_XSP16, literal(-13)))
          CFI (cfiCond26) V1 load(1, XDATA, add(CFA_XSP16, literal(-12)))
          CFI (cfiCond26) V2 load(1, XDATA, add(CFA_XSP16, literal(-11)))
          CFI (cfiCond26) V3 load(1, XDATA, add(CFA_XSP16, literal(-10)))
          CFI (cfiCond26) V4 load(1, XDATA, add(CFA_XSP16, literal(-9)))
          CFI (cfiCond26) V5 load(1, XDATA, add(CFA_XSP16, literal(-8)))
          CFI (cfiCond26) V6 load(1, XDATA, add(CFA_XSP16, literal(-7)))
          CFI (cfiCond26) R7 load(1, XDATA, add(CFA_XSP16, literal(-6)))
          CFI (cfiCond26) ?RET_LOW load(1, XDATA, add(CFA_XSP16, literal(-5)))
          CFI (cfiCond26) ?RET_HIGH load(1, XDATA, add(CFA_XSP16, literal(-4)))
          CFI (cfiCond26) ?BRET_EXT load(1, XDATA, add(CFA_XSP16, literal(-3)))
          CFI (cfiCond26) DPL0 load(1, XDATA, add(CFA_XSP16, literal(-2)))
          CFI (cfiCond26) DPH0 load(1, XDATA, add(CFA_XSP16, literal(-1)))
          CFI (cfiCond26) CFA_SP SP+-2
          CFI (cfiCond26) CFA_XSP16 add(XSP16, 18)
          CFI Block cfiPicker27 Using cfiCommon1
          CFI (cfiPicker27) NoFunction
          CFI (cfiPicker27) Picker
        ADD       A,#0xd
        MOV       DPL,A
        CLR       A
        ADDC      A,?V3
        MOV       DPH,A
        MOVX      A,@DPTR
        RET
          CFI EndBlock cfiCond25
          CFI EndBlock cfiCond26
          CFI EndBlock cfiPicker27

        RSEG BANKED_CODE:HUGECODE:NOROOT(0)
?Subroutine3:
          CFI Block cfiCond28 Using cfiCommon0
          CFI Function MT_AppPB_ZCLInd
          CFI Conditional ??CrossCallReturnLabel_6
          CFI R6 load(1, XDATA, add(CFA_XSP16, literal(-15)))
          CFI VB load(1, XDATA, add(CFA_XSP16, literal(-14)))
          CFI V0 load(1, XDATA, add(CFA_XSP16, literal(-13)))
          CFI V1 load(1, XDATA, add(CFA_XSP16, literal(-12)))
          CFI V2 load(1, XDATA, add(CFA_XSP16, literal(-11)))
          CFI V3 load(1, XDATA, add(CFA_XSP16, literal(-10)))
          CFI V4 load(1, XDATA, add(CFA_XSP16, literal(-9)))
          CFI V5 load(1, XDATA, add(CFA_XSP16, literal(-8)))
          CFI V6 load(1, XDATA, add(CFA_XSP16, literal(-7)))
          CFI R7 load(1, XDATA, add(CFA_XSP16, literal(-6)))
          CFI ?RET_LOW load(1, XDATA, add(CFA_XSP16, literal(-5)))
          CFI ?RET_HIGH load(1, XDATA, add(CFA_XSP16, literal(-4)))
          CFI ?BRET_EXT load(1, XDATA, add(CFA_XSP16, literal(-3)))
          CFI DPL0 load(1, XDATA, add(CFA_XSP16, literal(-2)))
          CFI DPH0 load(1, XDATA, add(CFA_XSP16, literal(-1)))
          CFI CFA_SP SP+-2
          CFI CFA_XSP16 add(XSP16, 15)
          CFI Block cfiCond29 Using cfiCommon0
          CFI (cfiCond29) Function MT_AppPB_ZCLInd
          CFI (cfiCond29) Conditional ??CrossCallReturnLabel_7
          CFI (cfiCond29) R6 load(1, XDATA, add(CFA_XSP16, literal(-15)))
          CFI (cfiCond29) VB load(1, XDATA, add(CFA_XSP16, literal(-14)))
          CFI (cfiCond29) V0 load(1, XDATA, add(CFA_XSP16, literal(-13)))
          CFI (cfiCond29) V1 load(1, XDATA, add(CFA_XSP16, literal(-12)))
          CFI (cfiCond29) V2 load(1, XDATA, add(CFA_XSP16, literal(-11)))
          CFI (cfiCond29) V3 load(1, XDATA, add(CFA_XSP16, literal(-10)))
          CFI (cfiCond29) V4 load(1, XDATA, add(CFA_XSP16, literal(-9)))
          CFI (cfiCond29) V5 load(1, XDATA, add(CFA_XSP16, literal(-8)))
          CFI (cfiCond29) V6 load(1, XDATA, add(CFA_XSP16, literal(-7)))
          CFI (cfiCond29) R7 load(1, XDATA, add(CFA_XSP16, literal(-6)))
          CFI (cfiCond29) ?RET_LOW load(1, XDATA, add(CFA_XSP16, literal(-5)))
          CFI (cfiCond29) ?RET_HIGH load(1, XDATA, add(CFA_XSP16, literal(-4)))
          CFI (cfiCond29) ?BRET_EXT load(1, XDATA, add(CFA_XSP16, literal(-3)))
          CFI (cfiCond29) DPL0 load(1, XDATA, add(CFA_XSP16, literal(-2)))
          CFI (cfiCond29) DPH0 load(1, XDATA, add(CFA_XSP16, literal(-1)))
          CFI (cfiCond29) CFA_SP SP+-2
          CFI (cfiCond29) CFA_XSP16 add(XSP16, 15)
          CFI Block cfiPicker30 Using cfiCommon1
          CFI (cfiPicker30) NoFunction
          CFI (cfiPicker30) Picker
        MOVX      @DPTR,A
        MOV       DPL,R0
        MOV       DPH,R1
        LCALL     ?Subroutine10 & 0xFFFF
??CrossCallReturnLabel_26:
        RET
          CFI EndBlock cfiCond28
          CFI EndBlock cfiCond29
          CFI EndBlock cfiPicker30

        RSEG BANKED_CODE:HUGECODE:NOROOT(0)
?Subroutine10:
          CFI Block cfiCond31 Using cfiCommon0
          CFI Function MT_AppPB_ZCLInd
          CFI Conditional ??CrossCallReturnLabel_25
          CFI R6 load(1, XDATA, add(CFA_XSP16, literal(-15)))
          CFI VB load(1, XDATA, add(CFA_XSP16, literal(-14)))
          CFI V0 load(1, XDATA, add(CFA_XSP16, literal(-13)))
          CFI V1 load(1, XDATA, add(CFA_XSP16, literal(-12)))
          CFI V2 load(1, XDATA, add(CFA_XSP16, literal(-11)))
          CFI V3 load(1, XDATA, add(CFA_XSP16, literal(-10)))
          CFI V4 load(1, XDATA, add(CFA_XSP16, literal(-9)))
          CFI V5 load(1, XDATA, add(CFA_XSP16, literal(-8)))
          CFI V6 load(1, XDATA, add(CFA_XSP16, literal(-7)))
          CFI R7 load(1, XDATA, add(CFA_XSP16, literal(-6)))
          CFI ?RET_LOW load(1, XDATA, add(CFA_XSP16, literal(-5)))
          CFI ?RET_HIGH load(1, XDATA, add(CFA_XSP16, literal(-4)))
          CFI ?BRET_EXT load(1, XDATA, add(CFA_XSP16, literal(-3)))
          CFI DPL0 load(1, XDATA, add(CFA_XSP16, literal(-2)))
          CFI DPH0 load(1, XDATA, add(CFA_XSP16, literal(-1)))
          CFI CFA_SP SP+-2
          CFI CFA_XSP16 add(XSP16, 15)
          CFI Block cfiCond32 Using cfiCommon0
          CFI (cfiCond32) Function MT_AppPB_ZCLInd
          CFI (cfiCond32) Conditional ??CrossCallReturnLabel_26, ??CrossCallReturnLabel_6
          CFI (cfiCond32) R6 load(1, XDATA, add(CFA_XSP16, literal(-15)))
          CFI (cfiCond32) VB load(1, XDATA, add(CFA_XSP16, literal(-14)))
          CFI (cfiCond32) V0 load(1, XDATA, add(CFA_XSP16, literal(-13)))
          CFI (cfiCond32) V1 load(1, XDATA, add(CFA_XSP16, literal(-12)))
          CFI (cfiCond32) V2 load(1, XDATA, add(CFA_XSP16, literal(-11)))
          CFI (cfiCond32) V3 load(1, XDATA, add(CFA_XSP16, literal(-10)))
          CFI (cfiCond32) V4 load(1, XDATA, add(CFA_XSP16, literal(-9)))
          CFI (cfiCond32) V5 load(1, XDATA, add(CFA_XSP16, literal(-8)))
          CFI (cfiCond32) V6 load(1, XDATA, add(CFA_XSP16, literal(-7)))
          CFI (cfiCond32) R7 load(1, XDATA, add(CFA_XSP16, literal(-6)))
          CFI (cfiCond32) ?RET_LOW load(1, XDATA, add(CFA_XSP16, literal(-5)))
          CFI (cfiCond32) ?RET_HIGH load(1, XDATA, add(CFA_XSP16, literal(-4)))
          CFI (cfiCond32) ?BRET_EXT load(1, XDATA, add(CFA_XSP16, literal(-3)))
          CFI (cfiCond32) DPL0 load(1, XDATA, add(CFA_XSP16, literal(-2)))
          CFI (cfiCond32) DPH0 load(1, XDATA, add(CFA_XSP16, literal(-1)))
          CFI (cfiCond32) CFA_SP SP+-4
          CFI (cfiCond32) CFA_XSP16 add(XSP16, 15)
          CFI Block cfiCond33 Using cfiCommon0
          CFI (cfiCond33) Function MT_AppPB_ZCLInd
          CFI (cfiCond33) Conditional ??CrossCallReturnLabel_26, ??CrossCallReturnLabel_7
          CFI (cfiCond33) R6 load(1, XDATA, add(CFA_XSP16, literal(-15)))
          CFI (cfiCond33) VB load(1, XDATA, add(CFA_XSP16, literal(-14)))
          CFI (cfiCond33) V0 load(1, XDATA, add(CFA_XSP16, literal(-13)))
          CFI (cfiCond33) V1 load(1, XDATA, add(CFA_XSP16, literal(-12)))
          CFI (cfiCond33) V2 load(1, XDATA, add(CFA_XSP16, literal(-11)))
          CFI (cfiCond33) V3 load(1, XDATA, add(CFA_XSP16, literal(-10)))
          CFI (cfiCond33) V4 load(1, XDATA, add(CFA_XSP16, literal(-9)))
          CFI (cfiCond33) V5 load(1, XDATA, add(CFA_XSP16, literal(-8)))
          CFI (cfiCond33) V6 load(1, XDATA, add(CFA_XSP16, literal(-7)))
          CFI (cfiCond33) R7 load(1, XDATA, add(CFA_XSP16, literal(-6)))
          CFI (cfiCond33) ?RET_LOW load(1, XDATA, add(CFA_XSP16, literal(-5)))
          CFI (cfiCond33) ?RET_HIGH load(1, XDATA, add(CFA_XSP16, literal(-4)))
          CFI (cfiCond33) ?BRET_EXT load(1, XDATA, add(CFA_XSP16, literal(-3)))
          CFI (cfiCond33) DPL0 load(1, XDATA, add(CFA_XSP16, literal(-2)))
          CFI (cfiCond33) DPH0 load(1, XDATA, add(CFA_XSP16, literal(-1)))
          CFI (cfiCond33) CFA_SP SP+-4
          CFI (cfiCond33) CFA_XSP16 add(XSP16, 15)
          CFI Block cfiPicker34 Using cfiCommon1
          CFI (cfiPicker34) NoFunction
          CFI (cfiPicker34) Picker
        INC       DPTR
          CFI EndBlock cfiCond31
          CFI EndBlock cfiCond32
          CFI EndBlock cfiCond33
          CFI EndBlock cfiPicker34
        REQUIRE ??Subroutine12_0
        ; // Fall through to label ??Subroutine12_0

        RSEG BANKED_CODE:HUGECODE:NOROOT(0)
??Subroutine12_0:
          CFI Block cfiCond35 Using cfiCommon0
          CFI Function MT_AppPB_ZCLInd
          CFI Conditional ??CrossCallReturnLabel_23
          CFI R6 load(1, XDATA, add(CFA_XSP16, literal(-15)))
          CFI VB load(1, XDATA, add(CFA_XSP16, literal(-14)))
          CFI V0 load(1, XDATA, add(CFA_XSP16, literal(-13)))
          CFI V1 load(1, XDATA, add(CFA_XSP16, literal(-12)))
          CFI V2 load(1, XDATA, add(CFA_XSP16, literal(-11)))
          CFI V3 load(1, XDATA, add(CFA_XSP16, literal(-10)))
          CFI V4 load(1, XDATA, add(CFA_XSP16, literal(-9)))
          CFI V5 load(1, XDATA, add(CFA_XSP16, literal(-8)))
          CFI V6 load(1, XDATA, add(CFA_XSP16, literal(-7)))
          CFI R7 load(1, XDATA, add(CFA_XSP16, literal(-6)))
          CFI ?RET_LOW load(1, XDATA, add(CFA_XSP16, literal(-5)))
          CFI ?RET_HIGH load(1, XDATA, add(CFA_XSP16, literal(-4)))
          CFI ?BRET_EXT load(1, XDATA, add(CFA_XSP16, literal(-3)))
          CFI DPL0 load(1, XDATA, add(CFA_XSP16, literal(-2)))
          CFI DPH0 load(1, XDATA, add(CFA_XSP16, literal(-1)))
          CFI CFA_SP SP+-2
          CFI CFA_XSP16 add(XSP16, 15)
          CFI Block cfiCond36 Using cfiCommon0
          CFI (cfiCond36) Function MT_AppPB_ZCLInd
          CFI (cfiCond36) Conditional ??CrossCallReturnLabel_24, ??CrossCallReturnLabel_12
          CFI (cfiCond36) R6 load(1, XDATA, add(CFA_XSP16, literal(-15)))
          CFI (cfiCond36) VB load(1, XDATA, add(CFA_XSP16, literal(-14)))
          CFI (cfiCond36) V0 load(1, XDATA, add(CFA_XSP16, literal(-13)))
          CFI (cfiCond36) V1 load(1, XDATA, add(CFA_XSP16, literal(-12)))
          CFI (cfiCond36) V2 load(1, XDATA, add(CFA_XSP16, literal(-11)))
          CFI (cfiCond36) V3 load(1, XDATA, add(CFA_XSP16, literal(-10)))
          CFI (cfiCond36) V4 load(1, XDATA, add(CFA_XSP16, literal(-9)))
          CFI (cfiCond36) V5 load(1, XDATA, add(CFA_XSP16, literal(-8)))
          CFI (cfiCond36) V6 load(1, XDATA, add(CFA_XSP16, literal(-7)))
          CFI (cfiCond36) R7 load(1, XDATA, add(CFA_XSP16, literal(-6)))
          CFI (cfiCond36) ?RET_LOW load(1, XDATA, add(CFA_XSP16, literal(-5)))
          CFI (cfiCond36) ?RET_HIGH load(1, XDATA, add(CFA_XSP16, literal(-4)))
          CFI (cfiCond36) ?BRET_EXT load(1, XDATA, add(CFA_XSP16, literal(-3)))
          CFI (cfiCond36) DPL0 load(1, XDATA, add(CFA_XSP16, literal(-2)))
          CFI (cfiCond36) DPH0 load(1, XDATA, add(CFA_XSP16, literal(-1)))
          CFI (cfiCond36) CFA_SP SP+-4
          CFI (cfiCond36) CFA_XSP16 add(XSP16, 15)
          CFI Block cfiCond37 Using cfiCommon0
          CFI (cfiCond37) Function MT_AppPB_ZCLInd
          CFI (cfiCond37) Conditional ??CrossCallReturnLabel_24, ??CrossCallReturnLabel_13
          CFI (cfiCond37) R6 load(1, XDATA, add(CFA_XSP16, literal(-15)))
          CFI (cfiCond37) VB load(1, XDATA, add(CFA_XSP16, literal(-14)))
          CFI (cfiCond37) V0 load(1, XDATA, add(CFA_XSP16, literal(-13)))
          CFI (cfiCond37) V1 load(1, XDATA, add(CFA_XSP16, literal(-12)))
          CFI (cfiCond37) V2 load(1, XDATA, add(CFA_XSP16, literal(-11)))
          CFI (cfiCond37) V3 load(1, XDATA, add(CFA_XSP16, literal(-10)))
          CFI (cfiCond37) V4 load(1, XDATA, add(CFA_XSP16, literal(-9)))
          CFI (cfiCond37) V5 load(1, XDATA, add(CFA_XSP16, literal(-8)))
          CFI (cfiCond37) V6 load(1, XDATA, add(CFA_XSP16, literal(-7)))
          CFI (cfiCond37) R7 load(1, XDATA, add(CFA_XSP16, literal(-6)))
          CFI (cfiCond37) ?RET_LOW load(1, XDATA, add(CFA_XSP16, literal(-5)))
          CFI (cfiCond37) ?RET_HIGH load(1, XDATA, add(CFA_XSP16, literal(-4)))
          CFI (cfiCond37) ?BRET_EXT load(1, XDATA, add(CFA_XSP16, literal(-3)))
          CFI (cfiCond37) DPL0 load(1, XDATA, add(CFA_XSP16, literal(-2)))
          CFI (cfiCond37) DPH0 load(1, XDATA, add(CFA_XSP16, literal(-1)))
          CFI (cfiCond37) CFA_SP SP+-4
          CFI (cfiCond37) CFA_XSP16 add(XSP16, 15)
          CFI Block cfiCond38 Using cfiCommon0
          CFI (cfiCond38) Function MT_AppPB_ZCLInd
          CFI (cfiCond38) Conditional ??CrossCallReturnLabel_24, ??CrossCallReturnLabel_14
          CFI (cfiCond38) R6 load(1, XDATA, add(CFA_XSP16, literal(-15)))
          CFI (cfiCond38) VB load(1, XDATA, add(CFA_XSP16, literal(-14)))
          CFI (cfiCond38) V0 load(1, XDATA, add(CFA_XSP16, literal(-13)))
          CFI (cfiCond38) V1 load(1, XDATA, add(CFA_XSP16, literal(-12)))
          CFI (cfiCond38) V2 load(1, XDATA, add(CFA_XSP16, literal(-11)))
          CFI (cfiCond38) V3 load(1, XDATA, add(CFA_XSP16, literal(-10)))
          CFI (cfiCond38) V4 load(1, XDATA, add(CFA_XSP16, literal(-9)))
          CFI (cfiCond38) V5 load(1, XDATA, add(CFA_XSP16, literal(-8)))
          CFI (cfiCond38) V6 load(1, XDATA, add(CFA_XSP16, literal(-7)))
          CFI (cfiCond38) R7 load(1, XDATA, add(CFA_XSP16, literal(-6)))
          CFI (cfiCond38) ?RET_LOW load(1, XDATA, add(CFA_XSP16, literal(-5)))
          CFI (cfiCond38) ?RET_HIGH load(1, XDATA, add(CFA_XSP16, literal(-4)))
          CFI (cfiCond38) ?BRET_EXT load(1, XDATA, add(CFA_XSP16, literal(-3)))
          CFI (cfiCond38) DPL0 load(1, XDATA, add(CFA_XSP16, literal(-2)))
          CFI (cfiCond38) DPH0 load(1, XDATA, add(CFA_XSP16, literal(-1)))
          CFI (cfiCond38) CFA_SP SP+-4
          CFI (cfiCond38) CFA_XSP16 add(XSP16, 15)
          CFI Block cfiCond39 Using cfiCommon0
          CFI (cfiCond39) Function MT_AppPB_ZCLInd
          CFI (cfiCond39) Conditional ??CrossCallReturnLabel_25
          CFI (cfiCond39) R6 load(1, XDATA, add(CFA_XSP16, literal(-15)))
          CFI (cfiCond39) VB load(1, XDATA, add(CFA_XSP16, literal(-14)))
          CFI (cfiCond39) V0 load(1, XDATA, add(CFA_XSP16, literal(-13)))
          CFI (cfiCond39) V1 load(1, XDATA, add(CFA_XSP16, literal(-12)))
          CFI (cfiCond39) V2 load(1, XDATA, add(CFA_XSP16, literal(-11)))
          CFI (cfiCond39) V3 load(1, XDATA, add(CFA_XSP16, literal(-10)))
          CFI (cfiCond39) V4 load(1, XDATA, add(CFA_XSP16, literal(-9)))
          CFI (cfiCond39) V5 load(1, XDATA, add(CFA_XSP16, literal(-8)))
          CFI (cfiCond39) V6 load(1, XDATA, add(CFA_XSP16, literal(-7)))
          CFI (cfiCond39) R7 load(1, XDATA, add(CFA_XSP16, literal(-6)))
          CFI (cfiCond39) ?RET_LOW load(1, XDATA, add(CFA_XSP16, literal(-5)))
          CFI (cfiCond39) ?RET_HIGH load(1, XDATA, add(CFA_XSP16, literal(-4)))
          CFI (cfiCond39) ?BRET_EXT load(1, XDATA, add(CFA_XSP16, literal(-3)))
          CFI (cfiCond39) DPL0 load(1, XDATA, add(CFA_XSP16, literal(-2)))
          CFI (cfiCond39) DPH0 load(1, XDATA, add(CFA_XSP16, literal(-1)))
          CFI (cfiCond39) CFA_SP SP+-2
          CFI (cfiCond39) CFA_XSP16 add(XSP16, 15)
          CFI Block cfiCond40 Using cfiCommon0
          CFI (cfiCond40) Function MT_AppPB_ZCLInd
          CFI (cfiCond40) Conditional ??CrossCallReturnLabel_26, ??CrossCallReturnLabel_6
          CFI (cfiCond40) R6 load(1, XDATA, add(CFA_XSP16, literal(-15)))
          CFI (cfiCond40) VB load(1, XDATA, add(CFA_XSP16, literal(-14)))
          CFI (cfiCond40) V0 load(1, XDATA, add(CFA_XSP16, literal(-13)))
          CFI (cfiCond40) V1 load(1, XDATA, add(CFA_XSP16, literal(-12)))
          CFI (cfiCond40) V2 load(1, XDATA, add(CFA_XSP16, literal(-11)))
          CFI (cfiCond40) V3 load(1, XDATA, add(CFA_XSP16, literal(-10)))
          CFI (cfiCond40) V4 load(1, XDATA, add(CFA_XSP16, literal(-9)))
          CFI (cfiCond40) V5 load(1, XDATA, add(CFA_XSP16, literal(-8)))
          CFI (cfiCond40) V6 load(1, XDATA, add(CFA_XSP16, literal(-7)))
          CFI (cfiCond40) R7 load(1, XDATA, add(CFA_XSP16, literal(-6)))
          CFI (cfiCond40) ?RET_LOW load(1, XDATA, add(CFA_XSP16, literal(-5)))
          CFI (cfiCond40) ?RET_HIGH load(1, XDATA, add(CFA_XSP16, literal(-4)))
          CFI (cfiCond40) ?BRET_EXT load(1, XDATA, add(CFA_XSP16, literal(-3)))
          CFI (cfiCond40) DPL0 load(1, XDATA, add(CFA_XSP16, literal(-2)))
          CFI (cfiCond40) DPH0 load(1, XDATA, add(CFA_XSP16, literal(-1)))
          CFI (cfiCond40) CFA_SP SP+-4
          CFI (cfiCond40) CFA_XSP16 add(XSP16, 15)
          CFI Block cfiCond41 Using cfiCommon0
          CFI (cfiCond41) Function MT_AppPB_ZCLInd
          CFI (cfiCond41) Conditional ??CrossCallReturnLabel_26, ??CrossCallReturnLabel_7
          CFI (cfiCond41) R6 load(1, XDATA, add(CFA_XSP16, literal(-15)))
          CFI (cfiCond41) VB load(1, XDATA, add(CFA_XSP16, literal(-14)))
          CFI (cfiCond41) V0 load(1, XDATA, add(CFA_XSP16, literal(-13)))
          CFI (cfiCond41) V1 load(1, XDATA, add(CFA_XSP16, literal(-12)))
          CFI (cfiCond41) V2 load(1, XDATA, add(CFA_XSP16, literal(-11)))
          CFI (cfiCond41) V3 load(1, XDATA, add(CFA_XSP16, literal(-10)))
          CFI (cfiCond41) V4 load(1, XDATA, add(CFA_XSP16, literal(-9)))
          CFI (cfiCond41) V5 load(1, XDATA, add(CFA_XSP16, literal(-8)))
          CFI (cfiCond41) V6 load(1, XDATA, add(CFA_XSP16, literal(-7)))
          CFI (cfiCond41) R7 load(1, XDATA, add(CFA_XSP16, literal(-6)))
          CFI (cfiCond41) ?RET_LOW load(1, XDATA, add(CFA_XSP16, literal(-5)))
          CFI (cfiCond41) ?RET_HIGH load(1, XDATA, add(CFA_XSP16, literal(-4)))
          CFI (cfiCond41) ?BRET_EXT load(1, XDATA, add(CFA_XSP16, literal(-3)))
          CFI (cfiCond41) DPL0 load(1, XDATA, add(CFA_XSP16, literal(-2)))
          CFI (cfiCond41) DPH0 load(1, XDATA, add(CFA_XSP16, literal(-1)))
          CFI (cfiCond41) CFA_SP SP+-4
          CFI (cfiCond41) CFA_XSP16 add(XSP16, 15)
          CFI Block cfiPicker42 Using cfiCommon1
          CFI (cfiPicker42) NoFunction
          CFI (cfiPicker42) Picker
        MOVX      A,@DPTR
        MOV       DPL,R2
        MOV       DPH,R3
        RET
          CFI EndBlock cfiCond35
          CFI EndBlock cfiCond36
          CFI EndBlock cfiCond37
          CFI EndBlock cfiCond38
          CFI EndBlock cfiCond39
          CFI EndBlock cfiCond40
          CFI EndBlock cfiCond41
          CFI EndBlock cfiPicker42

        RSEG BANKED_CODE:HUGECODE:NOROOT(0)
?Subroutine2:
          CFI Block cfiCond43 Using cfiCommon0
          CFI Function MT_AppPB_ZCLInd
          CFI Conditional ??CrossCallReturnLabel_4
          CFI R6 load(1, XDATA, add(CFA_XSP16, literal(-15)))
          CFI VB load(1, XDATA, add(CFA_XSP16, literal(-14)))
          CFI V0 load(1, XDATA, add(CFA_XSP16, literal(-13)))
          CFI V1 load(1, XDATA, add(CFA_XSP16, literal(-12)))
          CFI V2 load(1, XDATA, add(CFA_XSP16, literal(-11)))
          CFI V3 load(1, XDATA, add(CFA_XSP16, literal(-10)))
          CFI V4 load(1, XDATA, add(CFA_XSP16, literal(-9)))
          CFI V5 load(1, XDATA, add(CFA_XSP16, literal(-8)))
          CFI V6 load(1, XDATA, add(CFA_XSP16, literal(-7)))
          CFI R7 load(1, XDATA, add(CFA_XSP16, literal(-6)))
          CFI ?RET_LOW load(1, XDATA, add(CFA_XSP16, literal(-5)))
          CFI ?RET_HIGH load(1, XDATA, add(CFA_XSP16, literal(-4)))
          CFI ?BRET_EXT load(1, XDATA, add(CFA_XSP16, literal(-3)))
          CFI DPL0 load(1, XDATA, add(CFA_XSP16, literal(-2)))
          CFI DPH0 load(1, XDATA, add(CFA_XSP16, literal(-1)))
          CFI CFA_SP SP+-2
          CFI CFA_XSP16 add(XSP16, 15)
          CFI Block cfiCond44 Using cfiCommon0
          CFI (cfiCond44) Function MT_AppPB_ZCLInd
          CFI (cfiCond44) Conditional ??CrossCallReturnLabel_5
          CFI (cfiCond44) R6 load(1, XDATA, add(CFA_XSP16, literal(-15)))
          CFI (cfiCond44) VB load(1, XDATA, add(CFA_XSP16, literal(-14)))
          CFI (cfiCond44) V0 load(1, XDATA, add(CFA_XSP16, literal(-13)))
          CFI (cfiCond44) V1 load(1, XDATA, add(CFA_XSP16, literal(-12)))
          CFI (cfiCond44) V2 load(1, XDATA, add(CFA_XSP16, literal(-11)))
          CFI (cfiCond44) V3 load(1, XDATA, add(CFA_XSP16, literal(-10)))
          CFI (cfiCond44) V4 load(1, XDATA, add(CFA_XSP16, literal(-9)))
          CFI (cfiCond44) V5 load(1, XDATA, add(CFA_XSP16, literal(-8)))
          CFI (cfiCond44) V6 load(1, XDATA, add(CFA_XSP16, literal(-7)))
          CFI (cfiCond44) R7 load(1, XDATA, add(CFA_XSP16, literal(-6)))
          CFI (cfiCond44) ?RET_LOW load(1, XDATA, add(CFA_XSP16, literal(-5)))
          CFI (cfiCond44) ?RET_HIGH load(1, XDATA, add(CFA_XSP16, literal(-4)))
          CFI (cfiCond44) ?BRET_EXT load(1, XDATA, add(CFA_XSP16, literal(-3)))
          CFI (cfiCond44) DPL0 load(1, XDATA, add(CFA_XSP16, literal(-2)))
          CFI (cfiCond44) DPH0 load(1, XDATA, add(CFA_XSP16, literal(-1)))
          CFI (cfiCond44) CFA_SP SP+-2
          CFI (cfiCond44) CFA_XSP16 add(XSP16, 15)
          CFI Block cfiPicker45 Using cfiCommon1
          CFI (cfiPicker45) NoFunction
          CFI (cfiPicker45) Picker
        LCALL     ?Subroutine8 & 0xFFFF
??CrossCallReturnLabel_17:
        RET
          CFI EndBlock cfiCond43
          CFI EndBlock cfiCond44
          CFI EndBlock cfiPicker45

        RSEG BANKED_CODE:HUGECODE:NOROOT(0)
?Subroutine8:
          CFI Block cfiCond46 Using cfiCommon0
          CFI Function MT_AppPB_ZCLInd
          CFI Conditional ??CrossCallReturnLabel_17, ??CrossCallReturnLabel_4
          CFI R6 load(1, XDATA, add(CFA_XSP16, literal(-15)))
          CFI VB load(1, XDATA, add(CFA_XSP16, literal(-14)))
          CFI V0 load(1, XDATA, add(CFA_XSP16, literal(-13)))
          CFI V1 load(1, XDATA, add(CFA_XSP16, literal(-12)))
          CFI V2 load(1, XDATA, add(CFA_XSP16, literal(-11)))
          CFI V3 load(1, XDATA, add(CFA_XSP16, literal(-10)))
          CFI V4 load(1, XDATA, add(CFA_XSP16, literal(-9)))
          CFI V5 load(1, XDATA, add(CFA_XSP16, literal(-8)))
          CFI V6 load(1, XDATA, add(CFA_XSP16, literal(-7)))
          CFI R7 load(1, XDATA, add(CFA_XSP16, literal(-6)))
          CFI ?RET_LOW load(1, XDATA, add(CFA_XSP16, literal(-5)))
          CFI ?RET_HIGH load(1, XDATA, add(CFA_XSP16, literal(-4)))
          CFI ?BRET_EXT load(1, XDATA, add(CFA_XSP16, literal(-3)))
          CFI DPL0 load(1, XDATA, add(CFA_XSP16, literal(-2)))
          CFI DPH0 load(1, XDATA, add(CFA_XSP16, literal(-1)))
          CFI CFA_SP SP+-4
          CFI CFA_XSP16 add(XSP16, 15)
          CFI Block cfiCond47 Using cfiCommon0
          CFI (cfiCond47) Function MT_AppPB_ZCLInd
          CFI (cfiCond47) Conditional ??CrossCallReturnLabel_17, ??CrossCallReturnLabel_5
          CFI (cfiCond47) R6 load(1, XDATA, add(CFA_XSP16, literal(-15)))
          CFI (cfiCond47) VB load(1, XDATA, add(CFA_XSP16, literal(-14)))
          CFI (cfiCond47) V0 load(1, XDATA, add(CFA_XSP16, literal(-13)))
          CFI (cfiCond47) V1 load(1, XDATA, add(CFA_XSP16, literal(-12)))
          CFI (cfiCond47) V2 load(1, XDATA, add(CFA_XSP16, literal(-11)))
          CFI (cfiCond47) V3 load(1, XDATA, add(CFA_XSP16, literal(-10)))
          CFI (cfiCond47) V4 load(1, XDATA, add(CFA_XSP16, literal(-9)))
          CFI (cfiCond47) V5 load(1, XDATA, add(CFA_XSP16, literal(-8)))
          CFI (cfiCond47) V6 load(1, XDATA, add(CFA_XSP16, literal(-7)))
          CFI (cfiCond47) R7 load(1, XDATA, add(CFA_XSP16, literal(-6)))
          CFI (cfiCond47) ?RET_LOW load(1, XDATA, add(CFA_XSP16, literal(-5)))
          CFI (cfiCond47) ?RET_HIGH load(1, XDATA, add(CFA_XSP16, literal(-4)))
          CFI (cfiCond47) ?BRET_EXT load(1, XDATA, add(CFA_XSP16, literal(-3)))
          CFI (cfiCond47) DPL0 load(1, XDATA, add(CFA_XSP16, literal(-2)))
          CFI (cfiCond47) DPH0 load(1, XDATA, add(CFA_XSP16, literal(-1)))
          CFI (cfiCond47) CFA_SP SP+-4
          CFI (cfiCond47) CFA_XSP16 add(XSP16, 15)
          CFI Block cfiCond48 Using cfiCommon0
          CFI (cfiCond48) Function MT_AppPB_ZCLInd
          CFI (cfiCond48) Conditional ??CrossCallReturnLabel_18, ??CrossCallReturnLabel_2
          CFI (cfiCond48) R6 load(1, XDATA, add(CFA_XSP16, literal(-15)))
          CFI (cfiCond48) VB load(1, XDATA, add(CFA_XSP16, literal(-14)))
          CFI (cfiCond48) V0 load(1, XDATA, add(CFA_XSP16, literal(-13)))
          CFI (cfiCond48) V1 load(1, XDATA, add(CFA_XSP16, literal(-12)))
          CFI (cfiCond48) V2 load(1, XDATA, add(CFA_XSP16, literal(-11)))
          CFI (cfiCond48) V3 load(1, XDATA, add(CFA_XSP16, literal(-10)))
          CFI (cfiCond48) V4 load(1, XDATA, add(CFA_XSP16, literal(-9)))
          CFI (cfiCond48) V5 load(1, XDATA, add(CFA_XSP16, literal(-8)))
          CFI (cfiCond48) V6 load(1, XDATA, add(CFA_XSP16, literal(-7)))
          CFI (cfiCond48) R7 load(1, XDATA, add(CFA_XSP16, literal(-6)))
          CFI (cfiCond48) ?RET_LOW load(1, XDATA, add(CFA_XSP16, literal(-5)))
          CFI (cfiCond48) ?RET_HIGH load(1, XDATA, add(CFA_XSP16, literal(-4)))
          CFI (cfiCond48) ?BRET_EXT load(1, XDATA, add(CFA_XSP16, literal(-3)))
          CFI (cfiCond48) DPL0 load(1, XDATA, add(CFA_XSP16, literal(-2)))
          CFI (cfiCond48) DPH0 load(1, XDATA, add(CFA_XSP16, literal(-1)))
          CFI (cfiCond48) CFA_SP SP+-4
          CFI (cfiCond48) CFA_XSP16 add(XSP16, 15)
          CFI Block cfiCond49 Using cfiCommon0
          CFI (cfiCond49) Function MT_AppPB_ZCLInd
          CFI (cfiCond49) Conditional ??CrossCallReturnLabel_18, ??CrossCallReturnLabel_3
          CFI (cfiCond49) R6 load(1, XDATA, add(CFA_XSP16, literal(-15)))
          CFI (cfiCond49) VB load(1, XDATA, add(CFA_XSP16, literal(-14)))
          CFI (cfiCond49) V0 load(1, XDATA, add(CFA_XSP16, literal(-13)))
          CFI (cfiCond49) V1 load(1, XDATA, add(CFA_XSP16, literal(-12)))
          CFI (cfiCond49) V2 load(1, XDATA, add(CFA_XSP16, literal(-11)))
          CFI (cfiCond49) V3 load(1, XDATA, add(CFA_XSP16, literal(-10)))
          CFI (cfiCond49) V4 load(1, XDATA, add(CFA_XSP16, literal(-9)))
          CFI (cfiCond49) V5 load(1, XDATA, add(CFA_XSP16, literal(-8)))
          CFI (cfiCond49) V6 load(1, XDATA, add(CFA_XSP16, literal(-7)))
          CFI (cfiCond49) R7 load(1, XDATA, add(CFA_XSP16, literal(-6)))
          CFI (cfiCond49) ?RET_LOW load(1, XDATA, add(CFA_XSP16, literal(-5)))
          CFI (cfiCond49) ?RET_HIGH load(1, XDATA, add(CFA_XSP16, literal(-4)))
          CFI (cfiCond49) ?BRET_EXT load(1, XDATA, add(CFA_XSP16, literal(-3)))
          CFI (cfiCond49) DPL0 load(1, XDATA, add(CFA_XSP16, literal(-2)))
          CFI (cfiCond49) DPH0 load(1, XDATA, add(CFA_XSP16, literal(-1)))
          CFI (cfiCond49) CFA_SP SP+-4
          CFI (cfiCond49) CFA_XSP16 add(XSP16, 15)
          CFI Block cfiPicker50 Using cfiCommon1
          CFI (cfiPicker50) NoFunction
          CFI (cfiPicker50) Picker
        INC       DPTR
        INC       DPTR
        INC       DPTR
        INC       DPTR
        INC       DPTR
        LCALL     ?Subroutine11 & 0xFFFF
??CrossCallReturnLabel_22:
        INC       DPTR
        INC       DPTR
        INC       DPTR
        INC       DPTR
        INC       DPTR
        RET
          CFI EndBlock cfiCond46
          CFI EndBlock cfiCond47
          CFI EndBlock cfiCond48
          CFI EndBlock cfiCond49
          CFI EndBlock cfiPicker50

        RSEG BANKED_CODE:HUGECODE:NOROOT(0)
?Subroutine1:
          CFI Block cfiCond51 Using cfiCommon0
          CFI Function MT_AppPB_ZCLInd
          CFI Conditional ??CrossCallReturnLabel_2
          CFI R6 load(1, XDATA, add(CFA_XSP16, literal(-15)))
          CFI VB load(1, XDATA, add(CFA_XSP16, literal(-14)))
          CFI V0 load(1, XDATA, add(CFA_XSP16, literal(-13)))
          CFI V1 load(1, XDATA, add(CFA_XSP16, literal(-12)))
          CFI V2 load(1, XDATA, add(CFA_XSP16, literal(-11)))
          CFI V3 load(1, XDATA, add(CFA_XSP16, literal(-10)))
          CFI V4 load(1, XDATA, add(CFA_XSP16, literal(-9)))
          CFI V5 load(1, XDATA, add(CFA_XSP16, literal(-8)))
          CFI V6 load(1, XDATA, add(CFA_XSP16, literal(-7)))
          CFI R7 load(1, XDATA, add(CFA_XSP16, literal(-6)))
          CFI ?RET_LOW load(1, XDATA, add(CFA_XSP16, literal(-5)))
          CFI ?RET_HIGH load(1, XDATA, add(CFA_XSP16, literal(-4)))
          CFI ?BRET_EXT load(1, XDATA, add(CFA_XSP16, literal(-3)))
          CFI DPL0 load(1, XDATA, add(CFA_XSP16, literal(-2)))
          CFI DPH0 load(1, XDATA, add(CFA_XSP16, literal(-1)))
          CFI CFA_SP SP+-2
          CFI CFA_XSP16 add(XSP16, 15)
          CFI Block cfiCond52 Using cfiCommon0
          CFI (cfiCond52) Function MT_AppPB_ZCLInd
          CFI (cfiCond52) Conditional ??CrossCallReturnLabel_3
          CFI (cfiCond52) R6 load(1, XDATA, add(CFA_XSP16, literal(-15)))
          CFI (cfiCond52) VB load(1, XDATA, add(CFA_XSP16, literal(-14)))
          CFI (cfiCond52) V0 load(1, XDATA, add(CFA_XSP16, literal(-13)))
          CFI (cfiCond52) V1 load(1, XDATA, add(CFA_XSP16, literal(-12)))
          CFI (cfiCond52) V2 load(1, XDATA, add(CFA_XSP16, literal(-11)))
          CFI (cfiCond52) V3 load(1, XDATA, add(CFA_XSP16, literal(-10)))
          CFI (cfiCond52) V4 load(1, XDATA, add(CFA_XSP16, literal(-9)))
          CFI (cfiCond52) V5 load(1, XDATA, add(CFA_XSP16, literal(-8)))
          CFI (cfiCond52) V6 load(1, XDATA, add(CFA_XSP16, literal(-7)))
          CFI (cfiCond52) R7 load(1, XDATA, add(CFA_XSP16, literal(-6)))
          CFI (cfiCond52) ?RET_LOW load(1, XDATA, add(CFA_XSP16, literal(-5)))
          CFI (cfiCond52) ?RET_HIGH load(1, XDATA, add(CFA_XSP16, literal(-4)))
          CFI (cfiCond52) ?BRET_EXT load(1, XDATA, add(CFA_XSP16, literal(-3)))
          CFI (cfiCond52) DPL0 load(1, XDATA, add(CFA_XSP16, literal(-2)))
          CFI (cfiCond52) DPH0 load(1, XDATA, add(CFA_XSP16, literal(-1)))
          CFI (cfiCond52) CFA_SP SP+-2
          CFI (cfiCond52) CFA_XSP16 add(XSP16, 15)
          CFI Block cfiPicker53 Using cfiCommon1
          CFI (cfiPicker53) NoFunction
          CFI (cfiPicker53) Picker
        INC       DPTR
        INC       DPTR
        LCALL     ?Subroutine8 & 0xFFFF
??CrossCallReturnLabel_18:
        INC       DPTR
        INC       DPTR
        RET
          CFI EndBlock cfiCond51
          CFI EndBlock cfiCond52
          CFI EndBlock cfiPicker53

        RSEG BANKED_CODE:HUGECODE:NOROOT(0)
?Subroutine0:
          CFI Block cfiCond54 Using cfiCommon0
          CFI Function MT_AppPB_ZCLInd
          CFI Conditional ??CrossCallReturnLabel_0
          CFI R6 load(1, XDATA, add(CFA_XSP16, literal(-15)))
          CFI VB load(1, XDATA, add(CFA_XSP16, literal(-14)))
          CFI V0 load(1, XDATA, add(CFA_XSP16, literal(-13)))
          CFI V1 load(1, XDATA, add(CFA_XSP16, literal(-12)))
          CFI V2 load(1, XDATA, add(CFA_XSP16, literal(-11)))
          CFI V3 load(1, XDATA, add(CFA_XSP16, literal(-10)))
          CFI V4 load(1, XDATA, add(CFA_XSP16, literal(-9)))
          CFI V5 load(1, XDATA, add(CFA_XSP16, literal(-8)))
          CFI V6 load(1, XDATA, add(CFA_XSP16, literal(-7)))
          CFI R7 load(1, XDATA, add(CFA_XSP16, literal(-6)))
          CFI ?RET_LOW load(1, XDATA, add(CFA_XSP16, literal(-5)))
          CFI ?RET_HIGH load(1, XDATA, add(CFA_XSP16, literal(-4)))
          CFI ?BRET_EXT load(1, XDATA, add(CFA_XSP16, literal(-3)))
          CFI DPL0 load(1, XDATA, add(CFA_XSP16, literal(-2)))
          CFI DPH0 load(1, XDATA, add(CFA_XSP16, literal(-1)))
          CFI CFA_SP SP+-2
          CFI CFA_XSP16 add(XSP16, 15)
          CFI Block cfiCond55 Using cfiCommon0
          CFI (cfiCond55) Function MT_AppPB_ZCLInd
          CFI (cfiCond55) Conditional ??CrossCallReturnLabel_1
          CFI (cfiCond55) R6 load(1, XDATA, add(CFA_XSP16, literal(-15)))
          CFI (cfiCond55) VB load(1, XDATA, add(CFA_XSP16, literal(-14)))
          CFI (cfiCond55) V0 load(1, XDATA, add(CFA_XSP16, literal(-13)))
          CFI (cfiCond55) V1 load(1, XDATA, add(CFA_XSP16, literal(-12)))
          CFI (cfiCond55) V2 load(1, XDATA, add(CFA_XSP16, literal(-11)))
          CFI (cfiCond55) V3 load(1, XDATA, add(CFA_XSP16, literal(-10)))
          CFI (cfiCond55) V4 load(1, XDATA, add(CFA_XSP16, literal(-9)))
          CFI (cfiCond55) V5 load(1, XDATA, add(CFA_XSP16, literal(-8)))
          CFI (cfiCond55) V6 load(1, XDATA, add(CFA_XSP16, literal(-7)))
          CFI (cfiCond55) R7 load(1, XDATA, add(CFA_XSP16, literal(-6)))
          CFI (cfiCond55) ?RET_LOW load(1, XDATA, add(CFA_XSP16, literal(-5)))
          CFI (cfiCond55) ?RET_HIGH load(1, XDATA, add(CFA_XSP16, literal(-4)))
          CFI (cfiCond55) ?BRET_EXT load(1, XDATA, add(CFA_XSP16, literal(-3)))
          CFI (cfiCond55) DPL0 load(1, XDATA, add(CFA_XSP16, literal(-2)))
          CFI (cfiCond55) DPH0 load(1, XDATA, add(CFA_XSP16, literal(-1)))
          CFI (cfiCond55) CFA_SP SP+-2
          CFI (cfiCond55) CFA_XSP16 add(XSP16, 15)
          CFI Block cfiPicker56 Using cfiCommon1
          CFI (cfiPicker56) NoFunction
          CFI (cfiPicker56) Picker
        MOV       R0,A
        CLR       A
        ADDC      A,?V3
        MOV       R1,A
        MOV       DPL,R0
        MOV       DPH,R1
        LCALL     ?Subroutine9 & 0xFFFF
??CrossCallReturnLabel_19:
        INC       DPTR
        RET
          CFI EndBlock cfiCond54
          CFI EndBlock cfiCond55
          CFI EndBlock cfiPicker56

        RSEG BANK_RELAYS:CODE:REORDER:NOROOT(0)
`??MT_AppCommandProcessing::?relay`:
        CODE
        LCALL   ?BDISPATCH
        DATA24
        DC24    MT_AppCommandProcessing

        RSEG BANK_RELAYS:CODE:REORDER:NOROOT(0)
`??MT_AppMsg::?relay`:
        CODE
        LCALL   ?BDISPATCH
        DATA24
        DC24    MT_AppMsg

        RSEG BANK_RELAYS:CODE:REORDER:NOROOT(0)
`??MT_AppPB_ZCLInd::?relay`:
        CODE
        LCALL   ?BDISPATCH
        DATA24
        DC24    MT_AppPB_ZCLInd

        END
//  722 
//  723 #endif /* MT_APP_FUNC */
//  724 
//  725 /***************************************************************************************************
//  726  ***************************************************************************************************/
// 
// 633 bytes in segment BANKED_CODE
//  18 bytes in segment BANK_RELAYS
// 
//  18 bytes of CODE     memory
// 633 bytes of HUGECODE memory
//
//Errors: none
//Warnings: none
