///////////////////////////////////////////////////////////////////////////////
//
// IAR C/C++ Compiler V10.10.1.4655 for 8051              16/Feb/2018  21:40:34
// Copyright 2004-2017 IAR Systems AB.
// Evaluation license - IAR Embedded Workbench for 8051, Evaluation version 10.10
//
//    Core               =  plain
//    Code model         =  banked
//    Data model         =  large
//    Calling convention =  xdata reentrant
//    Constant location  =  data_rom
//    Dptr setup         =  1,16
//                          
//    Source file        =  
//        C:\Texas Instruments\Z-Stack Home
//        1.2.2a.44539\Components\stack\zdo\ZDProfile.c
//    Command line       =  
//        -f C:\Users\Oskar\AppData\Local\Temp\EW76A2.tmp ("C:\Texas
//        Instruments\Z-Stack Home
//        1.2.2a.44539\Components\stack\zdo\ZDProfile.c" -D
//        FEATURE_SYSTEM_STATS -D CC2531ZNP -D POWER_SAVING -D xTC_LINKKEY_JOIN
//        -lC "C:\Texas Instruments\Z-Stack Home
//        1.2.2a.44539\Projects\zstack\ZNP\CC253x\CC2531-Debug\List" -lA
//        "C:\Texas Instruments\Z-Stack Home
//        1.2.2a.44539\Projects\zstack\ZNP\CC253x\CC2531-Debug\List"
//        --diag_suppress Pe001,Pa010 -o "C:\Texas Instruments\Z-Stack Home
//        1.2.2a.44539\Projects\zstack\ZNP\CC253x\CC2531-Debug\Obj" -e --debug
//        --core=plain --dptr=16,1 --data_model=large --code_model=banked
//        --calling_convention=xdata_reentrant --place_constants=data_rom
//        --nr_virtual_regs 16 -f "C:\Texas Instruments\Z-Stack Home
//        1.2.2a.44539\Projects\zstack\ZNP\CC253x\..\Source\znp.cfg"
//        (-DMAC_CFG_APP_PENDING_QUEUE=TRUE
//        "-DZSTACK_DEVICE_BUILD=(DEVICE_BUILD_COORDINATOR |
//        DEVICE_BUILD_ROUTER | DEVICE_BUILD_ENDDEVICE)" -DNWK_AUTO_POLL
//        -DZNP_RUN_WDOG=FALSE -DZNP_UART_BAUD=HAL_UART_BR_115200 -DZIGBEEPRO
//        -DZIGBEE_FRAGMENTATION -DINTER_PAN -DOSAL_CLOCK -DOSAL_SAPI=FALSE
//        -DSAPI_CB_FUNC=FALSE -DHOLD_AUTO_START -DNV_RESTORE -DNV_INIT
//        -DNUM_DISC_ATTEMPTS=0 -DMT_UTIL_FUNC -DMT_SYS_FUNC -DMT_AF_FUNC
//        -DMT_SAPI_FUNC -DMT_SAPI_CB_FUNC -DMT_ZDO_CB_FUNC -DMT_ZDO_FUNC
//        -DMT_ZDO_MGMT -DMT_ZDO_EXTENSIONS -DMT_APP_FUNC) -f "C:\Texas
//        Instruments\Z-Stack Home
//        1.2.2a.44539\Projects\zstack\ZNP\CC253x\..\..\Tools\CC2530DB\f8wConfig.cfg"
//        (-DZIGBEEPRO -DSECURE=1 -DZG_SECURE_DYNAMIC=0 -DREFLECTOR
//        -DDEFAULT_CHANLIST=0x00000800 -DZDAPP_CONFIG_PAN_ID=0xFFFF
//        -DNWK_START_DELAY=100 -DEXTENDED_JOINING_RANDOM_MASK=0x007F
//        -DBEACON_REQUEST_DELAY=100 -DBEACON_REQ_DELAY_MASK=0x00FF
//        -DLINK_STATUS_JITTER_MASK=0x007F -DROUTE_EXPIRY_TIME=30
//        -DAPSC_ACK_WAIT_DURATION_POLLED=3000 -DNWK_INDIRECT_MSG_TIMEOUT=7
//        -DMAX_RREQ_ENTRIES=8 -DAPSC_MAX_FRAME_RETRIES=3
//        -DNWK_MAX_DATA_RETRIES=2 -DMAX_POLL_FAILURE_RETRIES=2 -DMAX_BCAST=9
//        -DAPS_MAX_GROUPS=16 -DMAX_RTG_ENTRIES=40 -DNWK_MAX_BINDING_ENTRIES=4
//        -DMAX_BINDING_CLUSTER_IDS=4 "-DDEFAULT_KEY={0x01, 0x03, 0x05, 0x07,
//        0x09, 0x0B, 0x0D, 0x0F, 0x00, 0x02, 0x04, 0x06, 0x08, 0x0A, 0x0C,
//        0x0D}" -DMAC_MAX_FRAME_SIZE=116 -DZDNWKMGR_MIN_TRANSMISSIONS=20
//        "-DCONST=const __code" -DGENERIC=__generic -DRFD_RCVC_ALWAYS_ON=FALSE
//        -DPOLL_RATE=1000 -DQUEUED_POLL_RATE=100 -DRESPONSE_POLL_RATE=100
//        -DREJOIN_POLL_RATE=440 -DREJOIN_BACKOFF=900000 -DREJOIN_SCAN=900000)
//        -f "C:\Texas Instruments\Z-Stack Home
//        1.2.2a.44539\Projects\zstack\ZNP\CC253x\..\..\Tools\CC2530DB\f8wZCL.cfg"
//        -I "C:\Texas Instruments\Z-Stack Home
//        1.2.2a.44539\Projects\zstack\ZNP\CC253x\" -I "C:\Texas
//        Instruments\Z-Stack Home
//        1.2.2a.44539\Projects\zstack\ZNP\CC253x\Source\" -I "C:\Texas
//        Instruments\Z-Stack Home
//        1.2.2a.44539\Projects\zstack\ZNP\CC253x\..\Source\" -I "C:\Texas
//        Instruments\Z-Stack Home
//        1.2.2a.44539\Projects\zstack\ZNP\CC253x\..\..\SE\Source\" -I
//        "C:\Texas Instruments\Z-Stack Home
//        1.2.2a.44539\Projects\zstack\ZNP\CC253x\..\..\ZMain\TI2530ZNP\" -I
//        "C:\Texas Instruments\Z-Stack Home
//        1.2.2a.44539\Projects\zstack\ZNP\CC253x\..\..\..\..\Components\hal\include\"
//        -I "C:\Texas Instruments\Z-Stack Home
//        1.2.2a.44539\Projects\zstack\ZNP\CC253x\..\..\..\..\Components\hal\target\CC2530USB\"
//        -I "C:\Texas Instruments\Z-Stack Home
//        1.2.2a.44539\Projects\zstack\ZNP\CC253x\..\..\..\..\Components\hal\target\CC2530USB\usb\library\"
//        -I "C:\Texas Instruments\Z-Stack Home
//        1.2.2a.44539\Projects\zstack\ZNP\CC253x\..\..\..\..\Components\hal\target\CC2530USB\usb\library\cc2531\"
//        -I "C:\Texas Instruments\Z-Stack Home
//        1.2.2a.44539\Projects\zstack\ZNP\CC253x\..\..\..\..\Components\hal\target\CC2530USB\usb\class_cdc\"
//        -I "C:\Texas Instruments\Z-Stack Home
//        1.2.2a.44539\Projects\zstack\ZNP\CC253x\..\..\..\..\Components\mac\include\"
//        -I "C:\Texas Instruments\Z-Stack Home
//        1.2.2a.44539\Projects\zstack\ZNP\CC253x\..\..\..\..\Components\mac\high_level\"
//        -I "C:\Texas Instruments\Z-Stack Home
//        1.2.2a.44539\Projects\zstack\ZNP\CC253x\..\..\..\..\Components\mac\low_level\srf04\"
//        -I "C:\Texas Instruments\Z-Stack Home
//        1.2.2a.44539\Projects\zstack\ZNP\CC253x\..\..\..\..\Components\mac\low_level\srf04\single_chip\"
//        -I "C:\Texas Instruments\Z-Stack Home
//        1.2.2a.44539\Projects\zstack\ZNP\CC253x\..\..\..\..\Components\mt\"
//        -I "C:\Texas Instruments\Z-Stack Home
//        1.2.2a.44539\Projects\zstack\ZNP\CC253x\..\..\..\..\Components\osal\include\"
//        -I "C:\Texas Instruments\Z-Stack Home
//        1.2.2a.44539\Projects\zstack\ZNP\CC253x\..\..\..\..\Components\services\ecc\binary163\"
//        -I "C:\Texas Instruments\Z-Stack Home
//        1.2.2a.44539\Projects\zstack\ZNP\CC253x\..\..\..\..\Components\services\ecc\binary283\"
//        -I "C:\Texas Instruments\Z-Stack Home
//        1.2.2a.44539\Projects\zstack\ZNP\CC253x\..\..\..\..\Components\services\saddr\"
//        -I "C:\Texas Instruments\Z-Stack Home
//        1.2.2a.44539\Projects\zstack\ZNP\CC253x\..\..\..\..\Components\services\sdata\"
//        -I "C:\Texas Instruments\Z-Stack Home
//        1.2.2a.44539\Projects\zstack\ZNP\CC253x\..\..\..\..\Components\stack\af\"
//        -I "C:\Texas Instruments\Z-Stack Home
//        1.2.2a.44539\Projects\zstack\ZNP\CC253x\..\..\..\..\Components\stack\nwk\"
//        -I "C:\Texas Instruments\Z-Stack Home
//        1.2.2a.44539\Projects\zstack\ZNP\CC253x\..\..\..\..\Components\stack\sapi\"
//        -I "C:\Texas Instruments\Z-Stack Home
//        1.2.2a.44539\Projects\zstack\ZNP\CC253x\..\..\..\..\Components\stack\sec\"
//        -I "C:\Texas Instruments\Z-Stack Home
//        1.2.2a.44539\Projects\zstack\ZNP\CC253x\..\..\..\..\Components\stack\sys\"
//        -I "C:\Texas Instruments\Z-Stack Home
//        1.2.2a.44539\Projects\zstack\ZNP\CC253x\..\..\..\..\Components\stack\zcl\"
//        -I "C:\Texas Instruments\Z-Stack Home
//        1.2.2a.44539\Projects\zstack\ZNP\CC253x\..\..\..\..\Components\stack\zdo\"
//        -I "C:\Texas Instruments\Z-Stack Home
//        1.2.2a.44539\Projects\zstack\ZNP\CC253x\..\..\..\..\Components\zmac\"
//        -I "C:\Texas Instruments\Z-Stack Home
//        1.2.2a.44539\Projects\zstack\ZNP\CC253x\..\..\..\..\Components\zmac\f8w\"
//        -Ohz --require_prototypes --no_code_motion)
//    Locale             =  German_Germany.1252
//    List file          =  
//        C:\Texas Instruments\Z-Stack Home
//        1.2.2a.44539\Projects\zstack\ZNP\CC253x\CC2531-Debug\List\ZDProfile.s51
//
///////////////////////////////////////////////////////////////////////////////

        NAME ZDProfile

        RTMODEL "__SystemLibrary", "CLib"
        RTMODEL "__calling_convention", "xdata_reentrant"
        RTMODEL "__code_model", "banked"
        RTMODEL "__core", "plain"
        RTMODEL "__data_model", "large"
        RTMODEL "__dptr_size", "16"
        RTMODEL "__extended_stack", "disabled"
        RTMODEL "__location_for_constants", "data"
        RTMODEL "__number_of_dptrs", "1"
        RTMODEL "__register_banks", "*"
        RTMODEL "__rt_version", "1"

        RSEG DOVERLAY:DATA:NOROOT(0)
        RSEG IOVERLAY:IDATA:NOROOT(0)
        RSEG ISTACK:IDATA:NOROOT(0)
        RSEG PSTACK:XDATA:NOROOT(0)
        RSEG XSTACK:XDATA:NOROOT(0)

        EXTERN ?V0
        EXTERN ?V1
        EXTERN ?V2
        EXTERN ?V3
        EXTERN ?V4
        EXTERN ?V5
        EXTERN ?V6
        EXTERN ?V7
        EXTERN ?V8
        EXTERN ?V10
        EXTERN ?V11
        EXTERN ?V9
        EXTERN ?ALLOC_XSTACK8
        EXTERN ?BANKED_ENTER_XDATA
        EXTERN ?BANKED_LEAVE_XDATA
        EXTERN ?BDISPATCH
        EXTERN ?CALL_IND
        EXTERN ?DEALLOC_XSTACK8
        EXTERN ?PUSH_XSTACK8_X_FOUR
        EXTERN ?PUSH_XSTACK8_X_TWO
        EXTERN ?PUSH_XSTACK_I_ONE
        EXTERN ?PUSH_XSTACK_I_THREE
        EXTERN ?PUSH_XSTACK_I_TWO
        EXTERN ?S_SHL
        EXTERN ?US_SHR
        EXTERN ?XSP
        EXTERN ?XSTACK_DISP0_8
        EXTERN ?XSTACK_DISP101_8
        EXTERN ?XSTACK_DISP102_8
        EXTERN __INIT_XDATA_I
        EXTERN __INIT_XDATA_Z

        PUBLIC `??ZDO_RegisterForZDOMsg::?relay`
        FUNCTION `??ZDO_RegisterForZDOMsg::?relay`,0203H
        PUBLIC `??ZDO_RemoveRegisteredCB::?relay`
        FUNCTION `??ZDO_RemoveRegisteredCB::?relay`,0203H
        PUBLIC `??ZDO_SendMsgCBs::?relay`
        FUNCTION `??ZDO_SendMsgCBs::?relay`,0203H
        PUBLIC `??ZDP_BindUnbindReq::?relay`
        FUNCTION `??ZDP_BindUnbindReq::?relay`,0203H
        PUBLIC `??ZDP_DeviceAnnce::?relay`
        FUNCTION `??ZDP_DeviceAnnce::?relay`,0203H
        PUBLIC `??ZDP_EPRsp::?relay`
        FUNCTION `??ZDP_EPRsp::?relay`,0203H
        PUBLIC `??ZDP_EndDeviceBindReq::?relay`
        FUNCTION `??ZDP_EndDeviceBindReq::?relay`,0203H
        PUBLIC `??ZDP_GenericRsp::?relay`
        FUNCTION `??ZDP_GenericRsp::?relay`,0203H
        PUBLIC `??ZDP_IEEEAddrReq::?relay`
        FUNCTION `??ZDP_IEEEAddrReq::?relay`,0203H
        PUBLIC `??ZDP_IncomingData::?relay`
        FUNCTION `??ZDP_IncomingData::?relay`,0203H
        PUBLIC `??ZDP_MatchDescReq::?relay`
        FUNCTION `??ZDP_MatchDescReq::?relay`,0203H
        PUBLIC `??ZDP_MgmtBindRsp::?relay`
        FUNCTION `??ZDP_MgmtBindRsp::?relay`,0203H
        PUBLIC `??ZDP_MgmtDirectJoinReq::?relay`
        FUNCTION `??ZDP_MgmtDirectJoinReq::?relay`,0203H
        PUBLIC `??ZDP_MgmtLeaveReq::?relay`
        FUNCTION `??ZDP_MgmtLeaveReq::?relay`,0203H
        PUBLIC `??ZDP_MgmtLqiRsp::?relay`
        FUNCTION `??ZDP_MgmtLqiRsp::?relay`,0203H
        PUBLIC `??ZDP_MgmtNwkDiscReq::?relay`
        FUNCTION `??ZDP_MgmtNwkDiscReq::?relay`,0203H
        PUBLIC `??ZDP_MgmtNwkDiscRsp::?relay`
        FUNCTION `??ZDP_MgmtNwkDiscRsp::?relay`,0203H
        PUBLIC `??ZDP_MgmtNwkUpdateNotify::?relay`
        FUNCTION `??ZDP_MgmtNwkUpdateNotify::?relay`,0203H
        PUBLIC `??ZDP_MgmtNwkUpdateReq::?relay`
        FUNCTION `??ZDP_MgmtNwkUpdateReq::?relay`,0203H
        PUBLIC `??ZDP_MgmtPermitJoinReq::?relay`
        FUNCTION `??ZDP_MgmtPermitJoinReq::?relay`,0203H
        PUBLIC `??ZDP_MgmtRtgRsp::?relay`
        FUNCTION `??ZDP_MgmtRtgRsp::?relay`,0203H
        PUBLIC `??ZDP_NWKAddrOfInterestReq::?relay`
        FUNCTION `??ZDP_NWKAddrOfInterestReq::?relay`,0203H
        PUBLIC `??ZDP_NodeDescMsg::?relay`
        FUNCTION `??ZDP_NodeDescMsg::?relay`,0203H
        PUBLIC `??ZDP_NwkAddrReq::?relay`
        FUNCTION `??ZDP_NwkAddrReq::?relay`,0203H
        PUBLIC `??ZDP_ParentAnnce::?relay`
        FUNCTION `??ZDP_ParentAnnce::?relay`,0203H
        PUBLIC `??ZDP_PowerDescMsg::?relay`
        FUNCTION `??ZDP_PowerDescMsg::?relay`,0203H
        PUBLIC `??ZDP_SendData::?relay`
        FUNCTION `??ZDP_SendData::?relay`,0203H
        PUBLIC `??ZDP_ServerDiscReq::?relay`
        FUNCTION `??ZDP_ServerDiscReq::?relay`,0203H
        PUBLIC `??ZDP_ServerDiscRsp::?relay`
        FUNCTION `??ZDP_ServerDiscRsp::?relay`,0203H
        PUBLIC `??ZDP_SimpleDescMsg::?relay`
        FUNCTION `??ZDP_SimpleDescMsg::?relay`,0203H
        PUBLIC `??ZDP_SimpleDescReq::?relay`
        FUNCTION `??ZDP_SimpleDescReq::?relay`,0203H
        PUBLIC `??ZDP_UserDescRsp::?relay`
        FUNCTION `??ZDP_UserDescRsp::?relay`,0203H
        PUBLIC `??ZDP_UserDescSet::?relay`
        FUNCTION `??ZDP_UserDescSet::?relay`,0203H
        FUNCTION `??fillAndSend::?relay`,0203H
        PUBLIC `??zdpProcessAddrReq::?relay`
        FUNCTION `??zdpProcessAddrReq::?relay`,0203H
        PUBLIC ZDO_RegisterForZDOMsg
        FUNCTION ZDO_RegisterForZDOMsg,0a1203H
        ARGFRAME XSTACK, 0, STACK
        LOCFRAME ISTACK, 1, STACK
        LOCFRAME XSTACK, 14, STACK
        PUBLIC ZDO_RemoveRegisteredCB
        FUNCTION ZDO_RemoveRegisteredCB,021203H
        ARGFRAME XSTACK, 0, STACK
        LOCFRAME XSTACK, 9, STACK
        PUBLIC ZDO_SendMsgCBs
        FUNCTION ZDO_SendMsgCBs,0a1203H
        ARGFRAME XSTACK, 35, STACK
        ARGFRAME IOVERLAY, 0, STATIC
        ARGFRAME DOVERLAY, 0, STATIC
        LOCFRAME XSTACK, 19, STACK
        PUBLIC ZDP_AF_ENDPOINT
        PUBLIC ZDP_BindUnbindReq
        FUNCTION ZDP_BindUnbindReq,0a1203H
        ARGFRAME XSTACK, 8, STACK
        LOCFRAME ISTACK, 1, STACK
        LOCFRAME XSTACK, 18, STACK
        PUBLIC ZDP_DeviceAnnce
        FUNCTION ZDP_DeviceAnnce,0a1203H
        ARGFRAME XSTACK, 1, STACK
        LOCFRAME ISTACK, 1, STACK
        LOCFRAME XSTACK, 21, STACK
        PUBLIC ZDP_EPRsp
        FUNCTION ZDP_EPRsp,0a1203H
        ARGFRAME XSTACK, 7, STACK
        LOCFRAME ISTACK, 1, STACK
        LOCFRAME XSTACK, 19, STACK
        PUBLIC ZDP_EndDeviceBindReq
        FUNCTION ZDP_EndDeviceBindReq,0a1203H
        ARGFRAME XSTACK, 9, STACK
        LOCFRAME ISTACK, 1, STACK
        LOCFRAME XSTACK, 20, STACK
        PUBLIC ZDP_GenericRsp
        FUNCTION ZDP_GenericRsp,021203H
        ARGFRAME XSTACK, 4, STACK
        LOCFRAME ISTACK, 1, STACK
        LOCFRAME XSTACK, 12, STACK
        PUBLIC ZDP_IEEEAddrReq
        FUNCTION ZDP_IEEEAddrReq,0a1203H
        ARGFRAME XSTACK, 0, STACK
        LOCFRAME ISTACK, 1, STACK
        LOCFRAME XSTACK, 21, STACK
        PUBLIC ZDP_IncomingData
        FUNCTION ZDP_IncomingData,0a1203H
        ARGFRAME XSTACK, 0, STACK
        LOCFRAME ISTACK, 1, STACK
        LOCFRAME XSTACK, 35, STACK
        PUBLIC ZDP_MatchDescReq
        FUNCTION ZDP_MatchDescReq,0a1203H
        ARGFRAME XSTACK, 8, STACK
        LOCFRAME ISTACK, 1, STACK
        LOCFRAME XSTACK, 16, STACK
        PUBLIC ZDP_MgmtBindRsp
        FUNCTION ZDP_MgmtBindRsp,0a1203H
        ARGFRAME XSTACK, 5, STACK
        LOCFRAME ISTACK, 1, STACK
        LOCFRAME XSTACK, 23, STACK
        PUBLIC ZDP_MgmtDirectJoinReq
        FUNCTION ZDP_MgmtDirectJoinReq,0a1203H
        ARGFRAME XSTACK, 1, STACK
        LOCFRAME ISTACK, 1, STACK
        LOCFRAME XSTACK, 14, STACK
        PUBLIC ZDP_MgmtLeaveReq
        FUNCTION ZDP_MgmtLeaveReq,0a1203H
        ARGFRAME XSTACK, 2, STACK
        LOCFRAME XSTACK, 14, STACK
        PUBLIC ZDP_MgmtLqiRsp
        FUNCTION ZDP_MgmtLqiRsp,0a1203H
        ARGFRAME XSTACK, 5, STACK
        LOCFRAME ISTACK, 1, STACK
        LOCFRAME XSTACK, 22, STACK
        PUBLIC ZDP_MgmtNwkDiscReq
        FUNCTION ZDP_MgmtNwkDiscReq,0a1203H
        ARGFRAME XSTACK, 4, STACK
        LOCFRAME ISTACK, 1, STACK
        LOCFRAME XSTACK, 16, STACK
        PUBLIC ZDP_MgmtNwkDiscRsp
        FUNCTION ZDP_MgmtNwkDiscRsp,0a1203H
        ARGFRAME XSTACK, 5, STACK
        LOCFRAME ISTACK, 1, STACK
        LOCFRAME XSTACK, 23, STACK
        PUBLIC ZDP_MgmtNwkUpdateNotify
        FUNCTION ZDP_MgmtNwkUpdateNotify,0a1203H
        ARGFRAME XSTACK, 12, STACK
        LOCFRAME ISTACK, 1, STACK
        LOCFRAME XSTACK, 23, STACK
        PUBLIC ZDP_MgmtNwkUpdateReq
        FUNCTION ZDP_MgmtNwkUpdateReq,0a1203H
        ARGFRAME XSTACK, 6, STACK
        LOCFRAME ISTACK, 1, STACK
        LOCFRAME XSTACK, 18, STACK
        PUBLIC ZDP_MgmtPermitJoinReq
        FUNCTION ZDP_MgmtPermitJoinReq,0a1203H
        ARGFRAME XSTACK, 0, STACK
        LOCFRAME ISTACK, 1, STACK
        LOCFRAME XSTACK, 23, STACK
        PUBLIC ZDP_MgmtRtgRsp
        FUNCTION ZDP_MgmtRtgRsp,0a1203H
        ARGFRAME XSTACK, 5, STACK
        LOCFRAME ISTACK, 1, STACK
        LOCFRAME XSTACK, 21, STACK
        PUBLIC ZDP_NWKAddrOfInterestReq
        FUNCTION ZDP_NWKAddrOfInterestReq,0a1203H
        ARGFRAME XSTACK, 1, STACK
        LOCFRAME ISTACK, 1, STACK
        LOCFRAME XSTACK, 12, STACK
        PUBLIC ZDP_NodeDescMsg
        FUNCTION ZDP_NodeDescMsg,0a1203H
        ARGFRAME XSTACK, 2, STACK
        LOCFRAME ISTACK, 1, STACK
        LOCFRAME XSTACK, 12, STACK
        PUBLIC ZDP_NwkAddrReq
        FUNCTION ZDP_NwkAddrReq,0a1203H
        ARGFRAME XSTACK, 0, STACK
        LOCFRAME ISTACK, 1, STACK
        LOCFRAME XSTACK, 23, STACK
        PUBLIC ZDP_ParentAnnce
        FUNCTION ZDP_ParentAnnce,0a1203H
        ARGFRAME XSTACK, 5, STACK
        LOCFRAME ISTACK, 1, STACK
        LOCFRAME XSTACK, 24, STACK
        PUBLIC ZDP_PowerDescMsg
        FUNCTION ZDP_PowerDescMsg,0a1203H
        ARGFRAME XSTACK, 2, STACK
        LOCFRAME ISTACK, 1, STACK
        LOCFRAME XSTACK, 12, STACK
        PUBLIC ZDP_SendData
        FUNCTION ZDP_SendData,0a1203H
        ARGFRAME XSTACK, 5, STACK
        LOCFRAME ISTACK, 1, STACK
        LOCFRAME XSTACK, 14, STACK
        PUBLIC ZDP_ServerDiscReq
        FUNCTION ZDP_ServerDiscReq,0a1203H
        ARGFRAME XSTACK, 0, STACK
        LOCFRAME ISTACK, 1, STACK
        LOCFRAME XSTACK, 21, STACK
        PUBLIC ZDP_ServerDiscRsp
        FUNCTION ZDP_ServerDiscRsp,0a1203H
        ARGFRAME XSTACK, 4, STACK
        LOCFRAME ISTACK, 1, STACK
        LOCFRAME XSTACK, 13, STACK
        PUBLIC ZDP_SimpleDescMsg
        FUNCTION ZDP_SimpleDescMsg,0a1203H
        ARGFRAME XSTACK, 0, STACK
        LOCFRAME ISTACK, 1, STACK
        LOCFRAME XSTACK, 18, STACK
        PUBLIC ZDP_SimpleDescReq
        FUNCTION ZDP_SimpleDescReq,0a1203H
        ARGFRAME XSTACK, 1, STACK
        LOCFRAME ISTACK, 1, STACK
        LOCFRAME XSTACK, 12, STACK
        PUBLIC ZDP_TransID
        PUBLIC ZDP_TxOptions
        PUBLIC ZDP_UserDescRsp
        FUNCTION ZDP_UserDescRsp,0a1203H
        ARGFRAME XSTACK, 3, STACK
        LOCFRAME ISTACK, 1, STACK
        LOCFRAME XSTACK, 22, STACK
        PUBLIC ZDP_UserDescSet
        FUNCTION ZDP_UserDescSet,0a1203H
        ARGFRAME XSTACK, 2, STACK
        LOCFRAME ISTACK, 1, STACK
        LOCFRAME XSTACK, 18, STACK
        FUNCTION fillAndSend,0a1203H
        ARGFRAME XSTACK, 34, STACK
        ARGFRAME IOVERLAY, 0, STATIC
        ARGFRAME DOVERLAY, 0, STATIC
        LOCFRAME ISTACK, 1, STACK
        LOCFRAME XSTACK, 35, STACK
        PUBLIC zdoMsgCBs
        PUBLIC zdpMsgProcs
        PUBLIC zdpProcessAddrReq
        FUNCTION zdpProcessAddrReq,0a1603H
        ARGFRAME XSTACK, 0, STACK
        LOCFRAME ISTACK, 1, STACK
        LOCFRAME XSTACK, 34, STACK
        
          CFI Names cfiNames0
          CFI StackFrame CFA_SP SP IDATA
          CFI StackFrame CFA_PSP16 PSP16 XDATA
          CFI StackFrame CFA_XSP16 XSP16 XDATA
          CFI StaticOverlayFrame CFA_IOVERLAY IOVERLAY
          CFI StaticOverlayFrame CFA_DOVERLAY DOVERLAY
          CFI Resource `PSW.CY`:1, `B.BR0`:1, `B.BR1`:1, `B.BR2`:1, `B.BR3`:1
          CFI Resource `B.BR4`:1, `B.BR5`:1, `B.BR6`:1, `B.BR7`:1, `VB.BR8`:1
          CFI Resource `VB.BR9`:1, `VB.BR10`:1, `VB.BR11`:1, `VB.BR12`:1
          CFI Resource `VB.BR13`:1, `VB.BR14`:1, `VB.BR15`:1, VB:8, B:8, A:8
          CFI Resource PSW:8, DPL0:8, DPH0:8, R0:8, R1:8, R2:8, R3:8, R4:8, R5:8
          CFI Resource R6:8, R7:8, V0:8, V1:8, V2:8, V3:8, V4:8, V5:8, V6:8, V7:8
          CFI Resource V8:8, V9:8, V10:8, V11:8, V12:8, V13:8, V14:8, V15:8, SP:8
          CFI Resource PSPH:8, PSPL:8, PSP16:16, XSPH:8, XSPL:8, XSP16:16
          CFI VirtualResource ?RET:24
          CFI Resource ?BRET_EXT:8
          CFI VirtualResource ?RET_HIGH:8, ?RET_LOW:8
          CFI ResourceParts PSP16 PSPH, PSPL
          CFI ResourceParts XSP16 XSPH, XSPL
          CFI ResourceParts ?RET ?BRET_EXT, ?RET_HIGH, ?RET_LOW
          CFI EndNames cfiNames0
        
          CFI Common cfiCommon0 Using cfiNames0
          CFI CodeAlign 1
          CFI DataAlign -1
          CFI ReturnAddress ?RET CODE
          CFI CFA_DOVERLAY Used
          CFI CFA_IOVERLAY Used
          CFI CFA_SP SP+-3
          CFI CFA_PSP16 PSP16+0
          CFI CFA_XSP16 XSP16+0
          CFI `PSW.CY` SameValue
          CFI `B.BR0` SameValue
          CFI `B.BR1` SameValue
          CFI `B.BR2` SameValue
          CFI `B.BR3` SameValue
          CFI `B.BR4` SameValue
          CFI `B.BR5` SameValue
          CFI `B.BR6` SameValue
          CFI `B.BR7` SameValue
          CFI `VB.BR8` SameValue
          CFI `VB.BR9` SameValue
          CFI `VB.BR10` SameValue
          CFI `VB.BR11` SameValue
          CFI `VB.BR12` SameValue
          CFI `VB.BR13` SameValue
          CFI `VB.BR14` SameValue
          CFI `VB.BR15` SameValue
          CFI VB SameValue
          CFI B Undefined
          CFI A Undefined
          CFI PSW SameValue
          CFI DPL0 SameValue
          CFI DPH0 SameValue
          CFI R0 Undefined
          CFI R1 Undefined
          CFI R2 Undefined
          CFI R3 Undefined
          CFI R4 Undefined
          CFI R5 Undefined
          CFI R6 SameValue
          CFI R7 SameValue
          CFI V0 SameValue
          CFI V1 SameValue
          CFI V2 SameValue
          CFI V3 SameValue
          CFI V4 SameValue
          CFI V5 SameValue
          CFI V6 SameValue
          CFI V7 SameValue
          CFI V8 SameValue
          CFI V9 SameValue
          CFI V10 SameValue
          CFI V11 SameValue
          CFI V12 SameValue
          CFI V13 SameValue
          CFI V14 SameValue
          CFI V15 SameValue
          CFI PSPH Undefined
          CFI PSPL Undefined
          CFI XSPH Undefined
          CFI XSPL Undefined
          CFI ?RET Concat
          CFI ?BRET_EXT Frame(CFA_SP, 3)
          CFI ?RET_HIGH Frame(CFA_SP, 2)
          CFI ?RET_LOW Frame(CFA_SP, 1)
          CFI EndCommon cfiCommon0
        
        
          CFI Common cfiCommon1 Using cfiNames0
          CFI CodeAlign 1
          CFI DataAlign -1
          CFI ReturnAddress ?RET CODE
          CFI CFA_DOVERLAY Used
          CFI CFA_IOVERLAY Used
          CFI CFA_SP SP+-2
          CFI CFA_PSP16 PSP16+0
          CFI CFA_XSP16 XSP16+0
          CFI `PSW.CY` SameValue
          CFI `B.BR0` SameValue
          CFI `B.BR1` SameValue
          CFI `B.BR2` SameValue
          CFI `B.BR3` SameValue
          CFI `B.BR4` SameValue
          CFI `B.BR5` SameValue
          CFI `B.BR6` SameValue
          CFI `B.BR7` SameValue
          CFI `VB.BR8` SameValue
          CFI `VB.BR9` SameValue
          CFI `VB.BR10` SameValue
          CFI `VB.BR11` SameValue
          CFI `VB.BR12` SameValue
          CFI `VB.BR13` SameValue
          CFI `VB.BR14` SameValue
          CFI `VB.BR15` SameValue
          CFI VB SameValue
          CFI B SameValue
          CFI A SameValue
          CFI PSW SameValue
          CFI DPL0 SameValue
          CFI DPH0 SameValue
          CFI R0 SameValue
          CFI R1 SameValue
          CFI R2 SameValue
          CFI R3 SameValue
          CFI R4 SameValue
          CFI R5 SameValue
          CFI R6 SameValue
          CFI R7 SameValue
          CFI V0 SameValue
          CFI V1 SameValue
          CFI V2 SameValue
          CFI V3 SameValue
          CFI V4 SameValue
          CFI V5 SameValue
          CFI V6 SameValue
          CFI V7 SameValue
          CFI V8 SameValue
          CFI V9 SameValue
          CFI V10 SameValue
          CFI V11 SameValue
          CFI V12 SameValue
          CFI V13 SameValue
          CFI V14 SameValue
          CFI V15 SameValue
          CFI PSPH Undefined
          CFI PSPL Undefined
          CFI XSPH Undefined
          CFI XSPL Undefined
          CFI ?RET Concat
          CFI ?BRET_EXT SameValue
          CFI ?RET_HIGH Frame(CFA_SP, 2)
          CFI ?RET_LOW Frame(CFA_SP, 1)
          CFI EndCommon cfiCommon1
        
AF_DataRequest      SYMBOL "AF_DataRequest"
`??AF_DataRequest::?relay` SYMBOL "?relay", AF_DataRequest
AddrMgrEntryGet     SYMBOL "AddrMgrEntryGet"
`??AddrMgrEntryGet::?relay` SYMBOL "?relay", AddrMgrEntryGet
AssocGetWithExt     SYMBOL "AssocGetWithExt"
`??AssocGetWithExt::?relay` SYMBOL "?relay", AssocGetWithExt
AssocGetWithShort   SYMBOL "AssocGetWithShort"
`??AssocGetWithShort::?relay` SYMBOL "?relay", AssocGetWithShort
AssocMakeList       SYMBOL "AssocMakeList"
`??AssocMakeList::?relay` SYMBOL "?relay", AssocMakeList
MT_ZdoDirectCB      SYMBOL "MT_ZdoDirectCB"
`??MT_ZdoDirectCB::?relay` SYMBOL "?relay", MT_ZdoDirectCB
NLME_GetExtAddr     SYMBOL "NLME_GetExtAddr"
`??NLME_GetExtAddr::?relay` SYMBOL "?relay", NLME_GetExtAddr
NLME_GetShortAddr   SYMBOL "NLME_GetShortAddr"
`??NLME_GetShortAddr::?relay` SYMBOL "?relay", NLME_GetShortAddr
ZDApp_InMsgCB       SYMBOL "ZDApp_InMsgCB"
`??ZDApp_InMsgCB::?relay` SYMBOL "?relay", ZDApp_InMsgCB
`?<Name ZDO_ProcessActiveEPR 18>` SYMBOL "ZDO_ProcessActiveEPReq"
`??ZDO_ProcessActiveEPReq::?relay` SYMBOL "?relay", `?<Name ZDO_ProcessActiveEPR 18>`
`?<Name ZDO_ProcessDeviceAnn 20>` SYMBOL "ZDO_ProcessDeviceAnnce"
`??ZDO_ProcessDeviceAnnce::?relay` SYMBOL "?relay", `?<Name ZDO_ProcessDeviceAnn 20>`
`?<Name ZDO_ProcessMatchDesc 22>` SYMBOL "ZDO_ProcessMatchDescReq"
`??ZDO_ProcessMatchDescReq::?relay` SYMBOL "?relay", `?<Name ZDO_ProcessMatchDesc 22>`
`?<Name ZDO_ProcessMgmtBindR 24>` SYMBOL "ZDO_ProcessMgmtBindReq"
`??ZDO_ProcessMgmtBindReq::?relay` SYMBOL "?relay", `?<Name ZDO_ProcessMgmtBindR 24>`
`?<Name ZDO_ProcessMgmtDirec 26>` SYMBOL "ZDO_ProcessMgmtDirectJoinReq"
`??ZDO_ProcessMgmtDirectJoinReq::?relay` SYMBOL "?relay", `?<Name ZDO_ProcessMgmtDirec 26>`
`?<Name ZDO_ProcessMgmtLeave 28>` SYMBOL "ZDO_ProcessMgmtLeaveReq"
`??ZDO_ProcessMgmtLeaveReq::?relay` SYMBOL "?relay", `?<Name ZDO_ProcessMgmtLeave 28>`
`?<Name ZDO_ProcessMgmtLqiRe 30>` SYMBOL "ZDO_ProcessMgmtLqiReq"
`??ZDO_ProcessMgmtLqiReq::?relay` SYMBOL "?relay", `?<Name ZDO_ProcessMgmtLqiRe 30>`
`?<Name ZDO_ProcessMgmtNwkDi 32>` SYMBOL "ZDO_ProcessMgmtNwkDiscReq"
`??ZDO_ProcessMgmtNwkDiscReq::?relay` SYMBOL "?relay", `?<Name ZDO_ProcessMgmtNwkDi 32>`
`?<Name ZDO_ProcessMgmtPermi 34>` SYMBOL "ZDO_ProcessMgmtPermitJoinReq"
`??ZDO_ProcessMgmtPermitJoinReq::?relay` SYMBOL "?relay", `?<Name ZDO_ProcessMgmtPermi 34>`
`?<Name ZDO_ProcessMgmtRtgRe 36>` SYMBOL "ZDO_ProcessMgmtRtgReq"
`??ZDO_ProcessMgmtRtgReq::?relay` SYMBOL "?relay", `?<Name ZDO_ProcessMgmtRtgRe 36>`
`?<Name ZDO_ProcessNodeDescR 38>` SYMBOL "ZDO_ProcessNodeDescReq"
`??ZDO_ProcessNodeDescReq::?relay` SYMBOL "?relay", `?<Name ZDO_ProcessNodeDescR 38>`
`?<Name ZDO_ProcessParentAnn 40>` SYMBOL "ZDO_ProcessParentAnnce"
`??ZDO_ProcessParentAnnce::?relay` SYMBOL "?relay", `?<Name ZDO_ProcessParentAnn 40>`
`?<Name ZDO_ProcessParentAnn 42>` SYMBOL "ZDO_ProcessParentAnnceRsp"
`??ZDO_ProcessParentAnnceRsp::?relay` SYMBOL "?relay", `?<Name ZDO_ProcessParentAnn 42>`
`?<Name ZDO_ProcessPowerDesc 44>` SYMBOL "ZDO_ProcessPowerDescReq"
`??ZDO_ProcessPowerDescReq::?relay` SYMBOL "?relay", `?<Name ZDO_ProcessPowerDesc 44>`
`?<Name ZDO_ProcessServerDis 46>` SYMBOL "ZDO_ProcessServerDiscReq"
`??ZDO_ProcessServerDiscReq::?relay` SYMBOL "?relay", `?<Name ZDO_ProcessServerDis 46>`
`?<Name ZDO_ProcessSimpleDes 48>` SYMBOL "ZDO_ProcessSimpleDescReq"
`??ZDO_ProcessSimpleDescReq::?relay` SYMBOL "?relay", `?<Name ZDO_ProcessSimpleDes 48>`
`?<Name ZDO_ProcessUserDescR 50>` SYMBOL "ZDO_ProcessUserDescReq"
`??ZDO_ProcessUserDescReq::?relay` SYMBOL "?relay", `?<Name ZDO_ProcessUserDescR 50>`
`?<Name ZDO_ProcessUserDescS 52>` SYMBOL "ZDO_ProcessUserDescSet"
`??ZDO_ProcessUserDescSet::?relay` SYMBOL "?relay", `?<Name ZDO_ProcessUserDescS 52>`
osal_buffer_uint32  SYMBOL "osal_buffer_uint32"
`??osal_buffer_uint32::?relay` SYMBOL "?relay", osal_buffer_uint32
osal_mem_alloc      SYMBOL "osal_mem_alloc"
`??osal_mem_alloc::?relay` SYMBOL "?relay", osal_mem_alloc
osal_mem_free       SYMBOL "osal_mem_free"
`??osal_mem_free::?relay` SYMBOL "?relay", osal_mem_free
osal_memcpy         SYMBOL "osal_memcpy"
`??osal_memcpy::?relay` SYMBOL "?relay", osal_memcpy
osal_memset         SYMBOL "osal_memset"
`??osal_memset::?relay` SYMBOL "?relay", osal_memset
osal_msg_allocate   SYMBOL "osal_msg_allocate"
`??osal_msg_allocate::?relay` SYMBOL "?relay", osal_msg_allocate
osal_msg_send       SYMBOL "osal_msg_send"
`??osal_msg_send::?relay` SYMBOL "?relay", osal_msg_send
sAddrExtCmp         SYMBOL "sAddrExtCmp"
`??sAddrExtCmp::?relay` SYMBOL "?relay", sAddrExtCmp
sAddrExtCpy         SYMBOL "sAddrExtCpy"
`??sAddrExtCpy::?relay` SYMBOL "?relay", sAddrExtCpy
ZDO_RegisterForZDOMsg SYMBOL "ZDO_RegisterForZDOMsg"
`??ZDO_RegisterForZDOMsg::?relay` SYMBOL "?relay", ZDO_RegisterForZDOMsg
ZDO_RemoveRegisteredCB SYMBOL "ZDO_RemoveRegisteredCB"
`??ZDO_RemoveRegisteredCB::?relay` SYMBOL "?relay", ZDO_RemoveRegisteredCB
ZDO_SendMsgCBs      SYMBOL "ZDO_SendMsgCBs"
`??ZDO_SendMsgCBs::?relay` SYMBOL "?relay", ZDO_SendMsgCBs
ZDP_BindUnbindReq   SYMBOL "ZDP_BindUnbindReq"
`??ZDP_BindUnbindReq::?relay` SYMBOL "?relay", ZDP_BindUnbindReq
ZDP_DeviceAnnce     SYMBOL "ZDP_DeviceAnnce"
`??ZDP_DeviceAnnce::?relay` SYMBOL "?relay", ZDP_DeviceAnnce
ZDP_EPRsp           SYMBOL "ZDP_EPRsp"
`??ZDP_EPRsp::?relay` SYMBOL "?relay", ZDP_EPRsp
ZDP_EndDeviceBindReq SYMBOL "ZDP_EndDeviceBindReq"
`??ZDP_EndDeviceBindReq::?relay` SYMBOL "?relay", ZDP_EndDeviceBindReq
ZDP_GenericRsp      SYMBOL "ZDP_GenericRsp"
`??ZDP_GenericRsp::?relay` SYMBOL "?relay", ZDP_GenericRsp
ZDP_IEEEAddrReq     SYMBOL "ZDP_IEEEAddrReq"
`??ZDP_IEEEAddrReq::?relay` SYMBOL "?relay", ZDP_IEEEAddrReq
ZDP_IncomingData    SYMBOL "ZDP_IncomingData"
`??ZDP_IncomingData::?relay` SYMBOL "?relay", ZDP_IncomingData
ZDP_MatchDescReq    SYMBOL "ZDP_MatchDescReq"
`??ZDP_MatchDescReq::?relay` SYMBOL "?relay", ZDP_MatchDescReq
ZDP_MgmtBindRsp     SYMBOL "ZDP_MgmtBindRsp"
`??ZDP_MgmtBindRsp::?relay` SYMBOL "?relay", ZDP_MgmtBindRsp
ZDP_MgmtDirectJoinReq SYMBOL "ZDP_MgmtDirectJoinReq"
`??ZDP_MgmtDirectJoinReq::?relay` SYMBOL "?relay", ZDP_MgmtDirectJoinReq
ZDP_MgmtLeaveReq    SYMBOL "ZDP_MgmtLeaveReq"
`??ZDP_MgmtLeaveReq::?relay` SYMBOL "?relay", ZDP_MgmtLeaveReq
ZDP_MgmtLqiRsp      SYMBOL "ZDP_MgmtLqiRsp"
`??ZDP_MgmtLqiRsp::?relay` SYMBOL "?relay", ZDP_MgmtLqiRsp
ZDP_MgmtNwkDiscReq  SYMBOL "ZDP_MgmtNwkDiscReq"
`??ZDP_MgmtNwkDiscReq::?relay` SYMBOL "?relay", ZDP_MgmtNwkDiscReq
ZDP_MgmtNwkDiscRsp  SYMBOL "ZDP_MgmtNwkDiscRsp"
`??ZDP_MgmtNwkDiscRsp::?relay` SYMBOL "?relay", ZDP_MgmtNwkDiscRsp
ZDP_MgmtNwkUpdateNotify SYMBOL "ZDP_MgmtNwkUpdateNotify"
`??ZDP_MgmtNwkUpdateNotify::?relay` SYMBOL "?relay", ZDP_MgmtNwkUpdateNotify
ZDP_MgmtNwkUpdateReq SYMBOL "ZDP_MgmtNwkUpdateReq"
`??ZDP_MgmtNwkUpdateReq::?relay` SYMBOL "?relay", ZDP_MgmtNwkUpdateReq
ZDP_MgmtPermitJoinReq SYMBOL "ZDP_MgmtPermitJoinReq"
`??ZDP_MgmtPermitJoinReq::?relay` SYMBOL "?relay", ZDP_MgmtPermitJoinReq
ZDP_MgmtRtgRsp      SYMBOL "ZDP_MgmtRtgRsp"
`??ZDP_MgmtRtgRsp::?relay` SYMBOL "?relay", ZDP_MgmtRtgRsp
ZDP_NWKAddrOfInterestReq SYMBOL "ZDP_NWKAddrOfInterestReq"
`??ZDP_NWKAddrOfInterestReq::?relay` SYMBOL "?relay", ZDP_NWKAddrOfInterestReq
ZDP_NodeDescMsg     SYMBOL "ZDP_NodeDescMsg"
`??ZDP_NodeDescMsg::?relay` SYMBOL "?relay", ZDP_NodeDescMsg
ZDP_NwkAddrReq      SYMBOL "ZDP_NwkAddrReq"
`??ZDP_NwkAddrReq::?relay` SYMBOL "?relay", ZDP_NwkAddrReq
ZDP_ParentAnnce     SYMBOL "ZDP_ParentAnnce"
`??ZDP_ParentAnnce::?relay` SYMBOL "?relay", ZDP_ParentAnnce
ZDP_PowerDescMsg    SYMBOL "ZDP_PowerDescMsg"
`??ZDP_PowerDescMsg::?relay` SYMBOL "?relay", ZDP_PowerDescMsg
ZDP_SendData        SYMBOL "ZDP_SendData"
`??ZDP_SendData::?relay` SYMBOL "?relay", ZDP_SendData
ZDP_ServerDiscReq   SYMBOL "ZDP_ServerDiscReq"
`??ZDP_ServerDiscReq::?relay` SYMBOL "?relay", ZDP_ServerDiscReq
ZDP_ServerDiscRsp   SYMBOL "ZDP_ServerDiscRsp"
`??ZDP_ServerDiscRsp::?relay` SYMBOL "?relay", ZDP_ServerDiscRsp
ZDP_SimpleDescMsg   SYMBOL "ZDP_SimpleDescMsg"
`??ZDP_SimpleDescMsg::?relay` SYMBOL "?relay", ZDP_SimpleDescMsg
ZDP_SimpleDescReq   SYMBOL "ZDP_SimpleDescReq"
`??ZDP_SimpleDescReq::?relay` SYMBOL "?relay", ZDP_SimpleDescReq
ZDP_UserDescRsp     SYMBOL "ZDP_UserDescRsp"
`??ZDP_UserDescRsp::?relay` SYMBOL "?relay", ZDP_UserDescRsp
ZDP_UserDescSet     SYMBOL "ZDP_UserDescSet"
`??ZDP_UserDescSet::?relay` SYMBOL "?relay", ZDP_UserDescSet
zdpProcessAddrReq   SYMBOL "zdpProcessAddrReq"
`??zdpProcessAddrReq::?relay` SYMBOL "?relay", zdpProcessAddrReq

        EXTERN `??AF_DataRequest::?relay`
        FUNCTION `??AF_DataRequest::?relay`,00H
        EXTERN `??AddrMgrEntryGet::?relay`
        FUNCTION `??AddrMgrEntryGet::?relay`,00H
        EXTERN `??AssocGetWithExt::?relay`
        FUNCTION `??AssocGetWithExt::?relay`,00H
        EXTERN `??AssocGetWithShort::?relay`
        FUNCTION `??AssocGetWithShort::?relay`,00H
        EXTERN `??AssocMakeList::?relay`
        FUNCTION `??AssocMakeList::?relay`,00H
        EXTERN `??MT_ZdoDirectCB::?relay`
        FUNCTION `??MT_ZdoDirectCB::?relay`,00H
        EXTERN `??NLME_GetExtAddr::?relay`
        FUNCTION `??NLME_GetExtAddr::?relay`,00H
        EXTERN `??NLME_GetShortAddr::?relay`
        FUNCTION `??NLME_GetShortAddr::?relay`,00H
        EXTERN `??ZDApp_InMsgCB::?relay`
        FUNCTION `??ZDApp_InMsgCB::?relay`,00H
        EXTERN `??ZDO_ProcessActiveEPReq::?relay`
        FUNCTION `??ZDO_ProcessActiveEPReq::?relay`,00H
        EXTERN `??ZDO_ProcessDeviceAnnce::?relay`
        FUNCTION `??ZDO_ProcessDeviceAnnce::?relay`,00H
        EXTERN `??ZDO_ProcessMatchDescReq::?relay`
        FUNCTION `??ZDO_ProcessMatchDescReq::?relay`,00H
        EXTERN `??ZDO_ProcessMgmtBindReq::?relay`
        FUNCTION `??ZDO_ProcessMgmtBindReq::?relay`,00H
        EXTERN `??ZDO_ProcessMgmtDirectJoinReq::?relay`
        FUNCTION `??ZDO_ProcessMgmtDirectJoinReq::?relay`,00H
        EXTERN `??ZDO_ProcessMgmtLeaveReq::?relay`
        FUNCTION `??ZDO_ProcessMgmtLeaveReq::?relay`,00H
        EXTERN `??ZDO_ProcessMgmtLqiReq::?relay`
        FUNCTION `??ZDO_ProcessMgmtLqiReq::?relay`,00H
        EXTERN `??ZDO_ProcessMgmtNwkDiscReq::?relay`
        FUNCTION `??ZDO_ProcessMgmtNwkDiscReq::?relay`,00H
        EXTERN `??ZDO_ProcessMgmtPermitJoinReq::?relay`
        FUNCTION `??ZDO_ProcessMgmtPermitJoinReq::?relay`,00H
        EXTERN `??ZDO_ProcessMgmtRtgReq::?relay`
        FUNCTION `??ZDO_ProcessMgmtRtgReq::?relay`,00H
        EXTERN `??ZDO_ProcessNodeDescReq::?relay`
        FUNCTION `??ZDO_ProcessNodeDescReq::?relay`,00H
        EXTERN `??ZDO_ProcessParentAnnce::?relay`
        FUNCTION `??ZDO_ProcessParentAnnce::?relay`,00H
        EXTERN `??ZDO_ProcessParentAnnceRsp::?relay`
        FUNCTION `??ZDO_ProcessParentAnnceRsp::?relay`,00H
        EXTERN `??ZDO_ProcessPowerDescReq::?relay`
        FUNCTION `??ZDO_ProcessPowerDescReq::?relay`,00H
        EXTERN `??ZDO_ProcessServerDiscReq::?relay`
        FUNCTION `??ZDO_ProcessServerDiscReq::?relay`,00H
        EXTERN `??ZDO_ProcessSimpleDescReq::?relay`
        FUNCTION `??ZDO_ProcessSimpleDescReq::?relay`,00H
        EXTERN `??ZDO_ProcessUserDescReq::?relay`
        FUNCTION `??ZDO_ProcessUserDescReq::?relay`,00H
        EXTERN `??ZDO_ProcessUserDescSet::?relay`
        FUNCTION `??ZDO_ProcessUserDescSet::?relay`,00H
        EXTERN `??osal_buffer_uint32::?relay`
        FUNCTION `??osal_buffer_uint32::?relay`,00H
        EXTERN `??osal_mem_alloc::?relay`
        FUNCTION `??osal_mem_alloc::?relay`,00H
        EXTERN `??osal_mem_free::?relay`
        FUNCTION `??osal_mem_free::?relay`,00H
        EXTERN `??osal_memcpy::?relay`
        FUNCTION `??osal_memcpy::?relay`,00H
        EXTERN `??osal_memset::?relay`
        FUNCTION `??osal_memset::?relay`,00H
        EXTERN `??osal_msg_allocate::?relay`
        FUNCTION `??osal_msg_allocate::?relay`,00H
        EXTERN `??osal_msg_send::?relay`
        FUNCTION `??osal_msg_send::?relay`,00H
        EXTERN `??sAddrExtCmp::?relay`
        FUNCTION `??sAddrExtCmp::?relay`,00H
        EXTERN `??sAddrExtCpy::?relay`
        FUNCTION `??sAddrExtCpy::?relay`,00H
        EXTERN AF_DataRequest
        FUNCTION AF_DataRequest,0202H
        ARGFRAME ISTACK, 0, STACK
        ARGFRAME PSTACK, 0, STACK
        ARGFRAME XSTACK, 35, STACK
        ARGFRAME IOVERLAY, 0, STATIC
        ARGFRAME DOVERLAY, 0, STATIC
        EXTERN AddrMgrEntryGet
        FUNCTION AddrMgrEntryGet,0202H
        ARGFRAME ISTACK, 0, STACK
        ARGFRAME PSTACK, 0, STACK
        ARGFRAME XSTACK, 32, STACK
        ARGFRAME IOVERLAY, 0, STATIC
        ARGFRAME DOVERLAY, 0, STATIC
        EXTERN AssocGetWithExt
        FUNCTION AssocGetWithExt,0202H
        ARGFRAME ISTACK, 0, STACK
        ARGFRAME PSTACK, 0, STACK
        ARGFRAME XSTACK, 32, STACK
        ARGFRAME IOVERLAY, 0, STATIC
        ARGFRAME DOVERLAY, 0, STATIC
        EXTERN AssocGetWithShort
        FUNCTION AssocGetWithShort,0202H
        ARGFRAME ISTACK, 0, STACK
        ARGFRAME PSTACK, 0, STACK
        ARGFRAME XSTACK, 32, STACK
        ARGFRAME IOVERLAY, 0, STATIC
        ARGFRAME DOVERLAY, 0, STATIC
        EXTERN AssocMakeList
        FUNCTION AssocMakeList,0202H
        ARGFRAME ISTACK, 0, STACK
        ARGFRAME PSTACK, 0, STACK
        ARGFRAME XSTACK, 32, STACK
        ARGFRAME IOVERLAY, 0, STATIC
        ARGFRAME DOVERLAY, 0, STATIC
        EXTERN MT_ZdoDirectCB
        FUNCTION MT_ZdoDirectCB,0202H
        ARGFRAME ISTACK, 0, STACK
        ARGFRAME PSTACK, 0, STACK
        ARGFRAME XSTACK, 35, STACK
        ARGFRAME IOVERLAY, 0, STATIC
        ARGFRAME DOVERLAY, 0, STATIC
        EXTERN NLME_GetExtAddr
        FUNCTION NLME_GetExtAddr,0202H
        ARGFRAME ISTACK, 0, STACK
        ARGFRAME PSTACK, 0, STACK
        ARGFRAME XSTACK, 18, STACK
        ARGFRAME IOVERLAY, 0, STATIC
        ARGFRAME DOVERLAY, 0, STATIC
        EXTERN NLME_GetShortAddr
        FUNCTION NLME_GetShortAddr,0202H
        ARGFRAME ISTACK, 0, STACK
        ARGFRAME PSTACK, 0, STACK
        ARGFRAME XSTACK, 21, STACK
        ARGFRAME IOVERLAY, 0, STATIC
        ARGFRAME DOVERLAY, 0, STATIC
        EXTERN ZDAppNwkAddr
        EXTERN ZDApp_InMsgCB
        FUNCTION ZDApp_InMsgCB,0202H
        ARGFRAME ISTACK, 0, STACK
        ARGFRAME PSTACK, 0, STACK
        ARGFRAME XSTACK, 35, STACK
        ARGFRAME IOVERLAY, 0, STATIC
        ARGFRAME DOVERLAY, 0, STATIC
        EXTERN ZDApp_epDesc
        EXTERN osal_buffer_uint32
        FUNCTION osal_buffer_uint32,0202H
        ARGFRAME ISTACK, 0, STACK
        ARGFRAME PSTACK, 0, STACK
        ARGFRAME XSTACK, 24, STACK
        ARGFRAME IOVERLAY, 0, STATIC
        ARGFRAME DOVERLAY, 0, STATIC
        EXTERN osal_mem_alloc
        FUNCTION osal_mem_alloc,0202H
        ARGFRAME ISTACK, 0, STACK
        ARGFRAME PSTACK, 0, STACK
        ARGFRAME XSTACK, 21, STACK
        ARGFRAME IOVERLAY, 0, STATIC
        ARGFRAME DOVERLAY, 0, STATIC
        EXTERN osal_mem_free
        FUNCTION osal_mem_free,0202H
        ARGFRAME ISTACK, 0, STACK
        ARGFRAME PSTACK, 0, STACK
        ARGFRAME XSTACK, 32, STACK
        ARGFRAME IOVERLAY, 0, STATIC
        ARGFRAME DOVERLAY, 0, STATIC
        EXTERN osal_memcpy
        FUNCTION osal_memcpy,0202H
        ARGFRAME ISTACK, 0, STACK
        ARGFRAME PSTACK, 0, STACK
        ARGFRAME XSTACK, 22, STACK
        ARGFRAME IOVERLAY, 0, STATIC
        ARGFRAME DOVERLAY, 0, STATIC
        EXTERN osal_memset
        FUNCTION osal_memset,0202H
        ARGFRAME ISTACK, 0, STACK
        ARGFRAME PSTACK, 0, STACK
        ARGFRAME XSTACK, 26, STACK
        ARGFRAME IOVERLAY, 0, STATIC
        ARGFRAME DOVERLAY, 0, STATIC
        EXTERN osal_msg_allocate
        FUNCTION osal_msg_allocate,0202H
        ARGFRAME ISTACK, 0, STACK
        ARGFRAME PSTACK, 0, STACK
        ARGFRAME XSTACK, 16, STACK
        ARGFRAME IOVERLAY, 0, STATIC
        ARGFRAME DOVERLAY, 0, STATIC
        EXTERN osal_msg_send
        FUNCTION osal_msg_send,0202H
        ARGFRAME ISTACK, 0, STACK
        ARGFRAME PSTACK, 0, STACK
        ARGFRAME XSTACK, 16, STACK
        ARGFRAME IOVERLAY, 0, STATIC
        ARGFRAME DOVERLAY, 0, STATIC
        EXTERN sAddrExtCmp
        FUNCTION sAddrExtCmp,0202H
        ARGFRAME ISTACK, 0, STACK
        ARGFRAME PSTACK, 0, STACK
        ARGFRAME XSTACK, 32, STACK
        ARGFRAME IOVERLAY, 0, STATIC
        ARGFRAME DOVERLAY, 0, STATIC
        EXTERN sAddrExtCpy
        FUNCTION sAddrExtCpy,0202H
        ARGFRAME ISTACK, 1, STACK
        ARGFRAME PSTACK, 0, STACK
        ARGFRAME XSTACK, 32, STACK
        ARGFRAME IOVERLAY, 0, STATIC
        ARGFRAME DOVERLAY, 0, STATIC
        EXTERN saveExtAddr
        EXTERN zgDeviceLogicalType
        EXTERN zgZdoDirectCB

// C:\Texas Instruments\Z-Stack Home 1.2.2a.44539\Components\stack\zdo\ZDProfile.c
//    1 /**************************************************************************************************
//    2   Filename:       ZDProfile.c
//    3   Revised:        $Date: 2015-10-14 11:48:06 -0700 (Wed, 14 Oct 2015) $
//    4   Revision:       $Revision: 44530 $
//    5 
//    6   Description:    This is the Zigbee Device Profile.
//    7 
//    8 
//    9   Copyright 2004-2015 Texas Instruments Incorporated. All rights reserved.
//   10 
//   11   IMPORTANT: Your use of this Software is limited to those specific rights
//   12   granted under the terms of a software license agreement between the user
//   13   who downloaded the software, his/her employer (which must be your employer)
//   14   and Texas Instruments Incorporated (the "License").  You may not use this
//   15   Software unless you agree to abide by the terms of the License. The License
//   16   limits your use, and you acknowledge, that the Software may not be modified,
//   17   copied or distributed unless embedded on a Texas Instruments microcontroller
//   18   or used solely and exclusively in conjunction with a Texas Instruments radio
//   19   frequency transceiver, which is integrated into your product.  Other than for
//   20   the foregoing purpose, you may not use, reproduce, copy, prepare derivative
//   21   works of, modify, distribute, perform, display or sell this Software and/or
//   22   its documentation for any purpose.
//   23 
//   24   YOU FURTHER ACKNOWLEDGE AND AGREE THAT THE SOFTWARE AND DOCUMENTATION ARE
//   25   PROVIDED "AS IS" WITHOUT WARRANTY OF ANY KIND, EITHER EXPRESS OR IMPLIED,
//   26   INCLUDING WITHOUT LIMITATION, ANY WARRANTY OF MERCHANTABILITY, TITLE,
//   27   NON-INFRINGEMENT AND FITNESS FOR A PARTICULAR PURPOSE. IN NO EVENT SHALL
//   28   TEXAS INSTRUMENTS OR ITS LICENSORS BE LIABLE OR OBLIGATED UNDER CONTRACT,
//   29   NEGLIGENCE, STRICT LIABILITY, CONTRIBUTION, BREACH OF WARRANTY, OR OTHER
//   30   LEGAL EQUITABLE THEORY ANY DIRECT OR INDIRECT DAMAGES OR EXPENSES
//   31   INCLUDING BUT NOT LIMITED TO ANY INCIDENTAL, SPECIAL, INDIRECT, PUNITIVE
//   32   OR CONSEQUENTIAL DAMAGES, LOST PROFITS OR LOST DATA, COST OF PROCUREMENT
//   33   OF SUBSTITUTE GOODS, TECHNOLOGY, SERVICES, OR ANY CLAIMS BY THIRD PARTIES
//   34   (INCLUDING BUT NOT LIMITED TO ANY DEFENSE THEREOF), OR OTHER SIMILAR COSTS.
//   35 
//   36   Should you have any questions regarding your right to use this Software,
//   37   contact Texas Instruments Incorporated at www.TI.com.
//   38 **************************************************************************************************/
//   39 
//   40 /*********************************************************************
//   41  * INCLUDES
//   42  */
//   43 #include "ZComDef.h"
//   44 #include "OSAL.h"
//   45 #include "AF.h"
//   46 #include "NLMEDE.h"
//   47 #include "nwk_util.h"
//   48 #include "APS.h"
//   49 
//   50 #include "AddrMgr.h"
//   51 #include "ZDConfig.h"
//   52 #include "ZDProfile.h"
//   53 #include "ZDObject.h"
//   54 #include "ZDNwkMgr.h"
//   55 
//   56 #if defined( LCD_SUPPORTED )
//   57   #include "OnBoard.h"
//   58 #endif
//   59 
//   60 #include "nwk_util.h"
//   61 
//   62 #if defined( MT_ZDO_FUNC )
//   63   #include "MT_ZDO.h"
//   64 #endif
//   65 
//   66 /*********************************************************************
//   67  * MACROS
//   68  */
//   69 
//   70 #define ZADDR_TO_AFADDR( pZADDR, AFADDR ) {                            \ 
//   71   (AFADDR).endPoint = ZDP_AF_ENDPOINT;                                 \ 
//   72   (AFADDR).addrMode = (afAddrMode_t)(pZADDR)->addrMode;                \ 
//   73   (AFADDR).addr.shortAddr = (pZADDR)->addr.shortAddr;                  \ 
//   74 }
//   75 
//   76 #define FillAndSendBuffer( TRANSSEQ, ADDR, ID, LEN, BUF ) {     \ 
//   77   afStatus_t stat;                                    \ 
//   78   ZDP_TmpBuf = (BUF)+1;                               \ 
//   79   stat = fillAndSend( (TRANSSEQ), (ADDR), (ID), (LEN) );          \ 
//   80   osal_mem_free( (BUF) );                             \ 
//   81   ZDP_TmpBuf = ZDP_Buf+1;                             \ 
//   82   return stat;                                        \ 
//   83 }
//   84 
//   85 #define FillAndSendTxOptions( TRANSSEQ, ADDR, ID, LEN, TxO ) {  \ 
//   86   afStatus_t stat;                                    \ 
//   87   ZDP_TxOptions = (TxO);                              \ 
//   88   stat = fillAndSend( (TRANSSEQ), (ADDR), (ID), (LEN) );          \ 
//   89   ZDP_TxOptions = AF_TX_OPTIONS_NONE;                 \ 
//   90   return stat;                                        \ 
//   91 }
//   92 
//   93 #define FillAndSendBufferTxOptions( TRANSSEQ, ADDR, ID, LEN, BUF, TxO ) { \ 
//   94   afStatus_t stat;                                    \ 
//   95   ZDP_TmpBuf = (BUF)+1;                               \ 
//   96   ZDP_TxOptions = (TxO);                              \ 
//   97   stat = fillAndSend( (TRANSSEQ), (ADDR), (ID), (LEN) );          \ 
//   98   osal_mem_free( (BUF) );                             \ 
//   99   ZDP_TmpBuf = ZDP_Buf+1;                             \ 
//  100   ZDP_TxOptions = AF_TX_OPTIONS_NONE;                 \ 
//  101   return stat;                                        \ 
//  102 }
//  103 
//  104 /*********************************************************************
//  105  * CONSTANTS
//  106  */
//  107 
//  108 #define ZDP_BUF_SZ          80
//  109 

        RSEG CODE_C:CODE:REORDER:NOROOT(0)
        DATA8
//  110 CONST byte ZDP_AF_ENDPOINT = 0;
ZDP_AF_ENDPOINT:
        DB 0
//  111 
//  112 // Routing table options
//  113 #define ZP_RTG_RECORD       0x04       // Routing table indication that a route record is needed
//  114 #define ZP_MTO_ROUTE_RC     0x08       // Concentrator with routing cache
//  115 #define ZP_MTO_ROUTE_NRC    0x10       // Concentrator with limited cache
//  116 
//  117 
//  118 /*********************************************************************
//  119  * TYPEDEFS
//  120  */
//  121 typedef struct
//  122 {
//  123   void *next;
//  124   uint8 taskID;
//  125   uint16 clusterID;
//  126 } ZDO_MsgCB_t;
//  127 
//  128 
//  129 /*********************************************************************
//  130  * GLOBAL VARIABLES
//  131  */
//  132 

        RSEG XDATA_Z:XDATA:NOROOT(0)
        DATA8
//  133 byte ZDP_TransID = 0;
ZDP_TransID:
        DS 1
        REQUIRE __INIT_XDATA_Z
//  134 
//  135 /*********************************************************************
//  136  * EXTERNAL VARIABLES
//  137  */
//  138 
//  139 extern endPointDesc_t ZDApp_epDesc;
//  140 
//  141 /*********************************************************************
//  142  * EXTERNAL FUNCTIONS
//  143  */
//  144 
//  145 /*********************************************************************
//  146  * LOCAL FUNCTIONS
//  147  */
//  148 
//  149 static afStatus_t fillAndSend( uint8 *transSeq, zAddrType_t *addr, cId_t clusterID, byte len );
//  150 uint8 ZDO_SendMsgCBs( zdoIncomingMsg_t *inMsg );
//  151 void zdpProcessAddrReq( zdoIncomingMsg_t *inMsg );
//  152 
//  153 /*********************************************************************
//  154  * LOCAL VARIABLES
//  155  */
//  156 

        RSEG XDATA_Z:XDATA:NOROOT(0)
        DATA8
//  157 static uint8  ZDP_Buf[ ZDP_BUF_SZ ];
ZDP_Buf:
        DS 80
        REQUIRE __INIT_XDATA_Z

        RSEG XDATA_I:XDATA:NOROOT(0)
//  158 static uint8 *ZDP_TmpBuf = ZDP_Buf+1;
ZDP_TmpBuf:
        DATA16
        DS 2
        REQUIRE `?<Initializer for ZDP_TmpBuf>`
        REQUIRE __INIT_XDATA_I
//  159 

        RSEG XDATA_Z:XDATA:NOROOT(0)
        DATA8
//  160 byte ZDP_TxOptions = AF_TX_OPTIONS_NONE;
ZDP_TxOptions:
        DS 1
        REQUIRE __INIT_XDATA_Z

        RSEG XDATA_Z:XDATA:NOROOT(0)
        DATA16
//  161 ZDO_MsgCB_t *zdoMsgCBs = (ZDO_MsgCB_t *)NULL;
zdoMsgCBs:
        DS 2
        REQUIRE __INIT_XDATA_Z
//  162 
//  163 /*********************************************************************
//  164  * ZDO Message Processing table
//  165  */
//  166 
//  167 typedef void (*pfnZDPMsgProcessor)( zdoIncomingMsg_t *inMsg );
//  168 
//  169 typedef struct
//  170 {
//  171   uint16                clusterID;
//  172   pfnZDPMsgProcessor    pFn;
//  173 } zdpMsgProcItem_t;
//  174 

        RSEG CODE_C:CODE:REORDER:NOROOT(0)
        DATA8
//  175 CONST zdpMsgProcItem_t zdpMsgProcs[] =
zdpMsgProcs:
        DATA16
        DW 0
        DW `??zdpProcessAddrReq::?relay`
        DW 19
        DW `??ZDO_ProcessDeviceAnnce::?relay`
        DW 31
        DW `??ZDO_ProcessParentAnnce::?relay`
        DW 32799
        DW `??ZDO_ProcessParentAnnceRsp::?relay`
        DW 1
        DW `??zdpProcessAddrReq::?relay`
        DW 2
        DW `??ZDO_ProcessNodeDescReq::?relay`
        DW 3
        DW `??ZDO_ProcessPowerDescReq::?relay`
        DW 4
        DW `??ZDO_ProcessSimpleDescReq::?relay`
        DW 5
        DW `??ZDO_ProcessActiveEPReq::?relay`
        DW 6
        DW `??ZDO_ProcessMatchDescReq::?relay`
        DW 48
        DW `??ZDO_ProcessMgmtNwkDiscReq::?relay`
        DW 49
        DW `??ZDO_ProcessMgmtLqiReq::?relay`
        DW 50
        DW `??ZDO_ProcessMgmtRtgReq::?relay`
        DW 51
        DW `??ZDO_ProcessMgmtBindReq::?relay`
        DW 53
        DW `??ZDO_ProcessMgmtDirectJoinReq::?relay`
        DW 52
        DW `??ZDO_ProcessMgmtLeaveReq::?relay`
        DW 54
        DW `??ZDO_ProcessMgmtPermitJoinReq::?relay`
        DW 17
        DW `??ZDO_ProcessUserDescReq::?relay`
        DW 20
        DW `??ZDO_ProcessUserDescSet::?relay`
        DW 21
        DW `??ZDO_ProcessServerDiscReq::?relay`
        DW 65535
        DW 0H
//  176 {
//  177 #if ( RFD_RCVC_ALWAYS_ON==TRUE ) || ( ZG_BUILD_RTR_TYPE )
//  178   // These aren't processed by sleeping end devices.
//  179   { NWK_addr_req,           zdpProcessAddrReq },
//  180   { Device_annce,           ZDO_ProcessDeviceAnnce },
//  181 #endif
//  182 #if ( ZG_BUILD_RTR_TYPE )
//  183   // These aren't processed by end devices.
//  184   { Parent_annce,           ZDO_ProcessParentAnnce },
//  185   { Parent_annce_rsp,       ZDO_ProcessParentAnnceRsp },
//  186 #endif
//  187   { IEEE_addr_req,          zdpProcessAddrReq },
//  188   { Node_Desc_req,          ZDO_ProcessNodeDescReq },
//  189   { Power_Desc_req,         ZDO_ProcessPowerDescReq },
//  190   { Simple_Desc_req,        ZDO_ProcessSimpleDescReq },
//  191   { Active_EP_req,          ZDO_ProcessActiveEPReq },
//  192   { Match_Desc_req,         ZDO_ProcessMatchDescReq },
//  193 #if defined ( ZDO_MGMT_NWKDISC_RESPONSE )
//  194   { Mgmt_NWK_Disc_req,      ZDO_ProcessMgmtNwkDiscReq },
//  195 #endif
//  196 #if defined ( ZDO_MGMT_LQI_RESPONSE ) && ( ZG_BUILD_RTR_TYPE )
//  197   { Mgmt_Lqi_req,           ZDO_ProcessMgmtLqiReq },
//  198 #endif
//  199 #if defined ( ZDO_MGMT_RTG_RESPONSE ) && ( ZG_BUILD_RTR_TYPE )
//  200   { Mgmt_Rtg_req,           ZDO_ProcessMgmtRtgReq },
//  201 #endif
//  202 #if defined ( ZDO_MGMT_BIND_RESPONSE ) && defined ( REFLECTOR )
//  203   { Mgmt_Bind_req,          ZDO_ProcessMgmtBindReq },
//  204 #endif
//  205 #if defined ( ZDO_MGMT_JOINDIRECT_RESPONSE ) && ( ZG_BUILD_RTR_TYPE )
//  206   { Mgmt_Direct_Join_req,   ZDO_ProcessMgmtDirectJoinReq },
//  207 #endif
//  208 #if defined ( ZDO_MGMT_LEAVE_RESPONSE )
//  209   { Mgmt_Leave_req,         ZDO_ProcessMgmtLeaveReq },
//  210 #endif
//  211 #if defined ( ZDO_MGMT_PERMIT_JOIN_RESPONSE )  && ( ZG_BUILD_RTR_TYPE )
//  212   { Mgmt_Permit_Join_req,   ZDO_ProcessMgmtPermitJoinReq },
//  213 #endif
//  214 #if defined ( ZDO_USERDESC_RESPONSE )
//  215   { User_Desc_req,          ZDO_ProcessUserDescReq },
//  216 #endif
//  217 #if defined ( ZDO_USERDESCSET_RESPONSE )
//  218   { User_Desc_set,          ZDO_ProcessUserDescSet },
//  219 #endif
//  220 #if defined ( ZDO_SERVERDISC_RESPONSE )
//  221   { Server_Discovery_req,   ZDO_ProcessServerDiscReq },
//  222 #endif
//  223   {0xFFFF, NULL} // Last
//  224 };
//  225 
//  226 /*********************************************************************
//  227  * @fn          fillAndSend
//  228  *
//  229  * @brief       Combined to reduce space
//  230  *
//  231  * @param
//  232  * @param
//  233  *
//  234  * @return      afStatus_t
//  235  */

        RSEG BANKED_CODE:HUGECODE:NOROOT(0)
//  236 static afStatus_t fillAndSend( uint8 *transSeq, zAddrType_t *addr, cId_t clusterID, byte len )
fillAndSend:
          CFI Block cfiBlock0 Using cfiCommon0
          CFI Function fillAndSend
        CODE
//  237 {
        FUNCALL fillAndSend, osal_memset
        LOCFRAME ISTACK, 0, STACK
        LOCFRAME PSTACK, 0, STACK
        LOCFRAME XSTACK, 26, STACK
        LOCFRAME IOVERLAY, 0, STATIC
        LOCFRAME DOVERLAY, 0, STATIC
        ARGFRAME ISTACK, 0, STACK
        ARGFRAME PSTACK, 0, STACK
        ARGFRAME XSTACK, 26, STACK
        ARGFRAME IOVERLAY, 0, STATIC
        ARGFRAME DOVERLAY, 0, STATIC
        FUNCALL fillAndSend, AF_DataRequest
        LOCFRAME ISTACK, 0, STACK
        LOCFRAME PSTACK, 0, STACK
        LOCFRAME XSTACK, 35, STACK
        LOCFRAME IOVERLAY, 0, STATIC
        LOCFRAME DOVERLAY, 0, STATIC
        ARGFRAME ISTACK, 0, STACK
        ARGFRAME PSTACK, 0, STACK
        ARGFRAME XSTACK, 35, STACK
        ARGFRAME IOVERLAY, 0, STATIC
        ARGFRAME DOVERLAY, 0, STATIC
        REQUIRE ?V0
        REQUIRE ?V1
        REQUIRE ?V2
        REQUIRE ?V3
        REQUIRE ?V4
        REQUIRE ?V5
        MOV       A,#-0xe
        LCALL     ?BANKED_ENTER_XDATA
          CFI DPH0 load(1, XDATA, add(CFA_XSP16, literal(-1)))
          CFI DPL0 load(1, XDATA, add(CFA_XSP16, literal(-2)))
          CFI ?BRET_EXT load(1, XDATA, add(CFA_XSP16, literal(-3)))
          CFI ?RET_HIGH load(1, XDATA, add(CFA_XSP16, literal(-4)))
          CFI ?RET_LOW load(1, XDATA, add(CFA_XSP16, literal(-5)))
          CFI R7 load(1, XDATA, add(CFA_XSP16, literal(-6)))
          CFI V5 load(1, XDATA, add(CFA_XSP16, literal(-7)))
          CFI V4 load(1, XDATA, add(CFA_XSP16, literal(-8)))
          CFI V3 load(1, XDATA, add(CFA_XSP16, literal(-9)))
          CFI V2 load(1, XDATA, add(CFA_XSP16, literal(-10)))
          CFI V1 load(1, XDATA, add(CFA_XSP16, literal(-11)))
          CFI V0 load(1, XDATA, add(CFA_XSP16, literal(-12)))
          CFI VB load(1, XDATA, add(CFA_XSP16, literal(-13)))
          CFI R6 load(1, XDATA, add(CFA_XSP16, literal(-14)))
          CFI CFA_SP SP+0
          CFI CFA_XSP16 add(XSP16, 14)
        ; Saved register size: 14
        ; Auto size: 12
        MOV       A,#-0xc
        LCALL     ?ALLOC_XSTACK8
          CFI CFA_XSP16 add(XSP16, 26)
        MOV       ?V0,R2
        MOV       ?V1,R3
        MOV       A,R4
        MOV       R6,A
        MOV       A,R5
        MOV       R7,A
        MOV       ?V4,R1
//  238   afAddrType_t afAddr;
//  239 
//  240   osal_memset( &afAddr, 0, sizeof(afAddrType_t) );
        ; Setup parameters for call to function osal_memset
        MOV       R4,#0xc
        MOV       R5,#0x0
        MOV       R1,#0x0
        MOV       R2,?XSP + 0
        MOV       R3,?XSP + 1
        LCALL     `??osal_memset::?relay`; Banked call to: osal_memset
//  241   ZADDR_TO_AFADDR( addr, afAddr );
        MOV       A,#0x9
        LCALL     ?XSTACK_DISP0_8
        CLR       A
        LCALL     ?Subroutine22 & 0xFFFF
??CrossCallReturnLabel_23:
        MOVX      A,@DPTR
        PUSH      A
          CFI CFA_SP SP+-1
        MOV       A,#0x8
        LCALL     ?XSTACK_DISP0_8
        POP       A
          CFI CFA_SP SP+0
        MOVX      @DPTR,A
        MOV       DPL,R6
        MOV       DPH,R7
        LCALL     ?Subroutine49 & 0xFFFF
??CrossCallReturnLabel_74:
        LCALL     ??Subroutine127_0 & 0xFFFF
//  242 
//  243   *(ZDP_TmpBuf-1) = *transSeq;
??CrossCallReturnLabel_232:
        MOV       DPTR,#ZDP_TmpBuf
        MOVX      A,@DPTR
        ADD       A,#-0x1
        MOV       ?V2,A
        INC       DPTR
        MOVX      A,@DPTR
        ADDC      A,#-0x1
        MOV       ?V3,A
        MOV       DPL,?V0
        MOV       DPH,?V1
        MOVX      A,@DPTR
        MOV       DPL,?V2
        MOV       DPH,?V3
        MOVX      @DPTR,A
//  244 
//  245   return AF_DataRequest( &afAddr, &ZDApp_epDesc, clusterID,
//  246                            (uint16)(len+1), (uint8*)(ZDP_TmpBuf-1),
//  247                            transSeq, ZDP_TxOptions,  AF_DEFAULT_RADIUS );
        ; Setup parameters for call to function AF_DataRequest
        MOV       ?V5,#0x1e
        MOV       R0,#?V5
        LCALL     ?PUSH_XSTACK_I_ONE
          CFI CFA_XSP16 add(XSP16, 27)
        MOV       R0,#?V0
        LCALL     ?PUSH_XSTACK_I_TWO
          CFI CFA_XSP16 add(XSP16, 29)
        MOV       R0,#?V2
        LCALL     ?PUSH_XSTACK_I_TWO
          CFI CFA_XSP16 add(XSP16, 31)
        MOV       A,?V4
        ADD       A,#0x1
        MOV       ?V0,A
        CLR       A
        ADDC      A,#0x0
        MOV       ?V1,A
        MOV       R0,#?V0
        LCALL     ?PUSH_XSTACK_I_TWO
          CFI CFA_XSP16 add(XSP16, 33)
        MOV       A,#0x21
        LCALL     ?XSTACK_DISP0_8
        LCALL     ?PUSH_XSTACK8_X_TWO
          CFI CFA_XSP16 add(XSP16, 35)
        MOV       DPTR,#ZDP_TxOptions
        MOVX      A,@DPTR
        MOV       R1,A
        MOV       R4,#ZDApp_epDesc & 0xff
        MOV       R5,#(ZDApp_epDesc >> 8) & 0xff
        MOV       A,#0x9
        LCALL     ?XSTACK_DISP101_8
        LCALL     `??AF_DataRequest::?relay`; Banked call to: AF_DataRequest
        MOV       A,#0x9
        LCALL     ?DEALLOC_XSTACK8
          CFI CFA_XSP16 add(XSP16, 26)
        MOV       A,#0xc
        LJMP      ?Subroutine0 & 0xFFFF
//  248 
//  249 }
          CFI EndBlock cfiBlock0
//  250 
//  251 /*********************************************************************
//  252  * @fn          ZDP_SendData
//  253  *
//  254  * @brief       This builds and send a request message that has
//  255  *              NWKAddrOfInterest as its only parameter.
//  256  *
//  257  * @param       dstAddr - destination address
//  258  * @param       cmd - clusterID
//  259  * @param       dataLen - number of bytes of data
//  260  * @param       data - pointer to the data
//  261  * @param       SecurityEnable - Security Options
//  262  *
//  263  * @return      afStatus_t
//  264  */

        RSEG BANKED_CODE:HUGECODE:NOROOT(0)
//  265 afStatus_t ZDP_SendData( uint8 *TransSeq, zAddrType_t *dstAddr, uint16 cmd,
ZDP_SendData:
          CFI Block cfiBlock1 Using cfiCommon0
          CFI Function ZDP_SendData
        CODE
//  266                         byte len, uint8 *buf, byte SecurityEnable )
//  267 {
        FUNCALL ZDP_SendData, fillAndSend
        LOCFRAME ISTACK, 0, STACK
        LOCFRAME PSTACK, 0, STACK
        LOCFRAME XSTACK, 14, STACK
        LOCFRAME IOVERLAY, 0, STATIC
        LOCFRAME DOVERLAY, 0, STATIC
        ARGFRAME ISTACK, 0, STACK
        ARGFRAME PSTACK, 0, STACK
        ARGFRAME XSTACK, 14, STACK
        ARGFRAME IOVERLAY, 0, STATIC
        ARGFRAME DOVERLAY, 0, STATIC
        REQUIRE ?V0
        REQUIRE ?V2
        REQUIRE ?V3
        MOV       A,#-0xc
        LCALL     ?BANKED_ENTER_XDATA
          CFI DPH0 load(1, XDATA, add(CFA_XSP16, literal(-1)))
          CFI DPL0 load(1, XDATA, add(CFA_XSP16, literal(-2)))
          CFI ?BRET_EXT load(1, XDATA, add(CFA_XSP16, literal(-3)))
          CFI ?RET_HIGH load(1, XDATA, add(CFA_XSP16, literal(-4)))
          CFI ?RET_LOW load(1, XDATA, add(CFA_XSP16, literal(-5)))
          CFI R7 load(1, XDATA, add(CFA_XSP16, literal(-6)))
          CFI V3 load(1, XDATA, add(CFA_XSP16, literal(-7)))
          CFI V2 load(1, XDATA, add(CFA_XSP16, literal(-8)))
          CFI V1 load(1, XDATA, add(CFA_XSP16, literal(-9)))
          CFI V0 load(1, XDATA, add(CFA_XSP16, literal(-10)))
          CFI VB load(1, XDATA, add(CFA_XSP16, literal(-11)))
          CFI R6 load(1, XDATA, add(CFA_XSP16, literal(-12)))
          CFI CFA_SP SP+0
          CFI CFA_XSP16 add(XSP16, 12)
        ; Saved register size: 12
        ; Auto size: 0
        MOV       A,R1
        MOV       R7,A
//  268   uint8 *pBuf = ZDP_TmpBuf;
        MOV       DPTR,#ZDP_TmpBuf
        LCALL     ??Subroutine115_0 & 0xFFFF
//  269   byte cnt = len;
??CrossCallReturnLabel_191:
        MOV       A,R7
        MOV       R6,A
        MOV       A,#0xe
        LCALL     ?XSTACK_DISP0_8
        LCALL     ??Subroutine136_0 & 0xFFFF
??CrossCallReturnLabel_281:
        SJMP      ??ZDP_SendData_0
//  270 
//  271   while ( cnt-- )
//  272   {
//  273     *pBuf++ = *buf++;
??ZDP_SendData_1:
        MOV       DPL,R0
        MOV       DPH,R1
        MOVX      A,@DPTR
        MOV       DPL,?V2
        MOV       DPH,?V3
        LCALL     ??Subroutine116_0 & 0xFFFF
//  274   }
??CrossCallReturnLabel_199:
        MOV       R0,DPL
        MOV       R1,DPH
        MOV       DPL,?V2
        MOV       DPH,?V3
        INC       DPTR
        MOV       ?V2,DPL
        MOV       ?V3,DPH
??ZDP_SendData_0:
        MOV       A,#-0x1
        ADD       A,R6
        MOV       R6,A
        INC       A
        JNZ       ??ZDP_SendData_1
//  275 
//  276   FillAndSendTxOptions( TransSeq, dstAddr, cmd, len, ((SecurityEnable) ? AF_EN_SECURITY : 0) );
        MOV       A,#0x10
        LCALL     ?XSTACK_DISP0_8
        MOVX      A,@DPTR
        MOV       DPTR,#ZDP_TxOptions
        JZ        ??ZDP_SendData_2
        MOV       A,#0x40
        SJMP      ??ZDP_SendData_3
??ZDP_SendData_2:
        CLR       A
??ZDP_SendData_3:
        MOVX      @DPTR,A
        ; Setup parameters for call to function fillAndSend
        MOV       A,#0xc
        LCALL     ?XSTACK_DISP0_8
        LCALL     ?PUSH_XSTACK8_X_TWO
          CFI CFA_XSP16 add(XSP16, 14)
        MOV       A,R7
        MOV       R1,A
        LCALL     `??fillAndSend::?relay`; Banked call to: fillAndSend
        MOV       A,#0x2
        LCALL     ?DEALLOC_XSTACK8
          CFI CFA_XSP16 add(XSP16, 12)
        MOV       A,R1
        MOV       R1,A
        MOV       DPTR,#ZDP_TxOptions
        CLR       A
        MOVX      @DPTR,A
        LJMP      ??Subroutine108_0 & 0xFFFF
//  277 }
          CFI EndBlock cfiBlock1
//  278 
//  279 /*********************************************************************
//  280  * @fn          ZDP_NWKAddrOfInterestReq
//  281  *
//  282  * @brief       This builds and send a request message that has
//  283  *              NWKAddrOfInterest as its only parameter.
//  284  *
//  285  * @param       dstAddr - destination address
//  286  * @param       nwkAddr - 16 bit address
//  287  * @param       SecurityEnable - Security Options
//  288  *
//  289  * @return      afStatus_t
//  290  */

        RSEG BANKED_CODE:HUGECODE:NOROOT(0)
//  291 afStatus_t ZDP_NWKAddrOfInterestReq( zAddrType_t *dstAddr, uint16 nwkAddr,
ZDP_NWKAddrOfInterestReq:
          CFI Block cfiBlock2 Using cfiCommon0
          CFI Function ZDP_NWKAddrOfInterestReq
        CODE
//  292                                      byte cmd, byte SecurityEnable )
//  293 {
        FUNCALL ZDP_NWKAddrOfInterestReq, fillAndSend
        LOCFRAME ISTACK, 0, STACK
        LOCFRAME PSTACK, 0, STACK
        LOCFRAME XSTACK, 12, STACK
        LOCFRAME IOVERLAY, 0, STATIC
        LOCFRAME DOVERLAY, 0, STATIC
        ARGFRAME ISTACK, 0, STACK
        ARGFRAME PSTACK, 0, STACK
        ARGFRAME XSTACK, 12, STACK
        ARGFRAME IOVERLAY, 0, STATIC
        ARGFRAME DOVERLAY, 0, STATIC
        REQUIRE ?V0
        REQUIRE ?V1
        MOV       A,#-0xa
        LCALL     ?BANKED_ENTER_XDATA
          CFI DPH0 load(1, XDATA, add(CFA_XSP16, literal(-1)))
          CFI DPL0 load(1, XDATA, add(CFA_XSP16, literal(-2)))
          CFI ?BRET_EXT load(1, XDATA, add(CFA_XSP16, literal(-3)))
          CFI ?RET_HIGH load(1, XDATA, add(CFA_XSP16, literal(-4)))
          CFI ?RET_LOW load(1, XDATA, add(CFA_XSP16, literal(-5)))
          CFI R7 load(1, XDATA, add(CFA_XSP16, literal(-6)))
          CFI V1 load(1, XDATA, add(CFA_XSP16, literal(-7)))
          CFI V0 load(1, XDATA, add(CFA_XSP16, literal(-8)))
          CFI VB load(1, XDATA, add(CFA_XSP16, literal(-9)))
          CFI R6 load(1, XDATA, add(CFA_XSP16, literal(-10)))
          CFI CFA_SP SP+0
          CFI CFA_XSP16 add(XSP16, 10)
        ; Saved register size: 10
        ; Auto size: 0
        MOV       A,R1
        MOV       R6,A
//  294   (void)SecurityEnable;  // Intentionally unreferenced parameter
//  295 
//  296   ZDP_TmpBuf[0] = LO_UINT16( nwkAddr );
        LCALL     ?Subroutine19 & 0xFFFF
//  297   ZDP_TmpBuf[1] = HI_UINT16( nwkAddr );
??CrossCallReturnLabel_17:
        MOVX      @DPTR,A
//  298 
//  299   return fillAndSend( &ZDP_TransID, dstAddr, cmd, 2 );
        ; Setup parameters for call to function fillAndSend
        MOV       A,R6
        MOV       ?V0,A
        MOV       ?V1,#0x0
        MOV       R0,#?V0
        LCALL     ?PUSH_XSTACK_I_TWO
          CFI CFA_XSP16 add(XSP16, 12)
        MOV       R1,#0x2
        LJMP      ?Subroutine8 & 0xFFFF
//  300 }
          CFI EndBlock cfiBlock2
//  301 
//  302 /*********************************************************************
//  303  * Address Requests
//  304  */
//  305 
//  306 /*********************************************************************
//  307  * @fn          ZDP_NwkAddrReq
//  308  *
//  309  * @brief       This builds and send a NWK_addr_req message.  This
//  310  *              function sends a broadcast message looking for a 16
//  311  *              bit address with a 64 bit address as bait.
//  312  *
//  313  * @param       IEEEAddress - looking for this device
//  314  * @param       SecurityEnable - Security Options
//  315  *
//  316  * @return      afStatus_t
//  317  */

        RSEG BANKED_CODE:HUGECODE:NOROOT(0)
//  318 afStatus_t ZDP_NwkAddrReq( uint8 *IEEEAddress, byte ReqType,
ZDP_NwkAddrReq:
          CFI Block cfiBlock3 Using cfiCommon0
          CFI Function ZDP_NwkAddrReq
        CODE
//  319                            byte StartIndex, byte SecurityEnable )
//  320 {
        FUNCALL ZDP_NwkAddrReq, sAddrExtCmp
        LOCFRAME ISTACK, 0, STACK
        LOCFRAME PSTACK, 0, STACK
        LOCFRAME XSTACK, 21, STACK
        LOCFRAME IOVERLAY, 0, STATIC
        LOCFRAME DOVERLAY, 0, STATIC
        ARGFRAME ISTACK, 0, STACK
        ARGFRAME PSTACK, 0, STACK
        ARGFRAME XSTACK, 21, STACK
        ARGFRAME IOVERLAY, 0, STATIC
        ARGFRAME DOVERLAY, 0, STATIC
        FUNCALL ZDP_NwkAddrReq, sAddrExtCpy
        LOCFRAME ISTACK, 0, STACK
        LOCFRAME PSTACK, 0, STACK
        LOCFRAME XSTACK, 21, STACK
        LOCFRAME IOVERLAY, 0, STATIC
        LOCFRAME DOVERLAY, 0, STATIC
        ARGFRAME ISTACK, 0, STACK
        ARGFRAME PSTACK, 0, STACK
        ARGFRAME XSTACK, 21, STACK
        ARGFRAME IOVERLAY, 0, STATIC
        ARGFRAME DOVERLAY, 0, STATIC
        FUNCALL ZDP_NwkAddrReq, fillAndSend
        LOCFRAME ISTACK, 0, STACK
        LOCFRAME PSTACK, 0, STACK
        LOCFRAME XSTACK, 23, STACK
        LOCFRAME IOVERLAY, 0, STATIC
        LOCFRAME DOVERLAY, 0, STATIC
        ARGFRAME ISTACK, 0, STACK
        ARGFRAME PSTACK, 0, STACK
        ARGFRAME XSTACK, 23, STACK
        ARGFRAME IOVERLAY, 0, STATIC
        ARGFRAME DOVERLAY, 0, STATIC
        REQUIRE ?V0
        REQUIRE ?V1
        REQUIRE ?V2
        REQUIRE ?V3
        MOV       A,#-0xc
        LCALL     ?BANKED_ENTER_XDATA
          CFI DPH0 load(1, XDATA, add(CFA_XSP16, literal(-1)))
          CFI DPL0 load(1, XDATA, add(CFA_XSP16, literal(-2)))
          CFI ?BRET_EXT load(1, XDATA, add(CFA_XSP16, literal(-3)))
          CFI ?RET_HIGH load(1, XDATA, add(CFA_XSP16, literal(-4)))
          CFI ?RET_LOW load(1, XDATA, add(CFA_XSP16, literal(-5)))
          CFI R7 load(1, XDATA, add(CFA_XSP16, literal(-6)))
          CFI V3 load(1, XDATA, add(CFA_XSP16, literal(-7)))
          CFI V2 load(1, XDATA, add(CFA_XSP16, literal(-8)))
          CFI V1 load(1, XDATA, add(CFA_XSP16, literal(-9)))
          CFI V0 load(1, XDATA, add(CFA_XSP16, literal(-10)))
          CFI VB load(1, XDATA, add(CFA_XSP16, literal(-11)))
          CFI R6 load(1, XDATA, add(CFA_XSP16, literal(-12)))
          CFI CFA_SP SP+0
          CFI CFA_XSP16 add(XSP16, 12)
        ; Saved register size: 12
        ; Auto size: 9
        MOV       A,#-0x9
        LCALL     ?ALLOC_XSTACK8
          CFI CFA_XSP16 add(XSP16, 21)
        MOV       A,R2
        MOV       R6,A
        MOV       A,R3
        MOV       R7,A
        MOV       ?V2,R1
        MOV       ?V3,R4
//  321   uint8 *pBuf = ZDP_TmpBuf;
        MOV       DPTR,#ZDP_TmpBuf
        LCALL     ?Subroutine44 & 0xFFFF
//  322   byte len = Z_EXTADDR_LEN + 1 + 1;  // IEEEAddress + ReqType + StartIndex.
//  323   zAddrType_t dstAddr;
//  324 
//  325   (void)SecurityEnable;  // Intentionally unreferenced parameter
//  326 
//  327   if ( osal_ExtAddrEqual( saveExtAddr, IEEEAddress ) == FALSE )
??CrossCallReturnLabel_64:
        ; Setup parameters for call to function sAddrExtCmp
        MOV       A,R6
        MOV       R4,A
        MOV       A,R7
        MOV       R5,A
        MOV       R2,#saveExtAddr & 0xff
        MOV       R3,#(saveExtAddr >> 8) & 0xff
        LCALL     `??sAddrExtCmp::?relay`; Banked call to: sAddrExtCmp
        MOV       A,R1
        JNZ       ??ZDP_NwkAddrReq_0
//  328   {
//  329     dstAddr.addrMode = AddrBroadcast;
        MOV       A,#0x8
        LCALL     ?XSTACK_DISP0_8
        LCALL     ?Subroutine89 & 0xFFFF
//  330     dstAddr.addr.shortAddr = NWK_BROADCAST_SHORTADDR_DEVRXON;
//  331   }
??CrossCallReturnLabel_153:
        SJMP      ??ZDP_NwkAddrReq_1
//  332   else
//  333   {
//  334     dstAddr.addrMode = Addr16Bit;
??ZDP_NwkAddrReq_0:
        MOV       A,#0x8
        LCALL     ?XSTACK_DISP0_8
        MOV       A,#0x2
        MOVX      @DPTR,A
//  335     dstAddr.addr.shortAddr = ZDAppNwkAddr.addr.shortAddr;
        MOV       DPTR,#ZDAppNwkAddr
        LCALL     ?Subroutine49 & 0xFFFF
//  336   }
??CrossCallReturnLabel_75:
        MOV       A,R0
        MOVX      @DPTR,A
        INC       DPTR
        MOV       A,R1
??ZDP_NwkAddrReq_1:
        MOVX      @DPTR,A
//  337 
//  338   pBuf = osal_cpyExtAddr( pBuf, IEEEAddress );
        ; Setup parameters for call to function sAddrExtCpy
        MOV       A,R6
        MOV       R4,A
        MOV       A,R7
        MOV       R5,A
        MOV       R2,?V0
        MOV       R3,?V1
        LCALL     `??sAddrExtCpy::?relay`; Banked call to: sAddrExtCpy
        MOV       DPL,R2
        MOV       DPH,R3
//  339 
//  340   *pBuf++ = ReqType;
        MOV       A,?V2
        MOVX      @DPTR,A
//  341   *pBuf++ = StartIndex;
        INC       DPTR
        MOV       A,?V3
        MOVX      @DPTR,A
//  342 
//  343   return fillAndSend( &ZDP_TransID, &dstAddr, NWK_addr_req, len );
        ; Setup parameters for call to function fillAndSend
        CLR       A
        MOV       ?V0,A
        MOV       ?V1,A
        MOV       R0,#?V0
        LCALL     ?PUSH_XSTACK_I_TWO
          CFI CFA_XSP16 add(XSP16, 23)
        MOV       R1,#0xa
        MOV       A,#0x2
        LCALL     ?XSTACK_DISP102_8
          CFI EndBlock cfiBlock3
        REQUIRE ?Subroutine9
        ; // Fall through to label ?Subroutine9
//  344 }

        RSEG BANKED_CODE:HUGECODE:NOROOT(0)
?Subroutine9:
          CFI Block cfiBlock4 Using cfiCommon0
          CFI NoFunction
          CFI CFA_SP SP+0
          CFI CFA_XSP16 add(XSP16, 23)
          CFI VB load(1, XDATA, add(CFA_XSP16, literal(-11)))
          CFI DPL0 load(1, XDATA, add(CFA_XSP16, literal(-2)))
          CFI DPH0 load(1, XDATA, add(CFA_XSP16, literal(-1)))
          CFI R6 load(1, XDATA, add(CFA_XSP16, literal(-12)))
          CFI R7 load(1, XDATA, add(CFA_XSP16, literal(-6)))
          CFI V0 load(1, XDATA, add(CFA_XSP16, literal(-10)))
          CFI V1 load(1, XDATA, add(CFA_XSP16, literal(-9)))
          CFI V2 load(1, XDATA, add(CFA_XSP16, literal(-8)))
          CFI V3 load(1, XDATA, add(CFA_XSP16, literal(-7)))
          CFI ?BRET_EXT load(1, XDATA, add(CFA_XSP16, literal(-3)))
          CFI ?RET_HIGH load(1, XDATA, add(CFA_XSP16, literal(-4)))
          CFI ?RET_LOW load(1, XDATA, add(CFA_XSP16, literal(-5)))
        MOV       R2,#ZDP_TransID & 0xff
        MOV       R3,#(ZDP_TransID >> 8) & 0xff
        LCALL     `??fillAndSend::?relay`; Banked call to: fillAndSend
        MOV       A,#0x2
        LCALL     ?DEALLOC_XSTACK8
          CFI CFA_XSP16 add(XSP16, 21)
        MOV       A,#0x9
        SJMP      ??Subroutine107_0
          CFI EndBlock cfiBlock4

        RSEG BANKED_CODE:HUGECODE:NOROOT(0)
?Subroutine49:
          CFI Block cfiCond5 Using cfiCommon0
          CFI Function fillAndSend
          CFI Conditional ??CrossCallReturnLabel_74
          CFI R6 load(1, XDATA, add(CFA_XSP16, literal(-14)))
          CFI VB load(1, XDATA, add(CFA_XSP16, literal(-13)))
          CFI V0 load(1, XDATA, add(CFA_XSP16, literal(-12)))
          CFI V1 load(1, XDATA, add(CFA_XSP16, literal(-11)))
          CFI V2 load(1, XDATA, add(CFA_XSP16, literal(-10)))
          CFI V3 load(1, XDATA, add(CFA_XSP16, literal(-9)))
          CFI V4 load(1, XDATA, add(CFA_XSP16, literal(-8)))
          CFI V5 load(1, XDATA, add(CFA_XSP16, literal(-7)))
          CFI R7 load(1, XDATA, add(CFA_XSP16, literal(-6)))
          CFI ?RET_LOW load(1, XDATA, add(CFA_XSP16, literal(-5)))
          CFI ?RET_HIGH load(1, XDATA, add(CFA_XSP16, literal(-4)))
          CFI ?BRET_EXT load(1, XDATA, add(CFA_XSP16, literal(-3)))
          CFI DPL0 load(1, XDATA, add(CFA_XSP16, literal(-2)))
          CFI DPH0 load(1, XDATA, add(CFA_XSP16, literal(-1)))
          CFI CFA_SP SP+-2
          CFI CFA_XSP16 add(XSP16, 26)
          CFI Block cfiCond6 Using cfiCommon0
          CFI (cfiCond6) Function ZDP_NwkAddrReq
          CFI (cfiCond6) Conditional ??CrossCallReturnLabel_75
          CFI (cfiCond6) R6 load(1, XDATA, add(CFA_XSP16, literal(-12)))
          CFI (cfiCond6) VB load(1, XDATA, add(CFA_XSP16, literal(-11)))
          CFI (cfiCond6) V0 load(1, XDATA, add(CFA_XSP16, literal(-10)))
          CFI (cfiCond6) V1 load(1, XDATA, add(CFA_XSP16, literal(-9)))
          CFI (cfiCond6) V2 load(1, XDATA, add(CFA_XSP16, literal(-8)))
          CFI (cfiCond6) V3 load(1, XDATA, add(CFA_XSP16, literal(-7)))
          CFI (cfiCond6) R7 load(1, XDATA, add(CFA_XSP16, literal(-6)))
          CFI (cfiCond6) ?RET_LOW load(1, XDATA, add(CFA_XSP16, literal(-5)))
          CFI (cfiCond6) ?RET_HIGH load(1, XDATA, add(CFA_XSP16, literal(-4)))
          CFI (cfiCond6) ?BRET_EXT load(1, XDATA, add(CFA_XSP16, literal(-3)))
          CFI (cfiCond6) DPL0 load(1, XDATA, add(CFA_XSP16, literal(-2)))
          CFI (cfiCond6) DPH0 load(1, XDATA, add(CFA_XSP16, literal(-1)))
          CFI (cfiCond6) CFA_SP SP+-2
          CFI (cfiCond6) CFA_XSP16 add(XSP16, 21)
          CFI Block cfiPicker7 Using cfiCommon1
          CFI (cfiPicker7) NoFunction
          CFI (cfiPicker7) Picker
        LCALL     ?Subroutine81 & 0xFFFF
??CrossCallReturnLabel_293:
        MOV       DPL,?XSP + 0
        MOV       DPH,?XSP + 1
        RET
          CFI EndBlock cfiCond5
          CFI EndBlock cfiCond6
          CFI EndBlock cfiPicker7

        RSEG BANKED_CODE:HUGECODE:NOROOT(0)
?Subroutine1:
          CFI Block cfiBlock8 Using cfiCommon0
          CFI NoFunction
          CFI CFA_SP SP+0
          CFI CFA_XSP16 add(XSP16, 12)
          CFI VB load(1, XDATA, add(CFA_XSP16, literal(-11)))
          CFI DPL0 load(1, XDATA, add(CFA_XSP16, literal(-2)))
          CFI DPH0 load(1, XDATA, add(CFA_XSP16, literal(-1)))
          CFI R6 load(1, XDATA, add(CFA_XSP16, literal(-12)))
          CFI R7 load(1, XDATA, add(CFA_XSP16, literal(-6)))
          CFI V0 load(1, XDATA, add(CFA_XSP16, literal(-10)))
          CFI V1 load(1, XDATA, add(CFA_XSP16, literal(-9)))
          CFI V2 load(1, XDATA, add(CFA_XSP16, literal(-8)))
          CFI V3 load(1, XDATA, add(CFA_XSP16, literal(-7)))
          CFI ?BRET_EXT load(1, XDATA, add(CFA_XSP16, literal(-3)))
          CFI ?RET_HIGH load(1, XDATA, add(CFA_XSP16, literal(-4)))
          CFI ?RET_LOW load(1, XDATA, add(CFA_XSP16, literal(-5)))
        MOV       ?V3,#0x0
        MOV       R0,#?V2
        LCALL     ?PUSH_XSTACK_I_TWO
          CFI CFA_XSP16 add(XSP16, 14)
        MOV       R1,#0x9
          CFI EndBlock cfiBlock8
        REQUIRE ??Subroutine106_0
        ; // Fall through to label ??Subroutine106_0

        RSEG BANKED_CODE:HUGECODE:NOROOT(0)
??Subroutine106_0:
          CFI Block cfiBlock9 Using cfiCommon0
          CFI NoFunction
          CFI CFA_SP SP+0
          CFI CFA_XSP16 add(XSP16, 14)
          CFI VB load(1, XDATA, add(CFA_XSP16, literal(-11)))
          CFI DPL0 load(1, XDATA, add(CFA_XSP16, literal(-2)))
          CFI DPH0 load(1, XDATA, add(CFA_XSP16, literal(-1)))
          CFI R6 load(1, XDATA, add(CFA_XSP16, literal(-12)))
          CFI R7 load(1, XDATA, add(CFA_XSP16, literal(-6)))
          CFI V0 load(1, XDATA, add(CFA_XSP16, literal(-10)))
          CFI V1 load(1, XDATA, add(CFA_XSP16, literal(-9)))
          CFI V2 load(1, XDATA, add(CFA_XSP16, literal(-8)))
          CFI V3 load(1, XDATA, add(CFA_XSP16, literal(-7)))
          CFI ?BRET_EXT load(1, XDATA, add(CFA_XSP16, literal(-3)))
          CFI ?RET_HIGH load(1, XDATA, add(CFA_XSP16, literal(-4)))
          CFI ?RET_LOW load(1, XDATA, add(CFA_XSP16, literal(-5)))
        MOV       A,R6
        MOV       R4,A
        MOV       A,R7
        MOV       R5,A
        MOV       R2,#ZDP_TransID & 0xff
        MOV       R3,#(ZDP_TransID >> 8) & 0xff
        LCALL     `??fillAndSend::?relay`; Banked call to: fillAndSend
        MOV       A,#0x2
          CFI EndBlock cfiBlock9
        REQUIRE ??Subroutine107_0
        ; // Fall through to label ??Subroutine107_0

        RSEG BANKED_CODE:HUGECODE:NOROOT(0)
??Subroutine107_0:
          CFI Block cfiBlock10 Using cfiCommon0
          CFI NoFunction
          CFI CFA_SP SP+0
          CFI CFA_XSP16 add(XSP16, 21)
          CFI VB load(1, XDATA, add(CFA_XSP16, literal(-11)))
          CFI DPL0 load(1, XDATA, add(CFA_XSP16, literal(-2)))
          CFI DPH0 load(1, XDATA, add(CFA_XSP16, literal(-1)))
          CFI R6 load(1, XDATA, add(CFA_XSP16, literal(-12)))
          CFI R7 load(1, XDATA, add(CFA_XSP16, literal(-6)))
          CFI V0 load(1, XDATA, add(CFA_XSP16, literal(-10)))
          CFI V1 load(1, XDATA, add(CFA_XSP16, literal(-9)))
          CFI V2 load(1, XDATA, add(CFA_XSP16, literal(-8)))
          CFI V3 load(1, XDATA, add(CFA_XSP16, literal(-7)))
          CFI ?BRET_EXT load(1, XDATA, add(CFA_XSP16, literal(-3)))
          CFI ?RET_HIGH load(1, XDATA, add(CFA_XSP16, literal(-4)))
          CFI ?RET_LOW load(1, XDATA, add(CFA_XSP16, literal(-5)))
          CFI Invalid
        LCALL     ?DEALLOC_XSTACK8
          CFI EndBlock cfiBlock10
        REQUIRE ??Subroutine108_0
        ; // Fall through to label ??Subroutine108_0

        RSEG BANKED_CODE:HUGECODE:NOROOT(0)
??Subroutine108_0:
          CFI Block cfiBlock11 Using cfiCommon0
          CFI NoFunction
          CFI CFA_SP SP+0
          CFI CFA_XSP16 add(XSP16, 12)
          CFI VB load(1, XDATA, add(CFA_XSP16, literal(-11)))
          CFI DPL0 load(1, XDATA, add(CFA_XSP16, literal(-2)))
          CFI DPH0 load(1, XDATA, add(CFA_XSP16, literal(-1)))
          CFI R6 load(1, XDATA, add(CFA_XSP16, literal(-12)))
          CFI R7 load(1, XDATA, add(CFA_XSP16, literal(-6)))
          CFI V0 load(1, XDATA, add(CFA_XSP16, literal(-10)))
          CFI V1 load(1, XDATA, add(CFA_XSP16, literal(-9)))
          CFI V2 load(1, XDATA, add(CFA_XSP16, literal(-8)))
          CFI V3 load(1, XDATA, add(CFA_XSP16, literal(-7)))
          CFI ?BRET_EXT load(1, XDATA, add(CFA_XSP16, literal(-3)))
          CFI ?RET_HIGH load(1, XDATA, add(CFA_XSP16, literal(-4)))
          CFI ?RET_LOW load(1, XDATA, add(CFA_XSP16, literal(-5)))
        MOV       R7,#0x4
        LJMP      ?BANKED_LEAVE_XDATA
          CFI EndBlock cfiBlock11
//  345 
//  346 /*********************************************************************
//  347  * @fn          ZDP_IEEEAddrReq
//  348  *
//  349  * @brief       This builds and send a IEEE_addr_req message.  This
//  350  *              function sends a unicast message looking for a 64
//  351  *              bit IEEE address with a 16 bit address as bait.
//  352  *
//  353  * @param       ReqType - ZDP_IEEEADDR_REQTYPE_SINGLE or
//  354  *                        ZDP_IEEEADDR_REQTYPE_EXTENDED
//  355  * @param       SecurityEnable - Security Options
//  356  *
//  357  * @return      afStatus_t
//  358  */

        RSEG BANKED_CODE:HUGECODE:NOROOT(0)
//  359 afStatus_t ZDP_IEEEAddrReq( uint16 shortAddr, byte ReqType,
ZDP_IEEEAddrReq:
          CFI Block cfiBlock12 Using cfiCommon0
          CFI Function ZDP_IEEEAddrReq
        CODE
//  360                             byte StartIndex, byte SecurityEnable )
//  361 {
        FUNCALL ZDP_IEEEAddrReq, fillAndSend
        LOCFRAME ISTACK, 0, STACK
        LOCFRAME PSTACK, 0, STACK
        LOCFRAME XSTACK, 21, STACK
        LOCFRAME IOVERLAY, 0, STATIC
        LOCFRAME DOVERLAY, 0, STATIC
        ARGFRAME ISTACK, 0, STACK
        ARGFRAME PSTACK, 0, STACK
        ARGFRAME XSTACK, 21, STACK
        ARGFRAME IOVERLAY, 0, STATIC
        ARGFRAME DOVERLAY, 0, STATIC
        REQUIRE ?V0
        REQUIRE ?V1
        MOV       A,#-0xa
        LCALL     ?BANKED_ENTER_XDATA
          CFI DPH0 load(1, XDATA, add(CFA_XSP16, literal(-1)))
          CFI DPL0 load(1, XDATA, add(CFA_XSP16, literal(-2)))
          CFI ?BRET_EXT load(1, XDATA, add(CFA_XSP16, literal(-3)))
          CFI ?RET_HIGH load(1, XDATA, add(CFA_XSP16, literal(-4)))
          CFI ?RET_LOW load(1, XDATA, add(CFA_XSP16, literal(-5)))
          CFI R7 load(1, XDATA, add(CFA_XSP16, literal(-6)))
          CFI V1 load(1, XDATA, add(CFA_XSP16, literal(-7)))
          CFI V0 load(1, XDATA, add(CFA_XSP16, literal(-8)))
          CFI VB load(1, XDATA, add(CFA_XSP16, literal(-9)))
          CFI R6 load(1, XDATA, add(CFA_XSP16, literal(-10)))
          CFI CFA_SP SP+0
          CFI CFA_XSP16 add(XSP16, 10)
        ; Saved register size: 10
        ; Auto size: 9
        MOV       A,#-0x9
        LCALL     ?ALLOC_XSTACK8
          CFI CFA_XSP16 add(XSP16, 19)
        MOV       A,R1
        MOV       R6,A
        MOV       A,R4
        MOV       R7,A
//  362   uint8 *pBuf = ZDP_TmpBuf;
        LCALL     ??Subroutine135_0 & 0xFFFF
//  363   byte len = 2 + 1 + 1;  // shortAddr + ReqType + StartIndex.
//  364   zAddrType_t dstAddr;
//  365 
//  366   (void)SecurityEnable;  // Intentionally unreferenced parameter
//  367 
//  368   dstAddr.addrMode = (afAddrMode_t)Addr16Bit;
??CrossCallReturnLabel_291:
        MOV       A,#0x8
        LCALL     ?XSTACK_DISP0_8
        MOV       A,#0x2
        MOVX      @DPTR,A
//  369   dstAddr.addr.shortAddr = shortAddr;
        MOV       DPL,?XSP + 0
        MOV       DPH,?XSP + 1
        MOV       A,R2
        MOVX      @DPTR,A
        INC       DPTR
        MOV       A,R3
        MOVX      @DPTR,A
//  370 
//  371   *pBuf++ = LO_UINT16( shortAddr );
        MOV       A,R2
        MOV       DPL,R0
        MOV       DPH,R1
        MOVX      @DPTR,A
//  372   *pBuf++ = HI_UINT16( shortAddr );
        MOV       A,R3
        LCALL     ?Subroutine39 & 0xFFFF
//  373 
//  374   *pBuf++ = ReqType;
??CrossCallReturnLabel_52:
        MOVX      @DPTR,A
//  375   *pBuf++ = StartIndex;
        MOV       A,R7
        MOV       DPL,R0
        MOV       DPH,R1
        INC       DPTR
        INC       DPTR
        INC       DPTR
        MOVX      @DPTR,A
//  376 
//  377   return fillAndSend( &ZDP_TransID, &dstAddr, IEEE_addr_req, len );
        ; Setup parameters for call to function fillAndSend
        MOV       ?V0,#0x1
        MOV       ?V1,#0x0
        MOV       R0,#?V0
        LCALL     ?PUSH_XSTACK_I_TWO
          CFI CFA_XSP16 add(XSP16, 21)
        MOV       R1,#0x4
        LJMP      ?Subroutine2 & 0xFFFF
//  378 }
          CFI EndBlock cfiBlock12
//  379 
//  380 /*********************************************************************
//  381  * @fn          ZDP_MatchDescReq
//  382  *
//  383  * @brief       This builds and send a Match_Desc_req message.  This
//  384  *              function sends a broadcast or unicast message
//  385  *              requesting the list of endpoint/interfaces that
//  386  *              match profile ID and cluster IDs.
//  387  *
//  388  * @param       dstAddr - destination address
//  389  * @param       nwkAddr - network address of interest
//  390  * @param       ProfileID - Profile ID
//  391  * @param       NumInClusters - number of input clusters
//  392  * @param       InClusterList - input cluster ID list
//  393  * @param       NumOutClusters - number of output clusters
//  394  * @param       OutClusterList - output cluster ID list
//  395  * @param       SecurityEnable - Security Options
//  396  *
//  397  * @return      afStatus_t
//  398  */

        RSEG BANKED_CODE:HUGECODE:NOROOT(0)
//  399 afStatus_t ZDP_MatchDescReq( zAddrType_t *dstAddr, uint16 nwkAddr,
ZDP_MatchDescReq:
          CFI Block cfiBlock13 Using cfiCommon0
          CFI Function ZDP_MatchDescReq
        CODE
//  400                                 uint16 ProfileID,
//  401                                 byte NumInClusters, cId_t *InClusterList,
//  402                                 byte NumOutClusters, cId_t *OutClusterList,
//  403                                 byte SecurityEnable )
//  404 {
        FUNCALL ZDP_MatchDescReq, fillAndSend
        LOCFRAME ISTACK, 0, STACK
        LOCFRAME PSTACK, 0, STACK
        LOCFRAME XSTACK, 16, STACK
        LOCFRAME IOVERLAY, 0, STATIC
        LOCFRAME DOVERLAY, 0, STATIC
        ARGFRAME ISTACK, 0, STACK
        ARGFRAME PSTACK, 0, STACK
        ARGFRAME XSTACK, 16, STACK
        ARGFRAME IOVERLAY, 0, STATIC
        ARGFRAME DOVERLAY, 0, STATIC
        REQUIRE ?V0
        REQUIRE ?V1
        REQUIRE ?V2
        REQUIRE ?V3
        REQUIRE ?V4
        REQUIRE ?V5
        MOV       A,#-0xe
        LCALL     ?BANKED_ENTER_XDATA
          CFI DPH0 load(1, XDATA, add(CFA_XSP16, literal(-1)))
          CFI DPL0 load(1, XDATA, add(CFA_XSP16, literal(-2)))
          CFI ?BRET_EXT load(1, XDATA, add(CFA_XSP16, literal(-3)))
          CFI ?RET_HIGH load(1, XDATA, add(CFA_XSP16, literal(-4)))
          CFI ?RET_LOW load(1, XDATA, add(CFA_XSP16, literal(-5)))
          CFI R7 load(1, XDATA, add(CFA_XSP16, literal(-6)))
          CFI V5 load(1, XDATA, add(CFA_XSP16, literal(-7)))
          CFI V4 load(1, XDATA, add(CFA_XSP16, literal(-8)))
          CFI V3 load(1, XDATA, add(CFA_XSP16, literal(-9)))
          CFI V2 load(1, XDATA, add(CFA_XSP16, literal(-10)))
          CFI V1 load(1, XDATA, add(CFA_XSP16, literal(-11)))
          CFI V0 load(1, XDATA, add(CFA_XSP16, literal(-12)))
          CFI VB load(1, XDATA, add(CFA_XSP16, literal(-13)))
          CFI R6 load(1, XDATA, add(CFA_XSP16, literal(-14)))
          CFI CFA_SP SP+0
          CFI CFA_XSP16 add(XSP16, 14)
        ; Saved register size: 14
        ; Auto size: 0
        LCALL     ?Subroutine57 & 0xFFFF
//  405   uint8 *pBuf = ZDP_TmpBuf;
??CrossCallReturnLabel_278:
        MOV       A,#0x12
        LCALL     ?XSTACK_DISP0_8
        MOVX      A,@DPTR
        MOV       ?V0,A
//  406   // nwkAddr+ProfileID+NumInClusters+NumOutClusters.
//  407   byte i, len = 2 + 2 + 1 + 1;  // nwkAddr+ProfileID+NumInClusters+NumOutClusters.
//  408 
//  409   (void)SecurityEnable;  // Intentionally unreferenced parameter
//  410 
//  411   len += (NumInClusters + NumOutClusters) * sizeof(uint16);
        MOV       A,R6
        ADD       A,?V0
        CLR       C
        RLC       A
        ADD       A,#0x6
        MOV       R7,A
//  412 
//  413   if ( len >= ZDP_BUF_SZ-1 )
        CLR       C
        SUBB      A,#0x4f
        JC        ??ZDP_MatchDescReq_0
//  414   {
//  415     return afStatus_MEM_FAIL;
        MOV       R1,#0x10
        LJMP      ??ZDP_MatchDescReq_1 & 0xFFFF
//  416   }
//  417 
//  418   // The spec changed in Zigbee 2007 (2.4.3.1.7.1) to not allow sending
//  419   // this command to 0xFFFF.  So, here we will filter this and replace
//  420   // with 0xFFFD to only send to devices with RX ON.  This includes the
//  421   // network address of interest.
//  422   if ( ((dstAddr->addrMode == AddrBroadcast) || (dstAddr->addrMode == Addr16Bit))
//  423       && (dstAddr->addr.shortAddr == NWK_BROADCAST_SHORTADDR_DEVALL) )
??ZDP_MatchDescReq_0:
        MOV       DPL,R2
        MOV       DPH,R3
        INC       DPTR
        INC       DPTR
        INC       DPTR
        INC       DPTR
        INC       DPTR
        INC       DPTR
        INC       DPTR
        INC       DPTR
        MOVX      A,@DPTR
        XRL       A,#0xf
        JZ        ??ZDP_MatchDescReq_2
        MOV       DPL,R2
        MOV       DPH,R3
        INC       DPTR
        INC       DPTR
        INC       DPTR
        INC       DPTR
        INC       DPTR
        INC       DPTR
        INC       DPTR
        INC       DPTR
        MOVX      A,@DPTR
        XRL       A,#0x2
        JNZ       ??ZDP_MatchDescReq_3
??ZDP_MatchDescReq_2:
        MOV       DPL,R2
        MOV       DPH,R3
        MOVX      A,@DPTR
        CPL       A
        JNZ       ??ZDP_MatchDescReq_4
        INC       DPTR
        MOVX      A,@DPTR
        CPL       A
??ZDP_MatchDescReq_4:
        JNZ       ??ZDP_MatchDescReq_3
//  424   {
//  425     dstAddr->addr.shortAddr = NWK_BROADCAST_SHORTADDR_DEVRXON;
        MOV       DPL,R2
        MOV       DPH,R3
        MOV       A,#-0x3
        MOVX      @DPTR,A
        INC       DPTR
        MOV       A,#-0x1
        MOVX      @DPTR,A
//  426   }
//  427   if ( nwkAddr == NWK_BROADCAST_SHORTADDR_DEVALL )
??ZDP_MatchDescReq_3:
        MOV       A,#-0x1
        XRL       A,R4
        JNZ       ??ZDP_MatchDescReq_5
        MOV       A,#-0x1
        XRL       A,R5
??ZDP_MatchDescReq_5:
        JNZ       ??ZDP_MatchDescReq_6
//  428   {
//  429     nwkAddr = NWK_BROADCAST_SHORTADDR_DEVRXON;
        MOV       R4,#-0x3
        MOV       R5,#-0x1
//  430   }
//  431 
//  432   *pBuf++ = LO_UINT16( nwkAddr );   // NWKAddrOfInterest
??ZDP_MatchDescReq_6:
        MOV       A,R4
        MOV       DPL,R0
        MOV       DPH,R1
        MOVX      @DPTR,A
//  433   *pBuf++ = HI_UINT16( nwkAddr );
        MOV       A,R5
        INC       DPTR
        MOVX      @DPTR,A
        MOV       A,#0xe
        LCALL     ?XSTACK_DISP0_8
        LCALL     ?Subroutine52 & 0xFFFF
//  434 
//  435   *pBuf++ = LO_UINT16( ProfileID );   // Profile ID
??CrossCallReturnLabel_76:
        MOV       A,R4
        MOV       DPL,R0
        MOV       DPH,R1
        INC       DPTR
        INC       DPTR
        MOVX      @DPTR,A
//  436   *pBuf++ = HI_UINT16( ProfileID );
        MOV       A,R5
        MOV       DPL,R0
        MOV       DPH,R1
        INC       DPTR
        INC       DPTR
        LCALL     ?Subroutine39 & 0xFFFF
//  437 
//  438   *pBuf++ = NumInClusters; // Input cluster list
??CrossCallReturnLabel_53:
        INC       DPTR
        INC       DPTR
        MOVX      @DPTR,A
        MOV       A,R0
        ADD       A,#0x5
        MOV       R0,A
        JNC       ??ZDP_MatchDescReq_7
        INC       R1
//  439   if ( NumInClusters )
??ZDP_MatchDescReq_7:
        MOV       A,R6
        JZ        ??ZDP_MatchDescReq_8
//  440   {
//  441     for (i=0; i<NumInClusters; ++i)  {
        MOV       ?V1,#0x0
        MOV       A,#0x10
        LCALL     ?XSTACK_DISP0_8
        LCALL     ?Subroutine52 & 0xFFFF
//  442       *pBuf++ = LO_UINT16( InClusterList[i] );
??CrossCallReturnLabel_77:
        LCALL     ?Subroutine12 & 0xFFFF
//  443       *pBuf++ = HI_UINT16( InClusterList[i] );
//  444     }
??CrossCallReturnLabel_4:
        JNC       ??ZDP_MatchDescReq_9
        INC       R1
??ZDP_MatchDescReq_9:
        INC       ?V1
        MOV       A,?V1
        CLR       C
        SUBB      A,R6
        JC        ??CrossCallReturnLabel_77
//  445   }
//  446 
//  447   *pBuf++ = NumOutClusters; // Output cluster list
??ZDP_MatchDescReq_8:
        MOV       DPL,R0
        MOV       DPH,R1
        MOV       A,?V0
        MOVX      @DPTR,A
        INC       DPTR
        MOV       R0,DPL
        MOV       R1,DPH
//  448   if ( NumOutClusters )
        JZ        ??ZDP_MatchDescReq_10
//  449   {
//  450     for (i=0; i<NumOutClusters; ++i)  {
        MOV       ?V1,#0x0
        MOV       A,#0x13
        LCALL     ?XSTACK_DISP0_8
        LCALL     ?Subroutine52 & 0xFFFF
//  451       *pBuf++ = LO_UINT16( OutClusterList[i] );
??CrossCallReturnLabel_78:
        LCALL     ?Subroutine12 & 0xFFFF
//  452       *pBuf++ = HI_UINT16( OutClusterList[i] );
//  453     }
??CrossCallReturnLabel_5:
        JNC       ??ZDP_MatchDescReq_11
        INC       R1
??ZDP_MatchDescReq_11:
        INC       ?V1
        MOV       A,?V1
        CLR       C
        SUBB      A,?V0
        JC        ??CrossCallReturnLabel_78
//  454   }
//  455 
//  456   return fillAndSend( &ZDP_TransID, dstAddr, Match_Desc_req, len );
??ZDP_MatchDescReq_10:
        ; Setup parameters for call to function fillAndSend
        MOV       ?V0,#0x6
        MOV       ?V1,#0x0
        MOV       R0,#?V0
        LCALL     ?PUSH_XSTACK_I_TWO
          CFI CFA_XSP16 add(XSP16, 16)
        MOV       A,R7
        MOV       R1,A
        MOV       A,R2
        MOV       R4,A
        MOV       A,R3
        MOV       R5,A
        MOV       R2,#ZDP_TransID & 0xff
        MOV       R3,#(ZDP_TransID >> 8) & 0xff
        LCALL     `??fillAndSend::?relay`; Banked call to: fillAndSend
        MOV       A,#0x2
        LCALL     ?DEALLOC_XSTACK8
          CFI CFA_XSP16 add(XSP16, 14)
??ZDP_MatchDescReq_1:
        SJMP      ??Subroutine109_0
//  457 }
          CFI EndBlock cfiBlock13

        RSEG BANKED_CODE:HUGECODE:NOROOT(0)
?Subroutine39:
          CFI Block cfiCond14 Using cfiCommon0
          CFI Function ZDP_IEEEAddrReq
          CFI Conditional ??CrossCallReturnLabel_52
          CFI R6 load(1, XDATA, add(CFA_XSP16, literal(-10)))
          CFI VB load(1, XDATA, add(CFA_XSP16, literal(-9)))
          CFI V0 load(1, XDATA, add(CFA_XSP16, literal(-8)))
          CFI V1 load(1, XDATA, add(CFA_XSP16, literal(-7)))
          CFI R7 load(1, XDATA, add(CFA_XSP16, literal(-6)))
          CFI ?RET_LOW load(1, XDATA, add(CFA_XSP16, literal(-5)))
          CFI ?RET_HIGH load(1, XDATA, add(CFA_XSP16, literal(-4)))
          CFI ?BRET_EXT load(1, XDATA, add(CFA_XSP16, literal(-3)))
          CFI DPL0 load(1, XDATA, add(CFA_XSP16, literal(-2)))
          CFI DPH0 load(1, XDATA, add(CFA_XSP16, literal(-1)))
          CFI CFA_SP SP+-2
          CFI CFA_XSP16 add(XSP16, 19)
          CFI Block cfiCond15 Using cfiCommon0
          CFI (cfiCond15) Function ZDP_MatchDescReq
          CFI (cfiCond15) Conditional ??CrossCallReturnLabel_53
          CFI (cfiCond15) R6 load(1, XDATA, add(CFA_XSP16, literal(-14)))
          CFI (cfiCond15) VB load(1, XDATA, add(CFA_XSP16, literal(-13)))
          CFI (cfiCond15) V0 load(1, XDATA, add(CFA_XSP16, literal(-12)))
          CFI (cfiCond15) V1 load(1, XDATA, add(CFA_XSP16, literal(-11)))
          CFI (cfiCond15) V2 load(1, XDATA, add(CFA_XSP16, literal(-10)))
          CFI (cfiCond15) V3 load(1, XDATA, add(CFA_XSP16, literal(-9)))
          CFI (cfiCond15) V4 load(1, XDATA, add(CFA_XSP16, literal(-8)))
          CFI (cfiCond15) V5 load(1, XDATA, add(CFA_XSP16, literal(-7)))
          CFI (cfiCond15) R7 load(1, XDATA, add(CFA_XSP16, literal(-6)))
          CFI (cfiCond15) ?RET_LOW load(1, XDATA, add(CFA_XSP16, literal(-5)))
          CFI (cfiCond15) ?RET_HIGH load(1, XDATA, add(CFA_XSP16, literal(-4)))
          CFI (cfiCond15) ?BRET_EXT load(1, XDATA, add(CFA_XSP16, literal(-3)))
          CFI (cfiCond15) DPL0 load(1, XDATA, add(CFA_XSP16, literal(-2)))
          CFI (cfiCond15) DPH0 load(1, XDATA, add(CFA_XSP16, literal(-1)))
          CFI (cfiCond15) CFA_SP SP+-2
          CFI (cfiCond15) CFA_XSP16 add(XSP16, 14)
          CFI Block cfiPicker16 Using cfiCommon1
          CFI (cfiPicker16) NoFunction
          CFI (cfiPicker16) Picker
        INC       DPTR
        MOVX      @DPTR,A
        MOV       A,R6
        MOV       DPL,R0
        MOV       DPH,R1
        INC       DPTR
        INC       DPTR
        RET
          CFI EndBlock cfiCond14
          CFI EndBlock cfiCond15
          CFI EndBlock cfiPicker16

        RSEG BANKED_CODE:HUGECODE:NOROOT(0)
?Subroutine12:
          CFI Block cfiCond17 Using cfiCommon0
          CFI Function ZDP_MatchDescReq
          CFI Conditional ??CrossCallReturnLabel_4
          CFI R6 load(1, XDATA, add(CFA_XSP16, literal(-14)))
          CFI VB load(1, XDATA, add(CFA_XSP16, literal(-13)))
          CFI V0 load(1, XDATA, add(CFA_XSP16, literal(-12)))
          CFI V1 load(1, XDATA, add(CFA_XSP16, literal(-11)))
          CFI V2 load(1, XDATA, add(CFA_XSP16, literal(-10)))
          CFI V3 load(1, XDATA, add(CFA_XSP16, literal(-9)))
          CFI V4 load(1, XDATA, add(CFA_XSP16, literal(-8)))
          CFI V5 load(1, XDATA, add(CFA_XSP16, literal(-7)))
          CFI R7 load(1, XDATA, add(CFA_XSP16, literal(-6)))
          CFI ?RET_LOW load(1, XDATA, add(CFA_XSP16, literal(-5)))
          CFI ?RET_HIGH load(1, XDATA, add(CFA_XSP16, literal(-4)))
          CFI ?BRET_EXT load(1, XDATA, add(CFA_XSP16, literal(-3)))
          CFI DPL0 load(1, XDATA, add(CFA_XSP16, literal(-2)))
          CFI DPH0 load(1, XDATA, add(CFA_XSP16, literal(-1)))
          CFI CFA_SP SP+-2
          CFI CFA_XSP16 add(XSP16, 14)
          CFI Block cfiCond18 Using cfiCommon0
          CFI (cfiCond18) Function ZDP_MatchDescReq
          CFI (cfiCond18) Conditional ??CrossCallReturnLabel_5
          CFI (cfiCond18) R6 load(1, XDATA, add(CFA_XSP16, literal(-14)))
          CFI (cfiCond18) VB load(1, XDATA, add(CFA_XSP16, literal(-13)))
          CFI (cfiCond18) V0 load(1, XDATA, add(CFA_XSP16, literal(-12)))
          CFI (cfiCond18) V1 load(1, XDATA, add(CFA_XSP16, literal(-11)))
          CFI (cfiCond18) V2 load(1, XDATA, add(CFA_XSP16, literal(-10)))
          CFI (cfiCond18) V3 load(1, XDATA, add(CFA_XSP16, literal(-9)))
          CFI (cfiCond18) V4 load(1, XDATA, add(CFA_XSP16, literal(-8)))
          CFI (cfiCond18) V5 load(1, XDATA, add(CFA_XSP16, literal(-7)))
          CFI (cfiCond18) R7 load(1, XDATA, add(CFA_XSP16, literal(-6)))
          CFI (cfiCond18) ?RET_LOW load(1, XDATA, add(CFA_XSP16, literal(-5)))
          CFI (cfiCond18) ?RET_HIGH load(1, XDATA, add(CFA_XSP16, literal(-4)))
          CFI (cfiCond18) ?BRET_EXT load(1, XDATA, add(CFA_XSP16, literal(-3)))
          CFI (cfiCond18) DPL0 load(1, XDATA, add(CFA_XSP16, literal(-2)))
          CFI (cfiCond18) DPH0 load(1, XDATA, add(CFA_XSP16, literal(-1)))
          CFI (cfiCond18) CFA_SP SP+-2
          CFI (cfiCond18) CFA_XSP16 add(XSP16, 14)
          CFI Block cfiPicker19 Using cfiCommon1
          CFI (cfiPicker19) NoFunction
          CFI (cfiPicker19) Picker
        MOV       A,?V1
        LCALL     ?Subroutine96 & 0xFFFF
??CrossCallReturnLabel_165:
        ADD       A,?V2
        MOV       ?V2,A
        MOV       A,R5
        ADDC      A,?V3
        MOV       ?V3,A
        MOV       DPL,?V2
        MOV       DPH,A
        LCALL     ?Subroutine83 & 0xFFFF
??CrossCallReturnLabel_216:
        MOV       DPL,?V2
        MOV       DPH,?V3
        LCALL     ?Subroutine82 & 0xFFFF
??CrossCallReturnLabel_139:
        RET
          CFI EndBlock cfiCond17
          CFI EndBlock cfiCond18
          CFI EndBlock cfiPicker19

        RSEG BANKED_CODE:HUGECODE:NOROOT(0)
?Subroutine0:
          CFI Block cfiBlock20 Using cfiCommon0
          CFI NoFunction
          CFI CFA_SP SP+0
          CFI CFA_XSP16 add(XSP16, 26)
          CFI VB load(1, XDATA, add(CFA_XSP16, literal(-13)))
          CFI DPL0 load(1, XDATA, add(CFA_XSP16, literal(-2)))
          CFI DPH0 load(1, XDATA, add(CFA_XSP16, literal(-1)))
          CFI R6 load(1, XDATA, add(CFA_XSP16, literal(-14)))
          CFI R7 load(1, XDATA, add(CFA_XSP16, literal(-6)))
          CFI V0 load(1, XDATA, add(CFA_XSP16, literal(-12)))
          CFI V1 load(1, XDATA, add(CFA_XSP16, literal(-11)))
          CFI V2 load(1, XDATA, add(CFA_XSP16, literal(-10)))
          CFI V3 load(1, XDATA, add(CFA_XSP16, literal(-9)))
          CFI V4 load(1, XDATA, add(CFA_XSP16, literal(-8)))
          CFI V5 load(1, XDATA, add(CFA_XSP16, literal(-7)))
          CFI ?BRET_EXT load(1, XDATA, add(CFA_XSP16, literal(-3)))
          CFI ?RET_HIGH load(1, XDATA, add(CFA_XSP16, literal(-4)))
          CFI ?RET_LOW load(1, XDATA, add(CFA_XSP16, literal(-5)))
          CFI Invalid
        LCALL     ?DEALLOC_XSTACK8
          CFI EndBlock cfiBlock20
        REQUIRE ??Subroutine109_0
        ; // Fall through to label ??Subroutine109_0

        RSEG BANKED_CODE:HUGECODE:NOROOT(0)
??Subroutine109_0:
          CFI Block cfiBlock21 Using cfiCommon0
          CFI NoFunction
          CFI CFA_SP SP+0
          CFI CFA_XSP16 add(XSP16, 14)
          CFI VB load(1, XDATA, add(CFA_XSP16, literal(-13)))
          CFI DPL0 load(1, XDATA, add(CFA_XSP16, literal(-2)))
          CFI DPH0 load(1, XDATA, add(CFA_XSP16, literal(-1)))
          CFI R6 load(1, XDATA, add(CFA_XSP16, literal(-14)))
          CFI R7 load(1, XDATA, add(CFA_XSP16, literal(-6)))
          CFI V0 load(1, XDATA, add(CFA_XSP16, literal(-12)))
          CFI V1 load(1, XDATA, add(CFA_XSP16, literal(-11)))
          CFI V2 load(1, XDATA, add(CFA_XSP16, literal(-10)))
          CFI V3 load(1, XDATA, add(CFA_XSP16, literal(-9)))
          CFI V4 load(1, XDATA, add(CFA_XSP16, literal(-8)))
          CFI V5 load(1, XDATA, add(CFA_XSP16, literal(-7)))
          CFI ?BRET_EXT load(1, XDATA, add(CFA_XSP16, literal(-3)))
          CFI ?RET_HIGH load(1, XDATA, add(CFA_XSP16, literal(-4)))
          CFI ?RET_LOW load(1, XDATA, add(CFA_XSP16, literal(-5)))
        MOV       R7,#0x6
        LJMP      ?BANKED_LEAVE_XDATA
          CFI EndBlock cfiBlock21
//  458 
//  459 /*********************************************************************
//  460  * @fn          ZDP_SimpleDescReq
//  461  *
//  462  * @brief       This builds and send a NWK_Simple_Desc_req
//  463  *              message.  This function sends unicast message to the
//  464  *              destination device.
//  465  *
//  466  * @param       dstAddr - destination address
//  467  * @param       nwkAddr - 16 bit address
//  468  * @param       epIntf - endpoint/interface
//  469  * @param       SecurityEnable - Security Options
//  470  *
//  471  * @return      afStatus_t
//  472  */

        RSEG BANKED_CODE:HUGECODE:NOROOT(0)
//  473 afStatus_t ZDP_SimpleDescReq( zAddrType_t *dstAddr, uint16 nwkAddr,
ZDP_SimpleDescReq:
          CFI Block cfiBlock22 Using cfiCommon0
          CFI Function ZDP_SimpleDescReq
        CODE
//  474                                     byte endPoint, byte SecurityEnable )
//  475 
//  476 {
        FUNCALL ZDP_SimpleDescReq, fillAndSend
        LOCFRAME ISTACK, 0, STACK
        LOCFRAME PSTACK, 0, STACK
        LOCFRAME XSTACK, 12, STACK
        LOCFRAME IOVERLAY, 0, STATIC
        LOCFRAME DOVERLAY, 0, STATIC
        ARGFRAME ISTACK, 0, STACK
        ARGFRAME PSTACK, 0, STACK
        ARGFRAME XSTACK, 12, STACK
        ARGFRAME IOVERLAY, 0, STATIC
        ARGFRAME DOVERLAY, 0, STATIC
        REQUIRE ?V0
        REQUIRE ?V1
        MOV       A,#-0xa
        LCALL     ?BANKED_ENTER_XDATA
          CFI DPH0 load(1, XDATA, add(CFA_XSP16, literal(-1)))
          CFI DPL0 load(1, XDATA, add(CFA_XSP16, literal(-2)))
          CFI ?BRET_EXT load(1, XDATA, add(CFA_XSP16, literal(-3)))
          CFI ?RET_HIGH load(1, XDATA, add(CFA_XSP16, literal(-4)))
          CFI ?RET_LOW load(1, XDATA, add(CFA_XSP16, literal(-5)))
          CFI R7 load(1, XDATA, add(CFA_XSP16, literal(-6)))
          CFI V1 load(1, XDATA, add(CFA_XSP16, literal(-7)))
          CFI V0 load(1, XDATA, add(CFA_XSP16, literal(-8)))
          CFI VB load(1, XDATA, add(CFA_XSP16, literal(-9)))
          CFI R6 load(1, XDATA, add(CFA_XSP16, literal(-10)))
          CFI CFA_SP SP+0
          CFI CFA_XSP16 add(XSP16, 10)
        ; Saved register size: 10
        ; Auto size: 0
//  477   (void)SecurityEnable;  // Intentionally unreferenced parameter
//  478 
//  479   ZDP_TmpBuf[0] = LO_UINT16( nwkAddr );
        LCALL     ?Subroutine19 & 0xFFFF
//  480   ZDP_TmpBuf[1] = HI_UINT16( nwkAddr );
??CrossCallReturnLabel_18:
        LCALL     ?Subroutine15 & 0xFFFF
//  481   ZDP_TmpBuf[2] = endPoint;
//  482 
//  483   return fillAndSend( &ZDP_TransID, dstAddr, Simple_Desc_req, 3 );
??CrossCallReturnLabel_10:
        ; Setup parameters for call to function fillAndSend
        MOV       ?V0,#0x4
        MOV       ?V1,#0x0
        MOV       R0,#?V0
        LCALL     ?PUSH_XSTACK_I_TWO
          CFI CFA_XSP16 add(XSP16, 12)
        MOV       R1,#0x3
        LJMP      ?Subroutine8 & 0xFFFF
//  484 }
          CFI EndBlock cfiBlock22

        RSEG BANKED_CODE:HUGECODE:NOROOT(0)
?Subroutine19:
          CFI Block cfiCond23 Using cfiCommon0
          CFI Function ZDP_NWKAddrOfInterestReq
          CFI Conditional ??CrossCallReturnLabel_17
          CFI R6 load(1, XDATA, add(CFA_XSP16, literal(-10)))
          CFI VB load(1, XDATA, add(CFA_XSP16, literal(-9)))
          CFI V0 load(1, XDATA, add(CFA_XSP16, literal(-8)))
          CFI V1 load(1, XDATA, add(CFA_XSP16, literal(-7)))
          CFI R7 load(1, XDATA, add(CFA_XSP16, literal(-6)))
          CFI ?RET_LOW load(1, XDATA, add(CFA_XSP16, literal(-5)))
          CFI ?RET_HIGH load(1, XDATA, add(CFA_XSP16, literal(-4)))
          CFI ?BRET_EXT load(1, XDATA, add(CFA_XSP16, literal(-3)))
          CFI DPL0 load(1, XDATA, add(CFA_XSP16, literal(-2)))
          CFI DPH0 load(1, XDATA, add(CFA_XSP16, literal(-1)))
          CFI CFA_SP SP+-2
          CFI CFA_XSP16 add(XSP16, 10)
          CFI Block cfiCond24 Using cfiCommon0
          CFI (cfiCond24) Function ZDP_SimpleDescReq
          CFI (cfiCond24) Conditional ??CrossCallReturnLabel_18
          CFI (cfiCond24) R6 load(1, XDATA, add(CFA_XSP16, literal(-10)))
          CFI (cfiCond24) VB load(1, XDATA, add(CFA_XSP16, literal(-9)))
          CFI (cfiCond24) V0 load(1, XDATA, add(CFA_XSP16, literal(-8)))
          CFI (cfiCond24) V1 load(1, XDATA, add(CFA_XSP16, literal(-7)))
          CFI (cfiCond24) R7 load(1, XDATA, add(CFA_XSP16, literal(-6)))
          CFI (cfiCond24) ?RET_LOW load(1, XDATA, add(CFA_XSP16, literal(-5)))
          CFI (cfiCond24) ?RET_HIGH load(1, XDATA, add(CFA_XSP16, literal(-4)))
          CFI (cfiCond24) ?BRET_EXT load(1, XDATA, add(CFA_XSP16, literal(-3)))
          CFI (cfiCond24) DPL0 load(1, XDATA, add(CFA_XSP16, literal(-2)))
          CFI (cfiCond24) DPH0 load(1, XDATA, add(CFA_XSP16, literal(-1)))
          CFI (cfiCond24) CFA_SP SP+-2
          CFI (cfiCond24) CFA_XSP16 add(XSP16, 10)
          CFI Block cfiPicker25 Using cfiCommon1
          CFI (cfiPicker25) NoFunction
          CFI (cfiPicker25) Picker
        LCALL     ?Subroutine102 & 0xFFFF
??CrossCallReturnLabel_179:
        MOV       A,R4
        LCALL     ?Subroutine78 & 0xFFFF
??CrossCallReturnLabel_131:
        MOV       A,R5
        RET
          CFI EndBlock cfiCond23
          CFI EndBlock cfiCond24
          CFI EndBlock cfiPicker25

        RSEG BANKED_CODE:HUGECODE:NOROOT(0)
?Subroutine2:
          CFI Block cfiBlock26 Using cfiCommon0
          CFI NoFunction
          CFI CFA_SP SP+0
          CFI CFA_XSP16 add(XSP16, 21)
          CFI VB load(1, XDATA, add(CFA_XSP16, literal(-9)))
          CFI DPL0 load(1, XDATA, add(CFA_XSP16, literal(-2)))
          CFI DPH0 load(1, XDATA, add(CFA_XSP16, literal(-1)))
          CFI R6 load(1, XDATA, add(CFA_XSP16, literal(-10)))
          CFI R7 load(1, XDATA, add(CFA_XSP16, literal(-6)))
          CFI V0 load(1, XDATA, add(CFA_XSP16, literal(-8)))
          CFI V1 load(1, XDATA, add(CFA_XSP16, literal(-7)))
          CFI ?BRET_EXT load(1, XDATA, add(CFA_XSP16, literal(-3)))
          CFI ?RET_HIGH load(1, XDATA, add(CFA_XSP16, literal(-4)))
          CFI ?RET_LOW load(1, XDATA, add(CFA_XSP16, literal(-5)))
        MOV       A,#0x2
        LCALL     ?XSTACK_DISP102_8
        MOV       R2,#ZDP_TransID & 0xff
        MOV       R3,#(ZDP_TransID >> 8) & 0xff
        LCALL     `??fillAndSend::?relay`; Banked call to: fillAndSend
        MOV       A,#0x2
        LCALL     ?DEALLOC_XSTACK8
          CFI EndBlock cfiBlock26
        REQUIRE ??Subroutine110_0
        ; // Fall through to label ??Subroutine110_0

        RSEG BANKED_CODE:HUGECODE:NOROOT(0)
??Subroutine110_0:
          CFI Block cfiBlock27 Using cfiCommon0
          CFI NoFunction
          CFI CFA_SP SP+0
          CFI CFA_XSP16 add(XSP16, 19)
          CFI VB load(1, XDATA, add(CFA_XSP16, literal(-9)))
          CFI DPL0 load(1, XDATA, add(CFA_XSP16, literal(-2)))
          CFI DPH0 load(1, XDATA, add(CFA_XSP16, literal(-1)))
          CFI R6 load(1, XDATA, add(CFA_XSP16, literal(-10)))
          CFI R7 load(1, XDATA, add(CFA_XSP16, literal(-6)))
          CFI V0 load(1, XDATA, add(CFA_XSP16, literal(-8)))
          CFI V1 load(1, XDATA, add(CFA_XSP16, literal(-7)))
          CFI ?BRET_EXT load(1, XDATA, add(CFA_XSP16, literal(-3)))
          CFI ?RET_HIGH load(1, XDATA, add(CFA_XSP16, literal(-4)))
          CFI ?RET_LOW load(1, XDATA, add(CFA_XSP16, literal(-5)))
        MOV       A,#0x9
          CFI EndBlock cfiBlock27
        REQUIRE ??Subroutine111_0
        ; // Fall through to label ??Subroutine111_0

        RSEG BANKED_CODE:HUGECODE:NOROOT(0)
??Subroutine111_0:
          CFI Block cfiBlock28 Using cfiCommon0
          CFI NoFunction
          CFI CFA_SP SP+0
          CFI CFA_XSP16 add(XSP16, 12)
          CFI VB load(1, XDATA, add(CFA_XSP16, literal(-9)))
          CFI DPL0 load(1, XDATA, add(CFA_XSP16, literal(-2)))
          CFI DPH0 load(1, XDATA, add(CFA_XSP16, literal(-1)))
          CFI R6 load(1, XDATA, add(CFA_XSP16, literal(-10)))
          CFI R7 load(1, XDATA, add(CFA_XSP16, literal(-6)))
          CFI V0 load(1, XDATA, add(CFA_XSP16, literal(-8)))
          CFI V1 load(1, XDATA, add(CFA_XSP16, literal(-7)))
          CFI ?BRET_EXT load(1, XDATA, add(CFA_XSP16, literal(-3)))
          CFI ?RET_HIGH load(1, XDATA, add(CFA_XSP16, literal(-4)))
          CFI ?RET_LOW load(1, XDATA, add(CFA_XSP16, literal(-5)))
          CFI Invalid
        LCALL     ?DEALLOC_XSTACK8
          CFI CFA_XSP16 add(XSP16, 10)
          CFI Valid
        MOV       R7,#0x2
        LJMP      ?BANKED_LEAVE_XDATA
          CFI EndBlock cfiBlock28
//  485 
//  486 /*********************************************************************
//  487  * @fn          ZDP_UserDescSet
//  488  *
//  489  * @brief       This builds and send a User_Desc_set message to set
//  490  *              the user descriptor.  This function sends unicast
//  491  *              message to the destination device.
//  492  *
//  493  * @param       dstAddr - destination address
//  494  * @param       nwkAddr - 16 bit address
//  495  * @param       UserDescriptor - user descriptor
//  496  * @param       SecurityEnable - Security Options
//  497  *
//  498  * @return      afStatus_t
//  499  */

        RSEG BANKED_CODE:HUGECODE:NOROOT(0)
//  500 afStatus_t ZDP_UserDescSet( zAddrType_t *dstAddr, uint16 nwkAddr,
ZDP_UserDescSet:
          CFI Block cfiBlock29 Using cfiCommon0
          CFI Function ZDP_UserDescSet
        CODE
//  501                           UserDescriptorFormat_t *UserDescriptor,
//  502                           byte SecurityEnable )
//  503 {
        FUNCALL ZDP_UserDescSet, osal_memcpy
        LOCFRAME ISTACK, 0, STACK
        LOCFRAME PSTACK, 0, STACK
        LOCFRAME XSTACK, 18, STACK
        LOCFRAME IOVERLAY, 0, STATIC
        LOCFRAME DOVERLAY, 0, STATIC
        ARGFRAME ISTACK, 0, STACK
        ARGFRAME PSTACK, 0, STACK
        ARGFRAME XSTACK, 18, STACK
        ARGFRAME IOVERLAY, 0, STATIC
        ARGFRAME DOVERLAY, 0, STATIC
        FUNCALL ZDP_UserDescSet, osal_memset
        LOCFRAME ISTACK, 0, STACK
        LOCFRAME PSTACK, 0, STACK
        LOCFRAME XSTACK, 15, STACK
        LOCFRAME IOVERLAY, 0, STATIC
        LOCFRAME DOVERLAY, 0, STATIC
        ARGFRAME ISTACK, 0, STACK
        ARGFRAME PSTACK, 0, STACK
        ARGFRAME XSTACK, 15, STACK
        ARGFRAME IOVERLAY, 0, STATIC
        ARGFRAME DOVERLAY, 0, STATIC
        FUNCALL ZDP_UserDescSet, fillAndSend
        LOCFRAME ISTACK, 0, STACK
        LOCFRAME PSTACK, 0, STACK
        LOCFRAME XSTACK, 17, STACK
        LOCFRAME IOVERLAY, 0, STATIC
        LOCFRAME DOVERLAY, 0, STATIC
        ARGFRAME ISTACK, 0, STACK
        ARGFRAME PSTACK, 0, STACK
        ARGFRAME XSTACK, 17, STACK
        ARGFRAME IOVERLAY, 0, STATIC
        ARGFRAME DOVERLAY, 0, STATIC
        REQUIRE ?V0
        REQUIRE ?V1
        REQUIRE ?V2
        REQUIRE ?V4
        REQUIRE ?V5
        REQUIRE ?V6
        MOV       A,#-0xf
        LCALL     ?BANKED_ENTER_XDATA
          CFI DPH0 load(1, XDATA, add(CFA_XSP16, literal(-1)))
          CFI DPL0 load(1, XDATA, add(CFA_XSP16, literal(-2)))
          CFI ?BRET_EXT load(1, XDATA, add(CFA_XSP16, literal(-3)))
          CFI ?RET_HIGH load(1, XDATA, add(CFA_XSP16, literal(-4)))
          CFI ?RET_LOW load(1, XDATA, add(CFA_XSP16, literal(-5)))
          CFI R7 load(1, XDATA, add(CFA_XSP16, literal(-6)))
          CFI V6 load(1, XDATA, add(CFA_XSP16, literal(-7)))
          CFI V5 load(1, XDATA, add(CFA_XSP16, literal(-8)))
          CFI V4 load(1, XDATA, add(CFA_XSP16, literal(-9)))
          CFI V3 load(1, XDATA, add(CFA_XSP16, literal(-10)))
          CFI V2 load(1, XDATA, add(CFA_XSP16, literal(-11)))
          CFI V1 load(1, XDATA, add(CFA_XSP16, literal(-12)))
          CFI V0 load(1, XDATA, add(CFA_XSP16, literal(-13)))
          CFI VB load(1, XDATA, add(CFA_XSP16, literal(-14)))
          CFI R6 load(1, XDATA, add(CFA_XSP16, literal(-15)))
          CFI CFA_SP SP+0
          CFI CFA_XSP16 add(XSP16, 15)
        ; Saved register size: 15
        ; Auto size: 0
        LCALL     ?Subroutine56 & 0xFFFF
//  504   uint8 *pBuf = ZDP_TmpBuf;
??CrossCallReturnLabel_89:
        MOV       A,#0xf
        LCALL     ?XSTACK_DISP0_8
        LCALL     ?Subroutine42 & 0xFFFF
//  505   byte len = (UserDescriptor->len < AF_MAX_USER_DESCRIPTOR_LEN) ?
//  506               UserDescriptor->len : AF_MAX_USER_DESCRIPTOR_LEN;
??CrossCallReturnLabel_60:
        CLR       C
        SUBB      A,#0x10
        JNC       ??ZDP_UserDescSet_0
        MOVX      A,@DPTR
        MOV       ?V2,A
        SJMP      ??ZDP_UserDescSet_1
??ZDP_UserDescSet_0:
        MOV       ?V2,#0x10
//  507   byte addrLen = 2;
//  508 
//  509   (void)SecurityEnable;  // Intentionally unreferenced parameter
//  510 
//  511   *pBuf++ = LO_UINT16( nwkAddr );
??ZDP_UserDescSet_1:
        MOV       A,R4
        MOV       DPL,?V0
        MOV       DPH,?V1
        MOVX      @DPTR,A
//  512   *pBuf++ = HI_UINT16( nwkAddr );
        MOV       A,R5
        LCALL     ?Subroutine35 & 0xFFFF
//  513 
//  514   *pBuf++ = len;
??CrossCallReturnLabel_46:
        MOV       A,?V2
        LCALL     ?Subroutine11 & 0xFFFF
//  515   addrLen = 3;
//  516 
//  517   pBuf = osal_memcpy( pBuf, UserDescriptor->desc, len );
??CrossCallReturnLabel_2:
        LCALL     ?PUSH_XSTACK_I_THREE
          CFI CFA_XSP16 add(XSP16, 18)
        MOV       R4,?V2
        MOV       R5,#0x0
        MOV       A,?V0
        ADD       A,#0x3
        MOV       R2,A
        CLR       A
        ADDC      A,?V1
        MOV       R3,A
        LCALL     `??osal_memcpy::?relay`; Banked call to: osal_memcpy
        MOV       A,#0x3
        LCALL     ?DEALLOC_XSTACK8
          CFI CFA_XSP16 add(XSP16, 15)
//  518   osal_memset( pBuf, AF_USER_DESCRIPTOR_FILL, AF_MAX_USER_DESCRIPTOR_LEN-len );
        ; Setup parameters for call to function osal_memset
        MOV       R0,?V2
        MOV       A,#0x10
        CLR       C
        SUBB      A,R0
        MOV       R4,A
        SUBB      A,0xE0 /* A   */
        MOV       R5,A
        MOV       R1,#0x20
        LCALL     `??osal_memset::?relay`; Banked call to: osal_memset
//  519 
//  520   return fillAndSend( &ZDP_TransID, dstAddr, User_Desc_set, (AF_MAX_USER_DESCRIPTOR_LEN + addrLen) );
        ; Setup parameters for call to function fillAndSend
        MOV       ?V0,#0x14
        MOV       ?V1,#0x0
        MOV       R0,#?V0
        LCALL     ?PUSH_XSTACK_I_TWO
          CFI CFA_XSP16 add(XSP16, 17)
        MOV       R1,#0x13
        MOV       A,R6
        MOV       R4,A
        MOV       A,R7
        MOV       R5,A
        MOV       R2,#ZDP_TransID & 0xff
        MOV       R3,#(ZDP_TransID >> 8) & 0xff
        LCALL     `??fillAndSend::?relay`; Banked call to: fillAndSend
        MOV       A,#0x2
          CFI EndBlock cfiBlock29
        REQUIRE ?Subroutine3
        ; // Fall through to label ?Subroutine3
//  521 }

        RSEG BANKED_CODE:HUGECODE:NOROOT(0)
?Subroutine3:
          CFI Block cfiBlock30 Using cfiCommon0
          CFI NoFunction
          CFI CFA_SP SP+0
          CFI CFA_XSP16 add(XSP16, 17)
          CFI VB load(1, XDATA, add(CFA_XSP16, literal(-14)))
          CFI DPL0 load(1, XDATA, add(CFA_XSP16, literal(-2)))
          CFI DPH0 load(1, XDATA, add(CFA_XSP16, literal(-1)))
          CFI R6 load(1, XDATA, add(CFA_XSP16, literal(-15)))
          CFI R7 load(1, XDATA, add(CFA_XSP16, literal(-6)))
          CFI V0 load(1, XDATA, add(CFA_XSP16, literal(-13)))
          CFI V1 load(1, XDATA, add(CFA_XSP16, literal(-12)))
          CFI V2 load(1, XDATA, add(CFA_XSP16, literal(-11)))
          CFI V3 load(1, XDATA, add(CFA_XSP16, literal(-10)))
          CFI V4 load(1, XDATA, add(CFA_XSP16, literal(-9)))
          CFI V5 load(1, XDATA, add(CFA_XSP16, literal(-8)))
          CFI V6 load(1, XDATA, add(CFA_XSP16, literal(-7)))
          CFI ?BRET_EXT load(1, XDATA, add(CFA_XSP16, literal(-3)))
          CFI ?RET_HIGH load(1, XDATA, add(CFA_XSP16, literal(-4)))
          CFI ?RET_LOW load(1, XDATA, add(CFA_XSP16, literal(-5)))
          CFI Invalid
        LCALL     ?DEALLOC_XSTACK8
          CFI CFA_XSP16 add(XSP16, 15)
          CFI Valid
        MOV       R7,#0x7
        LJMP      ?BANKED_LEAVE_XDATA
          CFI EndBlock cfiBlock30
//  522 
//  523 /*********************************************************************
//  524  * @fn          ZDP_ServerDiscReq
//  525  *
//  526  * @brief       Build and send a Server_Discovery_req request message.
//  527  *
//  528  * @param       serverMask - 16-bit bit-mask of server services being sought.
//  529  * @param       SecurityEnable - Security Options
//  530  *
//  531  * @return      afStatus_t
//  532  */

        RSEG BANKED_CODE:HUGECODE:NOROOT(0)
//  533 afStatus_t ZDP_ServerDiscReq( uint16 serverMask, byte SecurityEnable )
ZDP_ServerDiscReq:
          CFI Block cfiBlock31 Using cfiCommon0
          CFI Function ZDP_ServerDiscReq
        CODE
//  534 {
        FUNCALL ZDP_ServerDiscReq, fillAndSend
        LOCFRAME ISTACK, 0, STACK
        LOCFRAME PSTACK, 0, STACK
        LOCFRAME XSTACK, 21, STACK
        LOCFRAME IOVERLAY, 0, STATIC
        LOCFRAME DOVERLAY, 0, STATIC
        ARGFRAME ISTACK, 0, STACK
        ARGFRAME PSTACK, 0, STACK
        ARGFRAME XSTACK, 21, STACK
        ARGFRAME IOVERLAY, 0, STATIC
        ARGFRAME DOVERLAY, 0, STATIC
        REQUIRE ?V0
        REQUIRE ?V1
        MOV       A,#-0xa
        LCALL     ?BANKED_ENTER_XDATA
          CFI DPH0 load(1, XDATA, add(CFA_XSP16, literal(-1)))
          CFI DPL0 load(1, XDATA, add(CFA_XSP16, literal(-2)))
          CFI ?BRET_EXT load(1, XDATA, add(CFA_XSP16, literal(-3)))
          CFI ?RET_HIGH load(1, XDATA, add(CFA_XSP16, literal(-4)))
          CFI ?RET_LOW load(1, XDATA, add(CFA_XSP16, literal(-5)))
          CFI R7 load(1, XDATA, add(CFA_XSP16, literal(-6)))
          CFI V1 load(1, XDATA, add(CFA_XSP16, literal(-7)))
          CFI V0 load(1, XDATA, add(CFA_XSP16, literal(-8)))
          CFI VB load(1, XDATA, add(CFA_XSP16, literal(-9)))
          CFI R6 load(1, XDATA, add(CFA_XSP16, literal(-10)))
          CFI CFA_SP SP+0
          CFI CFA_XSP16 add(XSP16, 10)
        ; Saved register size: 10
        ; Auto size: 9
        MOV       A,#-0x9
        LCALL     ?ALLOC_XSTACK8
          CFI CFA_XSP16 add(XSP16, 19)
        LCALL     ?Subroutine57 & 0xFFFF
//  535   uint8 *pBuf = ZDP_TmpBuf;
//  536   zAddrType_t dstAddr;
//  537 
//  538   dstAddr.addrMode = AddrBroadcast;
??CrossCallReturnLabel_279:
        MOV       A,#0x8
        LCALL     ?XSTACK_DISP0_8
        LCALL     ?Subroutine20 & 0xFFFF
//  539   dstAddr.addr.shortAddr = NWK_BROADCAST_SHORTADDR_DEVRXON;
//  540 
//  541   *pBuf++ = LO_UINT16( serverMask );
??CrossCallReturnLabel_19:
        MOV       A,R2
        MOV       DPL,R0
        MOV       DPH,R1
        MOVX      @DPTR,A
//  542   *pBuf = HI_UINT16( serverMask );
        MOV       A,R3
        INC       DPTR
        MOVX      @DPTR,A
//  543 
//  544   FillAndSendTxOptions( &ZDP_TransID, &dstAddr, Server_Discovery_req, 2,
//  545              ((SecurityEnable) ? AF_EN_SECURITY : AF_TX_OPTIONS_NONE) );
        MOV       A,R6
        MOV       DPTR,#ZDP_TxOptions
        JZ        ??ZDP_ServerDiscReq_0
        MOV       A,#0x40
        SJMP      ??ZDP_ServerDiscReq_1
??ZDP_ServerDiscReq_0:
        CLR       A
??ZDP_ServerDiscReq_1:
        MOVX      @DPTR,A
        ; Setup parameters for call to function fillAndSend
        MOV       ?V0,#0x15
        MOV       ?V1,#0x0
        MOV       R0,#?V0
        LCALL     ?PUSH_XSTACK_I_TWO
          CFI CFA_XSP16 add(XSP16, 21)
        MOV       R1,#0x2
        MOV       A,R1
        LCALL     ?XSTACK_DISP102_8
        MOV       R2,#ZDP_TransID & 0xff
        MOV       R3,#(ZDP_TransID >> 8) & 0xff
        LCALL     `??fillAndSend::?relay`; Banked call to: fillAndSend
        MOV       A,#0x2
        LCALL     ?DEALLOC_XSTACK8
          CFI CFA_XSP16 add(XSP16, 19)
        MOV       A,R1
        MOV       R1,A
        MOV       DPTR,#ZDP_TxOptions
        CLR       A
        MOVX      @DPTR,A
        LJMP      ??Subroutine110_0 & 0xFFFF
//  546 }
          CFI EndBlock cfiBlock31
//  547 
//  548 /*********************************************************************
//  549  * @fn          ZDP_DeviceAnnce
//  550  *
//  551  * @brief       This builds and send a Device_Annce message.  This
//  552  *              function sends a broadcast message.
//  553  *
//  554  * @param       nwkAddr - 16 bit address of the device
//  555  * @param       IEEEAddr - 64 bit address of the device
//  556  * @param       capabilities - device capabilities.  This field is only
//  557  *                 sent for v1.1 networks.
//  558  * @param       SecurityEnable - Security Options
//  559  *
//  560  * @return      afStatus_t
//  561  */

        RSEG BANKED_CODE:HUGECODE:NOROOT(0)
//  562 afStatus_t ZDP_DeviceAnnce( uint16 nwkAddr, uint8 *IEEEAddr,
ZDP_DeviceAnnce:
          CFI Block cfiBlock32 Using cfiCommon0
          CFI Function ZDP_DeviceAnnce
        CODE
//  563                               byte capabilities, byte SecurityEnable )
//  564 {
        FUNCALL ZDP_DeviceAnnce, sAddrExtCpy
        LOCFRAME ISTACK, 0, STACK
        LOCFRAME PSTACK, 0, STACK
        LOCFRAME XSTACK, 19, STACK
        LOCFRAME IOVERLAY, 0, STATIC
        LOCFRAME DOVERLAY, 0, STATIC
        ARGFRAME ISTACK, 0, STACK
        ARGFRAME PSTACK, 0, STACK
        ARGFRAME XSTACK, 19, STACK
        ARGFRAME IOVERLAY, 0, STATIC
        ARGFRAME DOVERLAY, 0, STATIC
        FUNCALL ZDP_DeviceAnnce, fillAndSend
        LOCFRAME ISTACK, 0, STACK
        LOCFRAME PSTACK, 0, STACK
        LOCFRAME XSTACK, 21, STACK
        LOCFRAME IOVERLAY, 0, STATIC
        LOCFRAME DOVERLAY, 0, STATIC
        ARGFRAME ISTACK, 0, STACK
        ARGFRAME PSTACK, 0, STACK
        ARGFRAME XSTACK, 21, STACK
        ARGFRAME IOVERLAY, 0, STATIC
        ARGFRAME DOVERLAY, 0, STATIC
        REQUIRE ?V0
        REQUIRE ?V1
        MOV       A,#-0xa
        LCALL     ?BANKED_ENTER_XDATA
          CFI DPH0 load(1, XDATA, add(CFA_XSP16, literal(-1)))
          CFI DPL0 load(1, XDATA, add(CFA_XSP16, literal(-2)))
          CFI ?BRET_EXT load(1, XDATA, add(CFA_XSP16, literal(-3)))
          CFI ?RET_HIGH load(1, XDATA, add(CFA_XSP16, literal(-4)))
          CFI ?RET_LOW load(1, XDATA, add(CFA_XSP16, literal(-5)))
          CFI R7 load(1, XDATA, add(CFA_XSP16, literal(-6)))
          CFI V1 load(1, XDATA, add(CFA_XSP16, literal(-7)))
          CFI V0 load(1, XDATA, add(CFA_XSP16, literal(-8)))
          CFI VB load(1, XDATA, add(CFA_XSP16, literal(-9)))
          CFI R6 load(1, XDATA, add(CFA_XSP16, literal(-10)))
          CFI CFA_SP SP+0
          CFI CFA_XSP16 add(XSP16, 10)
        ; Saved register size: 10
        ; Auto size: 9
        MOV       A,#-0x9
        LCALL     ?ALLOC_XSTACK8
          CFI CFA_XSP16 add(XSP16, 19)
        MOV       A,R1
        MOV       R6,A
//  565   zAddrType_t dstAddr;
//  566   uint8 len;
//  567 
//  568   (void)SecurityEnable;  // Intentionally unreferenced parameter
//  569 
//  570   dstAddr.addrMode = (afAddrMode_t)AddrBroadcast;
        MOV       A,#0x8
        LCALL     ?XSTACK_DISP0_8
        LCALL     ?Subroutine20 & 0xFFFF
//  571   dstAddr.addr.shortAddr = NWK_BROADCAST_SHORTADDR_DEVRXON;
//  572 
//  573   ZDP_TmpBuf[0] = LO_UINT16( nwkAddr );
??CrossCallReturnLabel_20:
        LCALL     ?Subroutine46 & 0xFFFF
??CrossCallReturnLabel_219:
        MOV       A,R2
        LCALL     ?Subroutine23 & 0xFFFF
//  574   ZDP_TmpBuf[1] = HI_UINT16( nwkAddr );
??CrossCallReturnLabel_25:
        MOV       A,R3
        MOVX      @DPTR,A
//  575   osal_cpyExtAddr( &ZDP_TmpBuf[2], IEEEAddr );
        ; Setup parameters for call to function sAddrExtCpy
        MOV       DPTR,#ZDP_TmpBuf
        MOVX      A,@DPTR
        ADD       A,#0x2
        MOV       R2,A
        INC       DPTR
        MOVX      A,@DPTR
        ADDC      A,#0x0
        MOV       R3,A
        LCALL     `??sAddrExtCpy::?relay`; Banked call to: sAddrExtCpy
//  576   len = 2 + Z_EXTADDR_LEN;
//  577 
//  578   ZDP_TmpBuf[10] = capabilities;
        LCALL     ?Subroutine105 & 0xFFFF
??CrossCallReturnLabel_300:
        XCH       A,R0
        ADD       A,#0xa
        MOV       DPL,A
        CLR       A
        ADDC      A,R0
        MOV       DPH,A
        MOV       A,R6
        MOVX      @DPTR,A
//  579   len++;
//  580 
//  581   return fillAndSend( &ZDP_TransID, &dstAddr, Device_annce, len );
        ; Setup parameters for call to function fillAndSend
        MOV       ?V0,#0x13
        MOV       ?V1,#0x0
        MOV       R0,#?V0
        LCALL     ?PUSH_XSTACK_I_TWO
          CFI CFA_XSP16 add(XSP16, 21)
        MOV       R1,#0xb
        LJMP      ?Subroutine2 & 0xFFFF
//  582 }
          CFI EndBlock cfiBlock32

        RSEG BANKED_CODE:HUGECODE:NOROOT(0)
?Subroutine105:
          CFI Block cfiCond33 Using cfiCommon0
          CFI Function ZDP_DeviceAnnce
          CFI Conditional ??CrossCallReturnLabel_300
          CFI R6 load(1, XDATA, add(CFA_XSP16, literal(-10)))
          CFI VB load(1, XDATA, add(CFA_XSP16, literal(-9)))
          CFI V0 load(1, XDATA, add(CFA_XSP16, literal(-8)))
          CFI V1 load(1, XDATA, add(CFA_XSP16, literal(-7)))
          CFI R7 load(1, XDATA, add(CFA_XSP16, literal(-6)))
          CFI ?RET_LOW load(1, XDATA, add(CFA_XSP16, literal(-5)))
          CFI ?RET_HIGH load(1, XDATA, add(CFA_XSP16, literal(-4)))
          CFI ?BRET_EXT load(1, XDATA, add(CFA_XSP16, literal(-3)))
          CFI DPL0 load(1, XDATA, add(CFA_XSP16, literal(-2)))
          CFI DPH0 load(1, XDATA, add(CFA_XSP16, literal(-1)))
          CFI CFA_SP SP+-2
          CFI CFA_XSP16 add(XSP16, 19)
          CFI Block cfiCond34 Using cfiCommon0
          CFI (cfiCond34) Function ZDP_NWKAddrOfInterestReq
          CFI (cfiCond34) Conditional ??CrossCallReturnLabel_302, ??CrossCallReturnLabel_179, ??CrossCallReturnLabel_17
          CFI (cfiCond34) R6 load(1, XDATA, add(CFA_XSP16, literal(-10)))
          CFI (cfiCond34) VB load(1, XDATA, add(CFA_XSP16, literal(-9)))
          CFI (cfiCond34) V0 load(1, XDATA, add(CFA_XSP16, literal(-8)))
          CFI (cfiCond34) V1 load(1, XDATA, add(CFA_XSP16, literal(-7)))
          CFI (cfiCond34) R7 load(1, XDATA, add(CFA_XSP16, literal(-6)))
          CFI (cfiCond34) ?RET_LOW load(1, XDATA, add(CFA_XSP16, literal(-5)))
          CFI (cfiCond34) ?RET_HIGH load(1, XDATA, add(CFA_XSP16, literal(-4)))
          CFI (cfiCond34) ?BRET_EXT load(1, XDATA, add(CFA_XSP16, literal(-3)))
          CFI (cfiCond34) DPL0 load(1, XDATA, add(CFA_XSP16, literal(-2)))
          CFI (cfiCond34) DPH0 load(1, XDATA, add(CFA_XSP16, literal(-1)))
          CFI (cfiCond34) CFA_SP SP+-6
          CFI (cfiCond34) CFA_XSP16 add(XSP16, 10)
          CFI Block cfiCond35 Using cfiCommon0
          CFI (cfiCond35) Function ZDP_SimpleDescReq
          CFI (cfiCond35) Conditional ??CrossCallReturnLabel_302, ??CrossCallReturnLabel_179, ??CrossCallReturnLabel_18
          CFI (cfiCond35) R6 load(1, XDATA, add(CFA_XSP16, literal(-10)))
          CFI (cfiCond35) VB load(1, XDATA, add(CFA_XSP16, literal(-9)))
          CFI (cfiCond35) V0 load(1, XDATA, add(CFA_XSP16, literal(-8)))
          CFI (cfiCond35) V1 load(1, XDATA, add(CFA_XSP16, literal(-7)))
          CFI (cfiCond35) R7 load(1, XDATA, add(CFA_XSP16, literal(-6)))
          CFI (cfiCond35) ?RET_LOW load(1, XDATA, add(CFA_XSP16, literal(-5)))
          CFI (cfiCond35) ?RET_HIGH load(1, XDATA, add(CFA_XSP16, literal(-4)))
          CFI (cfiCond35) ?BRET_EXT load(1, XDATA, add(CFA_XSP16, literal(-3)))
          CFI (cfiCond35) DPL0 load(1, XDATA, add(CFA_XSP16, literal(-2)))
          CFI (cfiCond35) DPH0 load(1, XDATA, add(CFA_XSP16, literal(-1)))
          CFI (cfiCond35) CFA_SP SP+-6
          CFI (cfiCond35) CFA_XSP16 add(XSP16, 10)
          CFI Block cfiCond36 Using cfiCommon0
          CFI (cfiCond36) Function ZDP_NWKAddrOfInterestReq
          CFI (cfiCond36) Conditional ??CrossCallReturnLabel_302, ??CrossCallReturnLabel_180, ??CrossCallReturnLabel_131, ??CrossCallReturnLabel_17
          CFI (cfiCond36) R6 load(1, XDATA, add(CFA_XSP16, literal(-10)))
          CFI (cfiCond36) VB load(1, XDATA, add(CFA_XSP16, literal(-9)))
          CFI (cfiCond36) V0 load(1, XDATA, add(CFA_XSP16, literal(-8)))
          CFI (cfiCond36) V1 load(1, XDATA, add(CFA_XSP16, literal(-7)))
          CFI (cfiCond36) R7 load(1, XDATA, add(CFA_XSP16, literal(-6)))
          CFI (cfiCond36) ?RET_LOW load(1, XDATA, add(CFA_XSP16, literal(-5)))
          CFI (cfiCond36) ?RET_HIGH load(1, XDATA, add(CFA_XSP16, literal(-4)))
          CFI (cfiCond36) ?BRET_EXT load(1, XDATA, add(CFA_XSP16, literal(-3)))
          CFI (cfiCond36) DPL0 load(1, XDATA, add(CFA_XSP16, literal(-2)))
          CFI (cfiCond36) DPH0 load(1, XDATA, add(CFA_XSP16, literal(-1)))
          CFI (cfiCond36) CFA_SP SP+-8
          CFI (cfiCond36) CFA_XSP16 add(XSP16, 10)
          CFI Block cfiCond37 Using cfiCommon0
          CFI (cfiCond37) Function ZDP_SimpleDescReq
          CFI (cfiCond37) Conditional ??CrossCallReturnLabel_302, ??CrossCallReturnLabel_180, ??CrossCallReturnLabel_131, ??CrossCallReturnLabel_18
          CFI (cfiCond37) R6 load(1, XDATA, add(CFA_XSP16, literal(-10)))
          CFI (cfiCond37) VB load(1, XDATA, add(CFA_XSP16, literal(-9)))
          CFI (cfiCond37) V0 load(1, XDATA, add(CFA_XSP16, literal(-8)))
          CFI (cfiCond37) V1 load(1, XDATA, add(CFA_XSP16, literal(-7)))
          CFI (cfiCond37) R7 load(1, XDATA, add(CFA_XSP16, literal(-6)))
          CFI (cfiCond37) ?RET_LOW load(1, XDATA, add(CFA_XSP16, literal(-5)))
          CFI (cfiCond37) ?RET_HIGH load(1, XDATA, add(CFA_XSP16, literal(-4)))
          CFI (cfiCond37) ?BRET_EXT load(1, XDATA, add(CFA_XSP16, literal(-3)))
          CFI (cfiCond37) DPL0 load(1, XDATA, add(CFA_XSP16, literal(-2)))
          CFI (cfiCond37) DPH0 load(1, XDATA, add(CFA_XSP16, literal(-1)))
          CFI (cfiCond37) CFA_SP SP+-8
          CFI (cfiCond37) CFA_XSP16 add(XSP16, 10)
          CFI Block cfiCond38 Using cfiCommon0
          CFI (cfiCond38) Function ZDP_SimpleDescReq
          CFI (cfiCond38) Conditional ??CrossCallReturnLabel_302, ??CrossCallReturnLabel_180, ??CrossCallReturnLabel_132, ??CrossCallReturnLabel_10
          CFI (cfiCond38) R6 load(1, XDATA, add(CFA_XSP16, literal(-10)))
          CFI (cfiCond38) VB load(1, XDATA, add(CFA_XSP16, literal(-9)))
          CFI (cfiCond38) V0 load(1, XDATA, add(CFA_XSP16, literal(-8)))
          CFI (cfiCond38) V1 load(1, XDATA, add(CFA_XSP16, literal(-7)))
          CFI (cfiCond38) R7 load(1, XDATA, add(CFA_XSP16, literal(-6)))
          CFI (cfiCond38) ?RET_LOW load(1, XDATA, add(CFA_XSP16, literal(-5)))
          CFI (cfiCond38) ?RET_HIGH load(1, XDATA, add(CFA_XSP16, literal(-4)))
          CFI (cfiCond38) ?BRET_EXT load(1, XDATA, add(CFA_XSP16, literal(-3)))
          CFI (cfiCond38) DPL0 load(1, XDATA, add(CFA_XSP16, literal(-2)))
          CFI (cfiCond38) DPH0 load(1, XDATA, add(CFA_XSP16, literal(-1)))
          CFI (cfiCond38) CFA_SP SP+-8
          CFI (cfiCond38) CFA_XSP16 add(XSP16, 10)
          CFI Block cfiCond39 Using cfiCommon0
          CFI (cfiCond39) Function ZDP_GenericRsp
          CFI (cfiCond39) Conditional ??CrossCallReturnLabel_302, ??CrossCallReturnLabel_180, ??CrossCallReturnLabel_132, ??CrossCallReturnLabel_11
          CFI (cfiCond39) R6 load(1, XDATA, add(CFA_XSP16, literal(-9)))
          CFI (cfiCond39) VB load(1, XDATA, add(CFA_XSP16, literal(-8)))
          CFI (cfiCond39) V0 load(1, XDATA, add(CFA_XSP16, literal(-7)))
          CFI (cfiCond39) R7 load(1, XDATA, add(CFA_XSP16, literal(-6)))
          CFI (cfiCond39) ?RET_LOW load(1, XDATA, add(CFA_XSP16, literal(-5)))
          CFI (cfiCond39) ?RET_HIGH load(1, XDATA, add(CFA_XSP16, literal(-4)))
          CFI (cfiCond39) ?BRET_EXT load(1, XDATA, add(CFA_XSP16, literal(-3)))
          CFI (cfiCond39) DPL0 load(1, XDATA, add(CFA_XSP16, literal(-2)))
          CFI (cfiCond39) DPH0 load(1, XDATA, add(CFA_XSP16, literal(-1)))
          CFI (cfiCond39) CFA_SP SP+-8
          CFI (cfiCond39) CFA_XSP16 add(XSP16, 10)
          CFI Block cfiCond40 Using cfiCommon0
          CFI (cfiCond40) Function ZDP_DeviceAnnce
          CFI (cfiCond40) Conditional ??CrossCallReturnLabel_302, ??CrossCallReturnLabel_180, ??CrossCallReturnLabel_133, ??CrossCallReturnLabel_25
          CFI (cfiCond40) R6 load(1, XDATA, add(CFA_XSP16, literal(-10)))
          CFI (cfiCond40) VB load(1, XDATA, add(CFA_XSP16, literal(-9)))
          CFI (cfiCond40) V0 load(1, XDATA, add(CFA_XSP16, literal(-8)))
          CFI (cfiCond40) V1 load(1, XDATA, add(CFA_XSP16, literal(-7)))
          CFI (cfiCond40) R7 load(1, XDATA, add(CFA_XSP16, literal(-6)))
          CFI (cfiCond40) ?RET_LOW load(1, XDATA, add(CFA_XSP16, literal(-5)))
          CFI (cfiCond40) ?RET_HIGH load(1, XDATA, add(CFA_XSP16, literal(-4)))
          CFI (cfiCond40) ?BRET_EXT load(1, XDATA, add(CFA_XSP16, literal(-3)))
          CFI (cfiCond40) DPL0 load(1, XDATA, add(CFA_XSP16, literal(-2)))
          CFI (cfiCond40) DPH0 load(1, XDATA, add(CFA_XSP16, literal(-1)))
          CFI (cfiCond40) CFA_SP SP+-8
          CFI (cfiCond40) CFA_XSP16 add(XSP16, 19)
          CFI Block cfiCond41 Using cfiCommon0
          CFI (cfiCond41) Function ZDP_MgmtPermitJoinReq
          CFI (cfiCond41) Conditional ??CrossCallReturnLabel_302, ??CrossCallReturnLabel_180, ??CrossCallReturnLabel_133, ??CrossCallReturnLabel_26
          CFI (cfiCond41) R6 load(1, XDATA, add(CFA_XSP16, literal(-12)))
          CFI (cfiCond41) VB load(1, XDATA, add(CFA_XSP16, literal(-11)))
          CFI (cfiCond41) V0 load(1, XDATA, add(CFA_XSP16, literal(-10)))
          CFI (cfiCond41) V1 load(1, XDATA, add(CFA_XSP16, literal(-9)))
          CFI (cfiCond41) V2 load(1, XDATA, add(CFA_XSP16, literal(-8)))
          CFI (cfiCond41) V3 load(1, XDATA, add(CFA_XSP16, literal(-7)))
          CFI (cfiCond41) R7 load(1, XDATA, add(CFA_XSP16, literal(-6)))
          CFI (cfiCond41) ?RET_LOW load(1, XDATA, add(CFA_XSP16, literal(-5)))
          CFI (cfiCond41) ?RET_HIGH load(1, XDATA, add(CFA_XSP16, literal(-4)))
          CFI (cfiCond41) ?BRET_EXT load(1, XDATA, add(CFA_XSP16, literal(-3)))
          CFI (cfiCond41) DPL0 load(1, XDATA, add(CFA_XSP16, literal(-2)))
          CFI (cfiCond41) DPH0 load(1, XDATA, add(CFA_XSP16, literal(-1)))
          CFI (cfiCond41) CFA_SP SP+-8
          CFI (cfiCond41) CFA_XSP16 add(XSP16, 21)
          CFI Block cfiCond42 Using cfiCommon0
          CFI (cfiCond42) Function ZDP_MgmtDirectJoinReq
          CFI (cfiCond42) Conditional ??CrossCallReturnLabel_301, ??CrossCallReturnLabel_56
          CFI (cfiCond42) R6 load(1, XDATA, add(CFA_XSP16, literal(-12)))
          CFI (cfiCond42) VB load(1, XDATA, add(CFA_XSP16, literal(-11)))
          CFI (cfiCond42) V0 load(1, XDATA, add(CFA_XSP16, literal(-10)))
          CFI (cfiCond42) V1 load(1, XDATA, add(CFA_XSP16, literal(-9)))
          CFI (cfiCond42) V2 load(1, XDATA, add(CFA_XSP16, literal(-8)))
          CFI (cfiCond42) V3 load(1, XDATA, add(CFA_XSP16, literal(-7)))
          CFI (cfiCond42) R7 load(1, XDATA, add(CFA_XSP16, literal(-6)))
          CFI (cfiCond42) ?RET_LOW load(1, XDATA, add(CFA_XSP16, literal(-5)))
          CFI (cfiCond42) ?RET_HIGH load(1, XDATA, add(CFA_XSP16, literal(-4)))
          CFI (cfiCond42) ?BRET_EXT load(1, XDATA, add(CFA_XSP16, literal(-3)))
          CFI (cfiCond42) DPL0 load(1, XDATA, add(CFA_XSP16, literal(-2)))
          CFI (cfiCond42) DPH0 load(1, XDATA, add(CFA_XSP16, literal(-1)))
          CFI (cfiCond42) CFA_SP SP+-4
          CFI (cfiCond42) CFA_XSP16 add(XSP16, 12)
          CFI Block cfiCond43 Using cfiCommon0
          CFI (cfiCond43) Function ZDP_MgmtLeaveReq
          CFI (cfiCond43) Conditional ??CrossCallReturnLabel_301, ??CrossCallReturnLabel_57
          CFI (cfiCond43) R6 load(1, XDATA, add(CFA_XSP16, literal(-12)))
          CFI (cfiCond43) VB load(1, XDATA, add(CFA_XSP16, literal(-11)))
          CFI (cfiCond43) V0 load(1, XDATA, add(CFA_XSP16, literal(-10)))
          CFI (cfiCond43) V1 load(1, XDATA, add(CFA_XSP16, literal(-9)))
          CFI (cfiCond43) V2 load(1, XDATA, add(CFA_XSP16, literal(-8)))
          CFI (cfiCond43) V3 load(1, XDATA, add(CFA_XSP16, literal(-7)))
          CFI (cfiCond43) R7 load(1, XDATA, add(CFA_XSP16, literal(-6)))
          CFI (cfiCond43) ?RET_LOW load(1, XDATA, add(CFA_XSP16, literal(-5)))
          CFI (cfiCond43) ?RET_HIGH load(1, XDATA, add(CFA_XSP16, literal(-4)))
          CFI (cfiCond43) ?BRET_EXT load(1, XDATA, add(CFA_XSP16, literal(-3)))
          CFI (cfiCond43) DPL0 load(1, XDATA, add(CFA_XSP16, literal(-2)))
          CFI (cfiCond43) DPH0 load(1, XDATA, add(CFA_XSP16, literal(-1)))
          CFI (cfiCond43) CFA_SP SP+-4
          CFI (cfiCond43) CFA_XSP16 add(XSP16, 12)
          CFI Block cfiCond44 Using cfiCommon0
          CFI (cfiCond44) Function ZDP_MgmtLeaveReq
          CFI (cfiCond44) Conditional ??CrossCallReturnLabel_301, ??CrossCallReturnLabel_58
          CFI (cfiCond44) R6 load(1, XDATA, add(CFA_XSP16, literal(-12)))
          CFI (cfiCond44) VB load(1, XDATA, add(CFA_XSP16, literal(-11)))
          CFI (cfiCond44) V0 load(1, XDATA, add(CFA_XSP16, literal(-10)))
          CFI (cfiCond44) V1 load(1, XDATA, add(CFA_XSP16, literal(-9)))
          CFI (cfiCond44) V2 load(1, XDATA, add(CFA_XSP16, literal(-8)))
          CFI (cfiCond44) V3 load(1, XDATA, add(CFA_XSP16, literal(-7)))
          CFI (cfiCond44) R7 load(1, XDATA, add(CFA_XSP16, literal(-6)))
          CFI (cfiCond44) ?RET_LOW load(1, XDATA, add(CFA_XSP16, literal(-5)))
          CFI (cfiCond44) ?RET_HIGH load(1, XDATA, add(CFA_XSP16, literal(-4)))
          CFI (cfiCond44) ?BRET_EXT load(1, XDATA, add(CFA_XSP16, literal(-3)))
          CFI (cfiCond44) DPL0 load(1, XDATA, add(CFA_XSP16, literal(-2)))
          CFI (cfiCond44) DPH0 load(1, XDATA, add(CFA_XSP16, literal(-1)))
          CFI (cfiCond44) CFA_SP SP+-4
          CFI (cfiCond44) CFA_XSP16 add(XSP16, 12)
          CFI Block cfiCond45 Using cfiCommon0
          CFI (cfiCond45) Function ZDP_MgmtLeaveReq
          CFI (cfiCond45) Conditional ??CrossCallReturnLabel_301, ??CrossCallReturnLabel_59
          CFI (cfiCond45) R6 load(1, XDATA, add(CFA_XSP16, literal(-12)))
          CFI (cfiCond45) VB load(1, XDATA, add(CFA_XSP16, literal(-11)))
          CFI (cfiCond45) V0 load(1, XDATA, add(CFA_XSP16, literal(-10)))
          CFI (cfiCond45) V1 load(1, XDATA, add(CFA_XSP16, literal(-9)))
          CFI (cfiCond45) V2 load(1, XDATA, add(CFA_XSP16, literal(-8)))
          CFI (cfiCond45) V3 load(1, XDATA, add(CFA_XSP16, literal(-7)))
          CFI (cfiCond45) R7 load(1, XDATA, add(CFA_XSP16, literal(-6)))
          CFI (cfiCond45) ?RET_LOW load(1, XDATA, add(CFA_XSP16, literal(-5)))
          CFI (cfiCond45) ?RET_HIGH load(1, XDATA, add(CFA_XSP16, literal(-4)))
          CFI (cfiCond45) ?BRET_EXT load(1, XDATA, add(CFA_XSP16, literal(-3)))
          CFI (cfiCond45) DPL0 load(1, XDATA, add(CFA_XSP16, literal(-2)))
          CFI (cfiCond45) DPH0 load(1, XDATA, add(CFA_XSP16, literal(-1)))
          CFI (cfiCond45) CFA_SP SP+-4
          CFI (cfiCond45) CFA_XSP16 add(XSP16, 12)
          CFI Block cfiPicker46 Using cfiCommon1
          CFI (cfiPicker46) NoFunction
          CFI (cfiPicker46) Picker
        MOV       DPTR,#ZDP_TmpBuf
          CFI EndBlock cfiCond33
          CFI EndBlock cfiCond34
          CFI EndBlock cfiCond35
          CFI EndBlock cfiCond36
          CFI EndBlock cfiCond37
          CFI EndBlock cfiCond38
          CFI EndBlock cfiCond39
          CFI EndBlock cfiCond40
          CFI EndBlock cfiCond41
          CFI EndBlock cfiCond42
          CFI EndBlock cfiCond43
          CFI EndBlock cfiCond44
          CFI EndBlock cfiCond45
          CFI EndBlock cfiPicker46
        REQUIRE ??Subroutine112_0
        ; // Fall through to label ??Subroutine112_0

        RSEG BANKED_CODE:HUGECODE:NOROOT(0)
??Subroutine112_0:
          CFI Block cfiCond47 Using cfiCommon0
          CFI Function ZDP_EPRsp
          CFI Conditional ??CrossCallReturnLabel_299, ??CrossCallReturnLabel_136, ??CrossCallReturnLabel_14
          CFI R6 load(1, XDATA, add(CFA_XSP16, literal(-15)))
          CFI VB load(1, XDATA, add(CFA_XSP16, literal(-14)))
          CFI V0 load(1, XDATA, add(CFA_XSP16, literal(-13)))
          CFI V1 load(1, XDATA, add(CFA_XSP16, literal(-12)))
          CFI V2 load(1, XDATA, add(CFA_XSP16, literal(-11)))
          CFI V3 load(1, XDATA, add(CFA_XSP16, literal(-10)))
          CFI V4 load(1, XDATA, add(CFA_XSP16, literal(-9)))
          CFI V5 load(1, XDATA, add(CFA_XSP16, literal(-8)))
          CFI V6 load(1, XDATA, add(CFA_XSP16, literal(-7)))
          CFI R7 load(1, XDATA, add(CFA_XSP16, literal(-6)))
          CFI ?RET_LOW load(1, XDATA, add(CFA_XSP16, literal(-5)))
          CFI ?RET_HIGH load(1, XDATA, add(CFA_XSP16, literal(-4)))
          CFI ?BRET_EXT load(1, XDATA, add(CFA_XSP16, literal(-3)))
          CFI DPL0 load(1, XDATA, add(CFA_XSP16, literal(-2)))
          CFI DPH0 load(1, XDATA, add(CFA_XSP16, literal(-1)))
          CFI CFA_SP SP+-6
          CFI CFA_XSP16 add(XSP16, 16)
          CFI Block cfiCond48 Using cfiCommon0
          CFI (cfiCond48) Function ZDP_EndDeviceBindReq
          CFI (cfiCond48) Conditional ??CrossCallReturnLabel_299, ??CrossCallReturnLabel_136, ??CrossCallReturnLabel_15
          CFI (cfiCond48) R6 load(1, XDATA, add(CFA_XSP16, literal(-18)))
          CFI (cfiCond48) VB load(1, XDATA, add(CFA_XSP16, literal(-17)))
          CFI (cfiCond48) V0 load(1, XDATA, add(CFA_XSP16, literal(-16)))
          CFI (cfiCond48) V1 load(1, XDATA, add(CFA_XSP16, literal(-15)))
          CFI (cfiCond48) V2 load(1, XDATA, add(CFA_XSP16, literal(-14)))
          CFI (cfiCond48) V3 load(1, XDATA, add(CFA_XSP16, literal(-13)))
          CFI (cfiCond48) V4 load(1, XDATA, add(CFA_XSP16, literal(-12)))
          CFI (cfiCond48) V5 load(1, XDATA, add(CFA_XSP16, literal(-11)))
          CFI (cfiCond48) V6 load(1, XDATA, add(CFA_XSP16, literal(-10)))
          CFI (cfiCond48) V7 load(1, XDATA, add(CFA_XSP16, literal(-9)))
          CFI (cfiCond48) V8 load(1, XDATA, add(CFA_XSP16, literal(-8)))
          CFI (cfiCond48) V9 load(1, XDATA, add(CFA_XSP16, literal(-7)))
          CFI (cfiCond48) R7 load(1, XDATA, add(CFA_XSP16, literal(-6)))
          CFI (cfiCond48) ?RET_LOW load(1, XDATA, add(CFA_XSP16, literal(-5)))
          CFI (cfiCond48) ?RET_HIGH load(1, XDATA, add(CFA_XSP16, literal(-4)))
          CFI (cfiCond48) ?BRET_EXT load(1, XDATA, add(CFA_XSP16, literal(-3)))
          CFI (cfiCond48) DPL0 load(1, XDATA, add(CFA_XSP16, literal(-2)))
          CFI (cfiCond48) DPH0 load(1, XDATA, add(CFA_XSP16, literal(-1)))
          CFI (cfiCond48) CFA_SP SP+-6
          CFI (cfiCond48) CFA_XSP16 add(XSP16, 18)
          CFI Block cfiCond49 Using cfiCommon0
          CFI (cfiCond49) Function ZDP_BindUnbindReq
          CFI (cfiCond49) Conditional ??CrossCallReturnLabel_299, ??CrossCallReturnLabel_136, ??CrossCallReturnLabel_16
          CFI (cfiCond49) R6 load(1, XDATA, add(CFA_XSP16, literal(-16)))
          CFI (cfiCond49) VB load(1, XDATA, add(CFA_XSP16, literal(-15)))
          CFI (cfiCond49) V0 load(1, XDATA, add(CFA_XSP16, literal(-14)))
          CFI (cfiCond49) V1 load(1, XDATA, add(CFA_XSP16, literal(-13)))
          CFI (cfiCond49) V2 load(1, XDATA, add(CFA_XSP16, literal(-12)))
          CFI (cfiCond49) V3 load(1, XDATA, add(CFA_XSP16, literal(-11)))
          CFI (cfiCond49) V4 load(1, XDATA, add(CFA_XSP16, literal(-10)))
          CFI (cfiCond49) V5 load(1, XDATA, add(CFA_XSP16, literal(-9)))
          CFI (cfiCond49) V6 load(1, XDATA, add(CFA_XSP16, literal(-8)))
          CFI (cfiCond49) V7 load(1, XDATA, add(CFA_XSP16, literal(-7)))
          CFI (cfiCond49) R7 load(1, XDATA, add(CFA_XSP16, literal(-6)))
          CFI (cfiCond49) ?RET_LOW load(1, XDATA, add(CFA_XSP16, literal(-5)))
          CFI (cfiCond49) ?RET_HIGH load(1, XDATA, add(CFA_XSP16, literal(-4)))
          CFI (cfiCond49) ?BRET_EXT load(1, XDATA, add(CFA_XSP16, literal(-3)))
          CFI (cfiCond49) DPL0 load(1, XDATA, add(CFA_XSP16, literal(-2)))
          CFI (cfiCond49) DPH0 load(1, XDATA, add(CFA_XSP16, literal(-1)))
          CFI (cfiCond49) CFA_SP SP+-6
          CFI (cfiCond49) CFA_XSP16 add(XSP16, 16)
          CFI Block cfiCond50 Using cfiCommon0
          CFI (cfiCond50) Function ZDP_MgmtNwkUpdateReq
          CFI (cfiCond50) Conditional ??CrossCallReturnLabel_299, ??CrossCallReturnLabel_137, ??CrossCallReturnLabel_40
          CFI (cfiCond50) R6 load(1, XDATA, add(CFA_XSP16, literal(-14)))
          CFI (cfiCond50) VB load(1, XDATA, add(CFA_XSP16, literal(-13)))
          CFI (cfiCond50) V0 load(1, XDATA, add(CFA_XSP16, literal(-12)))
          CFI (cfiCond50) V1 load(1, XDATA, add(CFA_XSP16, literal(-11)))
          CFI (cfiCond50) V2 load(1, XDATA, add(CFA_XSP16, literal(-10)))
          CFI (cfiCond50) V3 load(1, XDATA, add(CFA_XSP16, literal(-9)))
          CFI (cfiCond50) V4 load(1, XDATA, add(CFA_XSP16, literal(-8)))
          CFI (cfiCond50) V5 load(1, XDATA, add(CFA_XSP16, literal(-7)))
          CFI (cfiCond50) R7 load(1, XDATA, add(CFA_XSP16, literal(-6)))
          CFI (cfiCond50) ?RET_LOW load(1, XDATA, add(CFA_XSP16, literal(-5)))
          CFI (cfiCond50) ?RET_HIGH load(1, XDATA, add(CFA_XSP16, literal(-4)))
          CFI (cfiCond50) ?BRET_EXT load(1, XDATA, add(CFA_XSP16, literal(-3)))
          CFI (cfiCond50) DPL0 load(1, XDATA, add(CFA_XSP16, literal(-2)))
          CFI (cfiCond50) DPH0 load(1, XDATA, add(CFA_XSP16, literal(-1)))
          CFI (cfiCond50) CFA_SP SP+-6
          CFI (cfiCond50) CFA_XSP16 add(XSP16, 14)
          CFI Block cfiCond51 Using cfiCommon0
          CFI (cfiCond51) Function ZDP_MgmtNwkUpdateNotify
          CFI (cfiCond51) Conditional ??CrossCallReturnLabel_299, ??CrossCallReturnLabel_137, ??CrossCallReturnLabel_41
          CFI (cfiCond51) R6 load(1, XDATA, add(CFA_XSP16, literal(-18)))
          CFI (cfiCond51) VB load(1, XDATA, add(CFA_XSP16, literal(-17)))
          CFI (cfiCond51) V0 load(1, XDATA, add(CFA_XSP16, literal(-16)))
          CFI (cfiCond51) V1 load(1, XDATA, add(CFA_XSP16, literal(-15)))
          CFI (cfiCond51) V2 load(1, XDATA, add(CFA_XSP16, literal(-14)))
          CFI (cfiCond51) V3 load(1, XDATA, add(CFA_XSP16, literal(-13)))
          CFI (cfiCond51) V4 load(1, XDATA, add(CFA_XSP16, literal(-12)))
          CFI (cfiCond51) V5 load(1, XDATA, add(CFA_XSP16, literal(-11)))
          CFI (cfiCond51) V6 load(1, XDATA, add(CFA_XSP16, literal(-10)))
          CFI (cfiCond51) V7 load(1, XDATA, add(CFA_XSP16, literal(-9)))
          CFI (cfiCond51) V8 load(1, XDATA, add(CFA_XSP16, literal(-8)))
          CFI (cfiCond51) V9 load(1, XDATA, add(CFA_XSP16, literal(-7)))
          CFI (cfiCond51) R7 load(1, XDATA, add(CFA_XSP16, literal(-6)))
          CFI (cfiCond51) ?RET_LOW load(1, XDATA, add(CFA_XSP16, literal(-5)))
          CFI (cfiCond51) ?RET_HIGH load(1, XDATA, add(CFA_XSP16, literal(-4)))
          CFI (cfiCond51) ?BRET_EXT load(1, XDATA, add(CFA_XSP16, literal(-3)))
          CFI (cfiCond51) DPL0 load(1, XDATA, add(CFA_XSP16, literal(-2)))
          CFI (cfiCond51) DPH0 load(1, XDATA, add(CFA_XSP16, literal(-1)))
          CFI (cfiCond51) CFA_SP SP+-6
          CFI (cfiCond51) CFA_XSP16 add(XSP16, 19)
          CFI Block cfiCond52 Using cfiCommon0
          CFI (cfiCond52) Function ZDO_RegisterForZDOMsg
          CFI (cfiCond52) Conditional ??CrossCallReturnLabel_298
          CFI (cfiCond52) R6 load(1, XDATA, add(CFA_XSP16, literal(-14)))
          CFI (cfiCond52) VB load(1, XDATA, add(CFA_XSP16, literal(-13)))
          CFI (cfiCond52) V0 load(1, XDATA, add(CFA_XSP16, literal(-12)))
          CFI (cfiCond52) V1 load(1, XDATA, add(CFA_XSP16, literal(-11)))
          CFI (cfiCond52) V2 load(1, XDATA, add(CFA_XSP16, literal(-10)))
          CFI (cfiCond52) V3 load(1, XDATA, add(CFA_XSP16, literal(-9)))
          CFI (cfiCond52) V4 load(1, XDATA, add(CFA_XSP16, literal(-8)))
          CFI (cfiCond52) V5 load(1, XDATA, add(CFA_XSP16, literal(-7)))
          CFI (cfiCond52) R7 load(1, XDATA, add(CFA_XSP16, literal(-6)))
          CFI (cfiCond52) ?RET_LOW load(1, XDATA, add(CFA_XSP16, literal(-5)))
          CFI (cfiCond52) ?RET_HIGH load(1, XDATA, add(CFA_XSP16, literal(-4)))
          CFI (cfiCond52) ?BRET_EXT load(1, XDATA, add(CFA_XSP16, literal(-3)))
          CFI (cfiCond52) DPL0 load(1, XDATA, add(CFA_XSP16, literal(-2)))
          CFI (cfiCond52) DPH0 load(1, XDATA, add(CFA_XSP16, literal(-1)))
          CFI (cfiCond52) CFA_SP SP+-2
          CFI (cfiCond52) CFA_XSP16 add(XSP16, 14)
          CFI Block cfiCond53 Using cfiCommon0
          CFI (cfiCond53) Function fillAndSend
          CFI (cfiCond53) Conditional ??CrossCallReturnLabel_303, ??CrossCallReturnLabel_293, ??CrossCallReturnLabel_74
          CFI (cfiCond53) R6 load(1, XDATA, add(CFA_XSP16, literal(-14)))
          CFI (cfiCond53) VB load(1, XDATA, add(CFA_XSP16, literal(-13)))
          CFI (cfiCond53) V0 load(1, XDATA, add(CFA_XSP16, literal(-12)))
          CFI (cfiCond53) V1 load(1, XDATA, add(CFA_XSP16, literal(-11)))
          CFI (cfiCond53) V2 load(1, XDATA, add(CFA_XSP16, literal(-10)))
          CFI (cfiCond53) V3 load(1, XDATA, add(CFA_XSP16, literal(-9)))
          CFI (cfiCond53) V4 load(1, XDATA, add(CFA_XSP16, literal(-8)))
          CFI (cfiCond53) V5 load(1, XDATA, add(CFA_XSP16, literal(-7)))
          CFI (cfiCond53) R7 load(1, XDATA, add(CFA_XSP16, literal(-6)))
          CFI (cfiCond53) ?RET_LOW load(1, XDATA, add(CFA_XSP16, literal(-5)))
          CFI (cfiCond53) ?RET_HIGH load(1, XDATA, add(CFA_XSP16, literal(-4)))
          CFI (cfiCond53) ?BRET_EXT load(1, XDATA, add(CFA_XSP16, literal(-3)))
          CFI (cfiCond53) DPL0 load(1, XDATA, add(CFA_XSP16, literal(-2)))
          CFI (cfiCond53) DPH0 load(1, XDATA, add(CFA_XSP16, literal(-1)))
          CFI (cfiCond53) CFA_SP SP+-6
          CFI (cfiCond53) CFA_XSP16 add(XSP16, 26)
          CFI Block cfiCond54 Using cfiCommon0
          CFI (cfiCond54) Function ZDP_NwkAddrReq
          CFI (cfiCond54) Conditional ??CrossCallReturnLabel_303, ??CrossCallReturnLabel_293, ??CrossCallReturnLabel_75
          CFI (cfiCond54) R6 load(1, XDATA, add(CFA_XSP16, literal(-12)))
          CFI (cfiCond54) VB load(1, XDATA, add(CFA_XSP16, literal(-11)))
          CFI (cfiCond54) V0 load(1, XDATA, add(CFA_XSP16, literal(-10)))
          CFI (cfiCond54) V1 load(1, XDATA, add(CFA_XSP16, literal(-9)))
          CFI (cfiCond54) V2 load(1, XDATA, add(CFA_XSP16, literal(-8)))
          CFI (cfiCond54) V3 load(1, XDATA, add(CFA_XSP16, literal(-7)))
          CFI (cfiCond54) R7 load(1, XDATA, add(CFA_XSP16, literal(-6)))
          CFI (cfiCond54) ?RET_LOW load(1, XDATA, add(CFA_XSP16, literal(-5)))
          CFI (cfiCond54) ?RET_HIGH load(1, XDATA, add(CFA_XSP16, literal(-4)))
          CFI (cfiCond54) ?BRET_EXT load(1, XDATA, add(CFA_XSP16, literal(-3)))
          CFI (cfiCond54) DPL0 load(1, XDATA, add(CFA_XSP16, literal(-2)))
          CFI (cfiCond54) DPH0 load(1, XDATA, add(CFA_XSP16, literal(-1)))
          CFI (cfiCond54) CFA_SP SP+-6
          CFI (cfiCond54) CFA_XSP16 add(XSP16, 21)
          CFI Block cfiCond55 Using cfiCommon0
          CFI (cfiCond55) Function zdpProcessAddrReq
          CFI (cfiCond55) Conditional ??CrossCallReturnLabel_303, ??CrossCallReturnLabel_295, ??CrossCallReturnLabel_189
          CFI (cfiCond55) R6 load(1, XDATA, add(CFA_XSP16, literal(-18)))
          CFI (cfiCond55) VB load(1, XDATA, add(CFA_XSP16, literal(-17)))
          CFI (cfiCond55) V0 load(1, XDATA, add(CFA_XSP16, literal(-16)))
          CFI (cfiCond55) V1 load(1, XDATA, add(CFA_XSP16, literal(-15)))
          CFI (cfiCond55) V2 load(1, XDATA, add(CFA_XSP16, literal(-14)))
          CFI (cfiCond55) V3 load(1, XDATA, add(CFA_XSP16, literal(-13)))
          CFI (cfiCond55) V4 load(1, XDATA, add(CFA_XSP16, literal(-12)))
          CFI (cfiCond55) V5 load(1, XDATA, add(CFA_XSP16, literal(-11)))
          CFI (cfiCond55) V6 load(1, XDATA, add(CFA_XSP16, literal(-10)))
          CFI (cfiCond55) V7 load(1, XDATA, add(CFA_XSP16, literal(-9)))
          CFI (cfiCond55) V8 load(1, XDATA, add(CFA_XSP16, literal(-8)))
          CFI (cfiCond55) V9 load(1, XDATA, add(CFA_XSP16, literal(-7)))
          CFI (cfiCond55) R7 load(1, XDATA, add(CFA_XSP16, literal(-6)))
          CFI (cfiCond55) ?RET_LOW load(1, XDATA, add(CFA_XSP16, literal(-5)))
          CFI (cfiCond55) ?RET_HIGH load(1, XDATA, add(CFA_XSP16, literal(-4)))
          CFI (cfiCond55) ?BRET_EXT load(1, XDATA, add(CFA_XSP16, literal(-3)))
          CFI (cfiCond55) DPL0 load(1, XDATA, add(CFA_XSP16, literal(-2)))
          CFI (cfiCond55) DPH0 load(1, XDATA, add(CFA_XSP16, literal(-1)))
          CFI (cfiCond55) CFA_SP SP+-6
          CFI (cfiCond55) CFA_XSP16 add(XSP16, 32)
          CFI Block cfiCond56 Using cfiCommon0
          CFI (cfiCond56) Function zdpProcessAddrReq
          CFI (cfiCond56) Conditional ??CrossCallReturnLabel_303, ??CrossCallReturnLabel_295, ??CrossCallReturnLabel_190
          CFI (cfiCond56) R6 load(1, XDATA, add(CFA_XSP16, literal(-18)))
          CFI (cfiCond56) VB load(1, XDATA, add(CFA_XSP16, literal(-17)))
          CFI (cfiCond56) V0 load(1, XDATA, add(CFA_XSP16, literal(-16)))
          CFI (cfiCond56) V1 load(1, XDATA, add(CFA_XSP16, literal(-15)))
          CFI (cfiCond56) V2 load(1, XDATA, add(CFA_XSP16, literal(-14)))
          CFI (cfiCond56) V3 load(1, XDATA, add(CFA_XSP16, literal(-13)))
          CFI (cfiCond56) V4 load(1, XDATA, add(CFA_XSP16, literal(-12)))
          CFI (cfiCond56) V5 load(1, XDATA, add(CFA_XSP16, literal(-11)))
          CFI (cfiCond56) V6 load(1, XDATA, add(CFA_XSP16, literal(-10)))
          CFI (cfiCond56) V7 load(1, XDATA, add(CFA_XSP16, literal(-9)))
          CFI (cfiCond56) V8 load(1, XDATA, add(CFA_XSP16, literal(-8)))
          CFI (cfiCond56) V9 load(1, XDATA, add(CFA_XSP16, literal(-7)))
          CFI (cfiCond56) R7 load(1, XDATA, add(CFA_XSP16, literal(-6)))
          CFI (cfiCond56) ?RET_LOW load(1, XDATA, add(CFA_XSP16, literal(-5)))
          CFI (cfiCond56) ?RET_HIGH load(1, XDATA, add(CFA_XSP16, literal(-4)))
          CFI (cfiCond56) ?BRET_EXT load(1, XDATA, add(CFA_XSP16, literal(-3)))
          CFI (cfiCond56) DPL0 load(1, XDATA, add(CFA_XSP16, literal(-2)))
          CFI (cfiCond56) DPH0 load(1, XDATA, add(CFA_XSP16, literal(-1)))
          CFI (cfiCond56) CFA_SP SP+-6
          CFI (cfiCond56) CFA_XSP16 add(XSP16, 32)
          CFI Block cfiCond57 Using cfiCommon0
          CFI (cfiCond57) Function ZDO_RemoveRegisteredCB
          CFI (cfiCond57) Conditional ??CrossCallReturnLabel_303, ??CrossCallReturnLabel_295, ??CrossCallReturnLabel_188
          CFI (cfiCond57) R6 load(1, XDATA, add(CFA_XSP16, literal(-9)))
          CFI (cfiCond57) VB load(1, XDATA, add(CFA_XSP16, literal(-8)))
          CFI (cfiCond57) V0 load(1, XDATA, add(CFA_XSP16, literal(-7)))
          CFI (cfiCond57) R7 load(1, XDATA, add(CFA_XSP16, literal(-6)))
          CFI (cfiCond57) ?RET_LOW load(1, XDATA, add(CFA_XSP16, literal(-5)))
          CFI (cfiCond57) ?RET_HIGH load(1, XDATA, add(CFA_XSP16, literal(-4)))
          CFI (cfiCond57) ?BRET_EXT load(1, XDATA, add(CFA_XSP16, literal(-3)))
          CFI (cfiCond57) DPL0 load(1, XDATA, add(CFA_XSP16, literal(-2)))
          CFI (cfiCond57) DPH0 load(1, XDATA, add(CFA_XSP16, literal(-1)))
          CFI (cfiCond57) CFA_SP SP+-6
          CFI (cfiCond57) CFA_XSP16 add(XSP16, 9)
          CFI Block cfiCond58 Using cfiCommon0
          CFI (cfiCond58) Function ZDP_UserDescSet
          CFI (cfiCond58) Conditional ??CrossCallReturnLabel_303, ??CrossCallReturnLabel_292, ??CrossCallReturnLabel_60
          CFI (cfiCond58) R6 load(1, XDATA, add(CFA_XSP16, literal(-15)))
          CFI (cfiCond58) VB load(1, XDATA, add(CFA_XSP16, literal(-14)))
          CFI (cfiCond58) V0 load(1, XDATA, add(CFA_XSP16, literal(-13)))
          CFI (cfiCond58) V1 load(1, XDATA, add(CFA_XSP16, literal(-12)))
          CFI (cfiCond58) V2 load(1, XDATA, add(CFA_XSP16, literal(-11)))
          CFI (cfiCond58) V3 load(1, XDATA, add(CFA_XSP16, literal(-10)))
          CFI (cfiCond58) V4 load(1, XDATA, add(CFA_XSP16, literal(-9)))
          CFI (cfiCond58) V5 load(1, XDATA, add(CFA_XSP16, literal(-8)))
          CFI (cfiCond58) V6 load(1, XDATA, add(CFA_XSP16, literal(-7)))
          CFI (cfiCond58) R7 load(1, XDATA, add(CFA_XSP16, literal(-6)))
          CFI (cfiCond58) ?RET_LOW load(1, XDATA, add(CFA_XSP16, literal(-5)))
          CFI (cfiCond58) ?RET_HIGH load(1, XDATA, add(CFA_XSP16, literal(-4)))
          CFI (cfiCond58) ?BRET_EXT load(1, XDATA, add(CFA_XSP16, literal(-3)))
          CFI (cfiCond58) DPL0 load(1, XDATA, add(CFA_XSP16, literal(-2)))
          CFI (cfiCond58) DPH0 load(1, XDATA, add(CFA_XSP16, literal(-1)))
          CFI (cfiCond58) CFA_SP SP+-6
          CFI (cfiCond58) CFA_XSP16 add(XSP16, 15)
          CFI Block cfiCond59 Using cfiCommon0
          CFI (cfiCond59) Function zdpProcessAddrReq
          CFI (cfiCond59) Conditional ??CrossCallReturnLabel_303, ??CrossCallReturnLabel_292, ??CrossCallReturnLabel_63
          CFI (cfiCond59) R6 load(1, XDATA, add(CFA_XSP16, literal(-18)))
          CFI (cfiCond59) VB load(1, XDATA, add(CFA_XSP16, literal(-17)))
          CFI (cfiCond59) V0 load(1, XDATA, add(CFA_XSP16, literal(-16)))
          CFI (cfiCond59) V1 load(1, XDATA, add(CFA_XSP16, literal(-15)))
          CFI (cfiCond59) V2 load(1, XDATA, add(CFA_XSP16, literal(-14)))
          CFI (cfiCond59) V3 load(1, XDATA, add(CFA_XSP16, literal(-13)))
          CFI (cfiCond59) V4 load(1, XDATA, add(CFA_XSP16, literal(-12)))
          CFI (cfiCond59) V5 load(1, XDATA, add(CFA_XSP16, literal(-11)))
          CFI (cfiCond59) V6 load(1, XDATA, add(CFA_XSP16, literal(-10)))
          CFI (cfiCond59) V7 load(1, XDATA, add(CFA_XSP16, literal(-9)))
          CFI (cfiCond59) V8 load(1, XDATA, add(CFA_XSP16, literal(-8)))
          CFI (cfiCond59) V9 load(1, XDATA, add(CFA_XSP16, literal(-7)))
          CFI (cfiCond59) R7 load(1, XDATA, add(CFA_XSP16, literal(-6)))
          CFI (cfiCond59) ?RET_LOW load(1, XDATA, add(CFA_XSP16, literal(-5)))
          CFI (cfiCond59) ?RET_HIGH load(1, XDATA, add(CFA_XSP16, literal(-4)))
          CFI (cfiCond59) ?BRET_EXT load(1, XDATA, add(CFA_XSP16, literal(-3)))
          CFI (cfiCond59) DPL0 load(1, XDATA, add(CFA_XSP16, literal(-2)))
          CFI (cfiCond59) DPH0 load(1, XDATA, add(CFA_XSP16, literal(-1)))
          CFI (cfiCond59) CFA_SP SP+-6
          CFI (cfiCond59) CFA_XSP16 add(XSP16, 32)
          CFI Block cfiCond60 Using cfiCommon0
          CFI (cfiCond60) Function ZDP_NodeDescMsg
          CFI (cfiCond60) Conditional ??CrossCallReturnLabel_303, ??CrossCallReturnLabel_292, ??CrossCallReturnLabel_61
          CFI (cfiCond60) R6 load(1, XDATA, add(CFA_XSP16, literal(-10)))
          CFI (cfiCond60) VB load(1, XDATA, add(CFA_XSP16, literal(-9)))
          CFI (cfiCond60) V0 load(1, XDATA, add(CFA_XSP16, literal(-8)))
          CFI (cfiCond60) V1 load(1, XDATA, add(CFA_XSP16, literal(-7)))
          CFI (cfiCond60) R7 load(1, XDATA, add(CFA_XSP16, literal(-6)))
          CFI (cfiCond60) ?RET_LOW load(1, XDATA, add(CFA_XSP16, literal(-5)))
          CFI (cfiCond60) ?RET_HIGH load(1, XDATA, add(CFA_XSP16, literal(-4)))
          CFI (cfiCond60) ?BRET_EXT load(1, XDATA, add(CFA_XSP16, literal(-3)))
          CFI (cfiCond60) DPL0 load(1, XDATA, add(CFA_XSP16, literal(-2)))
          CFI (cfiCond60) DPH0 load(1, XDATA, add(CFA_XSP16, literal(-1)))
          CFI (cfiCond60) CFA_SP SP+-6
          CFI (cfiCond60) CFA_XSP16 add(XSP16, 10)
          CFI Block cfiCond61 Using cfiCommon0
          CFI (cfiCond61) Function ZDP_PowerDescMsg
          CFI (cfiCond61) Conditional ??CrossCallReturnLabel_303, ??CrossCallReturnLabel_292, ??CrossCallReturnLabel_62
          CFI (cfiCond61) R6 load(1, XDATA, add(CFA_XSP16, literal(-10)))
          CFI (cfiCond61) VB load(1, XDATA, add(CFA_XSP16, literal(-9)))
          CFI (cfiCond61) V0 load(1, XDATA, add(CFA_XSP16, literal(-8)))
          CFI (cfiCond61) V1 load(1, XDATA, add(CFA_XSP16, literal(-7)))
          CFI (cfiCond61) R7 load(1, XDATA, add(CFA_XSP16, literal(-6)))
          CFI (cfiCond61) ?RET_LOW load(1, XDATA, add(CFA_XSP16, literal(-5)))
          CFI (cfiCond61) ?RET_HIGH load(1, XDATA, add(CFA_XSP16, literal(-4)))
          CFI (cfiCond61) ?BRET_EXT load(1, XDATA, add(CFA_XSP16, literal(-3)))
          CFI (cfiCond61) DPL0 load(1, XDATA, add(CFA_XSP16, literal(-2)))
          CFI (cfiCond61) DPH0 load(1, XDATA, add(CFA_XSP16, literal(-1)))
          CFI (cfiCond61) CFA_SP SP+-6
          CFI (cfiCond61) CFA_XSP16 add(XSP16, 10)
          CFI Block cfiCond62 Using cfiCommon0
          CFI (cfiCond62) Function ZDP_PowerDescMsg
          CFI (cfiCond62) Conditional ??CrossCallReturnLabel_303, ??CrossCallReturnLabel_296, ??CrossCallReturnLabel_206
          CFI (cfiCond62) R6 load(1, XDATA, add(CFA_XSP16, literal(-10)))
          CFI (cfiCond62) VB load(1, XDATA, add(CFA_XSP16, literal(-9)))
          CFI (cfiCond62) V0 load(1, XDATA, add(CFA_XSP16, literal(-8)))
          CFI (cfiCond62) V1 load(1, XDATA, add(CFA_XSP16, literal(-7)))
          CFI (cfiCond62) R7 load(1, XDATA, add(CFA_XSP16, literal(-6)))
          CFI (cfiCond62) ?RET_LOW load(1, XDATA, add(CFA_XSP16, literal(-5)))
          CFI (cfiCond62) ?RET_HIGH load(1, XDATA, add(CFA_XSP16, literal(-4)))
          CFI (cfiCond62) ?BRET_EXT load(1, XDATA, add(CFA_XSP16, literal(-3)))
          CFI (cfiCond62) DPL0 load(1, XDATA, add(CFA_XSP16, literal(-2)))
          CFI (cfiCond62) DPH0 load(1, XDATA, add(CFA_XSP16, literal(-1)))
          CFI (cfiCond62) CFA_SP SP+-6
          CFI (cfiCond62) CFA_XSP16 add(XSP16, 10)
          CFI Block cfiCond63 Using cfiCommon0
          CFI (cfiCond63) Function ZDP_EPRsp
          CFI (cfiCond63) Conditional ??CrossCallReturnLabel_303, ??CrossCallReturnLabel_296, ??CrossCallReturnLabel_207
          CFI (cfiCond63) R6 load(1, XDATA, add(CFA_XSP16, literal(-15)))
          CFI (cfiCond63) VB load(1, XDATA, add(CFA_XSP16, literal(-14)))
          CFI (cfiCond63) V0 load(1, XDATA, add(CFA_XSP16, literal(-13)))
          CFI (cfiCond63) V1 load(1, XDATA, add(CFA_XSP16, literal(-12)))
          CFI (cfiCond63) V2 load(1, XDATA, add(CFA_XSP16, literal(-11)))
          CFI (cfiCond63) V3 load(1, XDATA, add(CFA_XSP16, literal(-10)))
          CFI (cfiCond63) V4 load(1, XDATA, add(CFA_XSP16, literal(-9)))
          CFI (cfiCond63) V5 load(1, XDATA, add(CFA_XSP16, literal(-8)))
          CFI (cfiCond63) V6 load(1, XDATA, add(CFA_XSP16, literal(-7)))
          CFI (cfiCond63) R7 load(1, XDATA, add(CFA_XSP16, literal(-6)))
          CFI (cfiCond63) ?RET_LOW load(1, XDATA, add(CFA_XSP16, literal(-5)))
          CFI (cfiCond63) ?RET_HIGH load(1, XDATA, add(CFA_XSP16, literal(-4)))
          CFI (cfiCond63) ?BRET_EXT load(1, XDATA, add(CFA_XSP16, literal(-3)))
          CFI (cfiCond63) DPL0 load(1, XDATA, add(CFA_XSP16, literal(-2)))
          CFI (cfiCond63) DPH0 load(1, XDATA, add(CFA_XSP16, literal(-1)))
          CFI (cfiCond63) CFA_SP SP+-6
          CFI (cfiCond63) CFA_XSP16 add(XSP16, 16)
          CFI Block cfiCond64 Using cfiCommon0
          CFI (cfiCond64) Function ZDP_ServerDiscRsp
          CFI (cfiCond64) Conditional ??CrossCallReturnLabel_303, ??CrossCallReturnLabel_296, ??CrossCallReturnLabel_208
          CFI (cfiCond64) R6 load(1, XDATA, add(CFA_XSP16, literal(-10)))
          CFI (cfiCond64) VB load(1, XDATA, add(CFA_XSP16, literal(-9)))
          CFI (cfiCond64) V0 load(1, XDATA, add(CFA_XSP16, literal(-8)))
          CFI (cfiCond64) V1 load(1, XDATA, add(CFA_XSP16, literal(-7)))
          CFI (cfiCond64) R7 load(1, XDATA, add(CFA_XSP16, literal(-6)))
          CFI (cfiCond64) ?RET_LOW load(1, XDATA, add(CFA_XSP16, literal(-5)))
          CFI (cfiCond64) ?RET_HIGH load(1, XDATA, add(CFA_XSP16, literal(-4)))
          CFI (cfiCond64) ?BRET_EXT load(1, XDATA, add(CFA_XSP16, literal(-3)))
          CFI (cfiCond64) DPL0 load(1, XDATA, add(CFA_XSP16, literal(-2)))
          CFI (cfiCond64) DPH0 load(1, XDATA, add(CFA_XSP16, literal(-1)))
          CFI (cfiCond64) CFA_SP SP+-6
          CFI (cfiCond64) CFA_XSP16 add(XSP16, 11)
          CFI Block cfiCond65 Using cfiCommon0
          CFI (cfiCond65) Function ZDP_ServerDiscRsp
          CFI (cfiCond65) Conditional ??CrossCallReturnLabel_303, ??CrossCallReturnLabel_296, ??CrossCallReturnLabel_204
          CFI (cfiCond65) R6 load(1, XDATA, add(CFA_XSP16, literal(-10)))
          CFI (cfiCond65) VB load(1, XDATA, add(CFA_XSP16, literal(-9)))
          CFI (cfiCond65) V0 load(1, XDATA, add(CFA_XSP16, literal(-8)))
          CFI (cfiCond65) V1 load(1, XDATA, add(CFA_XSP16, literal(-7)))
          CFI (cfiCond65) R7 load(1, XDATA, add(CFA_XSP16, literal(-6)))
          CFI (cfiCond65) ?RET_LOW load(1, XDATA, add(CFA_XSP16, literal(-5)))
          CFI (cfiCond65) ?RET_HIGH load(1, XDATA, add(CFA_XSP16, literal(-4)))
          CFI (cfiCond65) ?BRET_EXT load(1, XDATA, add(CFA_XSP16, literal(-3)))
          CFI (cfiCond65) DPL0 load(1, XDATA, add(CFA_XSP16, literal(-2)))
          CFI (cfiCond65) DPH0 load(1, XDATA, add(CFA_XSP16, literal(-1)))
          CFI (cfiCond65) CFA_SP SP+-6
          CFI (cfiCond65) CFA_XSP16 add(XSP16, 11)
          CFI Block cfiCond66 Using cfiCommon0
          CFI (cfiCond66) Function ZDP_MgmtNwkUpdateNotify
          CFI (cfiCond66) Conditional ??CrossCallReturnLabel_303, ??CrossCallReturnLabel_296, ??CrossCallReturnLabel_205
          CFI (cfiCond66) R6 load(1, XDATA, add(CFA_XSP16, literal(-18)))
          CFI (cfiCond66) VB load(1, XDATA, add(CFA_XSP16, literal(-17)))
          CFI (cfiCond66) V0 load(1, XDATA, add(CFA_XSP16, literal(-16)))
          CFI (cfiCond66) V1 load(1, XDATA, add(CFA_XSP16, literal(-15)))
          CFI (cfiCond66) V2 load(1, XDATA, add(CFA_XSP16, literal(-14)))
          CFI (cfiCond66) V3 load(1, XDATA, add(CFA_XSP16, literal(-13)))
          CFI (cfiCond66) V4 load(1, XDATA, add(CFA_XSP16, literal(-12)))
          CFI (cfiCond66) V5 load(1, XDATA, add(CFA_XSP16, literal(-11)))
          CFI (cfiCond66) V6 load(1, XDATA, add(CFA_XSP16, literal(-10)))
          CFI (cfiCond66) V7 load(1, XDATA, add(CFA_XSP16, literal(-9)))
          CFI (cfiCond66) V8 load(1, XDATA, add(CFA_XSP16, literal(-8)))
          CFI (cfiCond66) V9 load(1, XDATA, add(CFA_XSP16, literal(-7)))
          CFI (cfiCond66) R7 load(1, XDATA, add(CFA_XSP16, literal(-6)))
          CFI (cfiCond66) ?RET_LOW load(1, XDATA, add(CFA_XSP16, literal(-5)))
          CFI (cfiCond66) ?RET_HIGH load(1, XDATA, add(CFA_XSP16, literal(-4)))
          CFI (cfiCond66) ?BRET_EXT load(1, XDATA, add(CFA_XSP16, literal(-3)))
          CFI (cfiCond66) DPL0 load(1, XDATA, add(CFA_XSP16, literal(-2)))
          CFI (cfiCond66) DPH0 load(1, XDATA, add(CFA_XSP16, literal(-1)))
          CFI (cfiCond66) CFA_SP SP+-6
          CFI (cfiCond66) CFA_XSP16 add(XSP16, 19)
          CFI Block cfiCond67 Using cfiCommon0
          CFI (cfiCond67) Function ZDP_UserDescSet
          CFI (cfiCond67) Conditional ??CrossCallReturnLabel_303, ??CrossCallReturnLabel_294, ??CrossCallReturnLabel_89
          CFI (cfiCond67) R6 load(1, XDATA, add(CFA_XSP16, literal(-15)))
          CFI (cfiCond67) VB load(1, XDATA, add(CFA_XSP16, literal(-14)))
          CFI (cfiCond67) V0 load(1, XDATA, add(CFA_XSP16, literal(-13)))
          CFI (cfiCond67) V1 load(1, XDATA, add(CFA_XSP16, literal(-12)))
          CFI (cfiCond67) V2 load(1, XDATA, add(CFA_XSP16, literal(-11)))
          CFI (cfiCond67) V3 load(1, XDATA, add(CFA_XSP16, literal(-10)))
          CFI (cfiCond67) V4 load(1, XDATA, add(CFA_XSP16, literal(-9)))
          CFI (cfiCond67) V5 load(1, XDATA, add(CFA_XSP16, literal(-8)))
          CFI (cfiCond67) V6 load(1, XDATA, add(CFA_XSP16, literal(-7)))
          CFI (cfiCond67) R7 load(1, XDATA, add(CFA_XSP16, literal(-6)))
          CFI (cfiCond67) ?RET_LOW load(1, XDATA, add(CFA_XSP16, literal(-5)))
          CFI (cfiCond67) ?RET_HIGH load(1, XDATA, add(CFA_XSP16, literal(-4)))
          CFI (cfiCond67) ?BRET_EXT load(1, XDATA, add(CFA_XSP16, literal(-3)))
          CFI (cfiCond67) DPL0 load(1, XDATA, add(CFA_XSP16, literal(-2)))
          CFI (cfiCond67) DPH0 load(1, XDATA, add(CFA_XSP16, literal(-1)))
          CFI (cfiCond67) CFA_SP SP+-6
          CFI (cfiCond67) CFA_XSP16 add(XSP16, 15)
          CFI Block cfiCond68 Using cfiCommon0
          CFI (cfiCond68) Function ZDP_UserDescRsp
          CFI (cfiCond68) Conditional ??CrossCallReturnLabel_303, ??CrossCallReturnLabel_294, ??CrossCallReturnLabel_90
          CFI (cfiCond68) R6 load(1, XDATA, add(CFA_XSP16, literal(-18)))
          CFI (cfiCond68) VB load(1, XDATA, add(CFA_XSP16, literal(-17)))
          CFI (cfiCond68) V0 load(1, XDATA, add(CFA_XSP16, literal(-16)))
          CFI (cfiCond68) V1 load(1, XDATA, add(CFA_XSP16, literal(-15)))
          CFI (cfiCond68) V2 load(1, XDATA, add(CFA_XSP16, literal(-14)))
          CFI (cfiCond68) V3 load(1, XDATA, add(CFA_XSP16, literal(-13)))
          CFI (cfiCond68) V4 load(1, XDATA, add(CFA_XSP16, literal(-12)))
          CFI (cfiCond68) V5 load(1, XDATA, add(CFA_XSP16, literal(-11)))
          CFI (cfiCond68) V6 load(1, XDATA, add(CFA_XSP16, literal(-10)))
          CFI (cfiCond68) V7 load(1, XDATA, add(CFA_XSP16, literal(-9)))
          CFI (cfiCond68) V8 load(1, XDATA, add(CFA_XSP16, literal(-8)))
          CFI (cfiCond68) V9 load(1, XDATA, add(CFA_XSP16, literal(-7)))
          CFI (cfiCond68) R7 load(1, XDATA, add(CFA_XSP16, literal(-6)))
          CFI (cfiCond68) ?RET_LOW load(1, XDATA, add(CFA_XSP16, literal(-5)))
          CFI (cfiCond68) ?RET_HIGH load(1, XDATA, add(CFA_XSP16, literal(-4)))
          CFI (cfiCond68) ?BRET_EXT load(1, XDATA, add(CFA_XSP16, literal(-3)))
          CFI (cfiCond68) DPL0 load(1, XDATA, add(CFA_XSP16, literal(-2)))
          CFI (cfiCond68) DPH0 load(1, XDATA, add(CFA_XSP16, literal(-1)))
          CFI (cfiCond68) CFA_SP SP+-6
          CFI (cfiCond68) CFA_XSP16 add(XSP16, 19)
          CFI Block cfiCond69 Using cfiCommon0
          CFI (cfiCond69) Function ZDP_MatchDescReq
          CFI (cfiCond69) Conditional ??CrossCallReturnLabel_303, ??CrossCallReturnLabel_297, ??CrossCallReturnLabel_278
          CFI (cfiCond69) R6 load(1, XDATA, add(CFA_XSP16, literal(-14)))
          CFI (cfiCond69) VB load(1, XDATA, add(CFA_XSP16, literal(-13)))
          CFI (cfiCond69) V0 load(1, XDATA, add(CFA_XSP16, literal(-12)))
          CFI (cfiCond69) V1 load(1, XDATA, add(CFA_XSP16, literal(-11)))
          CFI (cfiCond69) V2 load(1, XDATA, add(CFA_XSP16, literal(-10)))
          CFI (cfiCond69) V3 load(1, XDATA, add(CFA_XSP16, literal(-9)))
          CFI (cfiCond69) V4 load(1, XDATA, add(CFA_XSP16, literal(-8)))
          CFI (cfiCond69) V5 load(1, XDATA, add(CFA_XSP16, literal(-7)))
          CFI (cfiCond69) R7 load(1, XDATA, add(CFA_XSP16, literal(-6)))
          CFI (cfiCond69) ?RET_LOW load(1, XDATA, add(CFA_XSP16, literal(-5)))
          CFI (cfiCond69) ?RET_HIGH load(1, XDATA, add(CFA_XSP16, literal(-4)))
          CFI (cfiCond69) ?BRET_EXT load(1, XDATA, add(CFA_XSP16, literal(-3)))
          CFI (cfiCond69) DPL0 load(1, XDATA, add(CFA_XSP16, literal(-2)))
          CFI (cfiCond69) DPH0 load(1, XDATA, add(CFA_XSP16, literal(-1)))
          CFI (cfiCond69) CFA_SP SP+-6
          CFI (cfiCond69) CFA_XSP16 add(XSP16, 14)
          CFI Block cfiCond70 Using cfiCommon0
          CFI (cfiCond70) Function ZDP_ServerDiscReq
          CFI (cfiCond70) Conditional ??CrossCallReturnLabel_303, ??CrossCallReturnLabel_297, ??CrossCallReturnLabel_279
          CFI (cfiCond70) R6 load(1, XDATA, add(CFA_XSP16, literal(-10)))
          CFI (cfiCond70) VB load(1, XDATA, add(CFA_XSP16, literal(-9)))
          CFI (cfiCond70) V0 load(1, XDATA, add(CFA_XSP16, literal(-8)))
          CFI (cfiCond70) V1 load(1, XDATA, add(CFA_XSP16, literal(-7)))
          CFI (cfiCond70) R7 load(1, XDATA, add(CFA_XSP16, literal(-6)))
          CFI (cfiCond70) ?RET_LOW load(1, XDATA, add(CFA_XSP16, literal(-5)))
          CFI (cfiCond70) ?RET_HIGH load(1, XDATA, add(CFA_XSP16, literal(-4)))
          CFI (cfiCond70) ?BRET_EXT load(1, XDATA, add(CFA_XSP16, literal(-3)))
          CFI (cfiCond70) DPL0 load(1, XDATA, add(CFA_XSP16, literal(-2)))
          CFI (cfiCond70) DPH0 load(1, XDATA, add(CFA_XSP16, literal(-1)))
          CFI (cfiCond70) CFA_SP SP+-6
          CFI (cfiCond70) CFA_XSP16 add(XSP16, 19)
          CFI Block cfiCond71 Using cfiCommon0
          CFI (cfiCond71) Function ZDP_SimpleDescMsg
          CFI (cfiCond71) Conditional ??CrossCallReturnLabel_303, ??CrossCallReturnLabel_297, ??CrossCallReturnLabel_280
          CFI (cfiCond71) R6 load(1, XDATA, add(CFA_XSP16, literal(-16)))
          CFI (cfiCond71) VB load(1, XDATA, add(CFA_XSP16, literal(-15)))
          CFI (cfiCond71) V0 load(1, XDATA, add(CFA_XSP16, literal(-14)))
          CFI (cfiCond71) V1 load(1, XDATA, add(CFA_XSP16, literal(-13)))
          CFI (cfiCond71) V2 load(1, XDATA, add(CFA_XSP16, literal(-12)))
          CFI (cfiCond71) V3 load(1, XDATA, add(CFA_XSP16, literal(-11)))
          CFI (cfiCond71) V4 load(1, XDATA, add(CFA_XSP16, literal(-10)))
          CFI (cfiCond71) V5 load(1, XDATA, add(CFA_XSP16, literal(-9)))
          CFI (cfiCond71) V6 load(1, XDATA, add(CFA_XSP16, literal(-8)))
          CFI (cfiCond71) V7 load(1, XDATA, add(CFA_XSP16, literal(-7)))
          CFI (cfiCond71) R7 load(1, XDATA, add(CFA_XSP16, literal(-6)))
          CFI (cfiCond71) ?RET_LOW load(1, XDATA, add(CFA_XSP16, literal(-5)))
          CFI (cfiCond71) ?RET_HIGH load(1, XDATA, add(CFA_XSP16, literal(-4)))
          CFI (cfiCond71) ?BRET_EXT load(1, XDATA, add(CFA_XSP16, literal(-3)))
          CFI (cfiCond71) DPL0 load(1, XDATA, add(CFA_XSP16, literal(-2)))
          CFI (cfiCond71) DPH0 load(1, XDATA, add(CFA_XSP16, literal(-1)))
          CFI (cfiCond71) CFA_SP SP+-6
          CFI (cfiCond71) CFA_XSP16 add(XSP16, 16)
          CFI Block cfiCond72 Using cfiCommon0
          CFI (cfiCond72) Function ZDP_IEEEAddrReq
          CFI (cfiCond72) Conditional ??CrossCallReturnLabel_303, ??CrossCallReturnLabel_297, ??CrossCallReturnLabel_291
          CFI (cfiCond72) R6 load(1, XDATA, add(CFA_XSP16, literal(-10)))
          CFI (cfiCond72) VB load(1, XDATA, add(CFA_XSP16, literal(-9)))
          CFI (cfiCond72) V0 load(1, XDATA, add(CFA_XSP16, literal(-8)))
          CFI (cfiCond72) V1 load(1, XDATA, add(CFA_XSP16, literal(-7)))
          CFI (cfiCond72) R7 load(1, XDATA, add(CFA_XSP16, literal(-6)))
          CFI (cfiCond72) ?RET_LOW load(1, XDATA, add(CFA_XSP16, literal(-5)))
          CFI (cfiCond72) ?RET_HIGH load(1, XDATA, add(CFA_XSP16, literal(-4)))
          CFI (cfiCond72) ?BRET_EXT load(1, XDATA, add(CFA_XSP16, literal(-3)))
          CFI (cfiCond72) DPL0 load(1, XDATA, add(CFA_XSP16, literal(-2)))
          CFI (cfiCond72) DPH0 load(1, XDATA, add(CFA_XSP16, literal(-1)))
          CFI (cfiCond72) CFA_SP SP+-6
          CFI (cfiCond72) CFA_XSP16 add(XSP16, 19)
          CFI Block cfiCond73 Using cfiCommon0
          CFI (cfiCond73) Function ZDP_SendData
          CFI (cfiCond73) Conditional ??CrossCallReturnLabel_303, ??CrossCallReturnLabel_297, ??CrossCallReturnLabel_281
          CFI (cfiCond73) R6 load(1, XDATA, add(CFA_XSP16, literal(-12)))
          CFI (cfiCond73) VB load(1, XDATA, add(CFA_XSP16, literal(-11)))
          CFI (cfiCond73) V0 load(1, XDATA, add(CFA_XSP16, literal(-10)))
          CFI (cfiCond73) V1 load(1, XDATA, add(CFA_XSP16, literal(-9)))
          CFI (cfiCond73) V2 load(1, XDATA, add(CFA_XSP16, literal(-8)))
          CFI (cfiCond73) V3 load(1, XDATA, add(CFA_XSP16, literal(-7)))
          CFI (cfiCond73) R7 load(1, XDATA, add(CFA_XSP16, literal(-6)))
          CFI (cfiCond73) ?RET_LOW load(1, XDATA, add(CFA_XSP16, literal(-5)))
          CFI (cfiCond73) ?RET_HIGH load(1, XDATA, add(CFA_XSP16, literal(-4)))
          CFI (cfiCond73) ?BRET_EXT load(1, XDATA, add(CFA_XSP16, literal(-3)))
          CFI (cfiCond73) DPL0 load(1, XDATA, add(CFA_XSP16, literal(-2)))
          CFI (cfiCond73) DPH0 load(1, XDATA, add(CFA_XSP16, literal(-1)))
          CFI (cfiCond73) CFA_SP SP+-6
          CFI (cfiCond73) CFA_XSP16 add(XSP16, 12)
          CFI Block cfiCond74 Using cfiCommon0
          CFI (cfiCond74) Function ZDP_UserDescRsp
          CFI (cfiCond74) Conditional ??CrossCallReturnLabel_303, ??CrossCallReturnLabel_297, ??CrossCallReturnLabel_282
          CFI (cfiCond74) R6 load(1, XDATA, add(CFA_XSP16, literal(-18)))
          CFI (cfiCond74) VB load(1, XDATA, add(CFA_XSP16, literal(-17)))
          CFI (cfiCond74) V0 load(1, XDATA, add(CFA_XSP16, literal(-16)))
          CFI (cfiCond74) V1 load(1, XDATA, add(CFA_XSP16, literal(-15)))
          CFI (cfiCond74) V2 load(1, XDATA, add(CFA_XSP16, literal(-14)))
          CFI (cfiCond74) V3 load(1, XDATA, add(CFA_XSP16, literal(-13)))
          CFI (cfiCond74) V4 load(1, XDATA, add(CFA_XSP16, literal(-12)))
          CFI (cfiCond74) V5 load(1, XDATA, add(CFA_XSP16, literal(-11)))
          CFI (cfiCond74) V6 load(1, XDATA, add(CFA_XSP16, literal(-10)))
          CFI (cfiCond74) V7 load(1, XDATA, add(CFA_XSP16, literal(-9)))
          CFI (cfiCond74) V8 load(1, XDATA, add(CFA_XSP16, literal(-8)))
          CFI (cfiCond74) V9 load(1, XDATA, add(CFA_XSP16, literal(-7)))
          CFI (cfiCond74) R7 load(1, XDATA, add(CFA_XSP16, literal(-6)))
          CFI (cfiCond74) ?RET_LOW load(1, XDATA, add(CFA_XSP16, literal(-5)))
          CFI (cfiCond74) ?RET_HIGH load(1, XDATA, add(CFA_XSP16, literal(-4)))
          CFI (cfiCond74) ?BRET_EXT load(1, XDATA, add(CFA_XSP16, literal(-3)))
          CFI (cfiCond74) DPL0 load(1, XDATA, add(CFA_XSP16, literal(-2)))
          CFI (cfiCond74) DPH0 load(1, XDATA, add(CFA_XSP16, literal(-1)))
          CFI (cfiCond74) CFA_SP SP+-6
          CFI (cfiCond74) CFA_XSP16 add(XSP16, 19)
          CFI Block cfiCond75 Using cfiCommon0
          CFI (cfiCond75) Function ZDP_GenericRsp
          CFI (cfiCond75) Conditional ??CrossCallReturnLabel_303, ??CrossCallReturnLabel_297, ??CrossCallReturnLabel_283
          CFI (cfiCond75) R6 load(1, XDATA, add(CFA_XSP16, literal(-9)))
          CFI (cfiCond75) VB load(1, XDATA, add(CFA_XSP16, literal(-8)))
          CFI (cfiCond75) V0 load(1, XDATA, add(CFA_XSP16, literal(-7)))
          CFI (cfiCond75) R7 load(1, XDATA, add(CFA_XSP16, literal(-6)))
          CFI (cfiCond75) ?RET_LOW load(1, XDATA, add(CFA_XSP16, literal(-5)))
          CFI (cfiCond75) ?RET_HIGH load(1, XDATA, add(CFA_XSP16, literal(-4)))
          CFI (cfiCond75) ?BRET_EXT load(1, XDATA, add(CFA_XSP16, literal(-3)))
          CFI (cfiCond75) DPL0 load(1, XDATA, add(CFA_XSP16, literal(-2)))
          CFI (cfiCond75) DPH0 load(1, XDATA, add(CFA_XSP16, literal(-1)))
          CFI (cfiCond75) CFA_SP SP+-6
          CFI (cfiCond75) CFA_XSP16 add(XSP16, 10)
          CFI Block cfiCond76 Using cfiCommon0
          CFI (cfiCond76) Function ZDP_EndDeviceBindReq
          CFI (cfiCond76) Conditional ??CrossCallReturnLabel_303, ??CrossCallReturnLabel_297, ??CrossCallReturnLabel_284
          CFI (cfiCond76) R6 load(1, XDATA, add(CFA_XSP16, literal(-18)))
          CFI (cfiCond76) VB load(1, XDATA, add(CFA_XSP16, literal(-17)))
          CFI (cfiCond76) V0 load(1, XDATA, add(CFA_XSP16, literal(-16)))
          CFI (cfiCond76) V1 load(1, XDATA, add(CFA_XSP16, literal(-15)))
          CFI (cfiCond76) V2 load(1, XDATA, add(CFA_XSP16, literal(-14)))
          CFI (cfiCond76) V3 load(1, XDATA, add(CFA_XSP16, literal(-13)))
          CFI (cfiCond76) V4 load(1, XDATA, add(CFA_XSP16, literal(-12)))
          CFI (cfiCond76) V5 load(1, XDATA, add(CFA_XSP16, literal(-11)))
          CFI (cfiCond76) V6 load(1, XDATA, add(CFA_XSP16, literal(-10)))
          CFI (cfiCond76) V7 load(1, XDATA, add(CFA_XSP16, literal(-9)))
          CFI (cfiCond76) V8 load(1, XDATA, add(CFA_XSP16, literal(-8)))
          CFI (cfiCond76) V9 load(1, XDATA, add(CFA_XSP16, literal(-7)))
          CFI (cfiCond76) R7 load(1, XDATA, add(CFA_XSP16, literal(-6)))
          CFI (cfiCond76) ?RET_LOW load(1, XDATA, add(CFA_XSP16, literal(-5)))
          CFI (cfiCond76) ?RET_HIGH load(1, XDATA, add(CFA_XSP16, literal(-4)))
          CFI (cfiCond76) ?BRET_EXT load(1, XDATA, add(CFA_XSP16, literal(-3)))
          CFI (cfiCond76) DPL0 load(1, XDATA, add(CFA_XSP16, literal(-2)))
          CFI (cfiCond76) DPH0 load(1, XDATA, add(CFA_XSP16, literal(-1)))
          CFI (cfiCond76) CFA_SP SP+-6
          CFI (cfiCond76) CFA_XSP16 add(XSP16, 18)
          CFI Block cfiCond77 Using cfiCommon0
          CFI (cfiCond77) Function ZDP_EndDeviceBindReq
          CFI (cfiCond77) Conditional ??CrossCallReturnLabel_303, ??CrossCallReturnLabel_297, ??CrossCallReturnLabel_285
          CFI (cfiCond77) R6 load(1, XDATA, add(CFA_XSP16, literal(-18)))
          CFI (cfiCond77) VB load(1, XDATA, add(CFA_XSP16, literal(-17)))
          CFI (cfiCond77) V0 load(1, XDATA, add(CFA_XSP16, literal(-16)))
          CFI (cfiCond77) V1 load(1, XDATA, add(CFA_XSP16, literal(-15)))
          CFI (cfiCond77) V2 load(1, XDATA, add(CFA_XSP16, literal(-14)))
          CFI (cfiCond77) V3 load(1, XDATA, add(CFA_XSP16, literal(-13)))
          CFI (cfiCond77) V4 load(1, XDATA, add(CFA_XSP16, literal(-12)))
          CFI (cfiCond77) V5 load(1, XDATA, add(CFA_XSP16, literal(-11)))
          CFI (cfiCond77) V6 load(1, XDATA, add(CFA_XSP16, literal(-10)))
          CFI (cfiCond77) V7 load(1, XDATA, add(CFA_XSP16, literal(-9)))
          CFI (cfiCond77) V8 load(1, XDATA, add(CFA_XSP16, literal(-8)))
          CFI (cfiCond77) V9 load(1, XDATA, add(CFA_XSP16, literal(-7)))
          CFI (cfiCond77) R7 load(1, XDATA, add(CFA_XSP16, literal(-6)))
          CFI (cfiCond77) ?RET_LOW load(1, XDATA, add(CFA_XSP16, literal(-5)))
          CFI (cfiCond77) ?RET_HIGH load(1, XDATA, add(CFA_XSP16, literal(-4)))
          CFI (cfiCond77) ?BRET_EXT load(1, XDATA, add(CFA_XSP16, literal(-3)))
          CFI (cfiCond77) DPL0 load(1, XDATA, add(CFA_XSP16, literal(-2)))
          CFI (cfiCond77) DPH0 load(1, XDATA, add(CFA_XSP16, literal(-1)))
          CFI (cfiCond77) CFA_SP SP+-6
          CFI (cfiCond77) CFA_XSP16 add(XSP16, 18)
          CFI Block cfiCond78 Using cfiCommon0
          CFI (cfiCond78) Function ZDO_SendMsgCBs
          CFI (cfiCond78) Conditional ??CrossCallReturnLabel_303, ??CrossCallReturnLabel_297, ??CrossCallReturnLabel_286
          CFI (cfiCond78) R6 load(1, XDATA, add(CFA_XSP16, literal(-16)))
          CFI (cfiCond78) VB load(1, XDATA, add(CFA_XSP16, literal(-15)))
          CFI (cfiCond78) V0 load(1, XDATA, add(CFA_XSP16, literal(-14)))
          CFI (cfiCond78) V1 load(1, XDATA, add(CFA_XSP16, literal(-13)))
          CFI (cfiCond78) V2 load(1, XDATA, add(CFA_XSP16, literal(-12)))
          CFI (cfiCond78) V3 load(1, XDATA, add(CFA_XSP16, literal(-11)))
          CFI (cfiCond78) V4 load(1, XDATA, add(CFA_XSP16, literal(-10)))
          CFI (cfiCond78) V5 load(1, XDATA, add(CFA_XSP16, literal(-9)))
          CFI (cfiCond78) V6 load(1, XDATA, add(CFA_XSP16, literal(-8)))
          CFI (cfiCond78) V7 load(1, XDATA, add(CFA_XSP16, literal(-7)))
          CFI (cfiCond78) R7 load(1, XDATA, add(CFA_XSP16, literal(-6)))
          CFI (cfiCond78) ?RET_LOW load(1, XDATA, add(CFA_XSP16, literal(-5)))
          CFI (cfiCond78) ?RET_HIGH load(1, XDATA, add(CFA_XSP16, literal(-4)))
          CFI (cfiCond78) ?BRET_EXT load(1, XDATA, add(CFA_XSP16, literal(-3)))
          CFI (cfiCond78) DPL0 load(1, XDATA, add(CFA_XSP16, literal(-2)))
          CFI (cfiCond78) DPH0 load(1, XDATA, add(CFA_XSP16, literal(-1)))
          CFI (cfiCond78) CFA_SP SP+-6
          CFI (cfiCond78) CFA_XSP16 add(XSP16, 16)
          CFI Block cfiCond79 Using cfiCommon0
          CFI (cfiCond79) Function ZDP_IncomingData
          CFI (cfiCond79) Conditional ??CrossCallReturnLabel_303, ??CrossCallReturnLabel_297, ??CrossCallReturnLabel_287
          CFI (cfiCond79) R6 load(1, XDATA, add(CFA_XSP16, literal(-12)))
          CFI (cfiCond79) VB load(1, XDATA, add(CFA_XSP16, literal(-11)))
          CFI (cfiCond79) V0 load(1, XDATA, add(CFA_XSP16, literal(-10)))
          CFI (cfiCond79) V1 load(1, XDATA, add(CFA_XSP16, literal(-9)))
          CFI (cfiCond79) V2 load(1, XDATA, add(CFA_XSP16, literal(-8)))
          CFI (cfiCond79) V3 load(1, XDATA, add(CFA_XSP16, literal(-7)))
          CFI (cfiCond79) R7 load(1, XDATA, add(CFA_XSP16, literal(-6)))
          CFI (cfiCond79) ?RET_LOW load(1, XDATA, add(CFA_XSP16, literal(-5)))
          CFI (cfiCond79) ?RET_HIGH load(1, XDATA, add(CFA_XSP16, literal(-4)))
          CFI (cfiCond79) ?BRET_EXT load(1, XDATA, add(CFA_XSP16, literal(-3)))
          CFI (cfiCond79) DPL0 load(1, XDATA, add(CFA_XSP16, literal(-2)))
          CFI (cfiCond79) DPH0 load(1, XDATA, add(CFA_XSP16, literal(-1)))
          CFI (cfiCond79) CFA_SP SP+-6
          CFI (cfiCond79) CFA_XSP16 add(XSP16, 35)
          CFI Block cfiCond80 Using cfiCommon0
          CFI (cfiCond80) Function ZDP_IncomingData
          CFI (cfiCond80) Conditional ??CrossCallReturnLabel_303, ??CrossCallReturnLabel_297, ??CrossCallReturnLabel_288
          CFI (cfiCond80) R6 load(1, XDATA, add(CFA_XSP16, literal(-12)))
          CFI (cfiCond80) VB load(1, XDATA, add(CFA_XSP16, literal(-11)))
          CFI (cfiCond80) V0 load(1, XDATA, add(CFA_XSP16, literal(-10)))
          CFI (cfiCond80) V1 load(1, XDATA, add(CFA_XSP16, literal(-9)))
          CFI (cfiCond80) V2 load(1, XDATA, add(CFA_XSP16, literal(-8)))
          CFI (cfiCond80) V3 load(1, XDATA, add(CFA_XSP16, literal(-7)))
          CFI (cfiCond80) R7 load(1, XDATA, add(CFA_XSP16, literal(-6)))
          CFI (cfiCond80) ?RET_LOW load(1, XDATA, add(CFA_XSP16, literal(-5)))
          CFI (cfiCond80) ?RET_HIGH load(1, XDATA, add(CFA_XSP16, literal(-4)))
          CFI (cfiCond80) ?BRET_EXT load(1, XDATA, add(CFA_XSP16, literal(-3)))
          CFI (cfiCond80) DPL0 load(1, XDATA, add(CFA_XSP16, literal(-2)))
          CFI (cfiCond80) DPH0 load(1, XDATA, add(CFA_XSP16, literal(-1)))
          CFI (cfiCond80) CFA_SP SP+-6
          CFI (cfiCond80) CFA_XSP16 add(XSP16, 35)
          CFI Block cfiCond81 Using cfiCommon0
          CFI (cfiCond81) Function ZDP_IncomingData
          CFI (cfiCond81) Conditional ??CrossCallReturnLabel_303, ??CrossCallReturnLabel_297, ??CrossCallReturnLabel_289
          CFI (cfiCond81) R6 load(1, XDATA, add(CFA_XSP16, literal(-12)))
          CFI (cfiCond81) VB load(1, XDATA, add(CFA_XSP16, literal(-11)))
          CFI (cfiCond81) V0 load(1, XDATA, add(CFA_XSP16, literal(-10)))
          CFI (cfiCond81) V1 load(1, XDATA, add(CFA_XSP16, literal(-9)))
          CFI (cfiCond81) V2 load(1, XDATA, add(CFA_XSP16, literal(-8)))
          CFI (cfiCond81) V3 load(1, XDATA, add(CFA_XSP16, literal(-7)))
          CFI (cfiCond81) R7 load(1, XDATA, add(CFA_XSP16, literal(-6)))
          CFI (cfiCond81) ?RET_LOW load(1, XDATA, add(CFA_XSP16, literal(-5)))
          CFI (cfiCond81) ?RET_HIGH load(1, XDATA, add(CFA_XSP16, literal(-4)))
          CFI (cfiCond81) ?BRET_EXT load(1, XDATA, add(CFA_XSP16, literal(-3)))
          CFI (cfiCond81) DPL0 load(1, XDATA, add(CFA_XSP16, literal(-2)))
          CFI (cfiCond81) DPH0 load(1, XDATA, add(CFA_XSP16, literal(-1)))
          CFI (cfiCond81) CFA_SP SP+-6
          CFI (cfiCond81) CFA_XSP16 add(XSP16, 35)
          CFI Block cfiCond82 Using cfiCommon0
          CFI (cfiCond82) Function ZDP_IncomingData
          CFI (cfiCond82) Conditional ??CrossCallReturnLabel_303, ??CrossCallReturnLabel_297, ??CrossCallReturnLabel_290
          CFI (cfiCond82) R6 load(1, XDATA, add(CFA_XSP16, literal(-12)))
          CFI (cfiCond82) VB load(1, XDATA, add(CFA_XSP16, literal(-11)))
          CFI (cfiCond82) V0 load(1, XDATA, add(CFA_XSP16, literal(-10)))
          CFI (cfiCond82) V1 load(1, XDATA, add(CFA_XSP16, literal(-9)))
          CFI (cfiCond82) V2 load(1, XDATA, add(CFA_XSP16, literal(-8)))
          CFI (cfiCond82) V3 load(1, XDATA, add(CFA_XSP16, literal(-7)))
          CFI (cfiCond82) R7 load(1, XDATA, add(CFA_XSP16, literal(-6)))
          CFI (cfiCond82) ?RET_LOW load(1, XDATA, add(CFA_XSP16, literal(-5)))
          CFI (cfiCond82) ?RET_HIGH load(1, XDATA, add(CFA_XSP16, literal(-4)))
          CFI (cfiCond82) ?BRET_EXT load(1, XDATA, add(CFA_XSP16, literal(-3)))
          CFI (cfiCond82) DPL0 load(1, XDATA, add(CFA_XSP16, literal(-2)))
          CFI (cfiCond82) DPH0 load(1, XDATA, add(CFA_XSP16, literal(-1)))
          CFI (cfiCond82) CFA_SP SP+-6
          CFI (cfiCond82) CFA_XSP16 add(XSP16, 35)
          CFI Block cfiCond83 Using cfiCommon0
          CFI (cfiCond83) Function ZDP_DeviceAnnce
          CFI (cfiCond83) Conditional ??CrossCallReturnLabel_300
          CFI (cfiCond83) R6 load(1, XDATA, add(CFA_XSP16, literal(-10)))
          CFI (cfiCond83) VB load(1, XDATA, add(CFA_XSP16, literal(-9)))
          CFI (cfiCond83) V0 load(1, XDATA, add(CFA_XSP16, literal(-8)))
          CFI (cfiCond83) V1 load(1, XDATA, add(CFA_XSP16, literal(-7)))
          CFI (cfiCond83) R7 load(1, XDATA, add(CFA_XSP16, literal(-6)))
          CFI (cfiCond83) ?RET_LOW load(1, XDATA, add(CFA_XSP16, literal(-5)))
          CFI (cfiCond83) ?RET_HIGH load(1, XDATA, add(CFA_XSP16, literal(-4)))
          CFI (cfiCond83) ?BRET_EXT load(1, XDATA, add(CFA_XSP16, literal(-3)))
          CFI (cfiCond83) DPL0 load(1, XDATA, add(CFA_XSP16, literal(-2)))
          CFI (cfiCond83) DPH0 load(1, XDATA, add(CFA_XSP16, literal(-1)))
          CFI (cfiCond83) CFA_SP SP+-2
          CFI (cfiCond83) CFA_XSP16 add(XSP16, 19)
          CFI Block cfiCond84 Using cfiCommon0
          CFI (cfiCond84) Function ZDP_NWKAddrOfInterestReq
          CFI (cfiCond84) Conditional ??CrossCallReturnLabel_302, ??CrossCallReturnLabel_179, ??CrossCallReturnLabel_17
          CFI (cfiCond84) R6 load(1, XDATA, add(CFA_XSP16, literal(-10)))
          CFI (cfiCond84) VB load(1, XDATA, add(CFA_XSP16, literal(-9)))
          CFI (cfiCond84) V0 load(1, XDATA, add(CFA_XSP16, literal(-8)))
          CFI (cfiCond84) V1 load(1, XDATA, add(CFA_XSP16, literal(-7)))
          CFI (cfiCond84) R7 load(1, XDATA, add(CFA_XSP16, literal(-6)))
          CFI (cfiCond84) ?RET_LOW load(1, XDATA, add(CFA_XSP16, literal(-5)))
          CFI (cfiCond84) ?RET_HIGH load(1, XDATA, add(CFA_XSP16, literal(-4)))
          CFI (cfiCond84) ?BRET_EXT load(1, XDATA, add(CFA_XSP16, literal(-3)))
          CFI (cfiCond84) DPL0 load(1, XDATA, add(CFA_XSP16, literal(-2)))
          CFI (cfiCond84) DPH0 load(1, XDATA, add(CFA_XSP16, literal(-1)))
          CFI (cfiCond84) CFA_SP SP+-6
          CFI (cfiCond84) CFA_XSP16 add(XSP16, 10)
          CFI Block cfiCond85 Using cfiCommon0
          CFI (cfiCond85) Function ZDP_SimpleDescReq
          CFI (cfiCond85) Conditional ??CrossCallReturnLabel_302, ??CrossCallReturnLabel_179, ??CrossCallReturnLabel_18
          CFI (cfiCond85) R6 load(1, XDATA, add(CFA_XSP16, literal(-10)))
          CFI (cfiCond85) VB load(1, XDATA, add(CFA_XSP16, literal(-9)))
          CFI (cfiCond85) V0 load(1, XDATA, add(CFA_XSP16, literal(-8)))
          CFI (cfiCond85) V1 load(1, XDATA, add(CFA_XSP16, literal(-7)))
          CFI (cfiCond85) R7 load(1, XDATA, add(CFA_XSP16, literal(-6)))
          CFI (cfiCond85) ?RET_LOW load(1, XDATA, add(CFA_XSP16, literal(-5)))
          CFI (cfiCond85) ?RET_HIGH load(1, XDATA, add(CFA_XSP16, literal(-4)))
          CFI (cfiCond85) ?BRET_EXT load(1, XDATA, add(CFA_XSP16, literal(-3)))
          CFI (cfiCond85) DPL0 load(1, XDATA, add(CFA_XSP16, literal(-2)))
          CFI (cfiCond85) DPH0 load(1, XDATA, add(CFA_XSP16, literal(-1)))
          CFI (cfiCond85) CFA_SP SP+-6
          CFI (cfiCond85) CFA_XSP16 add(XSP16, 10)
          CFI Block cfiCond86 Using cfiCommon0
          CFI (cfiCond86) Function ZDP_NWKAddrOfInterestReq
          CFI (cfiCond86) Conditional ??CrossCallReturnLabel_302, ??CrossCallReturnLabel_180, ??CrossCallReturnLabel_131, ??CrossCallReturnLabel_17
          CFI (cfiCond86) R6 load(1, XDATA, add(CFA_XSP16, literal(-10)))
          CFI (cfiCond86) VB load(1, XDATA, add(CFA_XSP16, literal(-9)))
          CFI (cfiCond86) V0 load(1, XDATA, add(CFA_XSP16, literal(-8)))
          CFI (cfiCond86) V1 load(1, XDATA, add(CFA_XSP16, literal(-7)))
          CFI (cfiCond86) R7 load(1, XDATA, add(CFA_XSP16, literal(-6)))
          CFI (cfiCond86) ?RET_LOW load(1, XDATA, add(CFA_XSP16, literal(-5)))
          CFI (cfiCond86) ?RET_HIGH load(1, XDATA, add(CFA_XSP16, literal(-4)))
          CFI (cfiCond86) ?BRET_EXT load(1, XDATA, add(CFA_XSP16, literal(-3)))
          CFI (cfiCond86) DPL0 load(1, XDATA, add(CFA_XSP16, literal(-2)))
          CFI (cfiCond86) DPH0 load(1, XDATA, add(CFA_XSP16, literal(-1)))
          CFI (cfiCond86) CFA_SP SP+-8
          CFI (cfiCond86) CFA_XSP16 add(XSP16, 10)
          CFI Block cfiCond87 Using cfiCommon0
          CFI (cfiCond87) Function ZDP_SimpleDescReq
          CFI (cfiCond87) Conditional ??CrossCallReturnLabel_302, ??CrossCallReturnLabel_180, ??CrossCallReturnLabel_131, ??CrossCallReturnLabel_18
          CFI (cfiCond87) R6 load(1, XDATA, add(CFA_XSP16, literal(-10)))
          CFI (cfiCond87) VB load(1, XDATA, add(CFA_XSP16, literal(-9)))
          CFI (cfiCond87) V0 load(1, XDATA, add(CFA_XSP16, literal(-8)))
          CFI (cfiCond87) V1 load(1, XDATA, add(CFA_XSP16, literal(-7)))
          CFI (cfiCond87) R7 load(1, XDATA, add(CFA_XSP16, literal(-6)))
          CFI (cfiCond87) ?RET_LOW load(1, XDATA, add(CFA_XSP16, literal(-5)))
          CFI (cfiCond87) ?RET_HIGH load(1, XDATA, add(CFA_XSP16, literal(-4)))
          CFI (cfiCond87) ?BRET_EXT load(1, XDATA, add(CFA_XSP16, literal(-3)))
          CFI (cfiCond87) DPL0 load(1, XDATA, add(CFA_XSP16, literal(-2)))
          CFI (cfiCond87) DPH0 load(1, XDATA, add(CFA_XSP16, literal(-1)))
          CFI (cfiCond87) CFA_SP SP+-8
          CFI (cfiCond87) CFA_XSP16 add(XSP16, 10)
          CFI Block cfiCond88 Using cfiCommon0
          CFI (cfiCond88) Function ZDP_SimpleDescReq
          CFI (cfiCond88) Conditional ??CrossCallReturnLabel_302, ??CrossCallReturnLabel_180, ??CrossCallReturnLabel_132, ??CrossCallReturnLabel_10
          CFI (cfiCond88) R6 load(1, XDATA, add(CFA_XSP16, literal(-10)))
          CFI (cfiCond88) VB load(1, XDATA, add(CFA_XSP16, literal(-9)))
          CFI (cfiCond88) V0 load(1, XDATA, add(CFA_XSP16, literal(-8)))
          CFI (cfiCond88) V1 load(1, XDATA, add(CFA_XSP16, literal(-7)))
          CFI (cfiCond88) R7 load(1, XDATA, add(CFA_XSP16, literal(-6)))
          CFI (cfiCond88) ?RET_LOW load(1, XDATA, add(CFA_XSP16, literal(-5)))
          CFI (cfiCond88) ?RET_HIGH load(1, XDATA, add(CFA_XSP16, literal(-4)))
          CFI (cfiCond88) ?BRET_EXT load(1, XDATA, add(CFA_XSP16, literal(-3)))
          CFI (cfiCond88) DPL0 load(1, XDATA, add(CFA_XSP16, literal(-2)))
          CFI (cfiCond88) DPH0 load(1, XDATA, add(CFA_XSP16, literal(-1)))
          CFI (cfiCond88) CFA_SP SP+-8
          CFI (cfiCond88) CFA_XSP16 add(XSP16, 10)
          CFI Block cfiCond89 Using cfiCommon0
          CFI (cfiCond89) Function ZDP_GenericRsp
          CFI (cfiCond89) Conditional ??CrossCallReturnLabel_302, ??CrossCallReturnLabel_180, ??CrossCallReturnLabel_132, ??CrossCallReturnLabel_11
          CFI (cfiCond89) R6 load(1, XDATA, add(CFA_XSP16, literal(-9)))
          CFI (cfiCond89) VB load(1, XDATA, add(CFA_XSP16, literal(-8)))
          CFI (cfiCond89) V0 load(1, XDATA, add(CFA_XSP16, literal(-7)))
          CFI (cfiCond89) R7 load(1, XDATA, add(CFA_XSP16, literal(-6)))
          CFI (cfiCond89) ?RET_LOW load(1, XDATA, add(CFA_XSP16, literal(-5)))
          CFI (cfiCond89) ?RET_HIGH load(1, XDATA, add(CFA_XSP16, literal(-4)))
          CFI (cfiCond89) ?BRET_EXT load(1, XDATA, add(CFA_XSP16, literal(-3)))
          CFI (cfiCond89) DPL0 load(1, XDATA, add(CFA_XSP16, literal(-2)))
          CFI (cfiCond89) DPH0 load(1, XDATA, add(CFA_XSP16, literal(-1)))
          CFI (cfiCond89) CFA_SP SP+-8
          CFI (cfiCond89) CFA_XSP16 add(XSP16, 10)
          CFI Block cfiCond90 Using cfiCommon0
          CFI (cfiCond90) Function ZDP_DeviceAnnce
          CFI (cfiCond90) Conditional ??CrossCallReturnLabel_302, ??CrossCallReturnLabel_180, ??CrossCallReturnLabel_133, ??CrossCallReturnLabel_25
          CFI (cfiCond90) R6 load(1, XDATA, add(CFA_XSP16, literal(-10)))
          CFI (cfiCond90) VB load(1, XDATA, add(CFA_XSP16, literal(-9)))
          CFI (cfiCond90) V0 load(1, XDATA, add(CFA_XSP16, literal(-8)))
          CFI (cfiCond90) V1 load(1, XDATA, add(CFA_XSP16, literal(-7)))
          CFI (cfiCond90) R7 load(1, XDATA, add(CFA_XSP16, literal(-6)))
          CFI (cfiCond90) ?RET_LOW load(1, XDATA, add(CFA_XSP16, literal(-5)))
          CFI (cfiCond90) ?RET_HIGH load(1, XDATA, add(CFA_XSP16, literal(-4)))
          CFI (cfiCond90) ?BRET_EXT load(1, XDATA, add(CFA_XSP16, literal(-3)))
          CFI (cfiCond90) DPL0 load(1, XDATA, add(CFA_XSP16, literal(-2)))
          CFI (cfiCond90) DPH0 load(1, XDATA, add(CFA_XSP16, literal(-1)))
          CFI (cfiCond90) CFA_SP SP+-8
          CFI (cfiCond90) CFA_XSP16 add(XSP16, 19)
          CFI Block cfiCond91 Using cfiCommon0
          CFI (cfiCond91) Function ZDP_MgmtPermitJoinReq
          CFI (cfiCond91) Conditional ??CrossCallReturnLabel_302, ??CrossCallReturnLabel_180, ??CrossCallReturnLabel_133, ??CrossCallReturnLabel_26
          CFI (cfiCond91) R6 load(1, XDATA, add(CFA_XSP16, literal(-12)))
          CFI (cfiCond91) VB load(1, XDATA, add(CFA_XSP16, literal(-11)))
          CFI (cfiCond91) V0 load(1, XDATA, add(CFA_XSP16, literal(-10)))
          CFI (cfiCond91) V1 load(1, XDATA, add(CFA_XSP16, literal(-9)))
          CFI (cfiCond91) V2 load(1, XDATA, add(CFA_XSP16, literal(-8)))
          CFI (cfiCond91) V3 load(1, XDATA, add(CFA_XSP16, literal(-7)))
          CFI (cfiCond91) R7 load(1, XDATA, add(CFA_XSP16, literal(-6)))
          CFI (cfiCond91) ?RET_LOW load(1, XDATA, add(CFA_XSP16, literal(-5)))
          CFI (cfiCond91) ?RET_HIGH load(1, XDATA, add(CFA_XSP16, literal(-4)))
          CFI (cfiCond91) ?BRET_EXT load(1, XDATA, add(CFA_XSP16, literal(-3)))
          CFI (cfiCond91) DPL0 load(1, XDATA, add(CFA_XSP16, literal(-2)))
          CFI (cfiCond91) DPH0 load(1, XDATA, add(CFA_XSP16, literal(-1)))
          CFI (cfiCond91) CFA_SP SP+-8
          CFI (cfiCond91) CFA_XSP16 add(XSP16, 21)
          CFI Block cfiCond92 Using cfiCommon0
          CFI (cfiCond92) Function ZDP_MgmtDirectJoinReq
          CFI (cfiCond92) Conditional ??CrossCallReturnLabel_301, ??CrossCallReturnLabel_56
          CFI (cfiCond92) R6 load(1, XDATA, add(CFA_XSP16, literal(-12)))
          CFI (cfiCond92) VB load(1, XDATA, add(CFA_XSP16, literal(-11)))
          CFI (cfiCond92) V0 load(1, XDATA, add(CFA_XSP16, literal(-10)))
          CFI (cfiCond92) V1 load(1, XDATA, add(CFA_XSP16, literal(-9)))
          CFI (cfiCond92) V2 load(1, XDATA, add(CFA_XSP16, literal(-8)))
          CFI (cfiCond92) V3 load(1, XDATA, add(CFA_XSP16, literal(-7)))
          CFI (cfiCond92) R7 load(1, XDATA, add(CFA_XSP16, literal(-6)))
          CFI (cfiCond92) ?RET_LOW load(1, XDATA, add(CFA_XSP16, literal(-5)))
          CFI (cfiCond92) ?RET_HIGH load(1, XDATA, add(CFA_XSP16, literal(-4)))
          CFI (cfiCond92) ?BRET_EXT load(1, XDATA, add(CFA_XSP16, literal(-3)))
          CFI (cfiCond92) DPL0 load(1, XDATA, add(CFA_XSP16, literal(-2)))
          CFI (cfiCond92) DPH0 load(1, XDATA, add(CFA_XSP16, literal(-1)))
          CFI (cfiCond92) CFA_SP SP+-4
          CFI (cfiCond92) CFA_XSP16 add(XSP16, 12)
          CFI Block cfiCond93 Using cfiCommon0
          CFI (cfiCond93) Function ZDP_MgmtLeaveReq
          CFI (cfiCond93) Conditional ??CrossCallReturnLabel_301, ??CrossCallReturnLabel_57
          CFI (cfiCond93) R6 load(1, XDATA, add(CFA_XSP16, literal(-12)))
          CFI (cfiCond93) VB load(1, XDATA, add(CFA_XSP16, literal(-11)))
          CFI (cfiCond93) V0 load(1, XDATA, add(CFA_XSP16, literal(-10)))
          CFI (cfiCond93) V1 load(1, XDATA, add(CFA_XSP16, literal(-9)))
          CFI (cfiCond93) V2 load(1, XDATA, add(CFA_XSP16, literal(-8)))
          CFI (cfiCond93) V3 load(1, XDATA, add(CFA_XSP16, literal(-7)))
          CFI (cfiCond93) R7 load(1, XDATA, add(CFA_XSP16, literal(-6)))
          CFI (cfiCond93) ?RET_LOW load(1, XDATA, add(CFA_XSP16, literal(-5)))
          CFI (cfiCond93) ?RET_HIGH load(1, XDATA, add(CFA_XSP16, literal(-4)))
          CFI (cfiCond93) ?BRET_EXT load(1, XDATA, add(CFA_XSP16, literal(-3)))
          CFI (cfiCond93) DPL0 load(1, XDATA, add(CFA_XSP16, literal(-2)))
          CFI (cfiCond93) DPH0 load(1, XDATA, add(CFA_XSP16, literal(-1)))
          CFI (cfiCond93) CFA_SP SP+-4
          CFI (cfiCond93) CFA_XSP16 add(XSP16, 12)
          CFI Block cfiCond94 Using cfiCommon0
          CFI (cfiCond94) Function ZDP_MgmtLeaveReq
          CFI (cfiCond94) Conditional ??CrossCallReturnLabel_301, ??CrossCallReturnLabel_58
          CFI (cfiCond94) R6 load(1, XDATA, add(CFA_XSP16, literal(-12)))
          CFI (cfiCond94) VB load(1, XDATA, add(CFA_XSP16, literal(-11)))
          CFI (cfiCond94) V0 load(1, XDATA, add(CFA_XSP16, literal(-10)))
          CFI (cfiCond94) V1 load(1, XDATA, add(CFA_XSP16, literal(-9)))
          CFI (cfiCond94) V2 load(1, XDATA, add(CFA_XSP16, literal(-8)))
          CFI (cfiCond94) V3 load(1, XDATA, add(CFA_XSP16, literal(-7)))
          CFI (cfiCond94) R7 load(1, XDATA, add(CFA_XSP16, literal(-6)))
          CFI (cfiCond94) ?RET_LOW load(1, XDATA, add(CFA_XSP16, literal(-5)))
          CFI (cfiCond94) ?RET_HIGH load(1, XDATA, add(CFA_XSP16, literal(-4)))
          CFI (cfiCond94) ?BRET_EXT load(1, XDATA, add(CFA_XSP16, literal(-3)))
          CFI (cfiCond94) DPL0 load(1, XDATA, add(CFA_XSP16, literal(-2)))
          CFI (cfiCond94) DPH0 load(1, XDATA, add(CFA_XSP16, literal(-1)))
          CFI (cfiCond94) CFA_SP SP+-4
          CFI (cfiCond94) CFA_XSP16 add(XSP16, 12)
          CFI Block cfiCond95 Using cfiCommon0
          CFI (cfiCond95) Function ZDP_MgmtLeaveReq
          CFI (cfiCond95) Conditional ??CrossCallReturnLabel_301, ??CrossCallReturnLabel_59
          CFI (cfiCond95) R6 load(1, XDATA, add(CFA_XSP16, literal(-12)))
          CFI (cfiCond95) VB load(1, XDATA, add(CFA_XSP16, literal(-11)))
          CFI (cfiCond95) V0 load(1, XDATA, add(CFA_XSP16, literal(-10)))
          CFI (cfiCond95) V1 load(1, XDATA, add(CFA_XSP16, literal(-9)))
          CFI (cfiCond95) V2 load(1, XDATA, add(CFA_XSP16, literal(-8)))
          CFI (cfiCond95) V3 load(1, XDATA, add(CFA_XSP16, literal(-7)))
          CFI (cfiCond95) R7 load(1, XDATA, add(CFA_XSP16, literal(-6)))
          CFI (cfiCond95) ?RET_LOW load(1, XDATA, add(CFA_XSP16, literal(-5)))
          CFI (cfiCond95) ?RET_HIGH load(1, XDATA, add(CFA_XSP16, literal(-4)))
          CFI (cfiCond95) ?BRET_EXT load(1, XDATA, add(CFA_XSP16, literal(-3)))
          CFI (cfiCond95) DPL0 load(1, XDATA, add(CFA_XSP16, literal(-2)))
          CFI (cfiCond95) DPH0 load(1, XDATA, add(CFA_XSP16, literal(-1)))
          CFI (cfiCond95) CFA_SP SP+-4
          CFI (cfiCond95) CFA_XSP16 add(XSP16, 12)
          CFI Block cfiPicker96 Using cfiCommon1
          CFI (cfiPicker96) NoFunction
          CFI (cfiPicker96) Picker
        MOVX      A,@DPTR
        MOV       R0,A
        INC       DPTR
        MOVX      A,@DPTR
        RET
          CFI EndBlock cfiCond47
          CFI EndBlock cfiCond48
          CFI EndBlock cfiCond49
          CFI EndBlock cfiCond50
          CFI EndBlock cfiCond51
          CFI EndBlock cfiCond52
          CFI EndBlock cfiCond53
          CFI EndBlock cfiCond54
          CFI EndBlock cfiCond55
          CFI EndBlock cfiCond56
          CFI EndBlock cfiCond57
          CFI EndBlock cfiCond58
          CFI EndBlock cfiCond59
          CFI EndBlock cfiCond60
          CFI EndBlock cfiCond61
          CFI EndBlock cfiCond62
          CFI EndBlock cfiCond63
          CFI EndBlock cfiCond64
          CFI EndBlock cfiCond65
          CFI EndBlock cfiCond66
          CFI EndBlock cfiCond67
          CFI EndBlock cfiCond68
          CFI EndBlock cfiCond69
          CFI EndBlock cfiCond70
          CFI EndBlock cfiCond71
          CFI EndBlock cfiCond72
          CFI EndBlock cfiCond73
          CFI EndBlock cfiCond74
          CFI EndBlock cfiCond75
          CFI EndBlock cfiCond76
          CFI EndBlock cfiCond77
          CFI EndBlock cfiCond78
          CFI EndBlock cfiCond79
          CFI EndBlock cfiCond80
          CFI EndBlock cfiCond81
          CFI EndBlock cfiCond82
          CFI EndBlock cfiCond83
          CFI EndBlock cfiCond84
          CFI EndBlock cfiCond85
          CFI EndBlock cfiCond86
          CFI EndBlock cfiCond87
          CFI EndBlock cfiCond88
          CFI EndBlock cfiCond89
          CFI EndBlock cfiCond90
          CFI EndBlock cfiCond91
          CFI EndBlock cfiCond92
          CFI EndBlock cfiCond93
          CFI EndBlock cfiCond94
          CFI EndBlock cfiCond95
          CFI EndBlock cfiPicker96

        RSEG BANKED_CODE:HUGECODE:NOROOT(0)
?Subroutine20:
          CFI Block cfiCond97 Using cfiCommon0
          CFI Function ZDP_ServerDiscReq
          CFI Conditional ??CrossCallReturnLabel_19
          CFI R6 load(1, XDATA, add(CFA_XSP16, literal(-10)))
          CFI VB load(1, XDATA, add(CFA_XSP16, literal(-9)))
          CFI V0 load(1, XDATA, add(CFA_XSP16, literal(-8)))
          CFI V1 load(1, XDATA, add(CFA_XSP16, literal(-7)))
          CFI R7 load(1, XDATA, add(CFA_XSP16, literal(-6)))
          CFI ?RET_LOW load(1, XDATA, add(CFA_XSP16, literal(-5)))
          CFI ?RET_HIGH load(1, XDATA, add(CFA_XSP16, literal(-4)))
          CFI ?BRET_EXT load(1, XDATA, add(CFA_XSP16, literal(-3)))
          CFI DPL0 load(1, XDATA, add(CFA_XSP16, literal(-2)))
          CFI DPH0 load(1, XDATA, add(CFA_XSP16, literal(-1)))
          CFI CFA_SP SP+-2
          CFI CFA_XSP16 add(XSP16, 19)
          CFI Block cfiCond98 Using cfiCommon0
          CFI (cfiCond98) Function ZDP_DeviceAnnce
          CFI (cfiCond98) Conditional ??CrossCallReturnLabel_20
          CFI (cfiCond98) R6 load(1, XDATA, add(CFA_XSP16, literal(-10)))
          CFI (cfiCond98) VB load(1, XDATA, add(CFA_XSP16, literal(-9)))
          CFI (cfiCond98) V0 load(1, XDATA, add(CFA_XSP16, literal(-8)))
          CFI (cfiCond98) V1 load(1, XDATA, add(CFA_XSP16, literal(-7)))
          CFI (cfiCond98) R7 load(1, XDATA, add(CFA_XSP16, literal(-6)))
          CFI (cfiCond98) ?RET_LOW load(1, XDATA, add(CFA_XSP16, literal(-5)))
          CFI (cfiCond98) ?RET_HIGH load(1, XDATA, add(CFA_XSP16, literal(-4)))
          CFI (cfiCond98) ?BRET_EXT load(1, XDATA, add(CFA_XSP16, literal(-3)))
          CFI (cfiCond98) DPL0 load(1, XDATA, add(CFA_XSP16, literal(-2)))
          CFI (cfiCond98) DPH0 load(1, XDATA, add(CFA_XSP16, literal(-1)))
          CFI (cfiCond98) CFA_SP SP+-2
          CFI (cfiCond98) CFA_XSP16 add(XSP16, 19)
          CFI Block cfiPicker99 Using cfiCommon1
          CFI (cfiPicker99) NoFunction
          CFI (cfiPicker99) Picker
        LCALL     ?Subroutine89 & 0xFFFF
??CrossCallReturnLabel_154:
        MOVX      @DPTR,A
        RET
          CFI EndBlock cfiCond97
          CFI EndBlock cfiCond98
          CFI EndBlock cfiPicker99

        RSEG BANKED_CODE:HUGECODE:NOROOT(0)
?Subroutine89:
          CFI Block cfiCond100 Using cfiCommon0
          CFI Function ZDP_NwkAddrReq
          CFI Conditional ??CrossCallReturnLabel_153
          CFI R6 load(1, XDATA, add(CFA_XSP16, literal(-12)))
          CFI VB load(1, XDATA, add(CFA_XSP16, literal(-11)))
          CFI V0 load(1, XDATA, add(CFA_XSP16, literal(-10)))
          CFI V1 load(1, XDATA, add(CFA_XSP16, literal(-9)))
          CFI V2 load(1, XDATA, add(CFA_XSP16, literal(-8)))
          CFI V3 load(1, XDATA, add(CFA_XSP16, literal(-7)))
          CFI R7 load(1, XDATA, add(CFA_XSP16, literal(-6)))
          CFI ?RET_LOW load(1, XDATA, add(CFA_XSP16, literal(-5)))
          CFI ?RET_HIGH load(1, XDATA, add(CFA_XSP16, literal(-4)))
          CFI ?BRET_EXT load(1, XDATA, add(CFA_XSP16, literal(-3)))
          CFI DPL0 load(1, XDATA, add(CFA_XSP16, literal(-2)))
          CFI DPH0 load(1, XDATA, add(CFA_XSP16, literal(-1)))
          CFI CFA_SP SP+-2
          CFI CFA_XSP16 add(XSP16, 21)
          CFI Block cfiCond101 Using cfiCommon0
          CFI (cfiCond101) Function ZDP_ServerDiscReq
          CFI (cfiCond101) Conditional ??CrossCallReturnLabel_154, ??CrossCallReturnLabel_19
          CFI (cfiCond101) R6 load(1, XDATA, add(CFA_XSP16, literal(-10)))
          CFI (cfiCond101) VB load(1, XDATA, add(CFA_XSP16, literal(-9)))
          CFI (cfiCond101) V0 load(1, XDATA, add(CFA_XSP16, literal(-8)))
          CFI (cfiCond101) V1 load(1, XDATA, add(CFA_XSP16, literal(-7)))
          CFI (cfiCond101) R7 load(1, XDATA, add(CFA_XSP16, literal(-6)))
          CFI (cfiCond101) ?RET_LOW load(1, XDATA, add(CFA_XSP16, literal(-5)))
          CFI (cfiCond101) ?RET_HIGH load(1, XDATA, add(CFA_XSP16, literal(-4)))
          CFI (cfiCond101) ?BRET_EXT load(1, XDATA, add(CFA_XSP16, literal(-3)))
          CFI (cfiCond101) DPL0 load(1, XDATA, add(CFA_XSP16, literal(-2)))
          CFI (cfiCond101) DPH0 load(1, XDATA, add(CFA_XSP16, literal(-1)))
          CFI (cfiCond101) CFA_SP SP+-4
          CFI (cfiCond101) CFA_XSP16 add(XSP16, 19)
          CFI Block cfiCond102 Using cfiCommon0
          CFI (cfiCond102) Function ZDP_DeviceAnnce
          CFI (cfiCond102) Conditional ??CrossCallReturnLabel_154, ??CrossCallReturnLabel_20
          CFI (cfiCond102) R6 load(1, XDATA, add(CFA_XSP16, literal(-10)))
          CFI (cfiCond102) VB load(1, XDATA, add(CFA_XSP16, literal(-9)))
          CFI (cfiCond102) V0 load(1, XDATA, add(CFA_XSP16, literal(-8)))
          CFI (cfiCond102) V1 load(1, XDATA, add(CFA_XSP16, literal(-7)))
          CFI (cfiCond102) R7 load(1, XDATA, add(CFA_XSP16, literal(-6)))
          CFI (cfiCond102) ?RET_LOW load(1, XDATA, add(CFA_XSP16, literal(-5)))
          CFI (cfiCond102) ?RET_HIGH load(1, XDATA, add(CFA_XSP16, literal(-4)))
          CFI (cfiCond102) ?BRET_EXT load(1, XDATA, add(CFA_XSP16, literal(-3)))
          CFI (cfiCond102) DPL0 load(1, XDATA, add(CFA_XSP16, literal(-2)))
          CFI (cfiCond102) DPH0 load(1, XDATA, add(CFA_XSP16, literal(-1)))
          CFI (cfiCond102) CFA_SP SP+-4
          CFI (cfiCond102) CFA_XSP16 add(XSP16, 19)
          CFI Block cfiPicker103 Using cfiCommon1
          CFI (cfiPicker103) NoFunction
          CFI (cfiPicker103) Picker
        MOV       A,#0xf
        MOVX      @DPTR,A
        MOV       DPL,?XSP + 0
        MOV       DPH,?XSP + 1
        MOV       A,#-0x3
        MOVX      @DPTR,A
        INC       DPTR
        MOV       A,#-0x1
        RET
          CFI EndBlock cfiCond100
          CFI EndBlock cfiCond101
          CFI EndBlock cfiCond102
          CFI EndBlock cfiPicker103
//  583 
//  584 /*********************************************************************
//  585  * @fn          ZDP_ParentAnnce
//  586  *
//  587  * @brief       This builds and send a Parent_Annce and Parent_Annce_Rsp
//  588  *              messages, it will depend on the clusterID parameter.
//  589  *
//  590  * @param       TransSeq - ZDP Transaction Sequence Number
//  591  * @param       dstAddr - destination address
//  592  * @param       numberOfChildren - 8 bit number of children
//  593  * @param       childInfo - list of children information (ExtAddr and Age)
//  594  * @param       clusterID - Parent_annce or Parent_annce_rsp
//  595  * @param       SecurityEnable - Security Options
//  596  *
//  597  * @return      afStatus_t
//  598  */

        RSEG BANKED_CODE:HUGECODE:NOROOT(0)
//  599 afStatus_t ZDP_ParentAnnce( uint8 *TransSeq,
ZDP_ParentAnnce:
          CFI Block cfiBlock104 Using cfiCommon0
          CFI Function ZDP_ParentAnnce
        CODE
//  600                             zAddrType_t *dstAddr,
//  601                             uint8 numberOfChildren,
//  602                             uint8 *childInfo,
//  603                             cId_t clusterID,
//  604                             uint8 SecurityEnable )
//  605 {
        FUNCALL ZDP_ParentAnnce, sAddrExtCpy
        LOCFRAME ISTACK, 0, STACK
        LOCFRAME PSTACK, 0, STACK
        LOCFRAME XSTACK, 20, STACK
        LOCFRAME IOVERLAY, 0, STATIC
        LOCFRAME DOVERLAY, 0, STATIC
        ARGFRAME ISTACK, 0, STACK
        ARGFRAME PSTACK, 0, STACK
        ARGFRAME XSTACK, 20, STACK
        ARGFRAME IOVERLAY, 0, STATIC
        ARGFRAME DOVERLAY, 0, STATIC
        FUNCALL ZDP_ParentAnnce, osal_buffer_uint32
        LOCFRAME ISTACK, 0, STACK
        LOCFRAME PSTACK, 0, STACK
        LOCFRAME XSTACK, 24, STACK
        LOCFRAME IOVERLAY, 0, STATIC
        LOCFRAME DOVERLAY, 0, STATIC
        ARGFRAME ISTACK, 0, STACK
        ARGFRAME PSTACK, 0, STACK
        ARGFRAME XSTACK, 24, STACK
        ARGFRAME IOVERLAY, 0, STATIC
        ARGFRAME DOVERLAY, 0, STATIC
        FUNCALL ZDP_ParentAnnce, fillAndSend
        LOCFRAME ISTACK, 0, STACK
        LOCFRAME PSTACK, 0, STACK
        LOCFRAME XSTACK, 22, STACK
        LOCFRAME IOVERLAY, 0, STATIC
        LOCFRAME DOVERLAY, 0, STATIC
        ARGFRAME ISTACK, 0, STACK
        ARGFRAME PSTACK, 0, STACK
        ARGFRAME XSTACK, 22, STACK
        ARGFRAME IOVERLAY, 0, STATIC
        ARGFRAME DOVERLAY, 0, STATIC
        REQUIRE ?V0
        REQUIRE ?V1
        REQUIRE ?V2
        REQUIRE ?V3
        REQUIRE ?V4
        REQUIRE ?V5
        REQUIRE ?V6
        REQUIRE ?V7
        REQUIRE ?V8
        REQUIRE ?V10
        REQUIRE ?V11
        MOV       A,#-0x14
        LCALL     ?BANKED_ENTER_XDATA
          CFI DPH0 load(1, XDATA, add(CFA_XSP16, literal(-1)))
          CFI DPL0 load(1, XDATA, add(CFA_XSP16, literal(-2)))
          CFI ?BRET_EXT load(1, XDATA, add(CFA_XSP16, literal(-3)))
          CFI ?RET_HIGH load(1, XDATA, add(CFA_XSP16, literal(-4)))
          CFI ?RET_LOW load(1, XDATA, add(CFA_XSP16, literal(-5)))
          CFI R7 load(1, XDATA, add(CFA_XSP16, literal(-6)))
          CFI V11 load(1, XDATA, add(CFA_XSP16, literal(-7)))
          CFI V10 load(1, XDATA, add(CFA_XSP16, literal(-8)))
          CFI V9 load(1, XDATA, add(CFA_XSP16, literal(-9)))
          CFI V8 load(1, XDATA, add(CFA_XSP16, literal(-10)))
          CFI V7 load(1, XDATA, add(CFA_XSP16, literal(-11)))
          CFI V6 load(1, XDATA, add(CFA_XSP16, literal(-12)))
          CFI V5 load(1, XDATA, add(CFA_XSP16, literal(-13)))
          CFI V4 load(1, XDATA, add(CFA_XSP16, literal(-14)))
          CFI V3 load(1, XDATA, add(CFA_XSP16, literal(-15)))
          CFI V2 load(1, XDATA, add(CFA_XSP16, literal(-16)))
          CFI V1 load(1, XDATA, add(CFA_XSP16, literal(-17)))
          CFI V0 load(1, XDATA, add(CFA_XSP16, literal(-18)))
          CFI VB load(1, XDATA, add(CFA_XSP16, literal(-19)))
          CFI R6 load(1, XDATA, add(CFA_XSP16, literal(-20)))
          CFI CFA_SP SP+0
          CFI CFA_XSP16 add(XSP16, 20)
        ; Saved register size: 20
        ; Auto size: 0
        MOV       ?V2,R2
        MOV       ?V3,R3
        MOV       A,R4
        MOV       R6,A
        MOV       A,R5
        MOV       R7,A
        MOV       ?V8,R1
//  606   uint8 *pBuf = ZDP_TmpBuf;
        LCALL     ??Subroutine123_0 & 0xFFFF
//  607   ZDO_ChildInfo_t *pChildInfo;
//  608   uint8 i, len;
//  609 
//  610   (void)SecurityEnable;  // Intentionally unreferenced parameter
//  611 
//  612   // NumberOfChildren + ( numberOfChildren * ChildInfo).
//  613   len = 1 + ( numberOfChildren * sizeof(ZDO_ChildInfo_t) );
??CrossCallReturnLabel_227:
        MOV       B,#0xc
        MOV       A,R1
        MUL       AB
        INC       A
        MOV       ?V6,A
//  614 
//  615   if ( len >= ZDP_BUF_SZ-1 )
        SUBB      A,#0x4f
        JC        ??ZDP_ParentAnnce_0
//  616   {
//  617     return afStatus_MEM_FAIL;
        MOV       R1,#0x10
        LJMP      ??ZDP_ParentAnnce_1 & 0xFFFF
//  618   }
//  619 
//  620   pChildInfo = (ZDO_ChildInfo_t *)childInfo;
//  621 
//  622   if ( dstAddr->addrMode == AddrBroadcast )
??ZDP_ParentAnnce_0:
        MOV       DPL,R6
        MOV       DPH,R7
        INC       DPTR
        INC       DPTR
        INC       DPTR
        INC       DPTR
        INC       DPTR
        INC       DPTR
        INC       DPTR
        INC       DPTR
        MOVX      A,@DPTR
        XRL       A,#0xf
        JNZ       ??ZDP_ParentAnnce_2
//  623   {
//  624     // Make sure is sent to 0xFFFC
//  625     dstAddr->addr.shortAddr = NWK_BROADCAST_SHORTADDR_DEVZCZR;
        MOV       DPL,R6
        MOV       DPH,R7
        MOV       A,#-0x4
        MOVX      @DPTR,A
        INC       DPTR
        MOV       A,#-0x1
        MOVX      @DPTR,A
//  626   }
//  627 
//  628   *pBuf++ = numberOfChildren;
??ZDP_ParentAnnce_2:
        MOV       DPL,R2
        MOV       DPH,R3
        MOV       A,R1
        LCALL     ?Subroutine25 & 0xFFFF
//  629 
//  630   for ( i = 0; i < numberOfChildren; i++ )
??CrossCallReturnLabel_29:
        MOV       ?V7,#0x0
        MOV       A,#0x14
        LCALL     ?XSTACK_DISP0_8
        LCALL     ?Subroutine44 & 0xFFFF
??CrossCallReturnLabel_65:
        SJMP      ??ZDP_ParentAnnce_3
//  631   {
//  632     pBuf = osal_cpyExtAddr( pBuf, pChildInfo[i].extAddr );
??ZDP_ParentAnnce_4:
        MOV       A,?V7
        MOV       B,#0xc
        MUL       AB
        MOV       R0,A
        MOV       R1,B
        MOV       A,?V0
        ADD       A,R0
        MOV       ?V4,A
        MOV       A,?V1
        ADDC      A,R1
        MOV       ?V5,A
        ; Setup parameters for call to function sAddrExtCpy
        MOV       R4,?V4
        MOV       R5,A
        LCALL     `??sAddrExtCpy::?relay`; Banked call to: sAddrExtCpy
//  633 
//  634     pBuf = osal_buffer_uint32( pBuf, pChildInfo[i].age );
        ; Setup parameters for call to function osal_buffer_uint32
        MOV       DPL,?V4
        MOV       DPH,?V5
        INC       DPTR
        INC       DPTR
        INC       DPTR
        INC       DPTR
        INC       DPTR
        INC       DPTR
        INC       DPTR
        INC       DPTR
        LCALL     ?PUSH_XSTACK8_X_FOUR
          CFI CFA_XSP16 add(XSP16, 24)
        LCALL     `??osal_buffer_uint32::?relay`; Banked call to: osal_buffer_uint32
        MOV       A,#0x4
        LCALL     ?DEALLOC_XSTACK8
          CFI CFA_XSP16 add(XSP16, 20)
//  635   }
        INC       ?V7
??ZDP_ParentAnnce_3:
        MOV       A,?V7
        CLR       C
        SUBB      A,?V8
        JC        ??ZDP_ParentAnnce_4
//  636 
//  637   return fillAndSend( TransSeq, dstAddr, clusterID, len );
        ; Setup parameters for call to function fillAndSend
        MOV       A,#0x16
        LCALL     ?XSTACK_DISP0_8
        LCALL     ?PUSH_XSTACK8_X_TWO
          CFI CFA_XSP16 add(XSP16, 22)
        MOV       R1,?V6
        MOV       A,R6
        MOV       R4,A
        MOV       A,R7
        MOV       R5,A
        MOV       R2,?V2
        MOV       R3,?V3
        LCALL     `??fillAndSend::?relay`; Banked call to: fillAndSend
        MOV       A,#0x2
        LCALL     ?DEALLOC_XSTACK8
          CFI CFA_XSP16 add(XSP16, 20)
??ZDP_ParentAnnce_1:
        LJMP      ??Subroutine125_0 & 0xFFFF
//  638 }
          CFI EndBlock cfiBlock104
//  639 
//  640 /*********************************************************************
//  641  * Address Responses
//  642  */
//  643 
//  644 /*********************************************************************
//  645  * @fn      zdpProcessAddrReq
//  646  *
//  647  * @brief   Process an incoming NWK_addr_req or IEEE_addr_req message and then
//  648  *          build and send a corresponding NWK_addr_rsp or IEEE_addr_rsp msg.
//  649  *
//  650  * @param   inMsg - incoming message
//  651  *
//  652  * @return  none
//  653  */

        RSEG BANKED_CODE:HUGECODE:NOROOT(0)
//  654 void zdpProcessAddrReq( zdoIncomingMsg_t *inMsg )
zdpProcessAddrReq:
          CFI Block cfiBlock105 Using cfiCommon0
          CFI Function zdpProcessAddrReq
        CODE
//  655 {
        FUNCALL zdpProcessAddrReq, sAddrExtCmp
        LOCFRAME ISTACK, 0, STACK
        LOCFRAME PSTACK, 0, STACK
        LOCFRAME XSTACK, 32, STACK
        LOCFRAME IOVERLAY, 0, STATIC
        LOCFRAME DOVERLAY, 0, STATIC
        ARGFRAME ISTACK, 0, STACK
        ARGFRAME PSTACK, 0, STACK
        ARGFRAME XSTACK, 32, STACK
        ARGFRAME IOVERLAY, 0, STATIC
        ARGFRAME DOVERLAY, 0, STATIC
        FUNCALL zdpProcessAddrReq, AssocGetWithExt
        LOCFRAME ISTACK, 0, STACK
        LOCFRAME PSTACK, 0, STACK
        LOCFRAME XSTACK, 32, STACK
        LOCFRAME IOVERLAY, 0, STATIC
        LOCFRAME DOVERLAY, 0, STATIC
        ARGFRAME ISTACK, 0, STACK
        ARGFRAME PSTACK, 0, STACK
        ARGFRAME XSTACK, 32, STACK
        ARGFRAME IOVERLAY, 0, STATIC
        ARGFRAME DOVERLAY, 0, STATIC
        FUNCALL zdpProcessAddrReq, AssocGetWithShort
        LOCFRAME ISTACK, 0, STACK
        LOCFRAME PSTACK, 0, STACK
        LOCFRAME XSTACK, 32, STACK
        LOCFRAME IOVERLAY, 0, STATIC
        LOCFRAME DOVERLAY, 0, STATIC
        ARGFRAME ISTACK, 0, STACK
        ARGFRAME PSTACK, 0, STACK
        ARGFRAME XSTACK, 32, STACK
        ARGFRAME IOVERLAY, 0, STATIC
        ARGFRAME DOVERLAY, 0, STATIC
        FUNCALL zdpProcessAddrReq, AddrMgrEntryGet
        LOCFRAME ISTACK, 0, STACK
        LOCFRAME PSTACK, 0, STACK
        LOCFRAME XSTACK, 32, STACK
        LOCFRAME IOVERLAY, 0, STATIC
        LOCFRAME DOVERLAY, 0, STATIC
        ARGFRAME ISTACK, 0, STACK
        ARGFRAME PSTACK, 0, STACK
        ARGFRAME XSTACK, 32, STACK
        ARGFRAME IOVERLAY, 0, STATIC
        ARGFRAME DOVERLAY, 0, STATIC
        FUNCALL zdpProcessAddrReq, sAddrExtCpy
        LOCFRAME ISTACK, 0, STACK
        LOCFRAME PSTACK, 0, STACK
        LOCFRAME XSTACK, 32, STACK
        LOCFRAME IOVERLAY, 0, STATIC
        LOCFRAME DOVERLAY, 0, STATIC
        ARGFRAME ISTACK, 0, STACK
        ARGFRAME PSTACK, 0, STACK
        ARGFRAME XSTACK, 32, STACK
        ARGFRAME IOVERLAY, 0, STATIC
        ARGFRAME DOVERLAY, 0, STATIC
        FUNCALL zdpProcessAddrReq, AssocMakeList
        LOCFRAME ISTACK, 0, STACK
        LOCFRAME PSTACK, 0, STACK
        LOCFRAME XSTACK, 32, STACK
        LOCFRAME IOVERLAY, 0, STATIC
        LOCFRAME DOVERLAY, 0, STATIC
        ARGFRAME ISTACK, 0, STACK
        ARGFRAME PSTACK, 0, STACK
        ARGFRAME XSTACK, 32, STACK
        ARGFRAME IOVERLAY, 0, STATIC
        ARGFRAME DOVERLAY, 0, STATIC
        FUNCALL zdpProcessAddrReq, osal_mem_free
        LOCFRAME ISTACK, 0, STACK
        LOCFRAME PSTACK, 0, STACK
        LOCFRAME XSTACK, 32, STACK
        LOCFRAME IOVERLAY, 0, STATIC
        LOCFRAME DOVERLAY, 0, STATIC
        ARGFRAME ISTACK, 0, STACK
        ARGFRAME PSTACK, 0, STACK
        ARGFRAME XSTACK, 32, STACK
        ARGFRAME IOVERLAY, 0, STATIC
        ARGFRAME DOVERLAY, 0, STATIC
        FUNCALL zdpProcessAddrReq, fillAndSend
        LOCFRAME ISTACK, 0, STACK
        LOCFRAME PSTACK, 0, STACK
        LOCFRAME XSTACK, 34, STACK
        LOCFRAME IOVERLAY, 0, STATIC
        LOCFRAME DOVERLAY, 0, STATIC
        ARGFRAME ISTACK, 0, STACK
        ARGFRAME PSTACK, 0, STACK
        ARGFRAME XSTACK, 34, STACK
        ARGFRAME IOVERLAY, 0, STATIC
        ARGFRAME DOVERLAY, 0, STATIC
        REQUIRE ?V0
        REQUIRE ?V1
        REQUIRE ?V2
        REQUIRE ?V3
        REQUIRE ?V4
        REQUIRE ?V5
        REQUIRE ?V6
        REQUIRE ?V7
        REQUIRE ?V8
        REQUIRE ?V9
        MOV       A,#-0x12
        LCALL     ?BANKED_ENTER_XDATA
          CFI DPH0 load(1, XDATA, add(CFA_XSP16, literal(-1)))
          CFI DPL0 load(1, XDATA, add(CFA_XSP16, literal(-2)))
          CFI ?BRET_EXT load(1, XDATA, add(CFA_XSP16, literal(-3)))
          CFI ?RET_HIGH load(1, XDATA, add(CFA_XSP16, literal(-4)))
          CFI ?RET_LOW load(1, XDATA, add(CFA_XSP16, literal(-5)))
          CFI R7 load(1, XDATA, add(CFA_XSP16, literal(-6)))
          CFI V9 load(1, XDATA, add(CFA_XSP16, literal(-7)))
          CFI V8 load(1, XDATA, add(CFA_XSP16, literal(-8)))
          CFI V7 load(1, XDATA, add(CFA_XSP16, literal(-9)))
          CFI V6 load(1, XDATA, add(CFA_XSP16, literal(-10)))
          CFI V5 load(1, XDATA, add(CFA_XSP16, literal(-11)))
          CFI V4 load(1, XDATA, add(CFA_XSP16, literal(-12)))
          CFI V3 load(1, XDATA, add(CFA_XSP16, literal(-13)))
          CFI V2 load(1, XDATA, add(CFA_XSP16, literal(-14)))
          CFI V1 load(1, XDATA, add(CFA_XSP16, literal(-15)))
          CFI V0 load(1, XDATA, add(CFA_XSP16, literal(-16)))
          CFI VB load(1, XDATA, add(CFA_XSP16, literal(-17)))
          CFI R6 load(1, XDATA, add(CFA_XSP16, literal(-18)))
          CFI CFA_SP SP+0
          CFI CFA_XSP16 add(XSP16, 18)
        ; Saved register size: 18
        ; Auto size: 14
        MOV       A,#-0xe
        LCALL     ?ALLOC_XSTACK8
          CFI CFA_XSP16 add(XSP16, 32)
        MOV       ?V0,R2
        MOV       ?V1,R3
//  656   associated_devices_t *pAssoc;
//  657   uint8 reqType;
//  658   uint16 aoi = INVALID_NODE_ADDR;
        MOV       ?V2,#-0x2
        MOV       ?V3,#-0x1
//  659   uint8 *ieee = NULL;
        MOV       R6,#0x0
        MOV       R7,#0x0
//  660 
//  661   reqType = inMsg->asdu[(inMsg->clusterID == NWK_addr_req) ? Z_EXTADDR_LEN : sizeof( uint16 ) ];
        MOV       A,R2
        LCALL     ?Subroutine50 & 0xFFFF
??CrossCallReturnLabel_189:
        JNZ       ??zdpProcessAddrReq_0
        MOV       R0,#0x8
        SJMP      ??zdpProcessAddrReq_1
??zdpProcessAddrReq_0:
        MOV       R0,#0x2
??zdpProcessAddrReq_1:
        MOV       A,R2
        ADD       A,#0x13
        LCALL     ??Subroutine113_0 & 0xFFFF
??CrossCallReturnLabel_183:
        ADD       A,R0
        MOV       R2,A
        INC       DPTR
        MOVX      A,@DPTR
        ADDC      A,#0x0
        MOV       DPL,R2
        MOV       DPH,A
        MOVX      A,@DPTR
        MOV       ?V4,A
//  662 
//  663   if ( inMsg->clusterID == NWK_addr_req )
        LCALL     ?Subroutine72 & 0xFFFF
??CrossCallReturnLabel_186:
        ORL       A,R1
        JNZ       ??zdpProcessAddrReq_2
//  664 
//  665   {
//  666     ieee = inMsg->asdu;
        LCALL     ?Subroutine74 & 0xFFFF
??CrossCallReturnLabel_124:
        LCALL     ?Subroutine55 & 0xFFFF
//  667 
//  668     if ( osal_ExtAddrEqual( saveExtAddr, ieee ) )
??CrossCallReturnLabel_84:
        ; Setup parameters for call to function sAddrExtCmp
        MOV       A,R6
        MOV       R4,A
        MOV       A,R7
        MOV       R5,A
        MOV       R2,#saveExtAddr & 0xff
        MOV       R3,#(saveExtAddr >> 8) & 0xff
        LCALL     `??sAddrExtCmp::?relay`; Banked call to: sAddrExtCmp
        MOV       A,R1
        JZ        ??zdpProcessAddrReq_3
//  669     {
//  670       aoi = ZDAppNwkAddr.addr.shortAddr;
        LCALL     ?Subroutine43 & 0xFFFF
//  671     }
??CrossCallReturnLabel_195:
        LJMP      ??zdpProcessAddrReq_4 & 0xFFFF
//  672     // Handle response for sleeping end devices
//  673     else if ( (ZSTACK_ROUTER_BUILD)
//  674       && (((pAssoc = AssocGetWithExt( ieee )) != NULL)
//  675              && (pAssoc->nodeRelation == CHILD_RFD)) )
??zdpProcessAddrReq_3:
        MOV       DPTR,#zgDeviceLogicalType
        MOVX      A,@DPTR
        JZ        ??zdpProcessAddrReq_5
        XRL       A,#0x1
        JZ        $+5
        LJMP      ??zdpProcessAddrReq_6 & 0xFFFF
??zdpProcessAddrReq_5:
        ; Setup parameters for call to function AssocGetWithExt
        MOV       A,R6
        MOV       R2,A
        MOV       A,R7
        MOV       R3,A
        LCALL     `??AssocGetWithExt::?relay`; Banked call to: AssocGetWithExt
        MOV       ?V6,R2
        MOV       ?V7,R3
        MOV       R0,?V6
        MOV       R1,?V7
        MOV       A,R0
        ORL       A,R1
        JNZ       $+5
        LJMP      ??zdpProcessAddrReq_6 & 0xFFFF
        MOV       DPL,R0
        MOV       DPH,R1
        INC       DPTR
        INC       DPTR
        INC       DPTR
        INC       DPTR
        MOVX      A,@DPTR
        XRL       A,#0x1
        JZ        $+5
        LJMP      ??zdpProcessAddrReq_6 & 0xFFFF
//  676     {
//  677       aoi = pAssoc->shortAddr;
        MOV       DPL,R0
        MOV       DPH,R1
        LCALL     ??Subroutine115_0 & 0xFFFF
//  678       if ( reqType != ZDP_ADDR_REQTYPE_SINGLE )
??CrossCallReturnLabel_192:
        MOV       A,?V4
        JNZ       ??zdpProcessAddrReq_7
        SJMP      ??zdpProcessAddrReq_4
//  679         reqType = 0xFF; // Force Invalid
//  680     }
//  681   }
??zdpProcessAddrReq_2:
        LCALL     ?Subroutine74 & 0xFFFF
??CrossCallReturnLabel_125:
        LCALL     ?Subroutine42 & 0xFFFF
??CrossCallReturnLabel_63:
        MOV       R2,A
        INC       DPTR
        MOVX      A,@DPTR
        MOV       R1,A
        MOV       A,R2
        ADD       A,R6
        MOV       ?V2,A
        CLR       A
        ADDC      A,R1
        MOV       ?V3,A
//  682   else  // if ( inMsg->clusterID == IEEE_addr_req )
//  683   {
//  684     aoi = BUILD_UINT16( inMsg->asdu[0], inMsg->asdu[1] );
//  685 
//  686     if ( aoi == ZDAppNwkAddr.addr.shortAddr )
        MOV       DPTR,#ZDAppNwkAddr
        MOVX      A,@DPTR
        XRL       A,?V2
        JNZ       ??zdpProcessAddrReq_8
        INC       DPTR
        MOVX      A,@DPTR
        XRL       A,?V3
??zdpProcessAddrReq_8:
        JNZ       ??zdpProcessAddrReq_9
//  687     {
//  688       ieee = saveExtAddr;
        MOV       R6,#saveExtAddr & 0xff
        MOV       R7,#(saveExtAddr >> 8) & 0xff
        SJMP      ??zdpProcessAddrReq_4
//  689     }
//  690     else if ( (ZSTACK_ROUTER_BUILD)
//  691       && (((pAssoc = AssocGetWithShort( aoi )) != NULL)
//  692              && (pAssoc->nodeRelation == CHILD_RFD)) )
??zdpProcessAddrReq_9:
        MOV       DPTR,#zgDeviceLogicalType
        MOVX      A,@DPTR
        JZ        ??zdpProcessAddrReq_10
        XRL       A,#0x1
        JNZ       ??zdpProcessAddrReq_6
??zdpProcessAddrReq_10:
        ; Setup parameters for call to function AssocGetWithShort
        MOV       R3,?V3
        LCALL     `??AssocGetWithShort::?relay`; Banked call to: AssocGetWithShort
        MOV       ?V6,R2
        MOV       ?V7,R3
        MOV       R0,?V6
        MOV       R1,?V7
        MOV       A,R0
        ORL       A,R1
        JZ        ??zdpProcessAddrReq_6
        MOV       DPL,R0
        MOV       DPH,R1
        INC       DPTR
        INC       DPTR
        INC       DPTR
        INC       DPTR
        MOVX      A,@DPTR
        XRL       A,#0x1
        JNZ       ??zdpProcessAddrReq_6
//  693     {
//  694       AddrMgrEntry_t addrEntry;
//  695       addrEntry.user = ADDRMGR_USER_DEFAULT;
        MOV       A,#0x1
        LCALL     ?XSTACK_DISP0_8
        CLR       A
        LCALL     ?Subroutine37 & 0xFFFF
//  696       addrEntry.index = pAssoc->addrIdx;
??CrossCallReturnLabel_50:
        MOV       R0,A
        INC       DPTR
        MOVX      A,@DPTR
        MOV       R1,A
        MOV       A,#0xc
        LCALL     ?XSTACK_DISP0_8
        LCALL     ??Subroutine127_0 & 0xFFFF
//  697       if ( AddrMgrEntryGet( &addrEntry ) )
??CrossCallReturnLabel_233:
        ; Setup parameters for call to function AddrMgrEntryGet
        MOV       A,#0x1
        LCALL     ?XSTACK_DISP101_8
        LCALL     `??AddrMgrEntryGet::?relay`; Banked call to: AddrMgrEntryGet
        MOV       A,R1
        JZ        ??zdpProcessAddrReq_11
//  698       {
//  699         ieee = addrEntry.extAddr;
        MOV       A,#0x4
        LCALL     ?XSTACK_DISP0_8
        MOV       R6,DPL
        MOV       R7,DPH
//  700       }
//  701 
//  702       if ( reqType != ZDP_ADDR_REQTYPE_SINGLE )
??zdpProcessAddrReq_11:
        MOV       A,?V4
        JZ        ??zdpProcessAddrReq_4
//  703         reqType = 0xFF; // Force Invalid
??zdpProcessAddrReq_7:
        MOV       ?V4,#-0x1
//  704     }
//  705   }
//  706 
//  707   if ( ((aoi != INVALID_NODE_ADDR) && (ieee != NULL)) || (inMsg->wasBroadcast == FALSE) )
??zdpProcessAddrReq_4:
        MOV       A,#-0x2
        XRL       A,?V2
        JNZ       ??zdpProcessAddrReq_12
        MOV       A,#-0x1
        XRL       A,?V3
??zdpProcessAddrReq_12:
        JZ        ??zdpProcessAddrReq_6
        MOV       A,R6
        ORL       A,R7
        JNZ       ??zdpProcessAddrReq_13
??zdpProcessAddrReq_6:
        MOV       A,?V0
        ADD       A,#0xb
        LCALL     ??Subroutine113_0 & 0xFFFF
??CrossCallReturnLabel_184:
        JZ        $+5
        LJMP      ??zdpProcessAddrReq_14 & 0xFFFF
//  708   {
//  709     uint8 stat;
//  710     uint8 *pBuf = ZDP_TmpBuf;
??zdpProcessAddrReq_13:
        LCALL     ??Subroutine123_0 & 0xFFFF
//  711     // Status + IEEE-Addr + Nwk-Addr.
//  712     uint8 len = 1 + Z_EXTADDR_LEN + 2;
??CrossCallReturnLabel_228:
        MOV       ?V5,#0xb
//  713 
//  714     // If aoi and iee are both setup, we found results
//  715     if ( (aoi != INVALID_NODE_ADDR) && (ieee != NULL) )
        MOV       A,#-0x2
        XRL       A,?V2
        JNZ       ??zdpProcessAddrReq_15
        MOV       A,#-0x1
        XRL       A,?V3
??zdpProcessAddrReq_15:
        JZ        ??zdpProcessAddrReq_16
        MOV       A,R6
        ORL       A,R7
        JZ        ??zdpProcessAddrReq_16
//  716     {
//  717       stat = ((reqType == ZDP_ADDR_REQTYPE_SINGLE) || (reqType == ZDP_ADDR_REQTYPE_EXTENDED))
//  718                     ? ZDP_SUCCESS : ZDP_INVALID_REQTYPE;
        MOV       A,?V4
        JZ        ??zdpProcessAddrReq_17
        MOV       A,#0x1
        XRL       A,?V4
        JNZ       ??zdpProcessAddrReq_18
??zdpProcessAddrReq_17:
        MOV       ?V6,#0x0
        SJMP      ??zdpProcessAddrReq_19
??zdpProcessAddrReq_18:
        MOV       ?V6,#-0x80
        SJMP      ??zdpProcessAddrReq_19
//  719     }
//  720     else
//  721     {
//  722       // not found and the req was unicast to this device
//  723       stat = ZDP_DEVICE_NOT_FOUND;
??zdpProcessAddrReq_16:
        MOV       ?V6,#-0x7f
//  724 
//  725       // Fill in the missing field with this device's address
//  726       if ( inMsg->clusterID == NWK_addr_req )
        MOV       A,?V0
        LCALL     ?Subroutine50 & 0xFFFF
??CrossCallReturnLabel_190:
        JNZ       ??zdpProcessAddrReq_20
//  727       {
//  728         aoi = ZDAppNwkAddr.addr.shortAddr;
        LCALL     ?Subroutine43 & 0xFFFF
//  729       }
??CrossCallReturnLabel_196:
        SJMP      ??zdpProcessAddrReq_19
//  730       else
//  731       {
//  732         ieee = saveExtAddr;
??zdpProcessAddrReq_20:
        MOV       R6,#saveExtAddr & 0xff
        MOV       R7,#(saveExtAddr >> 8) & 0xff
//  733       }
//  734     }
//  735 
//  736     *pBuf++ = stat;
??zdpProcessAddrReq_19:
        MOV       DPL,R2
        MOV       DPH,R3
        MOV       A,?V6
        LCALL     ?Subroutine25 & 0xFFFF
//  737 
//  738     pBuf = osal_cpyExtAddr( pBuf, ieee );
??CrossCallReturnLabel_30:
        ; Setup parameters for call to function sAddrExtCpy
        MOV       A,R6
        MOV       R4,A
        MOV       A,R7
        MOV       R5,A
        LCALL     `??sAddrExtCpy::?relay`; Banked call to: sAddrExtCpy
        MOV       ?V8,R2
        MOV       ?V9,R3
        MOV       R6,?V8
        MOV       R7,?V9
//  739 
//  740     *pBuf++ = LO_UINT16( aoi );
        MOV       DPL,R6
        MOV       DPH,R7
        MOV       A,?V2
        MOVX      @DPTR,A
//  741     *pBuf++ = HI_UINT16( aoi );
        INC       DPTR
        MOV       A,?V3
        MOVX      @DPTR,A
//  742 
//  743     if ( ZSTACK_ROUTER_BUILD )
        MOV       DPTR,#zgDeviceLogicalType
        MOVX      A,@DPTR
        JZ        ??zdpProcessAddrReq_21
        XRL       A,#0x1
        JZ        $+5
        LJMP      ??zdpProcessAddrReq_22 & 0xFFFF
//  744     {
//  745       if ( (reqType == ZDP_ADDR_REQTYPE_EXTENDED) && (aoi == ZDAppNwkAddr.addr.shortAddr)
//  746            && (stat == ZDP_SUCCESS) )
??zdpProcessAddrReq_21:
        MOV       A,#0x1
        XRL       A,?V4
        JZ        $+5
        LJMP      ??zdpProcessAddrReq_22 & 0xFFFF
        MOV       DPTR,#ZDAppNwkAddr
        MOVX      A,@DPTR
        XRL       A,?V2
        JNZ       ??zdpProcessAddrReq_23
        INC       DPTR
        MOVX      A,@DPTR
        XRL       A,?V3
??zdpProcessAddrReq_23:
        JZ        $+5
        LJMP      ??zdpProcessAddrReq_22 & 0xFFFF
        MOV       A,?V6
        JZ        $+5
        LJMP      ??zdpProcessAddrReq_22 & 0xFFFF
//  747       {
//  748         uint8  cnt = 0;
        MOV       DPL,?XSP + 0
        MOV       DPH,?XSP + 1
        CLR       A
        MOVX      @DPTR,A
//  749         uint16 *list = AssocMakeList( &cnt );
        ; Setup parameters for call to function AssocMakeList
        MOV       R2,?XSP + 0
        MOV       R3,?XSP + 1
        LCALL     `??AssocMakeList::?relay`; Banked call to: AssocMakeList
        MOV       ?V2,R2
        MOV       ?V3,R3
        MOV       R0,?V2
        MOV       R1,?V3
//  750 
//  751         if ( list != NULL )
        MOV       A,R0
        ORL       A,R1
        JNZ       $+5
        LJMP      ??zdpProcessAddrReq_24 & 0xFFFF
//  752         {
//  753           byte idx = inMsg->asdu[(((inMsg->clusterID == NWK_addr_req) ? Z_EXTADDR_LEN : sizeof( uint16 )) + 1)];
        MOV       A,?V0
        LCALL     ?Subroutine97 & 0xFFFF
??CrossCallReturnLabel_167:
        LCALL     ?Subroutine53 & 0xFFFF
??CrossCallReturnLabel_82:
        JNZ       ??zdpProcessAddrReq_25
        MOV       R2,#0x9
        SJMP      ??zdpProcessAddrReq_26
??zdpProcessAddrReq_25:
        MOV       R2,#0x3
??zdpProcessAddrReq_26:
        MOV       A,?V0
        ADD       A,#0x13
        LCALL     ??Subroutine113_0 & 0xFFFF
??CrossCallReturnLabel_185:
        ADD       A,R2
        MOV       R4,A
        INC       DPTR
        MOVX      A,@DPTR
        ADDC      A,#0x0
        MOV       DPL,R4
        MOV       DPH,A
        MOVX      A,@DPTR
        MOV       ?V2,A
//  754           uint16 *pList = list + idx;
        ADD       A,0xE0 /* A   */
        MOV       R2,A
        CLR       A
        RLC       A
        MOV       R3,A
        MOV       A,R0
        ADD       A,R2
        MOV       R4,A
        MOV       A,R1
        ADDC      A,R3
        MOV       R5,A
//  755 
//  756           // NumAssocDev field is only present on success.
//  757           if ( cnt > idx )
        MOV       DPL,?XSP + 0
        MOV       DPH,?XSP + 1
        MOVX      A,@DPTR
        MOV       R2,A
        MOV       A,?V2
        CLR       C
        SUBB      A,R2
        JNC       ??zdpProcessAddrReq_27
//  758           {
//  759             cnt -= idx;
        MOVX      A,@DPTR
        CLR       C
        SUBB      A,?V2
        MOVX      @DPTR,A
//  760             len += (cnt * sizeof( uint16 ));
        CLR       C
        RLC       A
        ADD       A,#0xb
        MOV       ?V5,A
        SJMP      ??zdpProcessAddrReq_28
//  761           }
//  762           else
//  763           {
//  764             cnt = 0;
??zdpProcessAddrReq_27:
        CLR       A
        MOVX      @DPTR,A
//  765           }
//  766           *pBuf++ = cnt;
??zdpProcessAddrReq_28:
        LCALL     ?Subroutine36 & 0xFFFF
//  767           len++;
//  768 
//  769           // StartIndex field is only present if NumAssocDev field is non-zero.
//  770           *pBuf++ = idx;
??CrossCallReturnLabel_48:
        MOV       A,?V2
        MOVX      @DPTR,A
        MOV       A,R6
        ADD       A,#0x4
        MOV       R2,A
        CLR       A
        ADDC      A,R7
        MOV       R3,A
//  771           len++;
        INC       ?V5
        INC       ?V5
        SJMP      ??zdpProcessAddrReq_29
//  772 
//  773           while ( cnt != 0 )
//  774           {
//  775             *pBuf++ = LO_UINT16( *pList );
??zdpProcessAddrReq_30:
        MOV       DPL,R4
        MOV       DPH,R5
        LCALL     ?Subroutine66 & 0xFFFF
??CrossCallReturnLabel_102:
        LCALL     ??Subroutine117_0 & 0xFFFF
//  776             *pBuf++ = HI_UINT16( *pList );
??CrossCallReturnLabel_202:
        LCALL     ?Subroutine65 & 0xFFFF
??CrossCallReturnLabel_99:
        MOVX      @DPTR,A
        MOV       A,R2
        ADD       A,#0x2
        MOV       R2,A
        JNC       ??zdpProcessAddrReq_31
        INC       R3
//  777             pList++;
??zdpProcessAddrReq_31:
        MOV       A,R4
        ADD       A,#0x2
        MOV       R4,A
        JNC       ??zdpProcessAddrReq_32
        INC       R5
//  778             cnt--;
??zdpProcessAddrReq_32:
        MOV       DPL,?XSP + 0
        MOV       DPH,?XSP + 1
        MOVX      A,@DPTR
        DEC       A
        MOVX      @DPTR,A
//  779           }
??zdpProcessAddrReq_29:
        MOV       DPL,?XSP + 0
        MOV       DPH,?XSP + 1
        MOVX      A,@DPTR
        JNZ       ??zdpProcessAddrReq_30
//  780 
//  781           osal_mem_free( (uint8 *)list );
        ; Setup parameters for call to function osal_mem_free
        MOV       A,R0
        MOV       R2,A
        MOV       A,R1
        MOV       R3,A
        LCALL     `??osal_mem_free::?relay`; Banked call to: osal_mem_free
        SJMP      ??zdpProcessAddrReq_22
//  782         }
//  783         else
//  784         {
//  785           // NumAssocDev field is only present on success.
//  786           *pBuf++ = 0;
??zdpProcessAddrReq_24:
        MOV       DPL,R6
        MOV       DPH,R7
        INC       DPTR
        INC       DPTR
        CLR       A
        MOVX      @DPTR,A
//  787           len++;
        MOV       ?V5,#0xc
//  788         }
//  789       }
//  790     }
//  791 
//  792     ZDP_TxOptions = AF_MSG_ACK_REQUEST;
??zdpProcessAddrReq_22:
