///////////////////////////////////////////////////////////////////////////////
//
// IAR C/C++ Compiler V10.10.1.4655 for 8051              16/Feb/2018  22:13:28
// Copyright 2004-2017 IAR Systems AB.
// Evaluation license - IAR Embedded Workbench for 8051, Evaluation version 10.10
//
//    Core               =  plain
//    Code model         =  banked
//    Data model         =  large
//    Calling convention =  xdata reentrant
//    Constant location  =  data_rom
//    Dptr setup         =  1,16
//                          
//    Source file        =  
//        C:\Texas Instruments\Z-Stack Home
//        1.2.2a.44539\Components\stack\af\AF.c
//    Command line       =  
//        -f C:\Users\Oskar\AppData\Local\Temp\EWA81D.tmp ("C:\Texas
//        Instruments\Z-Stack Home 1.2.2a.44539\Components\stack\af\AF.c" -D
//        FEATURE_SYSTEM_STATS -D CC2531ZNP -D POWER_SAVING -D ASSERT_RESET -D
//        FAKE_CRC_SHDW -D xTC_LINKKEY_JOIN -lC "C:\Texas Instruments\Z-Stack
//        Home 1.2.2a.44539\Projects\zstack\ZNP\CC253x\CC2531-ProdHex\List" -lA
//        "C:\Texas Instruments\Z-Stack Home
//        1.2.2a.44539\Projects\zstack\ZNP\CC253x\CC2531-ProdHex\List"
//        --diag_suppress Pe001,Pa010 -o "C:\Texas Instruments\Z-Stack Home
//        1.2.2a.44539\Projects\zstack\ZNP\CC253x\CC2531-ProdHex\Obj" -e
//        --debug --core=plain --dptr=16,1 --data_model=large
//        --code_model=banked --calling_convention=xdata_reentrant
//        --place_constants=data_rom --nr_virtual_regs 16 -f "C:\Texas
//        Instruments\Z-Stack Home
//        1.2.2a.44539\Projects\zstack\ZNP\CC253x\..\Source\znp.cfg"
//        (-DMAC_CFG_APP_PENDING_QUEUE=TRUE
//        "-DZSTACK_DEVICE_BUILD=(DEVICE_BUILD_COORDINATOR |
//        DEVICE_BUILD_ROUTER | DEVICE_BUILD_ENDDEVICE)" -DNWK_AUTO_POLL
//        -DZNP_RUN_WDOG=FALSE -DZNP_UART_BAUD=HAL_UART_BR_115200 -DZIGBEEPRO
//        -DZIGBEE_FRAGMENTATION -DINTER_PAN -DOSAL_CLOCK -DOSAL_SAPI=FALSE
//        -DSAPI_CB_FUNC=FALSE -DHOLD_AUTO_START -DNV_RESTORE -DNV_INIT
//        -DNUM_DISC_ATTEMPTS=0 -DTC_LINKKEY_JOIN -DMT_UTIL_FUNC -DMT_SYS_FUNC
//        -DMT_AF_FUNC -DMT_SAPI_FUNC -DMT_SAPI_CB_FUNC -DMT_ZDO_CB_FUNC
//        -DMT_ZDO_FUNC -DMT_ZDO_MGMT -DMT_ZDO_EXTENSIONS -DMT_APP_FUNC) -f
//        "C:\Texas Instruments\Z-Stack Home
//        1.2.2a.44539\Projects\zstack\ZNP\CC253x\..\..\Tools\CC2530DB\f8wConfig.cfg"
//        (-DZIGBEEPRO -DSECURE=1 -DZG_SECURE_DYNAMIC=0 -DREFLECTOR
//        -DDEFAULT_CHANLIST=0x00000800 -DZDAPP_CONFIG_PAN_ID=0xFFFF
//        -DNWK_START_DELAY=100 -DEXTENDED_JOINING_RANDOM_MASK=0x007F
//        -DBEACON_REQUEST_DELAY=100 -DBEACON_REQ_DELAY_MASK=0x00FF
//        -DLINK_STATUS_JITTER_MASK=0x007F -DROUTE_EXPIRY_TIME=30
//        -DAPSC_ACK_WAIT_DURATION_POLLED=3000 -DNWK_INDIRECT_MSG_TIMEOUT=7
//        -DMAX_RREQ_ENTRIES=8 -DAPSC_MAX_FRAME_RETRIES=3
//        -DNWK_MAX_DATA_RETRIES=2 -DMAX_POLL_FAILURE_RETRIES=2 -DMAX_BCAST=9
//        -DAPS_MAX_GROUPS=16 -DMAX_RTG_ENTRIES=40 -DNWK_MAX_BINDING_ENTRIES=4
//        -DMAX_BINDING_CLUSTER_IDS=4 "-DDEFAULT_KEY={0x01, 0x03, 0x05, 0x07,
//        0x09, 0x0B, 0x0D, 0x0F, 0x00, 0x02, 0x04, 0x06, 0x08, 0x0A, 0x0C,
//        0x0D}" -DMAC_MAX_FRAME_SIZE=116 -DZDNWKMGR_MIN_TRANSMISSIONS=20
//        "-DCONST=const __code" -DGENERIC=__generic -DRFD_RCVC_ALWAYS_ON=FALSE
//        -DPOLL_RATE=1000 -DQUEUED_POLL_RATE=100 -DRESPONSE_POLL_RATE=100
//        -DREJOIN_POLL_RATE=440 -DREJOIN_BACKOFF=900000 -DREJOIN_SCAN=900000)
//        -f "C:\Texas Instruments\Z-Stack Home
//        1.2.2a.44539\Projects\zstack\ZNP\CC253x\..\..\Tools\CC2530DB\f8wZCL.cfg"
//        -I "C:\Texas Instruments\Z-Stack Home
//        1.2.2a.44539\Projects\zstack\ZNP\CC253x\" -I "C:\Texas
//        Instruments\Z-Stack Home
//        1.2.2a.44539\Projects\zstack\ZNP\CC253x\Source\" -I "C:\Texas
//        Instruments\Z-Stack Home
//        1.2.2a.44539\Projects\zstack\ZNP\CC253x\..\Source\" -I "C:\Texas
//        Instruments\Z-Stack Home
//        1.2.2a.44539\Projects\zstack\ZNP\CC253x\..\..\SE\Source\" -I
//        "C:\Texas Instruments\Z-Stack Home
//        1.2.2a.44539\Projects\zstack\ZNP\CC253x\..\..\Utilities\BootLoad\Source\"
//        -I "C:\Texas Instruments\Z-Stack Home
//        1.2.2a.44539\Projects\zstack\ZNP\CC253x\..\..\ZMain\TI2530ZNP\" -I
//        "C:\Texas Instruments\Z-Stack Home
//        1.2.2a.44539\Projects\zstack\ZNP\CC253x\..\..\..\..\Components\hal\include\"
//        -I "C:\Texas Instruments\Z-Stack Home
//        1.2.2a.44539\Projects\zstack\ZNP\CC253x\..\..\..\..\Components\hal\target\CC2530USB\"
//        -I "C:\Texas Instruments\Z-Stack Home
//        1.2.2a.44539\Projects\zstack\ZNP\CC253x\..\..\..\..\Components\hal\target\CC2530USB\usb\library\"
//        -I "C:\Texas Instruments\Z-Stack Home
//        1.2.2a.44539\Projects\zstack\ZNP\CC253x\..\..\..\..\Components\hal\target\CC2530USB\usb\library\cc2531\"
//        -I "C:\Texas Instruments\Z-Stack Home
//        1.2.2a.44539\Projects\zstack\ZNP\CC253x\..\..\..\..\Components\hal\target\CC2530USB\usb\class_cdc\"
//        -I "C:\Texas Instruments\Z-Stack Home
//        1.2.2a.44539\Projects\zstack\ZNP\CC253x\..\..\..\..\Components\mac\include\"
//        -I "C:\Texas Instruments\Z-Stack Home
//        1.2.2a.44539\Projects\zstack\ZNP\CC253x\..\..\..\..\Components\mac\high_level\"
//        -I "C:\Texas Instruments\Z-Stack Home
//        1.2.2a.44539\Projects\zstack\ZNP\CC253x\..\..\..\..\Components\mac\low_level\srf04\"
//        -I "C:\Texas Instruments\Z-Stack Home
//        1.2.2a.44539\Projects\zstack\ZNP\CC253x\..\..\..\..\Components\mac\low_level\srf04\single_chip\"
//        -I "C:\Texas Instruments\Z-Stack Home
//        1.2.2a.44539\Projects\zstack\ZNP\CC253x\..\..\..\..\Components\mt\"
//        -I "C:\Texas Instruments\Z-Stack Home
//        1.2.2a.44539\Projects\zstack\ZNP\CC253x\..\..\..\..\Components\osal\include\"
//        -I "C:\Texas Instruments\Z-Stack Home
//        1.2.2a.44539\Projects\zstack\ZNP\CC253x\..\..\..\..\Components\services\ecc\binary163\"
//        -I "C:\Texas Instruments\Z-Stack Home
//        1.2.2a.44539\Projects\zstack\ZNP\CC253x\..\..\..\..\Components\services\ecc\binary283\"
//        -I "C:\Texas Instruments\Z-Stack Home
//        1.2.2a.44539\Projects\zstack\ZNP\CC253x\..\..\..\..\Components\services\saddr\"
//        -I "C:\Texas Instruments\Z-Stack Home
//        1.2.2a.44539\Projects\zstack\ZNP\CC253x\..\..\..\..\Components\services\sdata\"
//        -I "C:\Texas Instruments\Z-Stack Home
//        1.2.2a.44539\Projects\zstack\ZNP\CC253x\..\..\..\..\Components\stack\af\"
//        -I "C:\Texas Instruments\Z-Stack Home
//        1.2.2a.44539\Projects\zstack\ZNP\CC253x\..\..\..\..\Components\stack\nwk\"
//        -I "C:\Texas Instruments\Z-Stack Home
//        1.2.2a.44539\Projects\zstack\ZNP\CC253x\..\..\..\..\Components\stack\sapi\"
//        -I "C:\Texas Instruments\Z-Stack Home
//        1.2.2a.44539\Projects\zstack\ZNP\CC253x\..\..\..\..\Components\stack\sec\"
//        -I "C:\Texas Instruments\Z-Stack Home
//        1.2.2a.44539\Projects\zstack\ZNP\CC253x\..\..\..\..\Components\stack\sys\"
//        -I "C:\Texas Instruments\Z-Stack Home
//        1.2.2a.44539\Projects\zstack\ZNP\CC253x\..\..\..\..\Components\stack\zcl\"
//        -I "C:\Texas Instruments\Z-Stack Home
//        1.2.2a.44539\Projects\zstack\ZNP\CC253x\..\..\..\..\Components\stack\zdo\"
//        -I "C:\Texas Instruments\Z-Stack Home
//        1.2.2a.44539\Projects\zstack\ZNP\CC253x\..\..\..\..\Components\zmac\"
//        -I "C:\Texas Instruments\Z-Stack Home
//        1.2.2a.44539\Projects\zstack\ZNP\CC253x\..\..\..\..\Components\zmac\f8w\"
//        -Ohz --require_prototypes --no_code_motion)
//    Locale             =  German_Germany.1252
//    List file          =  
//        C:\Texas Instruments\Z-Stack Home
//        1.2.2a.44539\Projects\zstack\ZNP\CC253x\CC2531-ProdHex\List\AF.s51
//
///////////////////////////////////////////////////////////////////////////////

        NAME AF

        RTMODEL "__SystemLibrary", "CLib"
        RTMODEL "__calling_convention", "xdata_reentrant"
        RTMODEL "__code_model", "banked"
        RTMODEL "__core", "plain"
        RTMODEL "__data_model", "large"
        RTMODEL "__dptr_size", "16"
        RTMODEL "__extended_stack", "disabled"
        RTMODEL "__location_for_constants", "data"
        RTMODEL "__number_of_dptrs", "1"
        RTMODEL "__register_banks", "*"
        RTMODEL "__rt_version", "1"

        RSEG DOVERLAY:DATA:NOROOT(0)
        RSEG IOVERLAY:IDATA:NOROOT(0)
        RSEG ISTACK:IDATA:NOROOT(0)
        RSEG PSTACK:XDATA:NOROOT(0)
        RSEG XSTACK:XDATA:NOROOT(0)

        EXTERN ?V0
        EXTERN ?V1
        EXTERN ?V2
        EXTERN ?V3
        EXTERN ?V4
        EXTERN ?V5
        EXTERN ?V6
        EXTERN ?V7
        EXTERN ?V8
        EXTERN ?V9
        EXTERN ?V10
        EXTERN ?V11
        EXTERN ?V12
        EXTERN ?V13
        EXTERN ?V14
        EXTERN ?V15
        EXTERN ?ALLOC_XSTACK8
        EXTERN ?BANKED_ENTER_XDATA
        EXTERN ?BANKED_LEAVE_XDATA
        EXTERN ?BDISPATCH
        EXTERN ?BRET
        EXTERN ?CALL_IND
        EXTERN ?DEALLOC_XSTACK8
        EXTERN ?L_MOV_X
        EXTERN ?PUSH_XSTACK8_X_TWO
        EXTERN ?PUSH_XSTACK_I_FOUR
        EXTERN ?PUSH_XSTACK_I_ONE
        EXTERN ?PUSH_XSTACK_I_THREE
        EXTERN ?PUSH_XSTACK_I_TWO
        EXTERN ?XLOAD_R0123
        EXTERN ?XSP
        EXTERN ?XSTACK_DISP0_8
        EXTERN ?XSTACK_DISP101_8
        EXTERN ?XSTORE_R0123
        EXTERN __INIT_XDATA_I
        EXTERN __INIT_XDATA_Z

        PUBLIC `??AF_DataRequest::?relay`
        FUNCTION `??AF_DataRequest::?relay`,0203H
        PUBLIC `??AF_DataRequestSrcRtg::?relay`
        FUNCTION `??AF_DataRequestSrcRtg::?relay`,0203H
        PUBLIC `??afAPSF_ConfigGet::?relay`
        FUNCTION `??afAPSF_ConfigGet::?relay`,0203H
        PUBLIC `??afAPSF_ConfigSet::?relay`
        FUNCTION `??afAPSF_ConfigSet::?relay`,0203H
        FUNCTION `??afBuildMSGIncoming::?relay`,0203H
        PUBLIC `??afCopyAddress::?relay`
        FUNCTION `??afCopyAddress::?relay`,0203H
        PUBLIC `??afDataConfirm::?relay`
        FUNCTION `??afDataConfirm::?relay`,0203H
        PUBLIC `??afDataReqMTU::?relay`
        FUNCTION `??afDataReqMTU::?relay`,0203H
        PUBLIC `??afDelete::?relay`
        FUNCTION `??afDelete::?relay`,0203H
        PUBLIC `??afEndPoints::?relay`
        FUNCTION `??afEndPoints::?relay`,0203H
        PUBLIC `??afFindEndPointDesc::?relay`
        FUNCTION `??afFindEndPointDesc::?relay`,0203H
        FUNCTION `??afFindEndPointDescList::?relay`,0203H
        PUBLIC `??afFindSimpleDesc::?relay`
        FUNCTION `??afFindSimpleDesc::?relay`,0203H
        PUBLIC `??afGetMatch::?relay`
        FUNCTION `??afGetMatch::?relay`,0203H
        PUBLIC `??afIncomingData::?relay`
        FUNCTION `??afIncomingData::?relay`,0203H
        PUBLIC `??afNumEndPoints::?relay`
        FUNCTION `??afNumEndPoints::?relay`,0203H
        PUBLIC `??afReflectError::?relay`
        FUNCTION `??afReflectError::?relay`,0203H
        PUBLIC `??afRegister::?relay`
        FUNCTION `??afRegister::?relay`,0203H
        PUBLIC `??afRegisterExtended::?relay`
        FUNCTION `??afRegisterExtended::?relay`,0203H
        PUBLIC `??afSetApplCB::?relay`
        FUNCTION `??afSetApplCB::?relay`,0203H
        PUBLIC `??afSetMatch::?relay`
        FUNCTION `??afSetMatch::?relay`,0203H
        PUBLIC AF_DataRequest
        FUNCTION AF_DataRequest,0a1203H
        ARGFRAME XSTACK, 21, STACK
        ARGFRAME IOVERLAY, 0, STATIC
        ARGFRAME DOVERLAY, 0, STATIC
        LOCFRAME ISTACK, 1, STACK
        LOCFRAME XSTACK, 50, STACK
        PUBLIC AF_DataRequestDiscoverRoute
        PUBLIC AF_DataRequestSrcRtg
        FUNCTION AF_DataRequestSrcRtg,0a1203H
        ARGFRAME XSTACK, 12, STACK
        LOCFRAME XSTACK, 21, STACK
        PUBLIC afAPSF_ConfigGet
        FUNCTION afAPSF_ConfigGet,0a1203H
        ARGFRAME XSTACK, 0, STACK
        LOCFRAME XSTACK, 15, STACK
        PUBLIC afAPSF_ConfigSet
        FUNCTION afAPSF_ConfigSet,0a1203H
        ARGFRAME XSTACK, 0, STACK
        LOCFRAME XSTACK, 15, STACK
        FUNCTION afBuildMSGIncoming,0a1203H
        ARGFRAME XSTACK, 40, STACK
        ARGFRAME IOVERLAY, 0, STATIC
        ARGFRAME DOVERLAY, 0, STATIC
        LOCFRAME ISTACK, 1, STACK
        LOCFRAME XSTACK, 22, STACK
        PUBLIC afCopyAddress
        FUNCTION afCopyAddress,021203H
        ARGFRAME XSTACK, 19, STACK
        ARGFRAME IOVERLAY, 0, STATIC
        ARGFRAME DOVERLAY, 0, STATIC
        LOCFRAME ISTACK, 1, STACK
        LOCFRAME XSTACK, 9, STACK
        PUBLIC afDataConfirm
        FUNCTION afDataConfirm,0a1203H
        ARGFRAME XSTACK, 50, STACK
        ARGFRAME IOVERLAY, 0, STATIC
        ARGFRAME DOVERLAY, 0, STATIC
        LOCFRAME ISTACK, 1, STACK
        LOCFRAME XSTACK, 14, STACK
        PUBLIC afDataReqMTU
        FUNCTION afDataReqMTU,021203H
        ARGFRAME XSTACK, 50, STACK
        ARGFRAME IOVERLAY, 0, STATIC
        ARGFRAME DOVERLAY, 0, STATIC
        LOCFRAME XSTACK, 9, STACK
        PUBLIC afDelete
        FUNCTION afDelete,021203H
        ARGFRAME XSTACK, 0, STACK
        LOCFRAME XSTACK, 9, STACK
        PUBLIC afEndPoints
        FUNCTION afEndPoints,0203H
        ARGFRAME XSTACK, 0, STACK
        LOCFRAME ISTACK, 3, STACK
        PUBLIC afFindEndPointDesc
        FUNCTION afFindEndPointDesc,0a1203H
        ARGFRAME XSTACK, 28, STACK
        ARGFRAME IOVERLAY, 0, STATIC
        ARGFRAME DOVERLAY, 0, STATIC
        LOCFRAME XSTACK, 10, STACK
        FUNCTION afFindEndPointDescList,0203H
        ARGFRAME XSTACK, 50, STACK
        ARGFRAME IOVERLAY, 0, STATIC
        ARGFRAME DOVERLAY, 0, STATIC
        LOCFRAME ISTACK, 2, STACK
        PUBLIC afFindSimpleDesc
        FUNCTION afFindSimpleDesc,0a1203H
        ARGFRAME XSTACK, 0, STACK
        LOCFRAME XSTACK, 12, STACK
        PUBLIC afGetMatch
        FUNCTION afGetMatch,0a1203H
        ARGFRAME XSTACK, 0, STACK
        LOCFRAME XSTACK, 10, STACK
        PUBLIC afIncomingData
        FUNCTION afIncomingData,0a1203H
        ARGFRAME XSTACK, 10, STACK
        LOCFRAME ISTACK, 1, STACK
        LOCFRAME XSTACK, 40, STACK
        PUBLIC afNumEndPoints
        FUNCTION afNumEndPoints,0203H
        ARGFRAME XSTACK, 0, STACK
        LOCFRAME ISTACK, 2, STACK
        PUBLIC afReflectError
        FUNCTION afReflectError,0a1203H
        ARGFRAME XSTACK, 2, STACK
        LOCFRAME ISTACK, 1, STACK
        LOCFRAME XSTACK, 16, STACK
        PUBLIC afRegister
        FUNCTION afRegister,0a1203H
        ARGFRAME XSTACK, 0, STACK
        LOCFRAME XSTACK, 12, STACK
        PUBLIC afRegisterExtended
        FUNCTION afRegisterExtended,0a1203H
        ARGFRAME XSTACK, 12, STACK
        ARGFRAME IOVERLAY, 0, STATIC
        ARGFRAME DOVERLAY, 0, STATIC
        LOCFRAME XSTACK, 12, STACK
        PUBLIC afSetApplCB
        FUNCTION afSetApplCB,0a1203H
        ARGFRAME XSTACK, 0, STACK
        LOCFRAME XSTACK, 12, STACK
        PUBLIC afSetMatch
        FUNCTION afSetMatch,0a1203H
        ARGFRAME XSTACK, 0, STACK
        LOCFRAME XSTACK, 10, STACK
        PUBLIC epList
        
          CFI Names cfiNames0
          CFI StackFrame CFA_SP SP IDATA
          CFI StackFrame CFA_PSP16 PSP16 XDATA
          CFI StackFrame CFA_XSP16 XSP16 XDATA
          CFI StaticOverlayFrame CFA_IOVERLAY IOVERLAY
          CFI StaticOverlayFrame CFA_DOVERLAY DOVERLAY
          CFI Resource `PSW.CY`:1, `B.BR0`:1, `B.BR1`:1, `B.BR2`:1, `B.BR3`:1
          CFI Resource `B.BR4`:1, `B.BR5`:1, `B.BR6`:1, `B.BR7`:1, `VB.BR8`:1
          CFI Resource `VB.BR9`:1, `VB.BR10`:1, `VB.BR11`:1, `VB.BR12`:1
          CFI Resource `VB.BR13`:1, `VB.BR14`:1, `VB.BR15`:1, VB:8, B:8, A:8
          CFI Resource PSW:8, DPL0:8, DPH0:8, R0:8, R1:8, R2:8, R3:8, R4:8, R5:8
          CFI Resource R6:8, R7:8, V0:8, V1:8, V2:8, V3:8, V4:8, V5:8, V6:8, V7:8
          CFI Resource V8:8, V9:8, V10:8, V11:8, V12:8, V13:8, V14:8, V15:8, SP:8
          CFI Resource PSPH:8, PSPL:8, PSP16:16, XSPH:8, XSPL:8, XSP16:16
          CFI VirtualResource ?RET:24
          CFI Resource ?BRET_EXT:8
          CFI VirtualResource ?RET_HIGH:8, ?RET_LOW:8
          CFI ResourceParts PSP16 PSPH, PSPL
          CFI ResourceParts XSP16 XSPH, XSPL
          CFI ResourceParts ?RET ?BRET_EXT, ?RET_HIGH, ?RET_LOW
          CFI EndNames cfiNames0
        
          CFI Common cfiCommon0 Using cfiNames0
          CFI CodeAlign 1
          CFI DataAlign -1
          CFI ReturnAddress ?RET CODE
          CFI CFA_DOVERLAY Used
          CFI CFA_IOVERLAY Used
          CFI CFA_SP SP+-3
          CFI CFA_PSP16 PSP16+0
          CFI CFA_XSP16 XSP16+0
          CFI `PSW.CY` SameValue
          CFI `B.BR0` SameValue
          CFI `B.BR1` SameValue
          CFI `B.BR2` SameValue
          CFI `B.BR3` SameValue
          CFI `B.BR4` SameValue
          CFI `B.BR5` SameValue
          CFI `B.BR6` SameValue
          CFI `B.BR7` SameValue
          CFI `VB.BR8` SameValue
          CFI `VB.BR9` SameValue
          CFI `VB.BR10` SameValue
          CFI `VB.BR11` SameValue
          CFI `VB.BR12` SameValue
          CFI `VB.BR13` SameValue
          CFI `VB.BR14` SameValue
          CFI `VB.BR15` SameValue
          CFI VB SameValue
          CFI B Undefined
          CFI A Undefined
          CFI PSW SameValue
          CFI DPL0 SameValue
          CFI DPH0 SameValue
          CFI R0 Undefined
          CFI R1 Undefined
          CFI R2 Undefined
          CFI R3 Undefined
          CFI R4 Undefined
          CFI R5 Undefined
          CFI R6 SameValue
          CFI R7 SameValue
          CFI V0 SameValue
          CFI V1 SameValue
          CFI V2 SameValue
          CFI V3 SameValue
          CFI V4 SameValue
          CFI V5 SameValue
          CFI V6 SameValue
          CFI V7 SameValue
          CFI V8 SameValue
          CFI V9 SameValue
          CFI V10 SameValue
          CFI V11 SameValue
          CFI V12 SameValue
          CFI V13 SameValue
          CFI V14 SameValue
          CFI V15 SameValue
          CFI PSPH Undefined
          CFI PSPL Undefined
          CFI XSPH Undefined
          CFI XSPL Undefined
          CFI ?RET Concat
          CFI ?BRET_EXT Frame(CFA_SP, 3)
          CFI ?RET_HIGH Frame(CFA_SP, 2)
          CFI ?RET_LOW Frame(CFA_SP, 1)
          CFI EndCommon cfiCommon0
        
        
          CFI Common cfiCommon1 Using cfiNames0
          CFI CodeAlign 1
          CFI DataAlign -1
          CFI ReturnAddress ?RET CODE
          CFI CFA_DOVERLAY Used
          CFI CFA_IOVERLAY Used
          CFI CFA_SP SP+-2
          CFI CFA_PSP16 PSP16+0
          CFI CFA_XSP16 XSP16+0
          CFI `PSW.CY` SameValue
          CFI `B.BR0` SameValue
          CFI `B.BR1` SameValue
          CFI `B.BR2` SameValue
          CFI `B.BR3` SameValue
          CFI `B.BR4` SameValue
          CFI `B.BR5` SameValue
          CFI `B.BR6` SameValue
          CFI `B.BR7` SameValue
          CFI `VB.BR8` SameValue
          CFI `VB.BR9` SameValue
          CFI `VB.BR10` SameValue
          CFI `VB.BR11` SameValue
          CFI `VB.BR12` SameValue
          CFI `VB.BR13` SameValue
          CFI `VB.BR14` SameValue
          CFI `VB.BR15` SameValue
          CFI VB SameValue
          CFI B SameValue
          CFI A SameValue
          CFI PSW SameValue
          CFI DPL0 SameValue
          CFI DPH0 SameValue
          CFI R0 SameValue
          CFI R1 SameValue
          CFI R2 SameValue
          CFI R3 SameValue
          CFI R4 SameValue
          CFI R5 SameValue
          CFI R6 SameValue
          CFI R7 SameValue
          CFI V0 SameValue
          CFI V1 SameValue
          CFI V2 SameValue
          CFI V3 SameValue
          CFI V4 SameValue
          CFI V5 SameValue
          CFI V6 SameValue
          CFI V7 SameValue
          CFI V8 SameValue
          CFI V9 SameValue
          CFI V10 SameValue
          CFI V11 SameValue
          CFI V12 SameValue
          CFI V13 SameValue
          CFI V14 SameValue
          CFI V15 SameValue
          CFI PSPH Undefined
          CFI PSPL Undefined
          CFI XSPH Undefined
          CFI XSPL Undefined
          CFI ?RET Concat
          CFI ?BRET_EXT SameValue
          CFI ?RET_HIGH Frame(CFA_SP, 2)
          CFI ?RET_LOW Frame(CFA_SP, 1)
          CFI EndCommon cfiCommon1
        
APSDE_DataReq       SYMBOL "APSDE_DataReq"
`??APSDE_DataReq::?relay` SYMBOL "?relay", APSDE_DataReq
APSDE_DataReqMTU    SYMBOL "APSDE_DataReqMTU"
`??APSDE_DataReqMTU::?relay` SYMBOL "?relay", APSDE_DataReqMTU
INTERP_DataReq      SYMBOL "INTERP_DataReq"
`??INTERP_DataReq::?relay` SYMBOL "?relay", INTERP_DataReq
INTERP_DataReqMTU   SYMBOL "INTERP_DataReqMTU"
`??INTERP_DataReqMTU::?relay` SYMBOL "?relay", INTERP_DataReqMTU
NLME_GetShortAddr   SYMBOL "NLME_GetShortAddr"
`??NLME_GetShortAddr::?relay` SYMBOL "?relay", NLME_GetShortAddr
NLME_IsAddressBroadcast SYMBOL "NLME_IsAddressBroadcast"
`??NLME_IsAddressBroadcast::?relay` SYMBOL "?relay", NLME_IsAddressBroadcast
RTG_AddSrcRtgEntry_Guaranteed SYMBOL "RTG_AddSrcRtgEntry_Guaranteed"
`??RTG_AddSrcRtgEntry_Guaranteed::?relay` SYMBOL "?relay", RTG_AddSrcRtgEntry_Guaranteed
RTG_CheckRtStatus   SYMBOL "RTG_CheckRtStatus"
`??RTG_CheckRtStatus::?relay` SYMBOL "?relay", RTG_CheckRtStatus
StubAPS_InterPan    SYMBOL "StubAPS_InterPan"
`??StubAPS_InterPan::?relay` SYMBOL "?relay", StubAPS_InterPan
aps_FindGroupForEndpoint SYMBOL "aps_FindGroupForEndpoint"
`??aps_FindGroupForEndpoint::?relay` SYMBOL "?relay", aps_FindGroupForEndpoint
osal_mem_alloc      SYMBOL "osal_mem_alloc"
`??osal_mem_alloc::?relay` SYMBOL "?relay", osal_mem_alloc
osal_mem_free       SYMBOL "osal_mem_free"
`??osal_mem_free::?relay` SYMBOL "?relay", osal_mem_free
osal_memcpy         SYMBOL "osal_memcpy"
`??osal_memcpy::?relay` SYMBOL "?relay", osal_memcpy
osal_msg_allocate   SYMBOL "osal_msg_allocate"
`??osal_msg_allocate::?relay` SYMBOL "?relay", osal_msg_allocate
osal_msg_send       SYMBOL "osal_msg_send"
`??osal_msg_send::?relay` SYMBOL "?relay", osal_msg_send
sAddrExtCpy         SYMBOL "sAddrExtCpy"
`??sAddrExtCpy::?relay` SYMBOL "?relay", sAddrExtCpy
AF_DataRequest      SYMBOL "AF_DataRequest"
`??AF_DataRequest::?relay` SYMBOL "?relay", AF_DataRequest
AF_DataRequestSrcRtg SYMBOL "AF_DataRequestSrcRtg"
`??AF_DataRequestSrcRtg::?relay` SYMBOL "?relay", AF_DataRequestSrcRtg
afAPSF_ConfigGet    SYMBOL "afAPSF_ConfigGet"
`??afAPSF_ConfigGet::?relay` SYMBOL "?relay", afAPSF_ConfigGet
afAPSF_ConfigSet    SYMBOL "afAPSF_ConfigSet"
`??afAPSF_ConfigSet::?relay` SYMBOL "?relay", afAPSF_ConfigSet
afCopyAddress       SYMBOL "afCopyAddress"
`??afCopyAddress::?relay` SYMBOL "?relay", afCopyAddress
afDataConfirm       SYMBOL "afDataConfirm"
`??afDataConfirm::?relay` SYMBOL "?relay", afDataConfirm
afDataReqMTU        SYMBOL "afDataReqMTU"
`??afDataReqMTU::?relay` SYMBOL "?relay", afDataReqMTU
afDelete            SYMBOL "afDelete"
`??afDelete::?relay` SYMBOL "?relay", afDelete
afEndPoints         SYMBOL "afEndPoints"
`??afEndPoints::?relay` SYMBOL "?relay", afEndPoints
afFindEndPointDesc  SYMBOL "afFindEndPointDesc"
`??afFindEndPointDesc::?relay` SYMBOL "?relay", afFindEndPointDesc
afFindSimpleDesc    SYMBOL "afFindSimpleDesc"
`??afFindSimpleDesc::?relay` SYMBOL "?relay", afFindSimpleDesc
afGetMatch          SYMBOL "afGetMatch"
`??afGetMatch::?relay` SYMBOL "?relay", afGetMatch
afIncomingData      SYMBOL "afIncomingData"
`??afIncomingData::?relay` SYMBOL "?relay", afIncomingData
afNumEndPoints      SYMBOL "afNumEndPoints"
`??afNumEndPoints::?relay` SYMBOL "?relay", afNumEndPoints
afReflectError      SYMBOL "afReflectError"
`??afReflectError::?relay` SYMBOL "?relay", afReflectError
afRegister          SYMBOL "afRegister"
`??afRegister::?relay` SYMBOL "?relay", afRegister
afRegisterExtended  SYMBOL "afRegisterExtended"
`??afRegisterExtended::?relay` SYMBOL "?relay", afRegisterExtended
afSetApplCB         SYMBOL "afSetApplCB"
`??afSetApplCB::?relay` SYMBOL "?relay", afSetApplCB
afSetMatch          SYMBOL "afSetMatch"
`??afSetMatch::?relay` SYMBOL "?relay", afSetMatch

        EXTERN `??APSDE_DataReq::?relay`
        FUNCTION `??APSDE_DataReq::?relay`,00H
        EXTERN `??APSDE_DataReqMTU::?relay`
        FUNCTION `??APSDE_DataReqMTU::?relay`,00H
        EXTERN `??INTERP_DataReq::?relay`
        FUNCTION `??INTERP_DataReq::?relay`,00H
        EXTERN `??INTERP_DataReqMTU::?relay`
        FUNCTION `??INTERP_DataReqMTU::?relay`,00H
        EXTERN `??NLME_GetShortAddr::?relay`
        FUNCTION `??NLME_GetShortAddr::?relay`,00H
        EXTERN `??NLME_IsAddressBroadcast::?relay`
        FUNCTION `??NLME_IsAddressBroadcast::?relay`,00H
        EXTERN `??RTG_AddSrcRtgEntry_Guaranteed::?relay`
        FUNCTION `??RTG_AddSrcRtgEntry_Guaranteed::?relay`,00H
        EXTERN `??RTG_CheckRtStatus::?relay`
        FUNCTION `??RTG_CheckRtStatus::?relay`,00H
        EXTERN `??StubAPS_InterPan::?relay`
        FUNCTION `??StubAPS_InterPan::?relay`,00H
        EXTERN `??aps_FindGroupForEndpoint::?relay`
        FUNCTION `??aps_FindGroupForEndpoint::?relay`,00H
        EXTERN `??osal_mem_alloc::?relay`
        FUNCTION `??osal_mem_alloc::?relay`,00H
        EXTERN `??osal_mem_free::?relay`
        FUNCTION `??osal_mem_free::?relay`,00H
        EXTERN `??osal_memcpy::?relay`
        FUNCTION `??osal_memcpy::?relay`,00H
        EXTERN `??osal_msg_allocate::?relay`
        FUNCTION `??osal_msg_allocate::?relay`,00H
        EXTERN `??osal_msg_send::?relay`
        FUNCTION `??osal_msg_send::?relay`,00H
        EXTERN `??sAddrExtCpy::?relay`
        FUNCTION `??sAddrExtCpy::?relay`,00H
        EXTERN APSDE_DataReq
        FUNCTION APSDE_DataReq,0202H
        ARGFRAME ISTACK, 0, STACK
        ARGFRAME PSTACK, 0, STACK
        ARGFRAME XSTACK, 50, STACK
        ARGFRAME IOVERLAY, 0, STATIC
        ARGFRAME DOVERLAY, 0, STATIC
        EXTERN APSDE_DataReqMTU
        FUNCTION APSDE_DataReqMTU,0202H
        ARGFRAME ISTACK, 0, STACK
        ARGFRAME PSTACK, 0, STACK
        ARGFRAME XSTACK, 9, STACK
        ARGFRAME IOVERLAY, 0, STATIC
        ARGFRAME DOVERLAY, 0, STATIC
        EXTERN INTERP_DataReq
        FUNCTION INTERP_DataReq,0202H
        ARGFRAME ISTACK, 0, STACK
        ARGFRAME PSTACK, 0, STACK
        ARGFRAME XSTACK, 50, STACK
        ARGFRAME IOVERLAY, 0, STATIC
        ARGFRAME DOVERLAY, 0, STATIC
        EXTERN INTERP_DataReqMTU
        FUNCTION INTERP_DataReqMTU,0202H
        ARGFRAME ISTACK, 0, STACK
        ARGFRAME PSTACK, 0, STACK
        ARGFRAME XSTACK, 50, STACK
        ARGFRAME IOVERLAY, 0, STATIC
        ARGFRAME DOVERLAY, 0, STATIC
        EXTERN NLME_GetShortAddr
        FUNCTION NLME_GetShortAddr,0202H
        ARGFRAME ISTACK, 0, STACK
        ARGFRAME PSTACK, 0, STACK
        ARGFRAME XSTACK, 50, STACK
        ARGFRAME IOVERLAY, 0, STATIC
        ARGFRAME DOVERLAY, 0, STATIC
        EXTERN NLME_IsAddressBroadcast
        FUNCTION NLME_IsAddressBroadcast,0202H
        ARGFRAME ISTACK, 0, STACK
        ARGFRAME PSTACK, 0, STACK
        ARGFRAME XSTACK, 50, STACK
        ARGFRAME IOVERLAY, 0, STATIC
        ARGFRAME DOVERLAY, 0, STATIC
        EXTERN RTG_AddSrcRtgEntry_Guaranteed
        FUNCTION RTG_AddSrcRtgEntry_Guaranteed,0202H
        ARGFRAME ISTACK, 0, STACK
        ARGFRAME PSTACK, 0, STACK
        ARGFRAME XSTACK, 12, STACK
        ARGFRAME IOVERLAY, 0, STATIC
        ARGFRAME DOVERLAY, 0, STATIC
        EXTERN RTG_CheckRtStatus
        FUNCTION RTG_CheckRtStatus,0202H
        ARGFRAME ISTACK, 0, STACK
        ARGFRAME PSTACK, 0, STACK
        ARGFRAME XSTACK, 50, STACK
        ARGFRAME IOVERLAY, 0, STATIC
        ARGFRAME DOVERLAY, 0, STATIC
        EXTERN StubAPS_InterPan
        FUNCTION StubAPS_InterPan,0202H
        ARGFRAME ISTACK, 0, STACK
        ARGFRAME PSTACK, 0, STACK
        ARGFRAME XSTACK, 50, STACK
        ARGFRAME IOVERLAY, 0, STATIC
        ARGFRAME DOVERLAY, 0, STATIC
        EXTERN aps_FindGroupForEndpoint
        FUNCTION aps_FindGroupForEndpoint,0202H
        ARGFRAME ISTACK, 0, STACK
        ARGFRAME PSTACK, 0, STACK
        ARGFRAME XSTACK, 28, STACK
        ARGFRAME IOVERLAY, 0, STATIC
        ARGFRAME DOVERLAY, 0, STATIC
        EXTERN apsfSendFragmented
        EXTERN osal_mem_alloc
        FUNCTION osal_mem_alloc,0202H
        ARGFRAME ISTACK, 0, STACK
        ARGFRAME PSTACK, 0, STACK
        ARGFRAME XSTACK, 12, STACK
        ARGFRAME IOVERLAY, 0, STATIC
        ARGFRAME DOVERLAY, 0, STATIC
        EXTERN osal_mem_free
        FUNCTION osal_mem_free,0202H
        ARGFRAME ISTACK, 0, STACK
        ARGFRAME PSTACK, 0, STACK
        ARGFRAME XSTACK, 50, STACK
        ARGFRAME IOVERLAY, 0, STATIC
        ARGFRAME DOVERLAY, 0, STATIC
        EXTERN osal_memcpy
        FUNCTION osal_memcpy,0202H
        ARGFRAME ISTACK, 0, STACK
        ARGFRAME PSTACK, 0, STACK
        ARGFRAME XSTACK, 22, STACK
        ARGFRAME IOVERLAY, 0, STATIC
        ARGFRAME DOVERLAY, 0, STATIC
        EXTERN osal_msg_allocate
        FUNCTION osal_msg_allocate,0202H
        ARGFRAME ISTACK, 0, STACK
        ARGFRAME PSTACK, 0, STACK
        ARGFRAME XSTACK, 19, STACK
        ARGFRAME IOVERLAY, 0, STATIC
        ARGFRAME DOVERLAY, 0, STATIC
        EXTERN osal_msg_send
        FUNCTION osal_msg_send,0202H
        ARGFRAME ISTACK, 0, STACK
        ARGFRAME PSTACK, 0, STACK
        ARGFRAME XSTACK, 19, STACK
        ARGFRAME IOVERLAY, 0, STATIC
        ARGFRAME DOVERLAY, 0, STATIC
        EXTERN sAddrExtCpy
        FUNCTION sAddrExtCpy,0202H
        ARGFRAME ISTACK, 0, STACK
        ARGFRAME PSTACK, 0, STACK
        ARGFRAME XSTACK, 50, STACK
        ARGFRAME IOVERLAY, 0, STATIC
        ARGFRAME DOVERLAY, 0, STATIC

// C:\Texas Instruments\Z-Stack Home 1.2.2a.44539\Components\stack\af\AF.c
//    1 /**************************************************************************************************
//    2   Filename:       AF.c
//    3   Revised:        $Date: 2014-11-04 10:53:36 -0800 (Tue, 04 Nov 2014) $
//    4   Revision:       $Revision: 40974 $
//    5 
//    6   Description:    Application Framework - Device Description helper functions
//    7 
//    8 
//    9   Copyright 2004-2014 Texas Instruments Incorporated. All rights reserved.
//   10 
//   11   IMPORTANT: Your use of this Software is limited to those specific rights
//   12   granted under the terms of a software license agreement between the user
//   13   who downloaded the software, his/her employer (which must be your employer)
//   14   and Texas Instruments Incorporated (the "License").  You may not use this
//   15   Software unless you agree to abide by the terms of the License. The License
//   16   limits your use, and you acknowledge, that the Software may not be modified,
//   17   copied or distributed unless embedded on a Texas Instruments microcontroller
//   18   or used solely and exclusively in conjunction with a Texas Instruments radio
//   19   frequency transceiver, which is integrated into your product.  Other than for
//   20   the foregoing purpose, you may not use, reproduce, copy, prepare derivative
//   21   works of, modify, distribute, perform, display or sell this Software and/or
//   22   its documentation for any purpose.
//   23 
//   24   YOU FURTHER ACKNOWLEDGE AND AGREE THAT THE SOFTWARE AND DOCUMENTATION ARE
//   25   PROVIDED "AS IS" WITHOUT WARRANTY OF ANY KIND, EITHER EXPRESS OR IMPLIED,
//   26   INCLUDING WITHOUT LIMITATION, ANY WARRANTY OF MERCHANTABILITY, TITLE,
//   27   NON-INFRINGEMENT AND FITNESS FOR A PARTICULAR PURPOSE. IN NO EVENT SHALL
//   28   TEXAS INSTRUMENTS OR ITS LICENSORS BE LIABLE OR OBLIGATED UNDER CONTRACT,
//   29   NEGLIGENCE, STRICT LIABILITY, CONTRIBUTION, BREACH OF WARRANTY, OR OTHER
//   30   LEGAL EQUITABLE THEORY ANY DIRECT OR INDIRECT DAMAGES OR EXPENSES
//   31   INCLUDING BUT NOT LIMITED TO ANY INCIDENTAL, SPECIAL, INDIRECT, PUNITIVE
//   32   OR CONSEQUENTIAL DAMAGES, LOST PROFITS OR LOST DATA, COST OF PROCUREMENT
//   33   OF SUBSTITUTE GOODS, TECHNOLOGY, SERVICES, OR ANY CLAIMS BY THIRD PARTIES
//   34   (INCLUDING BUT NOT LIMITED TO ANY DEFENSE THEREOF), OR OTHER SIMILAR COSTS.
//   35 
//   36   Should you have any questions regarding your right to use this Software,
//   37   contact Texas Instruments Incorporated at www.TI.com.
//   38 **************************************************************************************************/
//   39 
//   40 /*********************************************************************
//   41  * INCLUDES
//   42  */
//   43 
//   44 #include "OSAL.h"
//   45 #include "AF.h"
//   46 #include "nwk_globals.h"
//   47 #include "nwk_util.h"
//   48 #include "aps_groups.h"
//   49 #include "ZDProfile.h"
//   50 #include "aps_frag.h"
//   51 #include "rtg.h"
//   52 
//   53 #if defined ( MT_AF_CB_FUNC )
//   54   #include "MT_AF.h"
//   55 #endif
//   56 
//   57 #if defined ( INTER_PAN )
//   58   #include "stub_aps.h"
//   59 #endif
//   60 
//   61 /*********************************************************************
//   62  * MACROS
//   63  */
//   64 
//   65 /*********************************************************************
//   66  * @fn      afSend
//   67  *
//   68  * @brief   Helper macro for V1 API to invoke V2 API.
//   69  *
//   70  * input parameters
//   71  *
//   72  * @param  *dstAddr - Full ZB destination address: Nwk Addr + End Point.
//   73  * @param   srcEP - Origination (i.e. respond to or ack to) End Point.
//   74  * @param   cID - A valid cluster ID as specified by the Profile.
//   75  * @param   len - Number of bytes of data pointed to by next param.
//   76  * @param  *buf - A pointer to the data bytes to send.
//   77  * @param   options - Valid bit mask of AF Tx Options as defined in AF.h.
//   78  * @param  *transID - A pointer to a byte which can be modified and which will
//   79  *                    be used as the transaction sequence number of the msg.
//   80  *
//   81  * output parameters
//   82  *
//   83  * @param  *transID - Incremented by one if the return value is success.
//   84  *
//   85  * @return  afStatus_t - See previous definition of afStatus_... types.
//   86  */
//   87 #define afSend( dstAddr, srcEP, cID, len, buf, transID, options, radius ) \ 
//   88         AF_DataRequest( (dstAddr), afFindEndPointDesc( (srcEP) ), \ 
//   89                           (cID), (len), (buf), (transID), (options), (radius) )
//   90 
//   91 /*********************************************************************
//   92  * GLOBAL VARIABLES
//   93  */
//   94 

        RSEG XDATA_Z:XDATA:NOROOT(0)
        DATA16
//   95 epList_t *epList;
epList:
        DS 2
        REQUIRE __INIT_XDATA_Z
//   96 
//   97 /*********************************************************************
//   98  * LOCAL FUNCTIONS
//   99  */
//  100 
//  101 static void afBuildMSGIncoming( aps_FrameFormat_t *aff, endPointDesc_t *epDesc,
//  102                 zAddrType_t *SrcAddress, uint16 SrcPanId, NLDE_Signal_t *sig,
//  103                 uint8 nwkSeqNum, uint8 SecurityUse, uint32 timestamp, uint8 radius );
//  104 
//  105 static epList_t *afFindEndPointDescList( uint8 EndPoint );
//  106 
//  107 static pDescCB afGetDescCB( endPointDesc_t *epDesc );
//  108 
//  109 /*********************************************************************
//  110  * PUBLIC FUNCTIONS
//  111  */
//  112 
//  113 /*********************************************************************
//  114  * @fn      afInit
//  115  *
//  116  * @brief   Initialization function for the AF.
//  117  *
//  118  * @param   none
//  119  *
//  120  * @return  none
//  121 void afInit( void )
//  122 {
//  123 }
//  124  */
//  125 
//  126 /*********************************************************************
//  127  * @fn      afRegisterExtended
//  128  *
//  129  * @brief   Register an Application's EndPoint description.
//  130  *
//  131  * @param   epDesc - pointer to the Application's endpoint descriptor.
//  132  * @param   descFn - pointer to descriptor callback function
//  133  * @param   applFn - pointer to the Application callback function
//  134  *
//  135  * NOTE:  The memory that epDesc is pointing to must exist after this call.
//  136  *
//  137  * @return  Pointer to epList_t on success, NULL otherwise.
//  138  */

        RSEG BANKED_CODE:HUGECODE:NOROOT(0)
//  139 epList_t *afRegisterExtended( endPointDesc_t *epDesc, pDescCB descFn, pApplCB applFn )
afRegisterExtended:
          CFI Block cfiBlock0 Using cfiCommon0
          CFI Function afRegisterExtended
        CODE
//  140 {
        FUNCALL afRegisterExtended, osal_mem_alloc
        LOCFRAME ISTACK, 0, STACK
        LOCFRAME PSTACK, 0, STACK
        LOCFRAME XSTACK, 12, STACK
        LOCFRAME IOVERLAY, 0, STATIC
        LOCFRAME DOVERLAY, 0, STATIC
        ARGFRAME ISTACK, 0, STACK
        ARGFRAME PSTACK, 0, STACK
        ARGFRAME XSTACK, 12, STACK
        ARGFRAME IOVERLAY, 0, STATIC
        ARGFRAME DOVERLAY, 0, STATIC
        REQUIRE ?V0
        REQUIRE ?V1
        REQUIRE ?V2
        REQUIRE ?V3
        MOV       A,#-0xc
        LCALL     ?BANKED_ENTER_XDATA
          CFI DPH0 load(1, XDATA, add(CFA_XSP16, literal(-1)))
          CFI DPL0 load(1, XDATA, add(CFA_XSP16, literal(-2)))
          CFI ?BRET_EXT load(1, XDATA, add(CFA_XSP16, literal(-3)))
          CFI ?RET_HIGH load(1, XDATA, add(CFA_XSP16, literal(-4)))
          CFI ?RET_LOW load(1, XDATA, add(CFA_XSP16, literal(-5)))
          CFI R7 load(1, XDATA, add(CFA_XSP16, literal(-6)))
          CFI V3 load(1, XDATA, add(CFA_XSP16, literal(-7)))
          CFI V2 load(1, XDATA, add(CFA_XSP16, literal(-8)))
          CFI V1 load(1, XDATA, add(CFA_XSP16, literal(-9)))
          CFI V0 load(1, XDATA, add(CFA_XSP16, literal(-10)))
          CFI VB load(1, XDATA, add(CFA_XSP16, literal(-11)))
          CFI R6 load(1, XDATA, add(CFA_XSP16, literal(-12)))
          CFI CFA_SP SP+0
          CFI CFA_XSP16 add(XSP16, 12)
        ; Saved register size: 12
        ; Auto size: 0
        MOV       A,R2
        MOV       R6,A
        MOV       A,R3
        MOV       R7,A
        MOV       ?V0,R4
        MOV       ?V1,R5
//  141   epList_t *ep = osal_mem_alloc(sizeof(epList_t));
        ; Setup parameters for call to function osal_mem_alloc
        MOV       R2,#0xb
        MOV       R3,#0x0
        LCALL     `??osal_mem_alloc::?relay`; Banked call to: osal_mem_alloc
//  142 
//  143   if (ep != NULL)
        MOV       A,R2
        ORL       A,R3
        JZ        ??CrossCallReturnLabel_65
//  144   {
//  145     ep->nextDesc = epList;
        MOV       DPTR,#epList
        LCALL     ?Subroutine12 & 0xFFFF
??CrossCallReturnLabel_15:
        LCALL     ??Subroutine35_0 & 0xFFFF
//  146     epList = ep;
??CrossCallReturnLabel_64:
        MOV       DPTR,#epList
        MOV       A,R2
        MOVX      @DPTR,A
        INC       DPTR
        MOV       A,R3
        LCALL     ?Subroutine25 & 0xFFFF
//  147     ep->epDesc = epDesc;
??CrossCallReturnLabel_37:
        MOV       A,R6
        MOVX      @DPTR,A
        INC       DPTR
        MOV       A,R7
        LCALL     ?Subroutine24 & 0xFFFF
//  148     ep->pfnDescCB = descFn;
??CrossCallReturnLabel_35:
        MOV       A,?V0
        MOVX      @DPTR,A
        INC       DPTR
        MOV       A,?V1
        LCALL     ?Subroutine23 & 0xFFFF
//  149     ep->apsfCfg.frameDelay = APSF_DEFAULT_INTERFRAME_DELAY;
??CrossCallReturnLabel_33:
        INC       DPTR
        MOV       A,#0x32
        LCALL     ?Subroutine20 & 0xFFFF
//  150     ep->apsfCfg.windowSize = APSF_DEFAULT_WINDOW_SIZE;
??CrossCallReturnLabel_26:
        MOV       A,#0x1
        LCALL     ?Subroutine20 & 0xFFFF
//  151     ep->flags = eEP_AllowMatch;  // Default to allow Match Descriptor.
??CrossCallReturnLabel_27:
        INC       DPTR
        MOVX      @DPTR,A
//  152     ep->pfnApplCB = applFn;
        MOV       A,#0xc
        LCALL     ?XSTACK_DISP0_8
        LCALL     ?Subroutine12 & 0xFFFF
//  153   }
??CrossCallReturnLabel_16:
        INC       DPTR
        INC       DPTR
        INC       DPTR
        INC       DPTR
        INC       DPTR
        INC       DPTR
        INC       DPTR
        INC       DPTR
        INC       DPTR
        LCALL     ??Subroutine35_0 & 0xFFFF
//  154 
//  155   return ep;
??CrossCallReturnLabel_65:
        LJMP      ?Subroutine0 & 0xFFFF
//  156 }
          CFI EndBlock cfiBlock0

        RSEG BANKED_CODE:HUGECODE:NOROOT(0)
?Subroutine20:
          CFI Block cfiCond1 Using cfiCommon0
          CFI Function afRegisterExtended
          CFI Conditional ??CrossCallReturnLabel_26
          CFI R6 load(1, XDATA, add(CFA_XSP16, literal(-12)))
          CFI VB load(1, XDATA, add(CFA_XSP16, literal(-11)))
          CFI V0 load(1, XDATA, add(CFA_XSP16, literal(-10)))
          CFI V1 load(1, XDATA, add(CFA_XSP16, literal(-9)))
          CFI V2 load(1, XDATA, add(CFA_XSP16, literal(-8)))
          CFI V3 load(1, XDATA, add(CFA_XSP16, literal(-7)))
          CFI R7 load(1, XDATA, add(CFA_XSP16, literal(-6)))
          CFI ?RET_LOW load(1, XDATA, add(CFA_XSP16, literal(-5)))
          CFI ?RET_HIGH load(1, XDATA, add(CFA_XSP16, literal(-4)))
          CFI ?BRET_EXT load(1, XDATA, add(CFA_XSP16, literal(-3)))
          CFI DPL0 load(1, XDATA, add(CFA_XSP16, literal(-2)))
          CFI DPH0 load(1, XDATA, add(CFA_XSP16, literal(-1)))
          CFI CFA_SP SP+-2
          CFI CFA_XSP16 add(XSP16, 12)
          CFI Block cfiCond2 Using cfiCommon0
          CFI (cfiCond2) Function afRegisterExtended
          CFI (cfiCond2) Conditional ??CrossCallReturnLabel_27
          CFI (cfiCond2) R6 load(1, XDATA, add(CFA_XSP16, literal(-12)))
          CFI (cfiCond2) VB load(1, XDATA, add(CFA_XSP16, literal(-11)))
          CFI (cfiCond2) V0 load(1, XDATA, add(CFA_XSP16, literal(-10)))
          CFI (cfiCond2) V1 load(1, XDATA, add(CFA_XSP16, literal(-9)))
          CFI (cfiCond2) V2 load(1, XDATA, add(CFA_XSP16, literal(-8)))
          CFI (cfiCond2) V3 load(1, XDATA, add(CFA_XSP16, literal(-7)))
          CFI (cfiCond2) R7 load(1, XDATA, add(CFA_XSP16, literal(-6)))
          CFI (cfiCond2) ?RET_LOW load(1, XDATA, add(CFA_XSP16, literal(-5)))
          CFI (cfiCond2) ?RET_HIGH load(1, XDATA, add(CFA_XSP16, literal(-4)))
          CFI (cfiCond2) ?BRET_EXT load(1, XDATA, add(CFA_XSP16, literal(-3)))
          CFI (cfiCond2) DPL0 load(1, XDATA, add(CFA_XSP16, literal(-2)))
          CFI (cfiCond2) DPH0 load(1, XDATA, add(CFA_XSP16, literal(-1)))
          CFI (cfiCond2) CFA_SP SP+-2
          CFI (cfiCond2) CFA_XSP16 add(XSP16, 12)
          CFI Block cfiPicker3 Using cfiCommon1
          CFI (cfiPicker3) NoFunction
          CFI (cfiPicker3) Picker
        LCALL     ?Subroutine29 & 0xFFFF
??CrossCallReturnLabel_47:
        INC       DPTR
        INC       DPTR
        RET
          CFI EndBlock cfiCond1
          CFI EndBlock cfiCond2
          CFI EndBlock cfiPicker3

        RSEG BANKED_CODE:HUGECODE:NOROOT(0)
?Subroutine12:
          CFI Block cfiCond4 Using cfiCommon0
          CFI Function afRegisterExtended
          CFI Conditional ??CrossCallReturnLabel_15
          CFI R6 load(1, XDATA, add(CFA_XSP16, literal(-12)))
          CFI VB load(1, XDATA, add(CFA_XSP16, literal(-11)))
          CFI V0 load(1, XDATA, add(CFA_XSP16, literal(-10)))
          CFI V1 load(1, XDATA, add(CFA_XSP16, literal(-9)))
          CFI V2 load(1, XDATA, add(CFA_XSP16, literal(-8)))
          CFI V3 load(1, XDATA, add(CFA_XSP16, literal(-7)))
          CFI R7 load(1, XDATA, add(CFA_XSP16, literal(-6)))
          CFI ?RET_LOW load(1, XDATA, add(CFA_XSP16, literal(-5)))
          CFI ?RET_HIGH load(1, XDATA, add(CFA_XSP16, literal(-4)))
          CFI ?BRET_EXT load(1, XDATA, add(CFA_XSP16, literal(-3)))
          CFI DPL0 load(1, XDATA, add(CFA_XSP16, literal(-2)))
          CFI DPH0 load(1, XDATA, add(CFA_XSP16, literal(-1)))
          CFI CFA_SP SP+-2
          CFI CFA_XSP16 add(XSP16, 12)
          CFI Block cfiCond5 Using cfiCommon0
          CFI (cfiCond5) Function afRegisterExtended
          CFI (cfiCond5) Conditional ??CrossCallReturnLabel_16
          CFI (cfiCond5) R6 load(1, XDATA, add(CFA_XSP16, literal(-12)))
          CFI (cfiCond5) VB load(1, XDATA, add(CFA_XSP16, literal(-11)))
          CFI (cfiCond5) V0 load(1, XDATA, add(CFA_XSP16, literal(-10)))
          CFI (cfiCond5) V1 load(1, XDATA, add(CFA_XSP16, literal(-9)))
          CFI (cfiCond5) V2 load(1, XDATA, add(CFA_XSP16, literal(-8)))
          CFI (cfiCond5) V3 load(1, XDATA, add(CFA_XSP16, literal(-7)))
          CFI (cfiCond5) R7 load(1, XDATA, add(CFA_XSP16, literal(-6)))
          CFI (cfiCond5) ?RET_LOW load(1, XDATA, add(CFA_XSP16, literal(-5)))
          CFI (cfiCond5) ?RET_HIGH load(1, XDATA, add(CFA_XSP16, literal(-4)))
          CFI (cfiCond5) ?BRET_EXT load(1, XDATA, add(CFA_XSP16, literal(-3)))
          CFI (cfiCond5) DPL0 load(1, XDATA, add(CFA_XSP16, literal(-2)))
          CFI (cfiCond5) DPH0 load(1, XDATA, add(CFA_XSP16, literal(-1)))
          CFI (cfiCond5) CFA_SP SP+-2
          CFI (cfiCond5) CFA_XSP16 add(XSP16, 12)
          CFI Block cfiPicker6 Using cfiCommon1
          CFI (cfiPicker6) NoFunction
          CFI (cfiPicker6) Picker
        LCALL     ?Subroutine31 & 0xFFFF
??CrossCallReturnLabel_84:
        MOV       DPL,R2
        MOV       DPH,R3
        RET
          CFI EndBlock cfiCond4
          CFI EndBlock cfiCond5
          CFI EndBlock cfiPicker6
//  157 
//  158 /*********************************************************************
//  159  * @fn      afRegister
//  160  *
//  161  * @brief   Register an Application's EndPoint description.
//  162  *
//  163  * @param   epDesc - pointer to the Application's endpoint descriptor.
//  164  *
//  165  * NOTE:  The memory that epDesc is pointing to must exist after this call.
//  166  *
//  167  * @return  afStatus_SUCCESS - Registered
//  168  *          afStatus_MEM_FAIL - not enough memory to add descriptor
//  169  *          afStatus_INVALID_PARAMETER - duplicate endpoint
//  170  */

        RSEG BANKED_CODE:HUGECODE:NOROOT(0)
//  171 afStatus_t afRegister( endPointDesc_t *epDesc )
afRegister:
          CFI Block cfiBlock7 Using cfiCommon0
          CFI Function afRegister
        CODE
//  172 {
        FUNCALL afRegister, afFindEndPointDescList
        LOCFRAME ISTACK, 0, STACK
        LOCFRAME PSTACK, 0, STACK
        LOCFRAME XSTACK, 10, STACK
        LOCFRAME IOVERLAY, 0, STATIC
        LOCFRAME DOVERLAY, 0, STATIC
        ARGFRAME ISTACK, 0, STACK
        ARGFRAME PSTACK, 0, STACK
        ARGFRAME XSTACK, 10, STACK
        ARGFRAME IOVERLAY, 0, STATIC
        ARGFRAME DOVERLAY, 0, STATIC
        FUNCALL afRegister, afRegisterExtended
        LOCFRAME ISTACK, 0, STACK
        LOCFRAME PSTACK, 0, STACK
        LOCFRAME XSTACK, 12, STACK
        LOCFRAME IOVERLAY, 0, STATIC
        LOCFRAME DOVERLAY, 0, STATIC
        ARGFRAME ISTACK, 0, STACK
        ARGFRAME PSTACK, 0, STACK
        ARGFRAME XSTACK, 12, STACK
        ARGFRAME IOVERLAY, 0, STATIC
        ARGFRAME DOVERLAY, 0, STATIC
        REQUIRE ?V0
        REQUIRE ?V1
        MOV       A,#-0xa
        LCALL     ?BANKED_ENTER_XDATA
          CFI DPH0 load(1, XDATA, add(CFA_XSP16, literal(-1)))
          CFI DPL0 load(1, XDATA, add(CFA_XSP16, literal(-2)))
          CFI ?BRET_EXT load(1, XDATA, add(CFA_XSP16, literal(-3)))
          CFI ?RET_HIGH load(1, XDATA, add(CFA_XSP16, literal(-4)))
          CFI ?RET_LOW load(1, XDATA, add(CFA_XSP16, literal(-5)))
          CFI R7 load(1, XDATA, add(CFA_XSP16, literal(-6)))
          CFI V1 load(1, XDATA, add(CFA_XSP16, literal(-7)))
          CFI V0 load(1, XDATA, add(CFA_XSP16, literal(-8)))
          CFI VB load(1, XDATA, add(CFA_XSP16, literal(-9)))
          CFI R6 load(1, XDATA, add(CFA_XSP16, literal(-10)))
          CFI CFA_SP SP+0
          CFI CFA_XSP16 add(XSP16, 10)
        ; Saved register size: 10
        ; Auto size: 0
        MOV       A,R2
        MOV       R6,A
        MOV       A,R3
        MOV       R7,A
//  173   if (afFindEndPointDescList(epDesc->endPoint))  // Look for duplicate endpoint.
        ; Setup parameters for call to function afFindEndPointDescList
        MOV       DPL,R6
        MOV       DPH,R7
        MOVX      A,@DPTR
        MOV       R1,A
        LCALL     `??afFindEndPointDescList::?relay`; Banked call to: afFindEndPointDescList
        MOV       ?V1,R3
        MOV       A,R2
        ORL       A,?V1
        JZ        ??afRegister_0
//  174   {
//  175     return afStatus_INVALID_PARAMETER;
        MOV       R1,#0x2
        SJMP      ??afRegister_1
//  176   }
//  177 
//  178   return ((NULL == afRegisterExtended(epDesc, NULL, NULL)) ? afStatus_MEM_FAIL : afStatus_SUCCESS);
??afRegister_0:
        ; Setup parameters for call to function afRegisterExtended
        CLR       A
        MOV       ?V0,A
        MOV       ?V1,A
        MOV       R0,#?V0
        LCALL     ?PUSH_XSTACK_I_TWO
          CFI CFA_XSP16 add(XSP16, 12)
        MOV       R4,#0x0
        MOV       R5,#0x0
        MOV       A,R6
        MOV       R2,A
        MOV       A,R7
        MOV       R3,A
        LCALL     `??afRegisterExtended::?relay`; Banked call to: afRegisterExtended
        MOV       A,#0x2
        LCALL     ?DEALLOC_XSTACK8
          CFI CFA_XSP16 add(XSP16, 10)
        MOV       ?V1,R3
        MOV       A,R2
        ORL       A,?V1
        JNZ       ??afRegister_2
        MOV       R1,#0x10
        SJMP      ??afRegister_1
??afRegister_2:
        MOV       R1,#0x0
??afRegister_1:
        LJMP      ?Subroutine1 & 0xFFFF
//  179 }
          CFI EndBlock cfiBlock7
//  180 
//  181 /*********************************************************************
//  182  * @fn      afDelete
//  183  *
//  184  * @brief   Delete an Application's EndPoint descriptor and frees the memory
//  185  *
//  186  * @param   EndPoint - Application Endpoint to delete
//  187  *
//  188  * @return  afStatus_SUCCESS - endpoint deleted
//  189  *          afStatus_INVALID_PARAMETER - endpoint not found
//  190  *          afStatus_FAILED - endpoint list empty
//  191  */

        RSEG BANKED_CODE:HUGECODE:NOROOT(0)
//  192 afStatus_t afDelete( uint8 EndPoint )
afDelete:
          CFI Block cfiBlock8 Using cfiCommon0
          CFI Function afDelete
        CODE
//  193 {
        FUNCALL afDelete, osal_mem_free
        LOCFRAME ISTACK, 0, STACK
        LOCFRAME PSTACK, 0, STACK
        LOCFRAME XSTACK, 9, STACK
        LOCFRAME IOVERLAY, 0, STATIC
        LOCFRAME DOVERLAY, 0, STATIC
        ARGFRAME ISTACK, 0, STACK
        ARGFRAME PSTACK, 0, STACK
        ARGFRAME XSTACK, 9, STACK
        ARGFRAME IOVERLAY, 0, STATIC
        ARGFRAME DOVERLAY, 0, STATIC
        FUNCALL afDelete, osal_mem_free
        LOCFRAME ISTACK, 0, STACK
        LOCFRAME PSTACK, 0, STACK
        LOCFRAME XSTACK, 9, STACK
        LOCFRAME IOVERLAY, 0, STATIC
        LOCFRAME DOVERLAY, 0, STATIC
        ARGFRAME ISTACK, 0, STACK
        ARGFRAME PSTACK, 0, STACK
        ARGFRAME XSTACK, 9, STACK
        ARGFRAME IOVERLAY, 0, STATIC
        ARGFRAME DOVERLAY, 0, STATIC
        MOV       A,#-0x9
        LCALL     ?BANKED_ENTER_XDATA
          CFI DPH0 load(1, XDATA, add(CFA_XSP16, literal(-1)))
          CFI DPL0 load(1, XDATA, add(CFA_XSP16, literal(-2)))
          CFI ?BRET_EXT load(1, XDATA, add(CFA_XSP16, literal(-3)))
          CFI ?RET_HIGH load(1, XDATA, add(CFA_XSP16, literal(-4)))
          CFI ?RET_LOW load(1, XDATA, add(CFA_XSP16, literal(-5)))
          CFI R7 load(1, XDATA, add(CFA_XSP16, literal(-6)))
          CFI V0 load(1, XDATA, add(CFA_XSP16, literal(-7)))
          CFI VB load(1, XDATA, add(CFA_XSP16, literal(-8)))
          CFI R6 load(1, XDATA, add(CFA_XSP16, literal(-9)))
          CFI CFA_SP SP+0
          CFI CFA_XSP16 add(XSP16, 9)
        ; Saved register size: 9
        ; Auto size: 0
        MOV       A,R1
        MOV       R6,A
//  194   epList_t *epCurrent;
//  195   epList_t *epPrevious;
//  196 
//  197   if ( epList != NULL )
        MOV       DPTR,#epList
        LCALL     ??Subroutine34_0 & 0xFFFF
??CrossCallReturnLabel_56:
        JZ        ??afDelete_0
//  198   {
//  199     epPrevious = epCurrent = epList;
        MOV       DPTR,#epList
        LCALL     ??Subroutine44_0 & 0xFFFF
//  200 
//  201     // first element of the list matches
//  202     if ( epCurrent->epDesc->endPoint == EndPoint )
??CrossCallReturnLabel_101:
        LCALL     ?Subroutine9 & 0xFFFF
??CrossCallReturnLabel_13:
        JNZ       ??afDelete_1
//  203     {
//  204       epList = epCurrent->nextDesc;
        MOV       DPL,R2
        MOV       DPH,R3
        LCALL     ??Subroutine37_0 & 0xFFFF
//  205       osal_mem_free( epCurrent );
//  206 
//  207       return ( afStatus_SUCCESS );
//  208     }
??CrossCallReturnLabel_75:
        MOV       DPTR,#epList
        MOV       A,R0
        MOVX      @DPTR,A
        INC       DPTR
        MOV       A,R1
        SJMP      ??afDelete_2
//  209     else
//  210     {
//  211       // search the list
//  212       for ( epCurrent = epPrevious->nextDesc;
??afDelete_1:
        MOV       DPL,R0
        MOV       DPH,R1
        SJMP      ??afDelete_3
//  213             epCurrent != NULL;
//  214             epCurrent = epCurrent->nextDesc )
//  215       {
//  216         if ( epCurrent->epDesc->endPoint == EndPoint )
//  217         {
//  218           epPrevious->nextDesc = epCurrent->nextDesc;
//  219           osal_mem_free( epCurrent );
//  220 
//  221           // delete the entry and free the memory
//  222           return ( afStatus_SUCCESS );
//  223         }
//  224         epPrevious = epCurrent;
??afDelete_4:
        MOV       A,R2
        MOV       R0,A
        MOV       A,R3
        MOV       R1,A
        MOV       DPL,R2
        MOV       DPH,R3
??afDelete_3:
        LCALL     ?Subroutine7 & 0xFFFF
??CrossCallReturnLabel_5:
        JZ        ??afDelete_5
        LCALL     ?Subroutine9 & 0xFFFF
??CrossCallReturnLabel_14:
        JNZ       ??afDelete_4
        MOV       DPL,R2
        MOV       DPH,R3
        LCALL     ?Subroutine8 & 0xFFFF
??CrossCallReturnLabel_8:
        MOV       DPL,R0
        MOV       DPH,R1
        MOV       A,R4
        MOVX      @DPTR,A
        INC       DPTR
        MOV       A,R5
??afDelete_2:
        MOVX      @DPTR,A
        ; Setup parameters for call to function osal_mem_free
        LCALL     `??osal_mem_free::?relay`; Banked call to: osal_mem_free
        MOV       R1,#0x0
        SJMP      ??afDelete_6
//  225       }
//  226     }
//  227 
//  228     // no endpoint found
//  229     return ( afStatus_INVALID_PARAMETER );
??afDelete_5:
        MOV       R1,#0x2
        SJMP      ??afDelete_6
//  230   }
//  231   else
//  232   {
//  233     // epList is empty
//  234     return ( afStatus_FAILED );
??afDelete_0:
        MOV       R1,#0x1
//  235   }
??afDelete_6:
          CFI EndBlock cfiBlock8
        REQUIRE ?Subroutine2
        ; // Fall through to label ?Subroutine2
//  236 }

        RSEG BANKED_CODE:HUGECODE:NOROOT(0)
?Subroutine2:
          CFI Block cfiBlock9 Using cfiCommon0
          CFI NoFunction
          CFI CFA_SP SP+0
          CFI CFA_XSP16 add(XSP16, 9)
          CFI VB load(1, XDATA, add(CFA_XSP16, literal(-8)))
          CFI DPL0 load(1, XDATA, add(CFA_XSP16, literal(-2)))
          CFI DPH0 load(1, XDATA, add(CFA_XSP16, literal(-1)))
          CFI R6 load(1, XDATA, add(CFA_XSP16, literal(-9)))
          CFI R7 load(1, XDATA, add(CFA_XSP16, literal(-6)))
          CFI V0 load(1, XDATA, add(CFA_XSP16, literal(-7)))
          CFI ?BRET_EXT load(1, XDATA, add(CFA_XSP16, literal(-3)))
          CFI ?RET_HIGH load(1, XDATA, add(CFA_XSP16, literal(-4)))
          CFI ?RET_LOW load(1, XDATA, add(CFA_XSP16, literal(-5)))
        MOV       R7,#0x1
        LJMP      ?BANKED_LEAVE_XDATA
          CFI EndBlock cfiBlock9

        RSEG BANKED_CODE:HUGECODE:NOROOT(0)
?Subroutine9:
          CFI Block cfiCond10 Using cfiCommon0
          CFI Function afDelete
          CFI Conditional ??CrossCallReturnLabel_13
          CFI R6 load(1, XDATA, add(CFA_XSP16, literal(-9)))
          CFI VB load(1, XDATA, add(CFA_XSP16, literal(-8)))
          CFI V0 load(1, XDATA, add(CFA_XSP16, literal(-7)))
          CFI R7 load(1, XDATA, add(CFA_XSP16, literal(-6)))
          CFI ?RET_LOW load(1, XDATA, add(CFA_XSP16, literal(-5)))
          CFI ?RET_HIGH load(1, XDATA, add(CFA_XSP16, literal(-4)))
          CFI ?BRET_EXT load(1, XDATA, add(CFA_XSP16, literal(-3)))
          CFI DPL0 load(1, XDATA, add(CFA_XSP16, literal(-2)))
          CFI DPH0 load(1, XDATA, add(CFA_XSP16, literal(-1)))
          CFI CFA_SP SP+-2
          CFI CFA_XSP16 add(XSP16, 9)
          CFI Block cfiCond11 Using cfiCommon0
          CFI (cfiCond11) Function afDelete
          CFI (cfiCond11) Conditional ??CrossCallReturnLabel_14
          CFI (cfiCond11) R6 load(1, XDATA, add(CFA_XSP16, literal(-9)))
          CFI (cfiCond11) VB load(1, XDATA, add(CFA_XSP16, literal(-8)))
          CFI (cfiCond11) V0 load(1, XDATA, add(CFA_XSP16, literal(-7)))
          CFI (cfiCond11) R7 load(1, XDATA, add(CFA_XSP16, literal(-6)))
          CFI (cfiCond11) ?RET_LOW load(1, XDATA, add(CFA_XSP16, literal(-5)))
          CFI (cfiCond11) ?RET_HIGH load(1, XDATA, add(CFA_XSP16, literal(-4)))
          CFI (cfiCond11) ?BRET_EXT load(1, XDATA, add(CFA_XSP16, literal(-3)))
          CFI (cfiCond11) DPL0 load(1, XDATA, add(CFA_XSP16, literal(-2)))
          CFI (cfiCond11) DPH0 load(1, XDATA, add(CFA_XSP16, literal(-1)))
          CFI (cfiCond11) CFA_SP SP+-2
          CFI (cfiCond11) CFA_XSP16 add(XSP16, 9)
          CFI Block cfiPicker12 Using cfiCommon1
          CFI (cfiPicker12) NoFunction
          CFI (cfiPicker12) Picker
        MOV       DPL,R2
        MOV       DPH,R3
        INC       DPTR
        INC       DPTR
        MOVX      A,@DPTR
        MOV       R4,A
        INC       DPTR
        MOVX      A,@DPTR
        MOV       DPH,A
        MOV       DPL,R4
        MOVX      A,@DPTR
        XRL       A,R6
        RET
          CFI EndBlock cfiCond10
          CFI EndBlock cfiCond11
          CFI EndBlock cfiPicker12
//  237 
//  238 /*********************************************************************
//  239  * @fn          afDataConfirm
//  240  *
//  241  * @brief       This function will generate the Data Confirm back to
//  242  *              the application.
//  243  *
//  244  * @param       endPoint - confirm end point
//  245  * @param       transID - transaction ID from APSDE_DATA_REQUEST
//  246  * @param       status - status of APSDE_DATA_REQUEST
//  247  *
//  248  * @return      none
//  249  */

        RSEG BANKED_CODE:HUGECODE:NOROOT(0)
//  250 void afDataConfirm( uint8 endPoint, uint8 transID, ZStatus_t status )
afDataConfirm:
          CFI Block cfiBlock13 Using cfiCommon0
          CFI Function afDataConfirm
        CODE
//  251 {
        FUNCALL afDataConfirm, afFindEndPointDesc
        LOCFRAME ISTACK, 0, STACK
        LOCFRAME PSTACK, 0, STACK
        LOCFRAME XSTACK, 14, STACK
        LOCFRAME IOVERLAY, 0, STATIC
        LOCFRAME DOVERLAY, 0, STATIC
        ARGFRAME ISTACK, 0, STACK
        ARGFRAME PSTACK, 0, STACK
        ARGFRAME XSTACK, 14, STACK
        ARGFRAME IOVERLAY, 0, STATIC
        ARGFRAME DOVERLAY, 0, STATIC
        FUNCALL afDataConfirm, osal_msg_allocate
        LOCFRAME ISTACK, 0, STACK
        LOCFRAME PSTACK, 0, STACK
        LOCFRAME XSTACK, 14, STACK
        LOCFRAME IOVERLAY, 0, STATIC
        LOCFRAME DOVERLAY, 0, STATIC
        ARGFRAME ISTACK, 0, STACK
        ARGFRAME PSTACK, 0, STACK
        ARGFRAME XSTACK, 14, STACK
        ARGFRAME IOVERLAY, 0, STATIC
        ARGFRAME DOVERLAY, 0, STATIC
        FUNCALL afDataConfirm, osal_msg_send
        LOCFRAME ISTACK, 0, STACK
        LOCFRAME PSTACK, 0, STACK
        LOCFRAME XSTACK, 14, STACK
        LOCFRAME IOVERLAY, 0, STATIC
        LOCFRAME DOVERLAY, 0, STATIC
        ARGFRAME ISTACK, 0, STACK
        ARGFRAME PSTACK, 0, STACK
        ARGFRAME XSTACK, 14, STACK
        ARGFRAME IOVERLAY, 0, STATIC
        ARGFRAME DOVERLAY, 0, STATIC
        REQUIRE ?V0
        REQUIRE ?V1
        REQUIRE ?V2
        REQUIRE ?V4
        REQUIRE ?V5
        MOV       A,#-0xe
        LCALL     ?BANKED_ENTER_XDATA
          CFI DPH0 load(1, XDATA, add(CFA_XSP16, literal(-1)))
          CFI DPL0 load(1, XDATA, add(CFA_XSP16, literal(-2)))
          CFI ?BRET_EXT load(1, XDATA, add(CFA_XSP16, literal(-3)))
          CFI ?RET_HIGH load(1, XDATA, add(CFA_XSP16, literal(-4)))
          CFI ?RET_LOW load(1, XDATA, add(CFA_XSP16, literal(-5)))
          CFI R7 load(1, XDATA, add(CFA_XSP16, literal(-6)))
          CFI V5 load(1, XDATA, add(CFA_XSP16, literal(-7)))
          CFI V4 load(1, XDATA, add(CFA_XSP16, literal(-8)))
          CFI V3 load(1, XDATA, add(CFA_XSP16, literal(-9)))
          CFI V2 load(1, XDATA, add(CFA_XSP16, literal(-10)))
          CFI V1 load(1, XDATA, add(CFA_XSP16, literal(-11)))
          CFI V0 load(1, XDATA, add(CFA_XSP16, literal(-12)))
          CFI VB load(1, XDATA, add(CFA_XSP16, literal(-13)))
          CFI R6 load(1, XDATA, add(CFA_XSP16, literal(-14)))
          CFI CFA_SP SP+0
          CFI CFA_XSP16 add(XSP16, 14)
        ; Saved register size: 14
        ; Auto size: 0
        MOV       ?V0,R1
        MOV       ?V1,R2
        MOV       ?V2,R3
//  252   endPointDesc_t *epDesc;
//  253   afDataConfirm_t *msgPtr;
//  254 
//  255   // Find the endpoint description
//  256   epDesc = afFindEndPointDesc( endPoint );
        ; Setup parameters for call to function afFindEndPointDesc
        LCALL     `??afFindEndPointDesc::?relay`; Banked call to: afFindEndPointDesc
        MOV       ?V4,R2
        MOV       ?V5,R3
        MOV       R6,?V4
        MOV       R7,?V5
//  257   if ( epDesc == NULL )
        MOV       A,R6
        ORL       A,R7
        JZ        ??afDataConfirm_0
//  258     return;
//  259 
//  260   // Determine the incoming command type
//  261   msgPtr = (afDataConfirm_t *)osal_msg_allocate( sizeof(afDataConfirm_t) );
        ; Setup parameters for call to function osal_msg_allocate
        MOV       R2,#0x4
        MOV       R3,#0x0
        LCALL     `??osal_msg_allocate::?relay`; Banked call to: osal_msg_allocate
//  262   if ( msgPtr )
        MOV       A,R2
        ORL       A,R3
        JZ        ??afDataConfirm_0
//  263   {
//  264     // Build the Data Confirm message
//  265     msgPtr->hdr.event = AF_DATA_CONFIRM_CMD;
        MOV       DPL,R2
        MOV       DPH,R3
        MOV       A,#-0x3
        MOVX      @DPTR,A
//  266     msgPtr->hdr.status = status;
        INC       DPTR
        MOV       A,?V2
        LCALL     ?Subroutine25 & 0xFFFF
//  267     msgPtr->endpoint = endPoint;
??CrossCallReturnLabel_38:
        MOV       A,?V0
        LCALL     ?Subroutine25 & 0xFFFF
//  268     msgPtr->transID = transID;
??CrossCallReturnLabel_39:
        INC       DPTR
        MOV       A,?V1
        MOVX      @DPTR,A
//  269 
//  270 #if defined ( MT_AF_CB_FUNC )
//  271     /* If MT has subscribed for this callback, don't send as a message. */
//  272     if ( AFCB_CHECK(CB_ID_AF_DATA_CNF,*(epDesc->task_id)) )
//  273     {
//  274       /* Send callback if it's subscribed */
//  275       MT_AfDataConfirm ((void *)msgPtr);
//  276       /* Release the memory. */
//  277       osal_msg_deallocate( (void *)msgPtr );
//  278     }
//  279     else
//  280 #endif
//  281     {
//  282       /* send message through task message */
//  283       osal_msg_send( *(epDesc->task_id), (uint8 *)msgPtr );
        ; Setup parameters for call to function osal_msg_send
        MOV       DPL,R6
        MOV       DPH,R7
        LCALL     ?Subroutine5 & 0xFFFF
//  284     }
//  285   }
??CrossCallReturnLabel_0:
        LCALL     `??osal_msg_send::?relay`; Banked call to: osal_msg_send
//  286 }
??afDataConfirm_0:
        MOV       R7,#0x6
        LJMP      ?BANKED_LEAVE_XDATA
          CFI EndBlock cfiBlock13

        RSEG BANKED_CODE:HUGECODE:NOROOT(0)
?Subroutine25:
          CFI Block cfiCond14 Using cfiCommon0
          CFI Function afRegisterExtended
          CFI Conditional ??CrossCallReturnLabel_37
          CFI R6 load(1, XDATA, add(CFA_XSP16, literal(-12)))
          CFI VB load(1, XDATA, add(CFA_XSP16, literal(-11)))
          CFI V0 load(1, XDATA, add(CFA_XSP16, literal(-10)))
          CFI V1 load(1, XDATA, add(CFA_XSP16, literal(-9)))
          CFI V2 load(1, XDATA, add(CFA_XSP16, literal(-8)))
          CFI V3 load(1, XDATA, add(CFA_XSP16, literal(-7)))
          CFI R7 load(1, XDATA, add(CFA_XSP16, literal(-6)))
          CFI ?RET_LOW load(1, XDATA, add(CFA_XSP16, literal(-5)))
          CFI ?RET_HIGH load(1, XDATA, add(CFA_XSP16, literal(-4)))
          CFI ?BRET_EXT load(1, XDATA, add(CFA_XSP16, literal(-3)))
          CFI DPL0 load(1, XDATA, add(CFA_XSP16, literal(-2)))
          CFI DPH0 load(1, XDATA, add(CFA_XSP16, literal(-1)))
          CFI CFA_SP SP+-2
          CFI CFA_XSP16 add(XSP16, 12)
          CFI Block cfiCond15 Using cfiCommon0
          CFI (cfiCond15) Function afDataConfirm
          CFI (cfiCond15) Conditional ??CrossCallReturnLabel_38
          CFI (cfiCond15) R6 load(1, XDATA, add(CFA_XSP16, literal(-14)))
          CFI (cfiCond15) VB load(1, XDATA, add(CFA_XSP16, literal(-13)))
          CFI (cfiCond15) V0 load(1, XDATA, add(CFA_XSP16, literal(-12)))
          CFI (cfiCond15) V1 load(1, XDATA, add(CFA_XSP16, literal(-11)))
          CFI (cfiCond15) V2 load(1, XDATA, add(CFA_XSP16, literal(-10)))
          CFI (cfiCond15) V3 load(1, XDATA, add(CFA_XSP16, literal(-9)))
          CFI (cfiCond15) V4 load(1, XDATA, add(CFA_XSP16, literal(-8)))
          CFI (cfiCond15) V5 load(1, XDATA, add(CFA_XSP16, literal(-7)))
          CFI (cfiCond15) R7 load(1, XDATA, add(CFA_XSP16, literal(-6)))
          CFI (cfiCond15) ?RET_LOW load(1, XDATA, add(CFA_XSP16, literal(-5)))
          CFI (cfiCond15) ?RET_HIGH load(1, XDATA, add(CFA_XSP16, literal(-4)))
          CFI (cfiCond15) ?BRET_EXT load(1, XDATA, add(CFA_XSP16, literal(-3)))
          CFI (cfiCond15) DPL0 load(1, XDATA, add(CFA_XSP16, literal(-2)))
          CFI (cfiCond15) DPH0 load(1, XDATA, add(CFA_XSP16, literal(-1)))
          CFI (cfiCond15) CFA_SP SP+-2
          CFI (cfiCond15) CFA_XSP16 add(XSP16, 14)
          CFI Block cfiCond16 Using cfiCommon0
          CFI (cfiCond16) Function afDataConfirm
          CFI (cfiCond16) Conditional ??CrossCallReturnLabel_39
          CFI (cfiCond16) R6 load(1, XDATA, add(CFA_XSP16, literal(-14)))
          CFI (cfiCond16) VB load(1, XDATA, add(CFA_XSP16, literal(-13)))
          CFI (cfiCond16) V0 load(1, XDATA, add(CFA_XSP16, literal(-12)))
          CFI (cfiCond16) V1 load(1, XDATA, add(CFA_XSP16, literal(-11)))
          CFI (cfiCond16) V2 load(1, XDATA, add(CFA_XSP16, literal(-10)))
          CFI (cfiCond16) V3 load(1, XDATA, add(CFA_XSP16, literal(-9)))
          CFI (cfiCond16) V4 load(1, XDATA, add(CFA_XSP16, literal(-8)))
          CFI (cfiCond16) V5 load(1, XDATA, add(CFA_XSP16, literal(-7)))
          CFI (cfiCond16) R7 load(1, XDATA, add(CFA_XSP16, literal(-6)))
          CFI (cfiCond16) ?RET_LOW load(1, XDATA, add(CFA_XSP16, literal(-5)))
          CFI (cfiCond16) ?RET_HIGH load(1, XDATA, add(CFA_XSP16, literal(-4)))
          CFI (cfiCond16) ?BRET_EXT load(1, XDATA, add(CFA_XSP16, literal(-3)))
          CFI (cfiCond16) DPL0 load(1, XDATA, add(CFA_XSP16, literal(-2)))
          CFI (cfiCond16) DPH0 load(1, XDATA, add(CFA_XSP16, literal(-1)))
          CFI (cfiCond16) CFA_SP SP+-2
          CFI (cfiCond16) CFA_XSP16 add(XSP16, 14)
          CFI Block cfiCond17 Using cfiCommon0
          CFI (cfiCond17) Function afReflectError
          CFI (cfiCond17) Conditional ??CrossCallReturnLabel_40
          CFI (cfiCond17) R6 load(1, XDATA, add(CFA_XSP16, literal(-16)))
          CFI (cfiCond17) VB load(1, XDATA, add(CFA_XSP16, literal(-15)))
          CFI (cfiCond17) V0 load(1, XDATA, add(CFA_XSP16, literal(-14)))
          CFI (cfiCond17) V1 load(1, XDATA, add(CFA_XSP16, literal(-13)))
          CFI (cfiCond17) V2 load(1, XDATA, add(CFA_XSP16, literal(-12)))
          CFI (cfiCond17) V3 load(1, XDATA, add(CFA_XSP16, literal(-11)))
          CFI (cfiCond17) V4 load(1, XDATA, add(CFA_XSP16, literal(-10)))
          CFI (cfiCond17) V5 load(1, XDATA, add(CFA_XSP16, literal(-9)))
          CFI (cfiCond17) V6 load(1, XDATA, add(CFA_XSP16, literal(-8)))
          CFI (cfiCond17) V7 load(1, XDATA, add(CFA_XSP16, literal(-7)))
          CFI (cfiCond17) R7 load(1, XDATA, add(CFA_XSP16, literal(-6)))
          CFI (cfiCond17) ?RET_LOW load(1, XDATA, add(CFA_XSP16, literal(-5)))
          CFI (cfiCond17) ?RET_HIGH load(1, XDATA, add(CFA_XSP16, literal(-4)))
          CFI (cfiCond17) ?BRET_EXT load(1, XDATA, add(CFA_XSP16, literal(-3)))
          CFI (cfiCond17) DPL0 load(1, XDATA, add(CFA_XSP16, literal(-2)))
          CFI (cfiCond17) DPH0 load(1, XDATA, add(CFA_XSP16, literal(-1)))
          CFI (cfiCond17) CFA_SP SP+-2
          CFI (cfiCond17) CFA_XSP16 add(XSP16, 16)
          CFI Block cfiPicker18 Using cfiCommon1
          CFI (cfiPicker18) NoFunction
          CFI (cfiPicker18) Picker
        MOVX      @DPTR,A
        MOV       DPL,R2
        MOV       DPH,R3
        INC       DPTR
        INC       DPTR
        RET
          CFI EndBlock cfiCond14
          CFI EndBlock cfiCond15
          CFI EndBlock cfiCond16
          CFI EndBlock cfiCond17
          CFI EndBlock cfiPicker18
//  287 
//  288 /*********************************************************************
//  289  * @fn          afReflectError
//  290  *
//  291  * @brief       This function will generate the Reflect Error message to
//  292  *              the application.
//  293  *
//  294  * @param       srcEP - Source Endpoint
//  295  * @param       dstAddrMode - mode of dstAdd - 0 - normal short addr, 1 - group Address
//  296  * @param       dstAddr - intended destination
//  297  * @param       dstEP - Destination Endpoint
//  298  * @param       transID - transaction ID from APSDE_DATA_REQUEST
//  299  * @param       status - status of APSDE_DATA_REQUEST
//  300  *
//  301  * @return      none
//  302  */

        RSEG BANKED_CODE:HUGECODE:NOROOT(0)
//  303 void afReflectError( uint8 srcEP, uint8 dstAddrMode, uint16 dstAddr, uint8 dstEP,
afReflectError:
          CFI Block cfiBlock19 Using cfiCommon0
          CFI Function afReflectError
        CODE
//  304                      uint8 transID, ZStatus_t status )
//  305 {
        FUNCALL afReflectError, afFindEndPointDesc
        LOCFRAME ISTACK, 0, STACK
        LOCFRAME PSTACK, 0, STACK
        LOCFRAME XSTACK, 16, STACK
        LOCFRAME IOVERLAY, 0, STATIC
        LOCFRAME DOVERLAY, 0, STATIC
        ARGFRAME ISTACK, 0, STACK
        ARGFRAME PSTACK, 0, STACK
        ARGFRAME XSTACK, 16, STACK
        ARGFRAME IOVERLAY, 0, STATIC
        ARGFRAME DOVERLAY, 0, STATIC
        FUNCALL afReflectError, osal_msg_allocate
        LOCFRAME ISTACK, 0, STACK
        LOCFRAME PSTACK, 0, STACK
        LOCFRAME XSTACK, 16, STACK
        LOCFRAME IOVERLAY, 0, STATIC
        LOCFRAME DOVERLAY, 0, STATIC
        ARGFRAME ISTACK, 0, STACK
        ARGFRAME PSTACK, 0, STACK
        ARGFRAME XSTACK, 16, STACK
        ARGFRAME IOVERLAY, 0, STATIC
        ARGFRAME DOVERLAY, 0, STATIC
        FUNCALL afReflectError, osal_msg_send
        LOCFRAME ISTACK, 0, STACK
        LOCFRAME PSTACK, 0, STACK
        LOCFRAME XSTACK, 16, STACK
        LOCFRAME IOVERLAY, 0, STATIC
        LOCFRAME DOVERLAY, 0, STATIC
        ARGFRAME ISTACK, 0, STACK
        ARGFRAME PSTACK, 0, STACK
        ARGFRAME XSTACK, 16, STACK
        ARGFRAME IOVERLAY, 0, STATIC
        ARGFRAME DOVERLAY, 0, STATIC
        REQUIRE ?V0
        REQUIRE ?V1
        REQUIRE ?V2
        REQUIRE ?V3
        REQUIRE ?V4
        REQUIRE ?V6
        REQUIRE ?V7
        MOV       A,#-0x10
        LCALL     ?BANKED_ENTER_XDATA
          CFI DPH0 load(1, XDATA, add(CFA_XSP16, literal(-1)))
          CFI DPL0 load(1, XDATA, add(CFA_XSP16, literal(-2)))
          CFI ?BRET_EXT load(1, XDATA, add(CFA_XSP16, literal(-3)))
          CFI ?RET_HIGH load(1, XDATA, add(CFA_XSP16, literal(-4)))
          CFI ?RET_LOW load(1, XDATA, add(CFA_XSP16, literal(-5)))
          CFI R7 load(1, XDATA, add(CFA_XSP16, literal(-6)))
          CFI V7 load(1, XDATA, add(CFA_XSP16, literal(-7)))
          CFI V6 load(1, XDATA, add(CFA_XSP16, literal(-8)))
          CFI V5 load(1, XDATA, add(CFA_XSP16, literal(-9)))
          CFI V4 load(1, XDATA, add(CFA_XSP16, literal(-10)))
          CFI V3 load(1, XDATA, add(CFA_XSP16, literal(-11)))
          CFI V2 load(1, XDATA, add(CFA_XSP16, literal(-12)))
          CFI V1 load(1, XDATA, add(CFA_XSP16, literal(-13)))
          CFI V0 load(1, XDATA, add(CFA_XSP16, literal(-14)))
          CFI VB load(1, XDATA, add(CFA_XSP16, literal(-15)))
          CFI R6 load(1, XDATA, add(CFA_XSP16, literal(-16)))
          CFI CFA_SP SP+0
          CFI CFA_XSP16 add(XSP16, 16)
        ; Saved register size: 16
        ; Auto size: 0
        MOV       ?V3,R2
        MOV       A,R4
        MOV       R6,A
        MOV       A,R5
        MOV       R7,A
        MOV       ?V4,R3
//  306   endPointDesc_t *epDesc;
//  307   afReflectError_t *msgPtr;
//  308 
//  309   // Find the endpoint description
//  310   epDesc = afFindEndPointDesc( srcEP );
        ; Setup parameters for call to function afFindEndPointDesc
        LCALL     `??afFindEndPointDesc::?relay`; Banked call to: afFindEndPointDesc
        MOV       ?V0,R2
        MOV       ?V1,R3
//  311   if ( epDesc == NULL )
        MOV       A,R2
        ORL       A,?V1
        JZ        ??afReflectError_0
//  312     return;
//  313 
//  314   // Determine the incoming command type
//  315   msgPtr = (afReflectError_t *)osal_msg_allocate( sizeof(afReflectError_t) );
        ; Setup parameters for call to function osal_msg_allocate
        MOV       R2,#0x7
        MOV       R3,#0x0
        LCALL     `??osal_msg_allocate::?relay`; Banked call to: osal_msg_allocate
//  316   if ( msgPtr )
        MOV       A,R2
        ORL       A,R3
        JZ        ??afReflectError_0
//  317   {
//  318     // Build the Data Confirm message
//  319     msgPtr->hdr.event = AF_REFLECT_ERROR_CMD;
        MOV       DPL,R2
        MOV       DPH,R3
        MOV       A,#-0x2
        MOVX      @DPTR,A
//  320     msgPtr->hdr.status = status;
        MOV       A,#0x11
        LCALL     ?XSTACK_DISP0_8
        MOVX      A,@DPTR
        MOV       DPL,R2
        MOV       DPH,R3
        INC       DPTR
        LCALL     ?Subroutine25 & 0xFFFF
//  321     msgPtr->endpoint = dstEP;
??CrossCallReturnLabel_40:
        MOV       A,?V4
        MOVX      @DPTR,A
//  322     msgPtr->transID = transID;
        MOV       A,#0x10
        LCALL     ?XSTACK_DISP0_8
        MOVX      A,@DPTR
        MOV       DPL,R2
        MOV       DPH,R3
        INC       DPTR
        INC       DPTR
        INC       DPTR
        LCALL     ?Subroutine24 & 0xFFFF
//  323     msgPtr->dstAddrMode = dstAddrMode;
//  324     msgPtr->dstAddr = dstAddr;
//  325 
//  326 #if defined ( MT_AF_CB_FUNC )
//  327     /* If MT has subscribed for this callback, don't send as a message. */
//  328     if ( AFCB_CHECK( CB_ID_AF_REFLECT_ERROR, *(epDesc->task_id) ) )
//  329     {
//  330       /* Send callback if it's subscribed */
//  331       MT_AfReflectError( (void *)msgPtr );
//  332       /* Release the memory. */
//  333       osal_msg_deallocate( (void *)msgPtr );
//  334     }
//  335     else
//  336 #endif
//  337     {
//  338       /* send message through task message */
//  339       osal_msg_send( *(epDesc->task_id), (uint8 *)msgPtr );
//  340     }
//  341   }
??CrossCallReturnLabel_36:
        MOV       A,?V3
        LCALL     ?Subroutine23 & 0xFFFF
??CrossCallReturnLabel_34:
        MOV       A,R6
        MOVX      @DPTR,A
        INC       DPTR
        MOV       A,R7
        LCALL     ?Subroutine22 & 0xFFFF
??CrossCallReturnLabel_30:
        LCALL     ?Subroutine5 & 0xFFFF
??CrossCallReturnLabel_1:
        LCALL     `??osal_msg_send::?relay`; Banked call to: osal_msg_send
//  342 }
??afReflectError_0:
        MOV       R7,#0x8
        LJMP      ?BANKED_LEAVE_XDATA
          CFI EndBlock cfiBlock19

        RSEG BANKED_CODE:HUGECODE:NOROOT(0)
?Subroutine24:
          CFI Block cfiCond20 Using cfiCommon0
          CFI Function afRegisterExtended
          CFI Conditional ??CrossCallReturnLabel_35
          CFI R6 load(1, XDATA, add(CFA_XSP16, literal(-12)))
          CFI VB load(1, XDATA, add(CFA_XSP16, literal(-11)))
          CFI V0 load(1, XDATA, add(CFA_XSP16, literal(-10)))
          CFI V1 load(1, XDATA, add(CFA_XSP16, literal(-9)))
          CFI V2 load(1, XDATA, add(CFA_XSP16, literal(-8)))
          CFI V3 load(1, XDATA, add(CFA_XSP16, literal(-7)))
          CFI R7 load(1, XDATA, add(CFA_XSP16, literal(-6)))
          CFI ?RET_LOW load(1, XDATA, add(CFA_XSP16, literal(-5)))
          CFI ?RET_HIGH load(1, XDATA, add(CFA_XSP16, literal(-4)))
          CFI ?BRET_EXT load(1, XDATA, add(CFA_XSP16, literal(-3)))
          CFI DPL0 load(1, XDATA, add(CFA_XSP16, literal(-2)))
          CFI DPH0 load(1, XDATA, add(CFA_XSP16, literal(-1)))
          CFI CFA_SP SP+-2
          CFI CFA_XSP16 add(XSP16, 12)
          CFI Block cfiCond21 Using cfiCommon0
          CFI (cfiCond21) Function afReflectError
          CFI (cfiCond21) Conditional ??CrossCallReturnLabel_36
          CFI (cfiCond21) R6 load(1, XDATA, add(CFA_XSP16, literal(-16)))
          CFI (cfiCond21) VB load(1, XDATA, add(CFA_XSP16, literal(-15)))
          CFI (cfiCond21) V0 load(1, XDATA, add(CFA_XSP16, literal(-14)))
          CFI (cfiCond21) V1 load(1, XDATA, add(CFA_XSP16, literal(-13)))
          CFI (cfiCond21) V2 load(1, XDATA, add(CFA_XSP16, literal(-12)))
          CFI (cfiCond21) V3 load(1, XDATA, add(CFA_XSP16, literal(-11)))
          CFI (cfiCond21) V4 load(1, XDATA, add(CFA_XSP16, literal(-10)))
          CFI (cfiCond21) V5 load(1, XDATA, add(CFA_XSP16, literal(-9)))
          CFI (cfiCond21) V6 load(1, XDATA, add(CFA_XSP16, literal(-8)))
          CFI (cfiCond21) V7 load(1, XDATA, add(CFA_XSP16, literal(-7)))
          CFI (cfiCond21) R7 load(1, XDATA, add(CFA_XSP16, literal(-6)))
          CFI (cfiCond21) ?RET_LOW load(1, XDATA, add(CFA_XSP16, literal(-5)))
          CFI (cfiCond21) ?RET_HIGH load(1, XDATA, add(CFA_XSP16, literal(-4)))
          CFI (cfiCond21) ?BRET_EXT load(1, XDATA, add(CFA_XSP16, literal(-3)))
          CFI (cfiCond21) DPL0 load(1, XDATA, add(CFA_XSP16, literal(-2)))
          CFI (cfiCond21) DPH0 load(1, XDATA, add(CFA_XSP16, literal(-1)))
          CFI (cfiCond21) CFA_SP SP+-2
          CFI (cfiCond21) CFA_XSP16 add(XSP16, 16)
          CFI Block cfiPicker22 Using cfiCommon1
          CFI (cfiPicker22) NoFunction
          CFI (cfiPicker22) Picker
        LCALL     ?Subroutine32 & 0xFFFF
??CrossCallReturnLabel_53:
        RET
          CFI EndBlock cfiCond20
          CFI EndBlock cfiCond21
          CFI EndBlock cfiPicker22

        RSEG BANKED_CODE:HUGECODE:NOROOT(0)
?Subroutine32:
          CFI Block cfiCond23 Using cfiCommon0
          CFI Function afRegisterExtended
          CFI Conditional ??CrossCallReturnLabel_53, ??CrossCallReturnLabel_35
          CFI R6 load(1, XDATA, add(CFA_XSP16, literal(-12)))
          CFI VB load(1, XDATA, add(CFA_XSP16, literal(-11)))
          CFI V0 load(1, XDATA, add(CFA_XSP16, literal(-10)))
          CFI V1 load(1, XDATA, add(CFA_XSP16, literal(-9)))
          CFI V2 load(1, XDATA, add(CFA_XSP16, literal(-8)))
          CFI V3 load(1, XDATA, add(CFA_XSP16, literal(-7)))
          CFI R7 load(1, XDATA, add(CFA_XSP16, literal(-6)))
          CFI ?RET_LOW load(1, XDATA, add(CFA_XSP16, literal(-5)))
          CFI ?RET_HIGH load(1, XDATA, add(CFA_XSP16, literal(-4)))
          CFI ?BRET_EXT load(1, XDATA, add(CFA_XSP16, literal(-3)))
          CFI DPL0 load(1, XDATA, add(CFA_XSP16, literal(-2)))
          CFI DPH0 load(1, XDATA, add(CFA_XSP16, literal(-1)))
          CFI CFA_SP SP+-4
          CFI CFA_XSP16 add(XSP16, 12)
          CFI Block cfiCond24 Using cfiCommon0
          CFI (cfiCond24) Function afReflectError
          CFI (cfiCond24) Conditional ??CrossCallReturnLabel_53, ??CrossCallReturnLabel_36
          CFI (cfiCond24) R6 load(1, XDATA, add(CFA_XSP16, literal(-16)))
          CFI (cfiCond24) VB load(1, XDATA, add(CFA_XSP16, literal(-15)))
          CFI (cfiCond24) V0 load(1, XDATA, add(CFA_XSP16, literal(-14)))
          CFI (cfiCond24) V1 load(1, XDATA, add(CFA_XSP16, literal(-13)))
          CFI (cfiCond24) V2 load(1, XDATA, add(CFA_XSP16, literal(-12)))
          CFI (cfiCond24) V3 load(1, XDATA, add(CFA_XSP16, literal(-11)))
          CFI (cfiCond24) V4 load(1, XDATA, add(CFA_XSP16, literal(-10)))
          CFI (cfiCond24) V5 load(1, XDATA, add(CFA_XSP16, literal(-9)))
          CFI (cfiCond24) V6 load(1, XDATA, add(CFA_XSP16, literal(-8)))
          CFI (cfiCond24) V7 load(1, XDATA, add(CFA_XSP16, literal(-7)))
          CFI (cfiCond24) R7 load(1, XDATA, add(CFA_XSP16, literal(-6)))
          CFI (cfiCond24) ?RET_LOW load(1, XDATA, add(CFA_XSP16, literal(-5)))
          CFI (cfiCond24) ?RET_HIGH load(1, XDATA, add(CFA_XSP16, literal(-4)))
          CFI (cfiCond24) ?BRET_EXT load(1, XDATA, add(CFA_XSP16, literal(-3)))
          CFI (cfiCond24) DPL0 load(1, XDATA, add(CFA_XSP16, literal(-2)))
          CFI (cfiCond24) DPH0 load(1, XDATA, add(CFA_XSP16, literal(-1)))
          CFI (cfiCond24) CFA_SP SP+-4
          CFI (cfiCond24) CFA_XSP16 add(XSP16, 16)
          CFI Block cfiCond25 Using cfiCommon0
          CFI (cfiCond25) Function afRegisterExtended
          CFI (cfiCond25) Conditional ??CrossCallReturnLabel_54, ??CrossCallReturnLabel_47, ??CrossCallReturnLabel_26
          CFI (cfiCond25) R6 load(1, XDATA, add(CFA_XSP16, literal(-12)))
          CFI (cfiCond25) VB load(1, XDATA, add(CFA_XSP16, literal(-11)))
          CFI (cfiCond25) V0 load(1, XDATA, add(CFA_XSP16, literal(-10)))
          CFI (cfiCond25) V1 load(1, XDATA, add(CFA_XSP16, literal(-9)))
          CFI (cfiCond25) V2 load(1, XDATA, add(CFA_XSP16, literal(-8)))
          CFI (cfiCond25) V3 load(1, XDATA, add(CFA_XSP16, literal(-7)))
          CFI (cfiCond25) R7 load(1, XDATA, add(CFA_XSP16, literal(-6)))
          CFI (cfiCond25) ?RET_LOW load(1, XDATA, add(CFA_XSP16, literal(-5)))
          CFI (cfiCond25) ?RET_HIGH load(1, XDATA, add(CFA_XSP16, literal(-4)))
          CFI (cfiCond25) ?BRET_EXT load(1, XDATA, add(CFA_XSP16, literal(-3)))
          CFI (cfiCond25) DPL0 load(1, XDATA, add(CFA_XSP16, literal(-2)))
          CFI (cfiCond25) DPH0 load(1, XDATA, add(CFA_XSP16, literal(-1)))
          CFI (cfiCond25) CFA_SP SP+-6
          CFI (cfiCond25) CFA_XSP16 add(XSP16, 12)
          CFI Block cfiCond26 Using cfiCommon0
          CFI (cfiCond26) Function afRegisterExtended
          CFI (cfiCond26) Conditional ??CrossCallReturnLabel_54, ??CrossCallReturnLabel_47, ??CrossCallReturnLabel_27
          CFI (cfiCond26) R6 load(1, XDATA, add(CFA_XSP16, literal(-12)))
          CFI (cfiCond26) VB load(1, XDATA, add(CFA_XSP16, literal(-11)))
          CFI (cfiCond26) V0 load(1, XDATA, add(CFA_XSP16, literal(-10)))
          CFI (cfiCond26) V1 load(1, XDATA, add(CFA_XSP16, literal(-9)))
          CFI (cfiCond26) V2 load(1, XDATA, add(CFA_XSP16, literal(-8)))
          CFI (cfiCond26) V3 load(1, XDATA, add(CFA_XSP16, literal(-7)))
          CFI (cfiCond26) R7 load(1, XDATA, add(CFA_XSP16, literal(-6)))
          CFI (cfiCond26) ?RET_LOW load(1, XDATA, add(CFA_XSP16, literal(-5)))
          CFI (cfiCond26) ?RET_HIGH load(1, XDATA, add(CFA_XSP16, literal(-4)))
          CFI (cfiCond26) ?BRET_EXT load(1, XDATA, add(CFA_XSP16, literal(-3)))
          CFI (cfiCond26) DPL0 load(1, XDATA, add(CFA_XSP16, literal(-2)))
          CFI (cfiCond26) DPH0 load(1, XDATA, add(CFA_XSP16, literal(-1)))
          CFI (cfiCond26) CFA_SP SP+-6
          CFI (cfiCond26) CFA_XSP16 add(XSP16, 12)
          CFI Block cfiCond27 Using cfiCommon0
          CFI (cfiCond27) Function afRegisterExtended
          CFI (cfiCond27) Conditional ??CrossCallReturnLabel_54, ??CrossCallReturnLabel_48, ??CrossCallReturnLabel_33
          CFI (cfiCond27) R6 load(1, XDATA, add(CFA_XSP16, literal(-12)))
          CFI (cfiCond27) VB load(1, XDATA, add(CFA_XSP16, literal(-11)))
          CFI (cfiCond27) V0 load(1, XDATA, add(CFA_XSP16, literal(-10)))
          CFI (cfiCond27) V1 load(1, XDATA, add(CFA_XSP16, literal(-9)))
          CFI (cfiCond27) V2 load(1, XDATA, add(CFA_XSP16, literal(-8)))
          CFI (cfiCond27) V3 load(1, XDATA, add(CFA_XSP16, literal(-7)))
          CFI (cfiCond27) R7 load(1, XDATA, add(CFA_XSP16, literal(-6)))
          CFI (cfiCond27) ?RET_LOW load(1, XDATA, add(CFA_XSP16, literal(-5)))
          CFI (cfiCond27) ?RET_HIGH load(1, XDATA, add(CFA_XSP16, literal(-4)))
          CFI (cfiCond27) ?BRET_EXT load(1, XDATA, add(CFA_XSP16, literal(-3)))
          CFI (cfiCond27) DPL0 load(1, XDATA, add(CFA_XSP16, literal(-2)))
          CFI (cfiCond27) DPH0 load(1, XDATA, add(CFA_XSP16, literal(-1)))
          CFI (cfiCond27) CFA_SP SP+-6
          CFI (cfiCond27) CFA_XSP16 add(XSP16, 12)
          CFI Block cfiCond28 Using cfiCommon0
          CFI (cfiCond28) Function afReflectError
          CFI (cfiCond28) Conditional ??CrossCallReturnLabel_54, ??CrossCallReturnLabel_48, ??CrossCallReturnLabel_34
          CFI (cfiCond28) R6 load(1, XDATA, add(CFA_XSP16, literal(-16)))
          CFI (cfiCond28) VB load(1, XDATA, add(CFA_XSP16, literal(-15)))
          CFI (cfiCond28) V0 load(1, XDATA, add(CFA_XSP16, literal(-14)))
          CFI (cfiCond28) V1 load(1, XDATA, add(CFA_XSP16, literal(-13)))
          CFI (cfiCond28) V2 load(1, XDATA, add(CFA_XSP16, literal(-12)))
          CFI (cfiCond28) V3 load(1, XDATA, add(CFA_XSP16, literal(-11)))
          CFI (cfiCond28) V4 load(1, XDATA, add(CFA_XSP16, literal(-10)))
          CFI (cfiCond28) V5 load(1, XDATA, add(CFA_XSP16, literal(-9)))
          CFI (cfiCond28) V6 load(1, XDATA, add(CFA_XSP16, literal(-8)))
          CFI (cfiCond28) V7 load(1, XDATA, add(CFA_XSP16, literal(-7)))
          CFI (cfiCond28) R7 load(1, XDATA, add(CFA_XSP16, literal(-6)))
          CFI (cfiCond28) ?RET_LOW load(1, XDATA, add(CFA_XSP16, literal(-5)))
          CFI (cfiCond28) ?RET_HIGH load(1, XDATA, add(CFA_XSP16, literal(-4)))
          CFI (cfiCond28) ?BRET_EXT load(1, XDATA, add(CFA_XSP16, literal(-3)))
          CFI (cfiCond28) DPL0 load(1, XDATA, add(CFA_XSP16, literal(-2)))
          CFI (cfiCond28) DPH0 load(1, XDATA, add(CFA_XSP16, literal(-1)))
          CFI (cfiCond28) CFA_SP SP+-6
          CFI (cfiCond28) CFA_XSP16 add(XSP16, 16)
          CFI Block cfiPicker29 Using cfiCommon1
          CFI (cfiPicker29) NoFunction
          CFI (cfiPicker29) Picker
        MOVX      @DPTR,A
        MOV       DPL,R2
        MOV       DPH,R3
        INC       DPTR
        INC       DPTR
        INC       DPTR
        INC       DPTR
        RET
          CFI EndBlock cfiCond23
          CFI EndBlock cfiCond24
          CFI EndBlock cfiCond25
          CFI EndBlock cfiCond26
          CFI EndBlock cfiCond27
          CFI EndBlock cfiCond28
          CFI EndBlock cfiPicker29

        RSEG BANKED_CODE:HUGECODE:NOROOT(0)
?Subroutine23:
          CFI Block cfiCond30 Using cfiCommon0
          CFI Function afRegisterExtended
          CFI Conditional ??CrossCallReturnLabel_33
          CFI R6 load(1, XDATA, add(CFA_XSP16, literal(-12)))
          CFI VB load(1, XDATA, add(CFA_XSP16, literal(-11)))
          CFI V0 load(1, XDATA, add(CFA_XSP16, literal(-10)))
          CFI V1 load(1, XDATA, add(CFA_XSP16, literal(-9)))
          CFI V2 load(1, XDATA, add(CFA_XSP16, literal(-8)))
          CFI V3 load(1, XDATA, add(CFA_XSP16, literal(-7)))
          CFI R7 load(1, XDATA, add(CFA_XSP16, literal(-6)))
          CFI ?RET_LOW load(1, XDATA, add(CFA_XSP16, literal(-5)))
          CFI ?RET_HIGH load(1, XDATA, add(CFA_XSP16, literal(-4)))
          CFI ?BRET_EXT load(1, XDATA, add(CFA_XSP16, literal(-3)))
          CFI DPL0 load(1, XDATA, add(CFA_XSP16, literal(-2)))
          CFI DPH0 load(1, XDATA, add(CFA_XSP16, literal(-1)))
          CFI CFA_SP SP+-2
          CFI CFA_XSP16 add(XSP16, 12)
          CFI Block cfiCond31 Using cfiCommon0
          CFI (cfiCond31) Function afReflectError
          CFI (cfiCond31) Conditional ??CrossCallReturnLabel_34
          CFI (cfiCond31) R6 load(1, XDATA, add(CFA_XSP16, literal(-16)))
          CFI (cfiCond31) VB load(1, XDATA, add(CFA_XSP16, literal(-15)))
          CFI (cfiCond31) V0 load(1, XDATA, add(CFA_XSP16, literal(-14)))
          CFI (cfiCond31) V1 load(1, XDATA, add(CFA_XSP16, literal(-13)))
          CFI (cfiCond31) V2 load(1, XDATA, add(CFA_XSP16, literal(-12)))
          CFI (cfiCond31) V3 load(1, XDATA, add(CFA_XSP16, literal(-11)))
          CFI (cfiCond31) V4 load(1, XDATA, add(CFA_XSP16, literal(-10)))
          CFI (cfiCond31) V5 load(1, XDATA, add(CFA_XSP16, literal(-9)))
          CFI (cfiCond31) V6 load(1, XDATA, add(CFA_XSP16, literal(-8)))
          CFI (cfiCond31) V7 load(1, XDATA, add(CFA_XSP16, literal(-7)))
          CFI (cfiCond31) R7 load(1, XDATA, add(CFA_XSP16, literal(-6)))
          CFI (cfiCond31) ?RET_LOW load(1, XDATA, add(CFA_XSP16, literal(-5)))
          CFI (cfiCond31) ?RET_HIGH load(1, XDATA, add(CFA_XSP16, literal(-4)))
          CFI (cfiCond31) ?BRET_EXT load(1, XDATA, add(CFA_XSP16, literal(-3)))
          CFI (cfiCond31) DPL0 load(1, XDATA, add(CFA_XSP16, literal(-2)))
          CFI (cfiCond31) DPH0 load(1, XDATA, add(CFA_XSP16, literal(-1)))
          CFI (cfiCond31) CFA_SP SP+-2
          CFI (cfiCond31) CFA_XSP16 add(XSP16, 16)
          CFI Block cfiPicker32 Using cfiCommon1
          CFI (cfiPicker32) NoFunction
          CFI (cfiPicker32) Picker
        LCALL     ?Subroutine29 & 0xFFFF
??CrossCallReturnLabel_48:
        RET
          CFI EndBlock cfiCond30
          CFI EndBlock cfiCond31
          CFI EndBlock cfiPicker32

        RSEG BANKED_CODE:HUGECODE:NOROOT(0)
?Subroutine29:
          CFI Block cfiCond33 Using cfiCommon0
          CFI Function afRegisterExtended
          CFI Conditional ??CrossCallReturnLabel_47, ??CrossCallReturnLabel_26
          CFI R6 load(1, XDATA, add(CFA_XSP16, literal(-12)))
          CFI VB load(1, XDATA, add(CFA_XSP16, literal(-11)))
          CFI V0 load(1, XDATA, add(CFA_XSP16, literal(-10)))
          CFI V1 load(1, XDATA, add(CFA_XSP16, literal(-9)))
          CFI V2 load(1, XDATA, add(CFA_XSP16, literal(-8)))
          CFI V3 load(1, XDATA, add(CFA_XSP16, literal(-7)))
          CFI R7 load(1, XDATA, add(CFA_XSP16, literal(-6)))
          CFI ?RET_LOW load(1, XDATA, add(CFA_XSP16, literal(-5)))
          CFI ?RET_HIGH load(1, XDATA, add(CFA_XSP16, literal(-4)))
          CFI ?BRET_EXT load(1, XDATA, add(CFA_XSP16, literal(-3)))
          CFI DPL0 load(1, XDATA, add(CFA_XSP16, literal(-2)))
          CFI DPH0 load(1, XDATA, add(CFA_XSP16, literal(-1)))
          CFI CFA_SP SP+-4
          CFI CFA_XSP16 add(XSP16, 12)
          CFI Block cfiCond34 Using cfiCommon0
          CFI (cfiCond34) Function afRegisterExtended
          CFI (cfiCond34) Conditional ??CrossCallReturnLabel_47, ??CrossCallReturnLabel_27
          CFI (cfiCond34) R6 load(1, XDATA, add(CFA_XSP16, literal(-12)))
          CFI (cfiCond34) VB load(1, XDATA, add(CFA_XSP16, literal(-11)))
          CFI (cfiCond34) V0 load(1, XDATA, add(CFA_XSP16, literal(-10)))
          CFI (cfiCond34) V1 load(1, XDATA, add(CFA_XSP16, literal(-9)))
          CFI (cfiCond34) V2 load(1, XDATA, add(CFA_XSP16, literal(-8)))
          CFI (cfiCond34) V3 load(1, XDATA, add(CFA_XSP16, literal(-7)))
          CFI (cfiCond34) R7 load(1, XDATA, add(CFA_XSP16, literal(-6)))
          CFI (cfiCond34) ?RET_LOW load(1, XDATA, add(CFA_XSP16, literal(-5)))
          CFI (cfiCond34) ?RET_HIGH load(1, XDATA, add(CFA_XSP16, literal(-4)))
          CFI (cfiCond34) ?BRET_EXT load(1, XDATA, add(CFA_XSP16, literal(-3)))
          CFI (cfiCond34) DPL0 load(1, XDATA, add(CFA_XSP16, literal(-2)))
          CFI (cfiCond34) DPH0 load(1, XDATA, add(CFA_XSP16, literal(-1)))
          CFI (cfiCond34) CFA_SP SP+-4
          CFI (cfiCond34) CFA_XSP16 add(XSP16, 12)
          CFI Block cfiCond35 Using cfiCommon0
          CFI (cfiCond35) Function afRegisterExtended
          CFI (cfiCond35) Conditional ??CrossCallReturnLabel_48, ??CrossCallReturnLabel_33
          CFI (cfiCond35) R6 load(1, XDATA, add(CFA_XSP16, literal(-12)))
          CFI (cfiCond35) VB load(1, XDATA, add(CFA_XSP16, literal(-11)))
          CFI (cfiCond35) V0 load(1, XDATA, add(CFA_XSP16, literal(-10)))
          CFI (cfiCond35) V1 load(1, XDATA, add(CFA_XSP16, literal(-9)))
          CFI (cfiCond35) V2 load(1, XDATA, add(CFA_XSP16, literal(-8)))
          CFI (cfiCond35) V3 load(1, XDATA, add(CFA_XSP16, literal(-7)))
          CFI (cfiCond35) R7 load(1, XDATA, add(CFA_XSP16, literal(-6)))
          CFI (cfiCond35) ?RET_LOW load(1, XDATA, add(CFA_XSP16, literal(-5)))
          CFI (cfiCond35) ?RET_HIGH load(1, XDATA, add(CFA_XSP16, literal(-4)))
          CFI (cfiCond35) ?BRET_EXT load(1, XDATA, add(CFA_XSP16, literal(-3)))
          CFI (cfiCond35) DPL0 load(1, XDATA, add(CFA_XSP16, literal(-2)))
          CFI (cfiCond35) DPH0 load(1, XDATA, add(CFA_XSP16, literal(-1)))
          CFI (cfiCond35) CFA_SP SP+-4
          CFI (cfiCond35) CFA_XSP16 add(XSP16, 12)
          CFI Block cfiCond36 Using cfiCommon0
          CFI (cfiCond36) Function afReflectError
          CFI (cfiCond36) Conditional ??CrossCallReturnLabel_48, ??CrossCallReturnLabel_34
          CFI (cfiCond36) R6 load(1, XDATA, add(CFA_XSP16, literal(-16)))
          CFI (cfiCond36) VB load(1, XDATA, add(CFA_XSP16, literal(-15)))
          CFI (cfiCond36) V0 load(1, XDATA, add(CFA_XSP16, literal(-14)))
          CFI (cfiCond36) V1 load(1, XDATA, add(CFA_XSP16, literal(-13)))
          CFI (cfiCond36) V2 load(1, XDATA, add(CFA_XSP16, literal(-12)))
          CFI (cfiCond36) V3 load(1, XDATA, add(CFA_XSP16, literal(-11)))
          CFI (cfiCond36) V4 load(1, XDATA, add(CFA_XSP16, literal(-10)))
          CFI (cfiCond36) V5 load(1, XDATA, add(CFA_XSP16, literal(-9)))
          CFI (cfiCond36) V6 load(1, XDATA, add(CFA_XSP16, literal(-8)))
          CFI (cfiCond36) V7 load(1, XDATA, add(CFA_XSP16, literal(-7)))
          CFI (cfiCond36) R7 load(1, XDATA, add(CFA_XSP16, literal(-6)))
          CFI (cfiCond36) ?RET_LOW load(1, XDATA, add(CFA_XSP16, literal(-5)))
          CFI (cfiCond36) ?RET_HIGH load(1, XDATA, add(CFA_XSP16, literal(-4)))
          CFI (cfiCond36) ?BRET_EXT load(1, XDATA, add(CFA_XSP16, literal(-3)))
          CFI (cfiCond36) DPL0 load(1, XDATA, add(CFA_XSP16, literal(-2)))
          CFI (cfiCond36) DPH0 load(1, XDATA, add(CFA_XSP16, literal(-1)))
          CFI (cfiCond36) CFA_SP SP+-4
          CFI (cfiCond36) CFA_XSP16 add(XSP16, 16)
          CFI Block cfiPicker37 Using cfiCommon1
          CFI (cfiPicker37) NoFunction
          CFI (cfiPicker37) Picker
        LCALL     ?Subroutine32 & 0xFFFF
??CrossCallReturnLabel_54:
        INC       DPTR
        RET
          CFI EndBlock cfiCond33
          CFI EndBlock cfiCond34
          CFI EndBlock cfiCond35
          CFI EndBlock cfiCond36
          CFI EndBlock cfiPicker37

        RSEG BANKED_CODE:HUGECODE:NOROOT(0)
?Subroutine5:
          CFI Block cfiCond38 Using cfiCommon0
          CFI Function afDataConfirm
          CFI Conditional ??CrossCallReturnLabel_0
          CFI R6 load(1, XDATA, add(CFA_XSP16, literal(-14)))
          CFI VB load(1, XDATA, add(CFA_XSP16, literal(-13)))
          CFI V0 load(1, XDATA, add(CFA_XSP16, literal(-12)))
          CFI V1 load(1, XDATA, add(CFA_XSP16, literal(-11)))
          CFI V2 load(1, XDATA, add(CFA_XSP16, literal(-10)))
          CFI V3 load(1, XDATA, add(CFA_XSP16, literal(-9)))
          CFI V4 load(1, XDATA, add(CFA_XSP16, literal(-8)))
          CFI V5 load(1, XDATA, add(CFA_XSP16, literal(-7)))
          CFI R7 load(1, XDATA, add(CFA_XSP16, literal(-6)))
          CFI ?RET_LOW load(1, XDATA, add(CFA_XSP16, literal(-5)))
          CFI ?RET_HIGH load(1, XDATA, add(CFA_XSP16, literal(-4)))
          CFI ?BRET_EXT load(1, XDATA, add(CFA_XSP16, literal(-3)))
          CFI DPL0 load(1, XDATA, add(CFA_XSP16, literal(-2)))
          CFI DPH0 load(1, XDATA, add(CFA_XSP16, literal(-1)))
          CFI CFA_SP SP+-2
          CFI CFA_XSP16 add(XSP16, 14)
          CFI Block cfiCond39 Using cfiCommon0
          CFI (cfiCond39) Function afReflectError
          CFI (cfiCond39) Conditional ??CrossCallReturnLabel_1
          CFI (cfiCond39) R6 load(1, XDATA, add(CFA_XSP16, literal(-16)))
          CFI (cfiCond39) VB load(1, XDATA, add(CFA_XSP16, literal(-15)))
          CFI (cfiCond39) V0 load(1, XDATA, add(CFA_XSP16, literal(-14)))
          CFI (cfiCond39) V1 load(1, XDATA, add(CFA_XSP16, literal(-13)))
          CFI (cfiCond39) V2 load(1, XDATA, add(CFA_XSP16, literal(-12)))
          CFI (cfiCond39) V3 load(1, XDATA, add(CFA_XSP16, literal(-11)))
          CFI (cfiCond39) V4 load(1, XDATA, add(CFA_XSP16, literal(-10)))
          CFI (cfiCond39) V5 load(1, XDATA, add(CFA_XSP16, literal(-9)))
          CFI (cfiCond39) V6 load(1, XDATA, add(CFA_XSP16, literal(-8)))
          CFI (cfiCond39) V7 load(1, XDATA, add(CFA_XSP16, literal(-7)))
          CFI (cfiCond39) R7 load(1, XDATA, add(CFA_XSP16, literal(-6)))
          CFI (cfiCond39) ?RET_LOW load(1, XDATA, add(CFA_XSP16, literal(-5)))
          CFI (cfiCond39) ?RET_HIGH load(1, XDATA, add(CFA_XSP16, literal(-4)))
          CFI (cfiCond39) ?BRET_EXT load(1, XDATA, add(CFA_XSP16, literal(-3)))
          CFI (cfiCond39) DPL0 load(1, XDATA, add(CFA_XSP16, literal(-2)))
          CFI (cfiCond39) DPH0 load(1, XDATA, add(CFA_XSP16, literal(-1)))
          CFI (cfiCond39) CFA_SP SP+-2
          CFI (cfiCond39) CFA_XSP16 add(XSP16, 16)
          CFI Block cfiCond40 Using cfiCommon0
          CFI (cfiCond40) Function afBuildMSGIncoming
          CFI (cfiCond40) Conditional ??CrossCallReturnLabel_2
          CFI (cfiCond40) R6 load(1, XDATA, add(CFA_XSP16, literal(-19)))
          CFI (cfiCond40) VB load(1, XDATA, add(CFA_XSP16, literal(-18)))
          CFI (cfiCond40) V0 load(1, XDATA, add(CFA_XSP16, literal(-17)))
          CFI (cfiCond40) V1 load(1, XDATA, add(CFA_XSP16, literal(-16)))
          CFI (cfiCond40) V2 load(1, XDATA, add(CFA_XSP16, literal(-15)))
          CFI (cfiCond40) V3 load(1, XDATA, add(CFA_XSP16, literal(-14)))
          CFI (cfiCond40) V4 load(1, XDATA, add(CFA_XSP16, literal(-13)))
          CFI (cfiCond40) V5 load(1, XDATA, add(CFA_XSP16, literal(-12)))
          CFI (cfiCond40) V6 load(1, XDATA, add(CFA_XSP16, literal(-11)))
          CFI (cfiCond40) V7 load(1, XDATA, add(CFA_XSP16, literal(-10)))
          CFI (cfiCond40) V8 load(1, XDATA, add(CFA_XSP16, literal(-9)))
          CFI (cfiCond40) V9 load(1, XDATA, add(CFA_XSP16, literal(-8)))
          CFI (cfiCond40) V10 load(1, XDATA, add(CFA_XSP16, literal(-7)))
          CFI (cfiCond40) R7 load(1, XDATA, add(CFA_XSP16, literal(-6)))
          CFI (cfiCond40) ?RET_LOW load(1, XDATA, add(CFA_XSP16, literal(-5)))
          CFI (cfiCond40) ?RET_HIGH load(1, XDATA, add(CFA_XSP16, literal(-4)))
          CFI (cfiCond40) ?BRET_EXT load(1, XDATA, add(CFA_XSP16, literal(-3)))
          CFI (cfiCond40) DPL0 load(1, XDATA, add(CFA_XSP16, literal(-2)))
          CFI (cfiCond40) DPH0 load(1, XDATA, add(CFA_XSP16, literal(-1)))
          CFI (cfiCond40) CFA_SP SP+-2
          CFI (cfiCond40) CFA_XSP16 add(XSP16, 19)
          CFI Block cfiPicker41 Using cfiCommon1
          CFI (cfiPicker41) NoFunction
          CFI (cfiPicker41) Picker
        INC       DPTR
        MOVX      A,@DPTR
        MOV       R0,A
        INC       DPTR
        MOVX      A,@DPTR
        MOV       DPH,A
        MOV       DPL,R0
        MOVX      A,@DPTR
        MOV       R1,A
        RET
          CFI EndBlock cfiCond38
          CFI EndBlock cfiCond39
          CFI EndBlock cfiCond40
          CFI EndBlock cfiPicker41
//  343 
//  344 /*********************************************************************
//  345  * @fn          afIncomingData
//  346  *
//  347  * @brief       Transfer a data PDU (ASDU) from the APS sub-layer to the AF.
//  348  *
//  349  * @param       aff  - pointer to APS frame format
//  350  * @param       SrcAddress  - Source address
//  351  * @param       SrcPanId  - Source PAN ID
//  352  * @param       sig - incoming message's link quality
//  353  * @param       nwkSeqNum - incoming network sequence number (from nwk header frame)
//  354  * @param       SecurityUse - Security enable/disable
//  355  * @param       timestamp - the MAC Timer2 timestamp at Rx.
//  356  * @param       radius - incoming messages received radius
//  357  *
//  358  * @return      none
//  359  */

        RSEG BANKED_CODE:HUGECODE:NOROOT(0)
//  360 void afIncomingData( aps_FrameFormat_t *aff, zAddrType_t *SrcAddress, uint16 SrcPanId,
afIncomingData:
          CFI Block cfiBlock42 Using cfiCommon0
          CFI Function afIncomingData
        CODE
//  361                      NLDE_Signal_t *sig, uint8 nwkSeqNum, uint8 SecurityUse,
//  362                      uint32 timestamp, uint8 radius )
//  363 {
        FUNCALL afIncomingData, aps_FindGroupForEndpoint
        LOCFRAME ISTACK, 0, STACK
        LOCFRAME PSTACK, 0, STACK
        LOCFRAME XSTACK, 28, STACK
        LOCFRAME IOVERLAY, 0, STATIC
        LOCFRAME DOVERLAY, 0, STATIC
        ARGFRAME ISTACK, 0, STACK
        ARGFRAME PSTACK, 0, STACK
        ARGFRAME XSTACK, 28, STACK
        ARGFRAME IOVERLAY, 0, STATIC
        ARGFRAME DOVERLAY, 0, STATIC
        FUNCALL afIncomingData, afFindEndPointDesc
        LOCFRAME ISTACK, 0, STACK
        LOCFRAME PSTACK, 0, STACK
        LOCFRAME XSTACK, 28, STACK
        LOCFRAME IOVERLAY, 0, STATIC
        LOCFRAME DOVERLAY, 0, STATIC
        ARGFRAME ISTACK, 0, STACK
        ARGFRAME PSTACK, 0, STACK
        ARGFRAME XSTACK, 28, STACK
        ARGFRAME IOVERLAY, 0, STATIC
        ARGFRAME DOVERLAY, 0, STATIC
        FUNCALL afIncomingData, afFindEndPointDesc
        LOCFRAME ISTACK, 0, STACK
        LOCFRAME PSTACK, 0, STACK
        LOCFRAME XSTACK, 28, STACK
        LOCFRAME IOVERLAY, 0, STATIC
        LOCFRAME DOVERLAY, 0, STATIC
        ARGFRAME ISTACK, 0, STACK
        ARGFRAME PSTACK, 0, STACK
        ARGFRAME XSTACK, 28, STACK
        ARGFRAME IOVERLAY, 0, STATIC
        ARGFRAME DOVERLAY, 0, STATIC
        FUNCALL afIncomingData, afFindEndPointDescList
        LOCFRAME ISTACK, 0, STACK
        LOCFRAME PSTACK, 0, STACK
        LOCFRAME XSTACK, 28, STACK
        LOCFRAME IOVERLAY, 0, STATIC
        LOCFRAME DOVERLAY, 0, STATIC
        ARGFRAME ISTACK, 0, STACK
        ARGFRAME PSTACK, 0, STACK
        ARGFRAME XSTACK, 28, STACK
        ARGFRAME IOVERLAY, 0, STATIC
        ARGFRAME DOVERLAY, 0, STATIC
        FUNCALL afIncomingData, afFindEndPointDescList
        LOCFRAME ISTACK, 0, STACK
        LOCFRAME PSTACK, 0, STACK
        LOCFRAME XSTACK, 28, STACK
        LOCFRAME IOVERLAY, 0, STATIC
        LOCFRAME DOVERLAY, 0, STATIC
        ARGFRAME ISTACK, 0, STACK
        ARGFRAME PSTACK, 0, STACK
        ARGFRAME XSTACK, 28, STACK
        ARGFRAME IOVERLAY, 0, STATIC
        ARGFRAME DOVERLAY, 0, STATIC
        FUNCALL afIncomingData, osal_mem_free
        LOCFRAME ISTACK, 0, STACK
        LOCFRAME PSTACK, 0, STACK
        LOCFRAME XSTACK, 28, STACK
        LOCFRAME IOVERLAY, 0, STATIC
        LOCFRAME DOVERLAY, 0, STATIC
        ARGFRAME ISTACK, 0, STACK
        ARGFRAME PSTACK, 0, STACK
        ARGFRAME XSTACK, 28, STACK
        ARGFRAME IOVERLAY, 0, STATIC
        ARGFRAME DOVERLAY, 0, STATIC
        FUNCALL afIncomingData, afBuildMSGIncoming
        LOCFRAME ISTACK, 0, STACK
        LOCFRAME PSTACK, 0, STACK
        LOCFRAME XSTACK, 40, STACK
        LOCFRAME IOVERLAY, 0, STATIC
        LOCFRAME DOVERLAY, 0, STATIC
        ARGFRAME ISTACK, 0, STACK
        ARGFRAME PSTACK, 0, STACK
        ARGFRAME XSTACK, 40, STACK
        ARGFRAME IOVERLAY, 0, STATIC
        ARGFRAME DOVERLAY, 0, STATIC
        FUNCALL afIncomingData, aps_FindGroupForEndpoint
        LOCFRAME ISTACK, 0, STACK
        LOCFRAME PSTACK, 0, STACK
        LOCFRAME XSTACK, 28, STACK
        LOCFRAME IOVERLAY, 0, STATIC
        LOCFRAME DOVERLAY, 0, STATIC
        ARGFRAME ISTACK, 0, STACK
        ARGFRAME PSTACK, 0, STACK
        ARGFRAME XSTACK, 28, STACK
        ARGFRAME IOVERLAY, 0, STATIC
        ARGFRAME DOVERLAY, 0, STATIC
        FUNCALL afIncomingData, afFindEndPointDesc
        LOCFRAME ISTACK, 0, STACK
        LOCFRAME PSTACK, 0, STACK
        LOCFRAME XSTACK, 28, STACK
        LOCFRAME IOVERLAY, 0, STATIC
        LOCFRAME DOVERLAY, 0, STATIC
        ARGFRAME ISTACK, 0, STACK
        ARGFRAME PSTACK, 0, STACK
        ARGFRAME XSTACK, 28, STACK
        ARGFRAME IOVERLAY, 0, STATIC
        ARGFRAME DOVERLAY, 0, STATIC
        REQUIRE ?V0
        REQUIRE ?V1
        REQUIRE ?V2
        REQUIRE ?V3
        REQUIRE ?V4
        REQUIRE ?V5
        REQUIRE ?V6
        REQUIRE ?V7
        REQUIRE ?V8
        REQUIRE ?V9
        REQUIRE ?V10
        REQUIRE ?V11
        REQUIRE ?V12
        REQUIRE ?V13
        REQUIRE ?V14
        REQUIRE ?V15
        MOV       A,#-0x18
        LCALL     ?BANKED_ENTER_XDATA
          CFI DPH0 load(1, XDATA, add(CFA_XSP16, literal(-1)))
          CFI DPL0 load(1, XDATA, add(CFA_XSP16, literal(-2)))
          CFI ?BRET_EXT load(1, XDATA, add(CFA_XSP16, literal(-3)))
          CFI ?RET_HIGH load(1, XDATA, add(CFA_XSP16, literal(-4)))
          CFI ?RET_LOW load(1, XDATA, add(CFA_XSP16, literal(-5)))
          CFI R7 load(1, XDATA, add(CFA_XSP16, literal(-6)))
          CFI V15 load(1, XDATA, add(CFA_XSP16, literal(-7)))
          CFI V14 load(1, XDATA, add(CFA_XSP16, literal(-8)))
          CFI V13 load(1, XDATA, add(CFA_XSP16, literal(-9)))
          CFI V12 load(1, XDATA, add(CFA_XSP16, literal(-10)))
          CFI V11 load(1, XDATA, add(CFA_XSP16, literal(-11)))
          CFI V10 load(1, XDATA, add(CFA_XSP16, literal(-12)))
          CFI V9 load(1, XDATA, add(CFA_XSP16, literal(-13)))
          CFI V8 load(1, XDATA, add(CFA_XSP16, literal(-14)))
          CFI V7 load(1, XDATA, add(CFA_XSP16, literal(-15)))
          CFI V6 load(1, XDATA, add(CFA_XSP16, literal(-16)))
          CFI V5 load(1, XDATA, add(CFA_XSP16, literal(-17)))
          CFI V4 load(1, XDATA, add(CFA_XSP16, literal(-18)))
          CFI V3 load(1, XDATA, add(CFA_XSP16, literal(-19)))
          CFI V2 load(1, XDATA, add(CFA_XSP16, literal(-20)))
          CFI V1 load(1, XDATA, add(CFA_XSP16, literal(-21)))
          CFI V0 load(1, XDATA, add(CFA_XSP16, literal(-22)))
          CFI VB load(1, XDATA, add(CFA_XSP16, literal(-23)))
          CFI R6 load(1, XDATA, add(CFA_XSP16, literal(-24)))
          CFI CFA_SP SP+0
          CFI CFA_XSP16 add(XSP16, 24)
        ; Saved register size: 24
        ; Auto size: 4
        MOV       A,#-0x4
        LCALL     ?ALLOC_XSTACK8
          CFI CFA_XSP16 add(XSP16, 28)
        MOV       A,#0x2
        LCALL     ?XSTACK_DISP0_8
        MOV       A,R4
        MOVX      @DPTR,A
        INC       DPTR
        MOV       A,R5
        MOVX      @DPTR,A
        MOV       A,#0x1
        LCALL     ?XSTACK_DISP0_8
        MOV       A,R1
        MOVX      @DPTR,A
        MOV       ?V2,R2
        MOV       ?V3,R3
//  364   endPointDesc_t *epDesc = NULL;
//  365   epList_t *pList = epList;
        MOV       DPTR,#epList
        MOVX      A,@DPTR
        MOV       ?V0,A
        INC       DPTR
        MOVX      A,@DPTR
        MOV       ?V1,A
//  366 #if !defined ( APS_NO_GROUPS )
//  367   uint8 grpEp = APS_GROUPS_EP_NOT_FOUND;
        MOV       ?V8,#-0x2
//  368 #endif
//  369 
//  370   if ( ((aff->FrmCtrl & APS_DELIVERYMODE_MASK) == APS_FC_DM_GROUP) )
        MOV       DPL,R2
        MOV       DPH,R3
        MOVX      A,@DPTR
        ANL       A,#0xc
        XRL       A,#0xc
        JNZ       ??afIncomingData_0
//  371   {
//  372 #if !defined ( APS_NO_GROUPS )
//  373     // Find the first endpoint for this group
//  374     grpEp = aps_FindGroupForEndpoint( aff->GroupID, APS_GROUPS_FIND_FIRST );
        ; Setup parameters for call to function aps_FindGroupForEndpoint
        MOV       R1,#-0x2
        LCALL     ?Subroutine10 & 0xFFFF
??CrossCallReturnLabel_109:
        LCALL     `??aps_FindGroupForEndpoint::?relay`; Banked call to: aps_FindGroupForEndpoint
        MOV       A,R1
        MOV       ?V8,A
//  375     if ( grpEp == APS_GROUPS_EP_NOT_FOUND )
        MOV       A,#-0x2
        XRL       A,?V8
        JNZ       $+5
        LJMP      ??afIncomingData_1 & 0xFFFF
//  376       return;   // No endpoint found
//  377 
//  378     epDesc = afFindEndPointDesc( grpEp );
        ; Setup parameters for call to function afFindEndPointDesc
        LCALL     `??afFindEndPointDesc::?relay`; Banked call to: afFindEndPointDesc
        MOV       ?V0,R2
        MOV       ?V1,R3
        MOV       R6,?V0
        MOV       R7,?V1
//  379     if ( epDesc == NULL )
        MOV       A,R6
        ORL       A,R7
        JNZ       ??afIncomingData_2
//  380       return;   // Endpoint descriptor not found
        LJMP      ??afIncomingData_1 & 0xFFFF
//  381 
//  382     pList = afFindEndPointDescList( epDesc->endPoint );
//  383 #else
//  384     return; // Not supported
//  385 #endif
//  386   }
//  387   else if ( aff->DstEndPoint == AF_BROADCAST_ENDPOINT )
??afIncomingData_0:
        INC       DPTR
        INC       DPTR
        MOVX      A,@DPTR
        CPL       A
        JNZ       ??afIncomingData_3
//  388   {
//  389     // Set the list
//  390     if ( pList != NULL )
        MOV       A,?V0
        ORL       A,?V1
        JNZ       $+5
        LJMP      ??afIncomingData_1 & 0xFFFF
//  391     {
//  392       epDesc = pList->epDesc;
        MOV       DPL,?V0
        MOV       DPH,?V1
        INC       DPTR
        INC       DPTR
        MOVX      A,@DPTR
        MOV       R6,A
        INC       DPTR
        MOVX      A,@DPTR
        MOV       R7,A
??afIncomingData_4:
        MOV       A,#0x1c
        LCALL     ?XSTACK_DISP0_8
        MOVX      A,@DPTR
        MOV       ?V14,A
        INC       DPTR
        MOVX      A,@DPTR
        MOV       ?V15,A
        MOV       A,#0x21
        LCALL     ?XSTACK_DISP0_8
        MOV       R0,#?V4
        LCALL     ?L_MOV_X
        SJMP      ??afIncomingData_5
//  393     }
//  394   }
//  395   else if ( (epDesc = afFindEndPointDesc( aff->DstEndPoint )) )
??afIncomingData_3:
        ; Setup parameters for call to function afFindEndPointDesc
        MOV       DPL,R2
        MOV       DPH,R3
        INC       DPTR
        INC       DPTR
        MOVX      A,@DPTR
        MOV       R1,A
        LCALL     `??afFindEndPointDesc::?relay`; Banked call to: afFindEndPointDesc
        MOV       ?V4,R2
        MOV       ?V5,R3
        MOV       R0,?V4
        MOV       R1,?V5
        MOV       A,R0
        MOV       R6,A
        MOV       A,R1
        MOV       R7,A
        MOV       A,R0
        ORL       A,R1
        JZ        ??afIncomingData_4
//  396   {
//  397     pList = afFindEndPointDescList( epDesc->endPoint );
??afIncomingData_2:
        ; Setup parameters for call to function afFindEndPointDescList
        MOV       DPL,R6
        MOV       DPH,R7
        MOVX      A,@DPTR
        MOV       R1,A
        LCALL     `??afFindEndPointDescList::?relay`; Banked call to: afFindEndPointDescList
        MOV       ?V0,R2
        MOV       ?V1,R3
        SJMP      ??afIncomingData_4
//  398   }
//  399 
//  400   while ( epDesc )
//  401   {
//  402     uint16 epProfileID = 0xFFFE;  // Invalid Profile ID
//  403 
//  404     if ( pList->pfnDescCB )
//  405     {
//  406       uint16 *pID = (uint16 *)(pList->pfnDescCB(
//  407                                  AF_DESCRIPTOR_PROFILE_ID, epDesc->endPoint ));
//  408       if ( pID )
//  409       {
//  410         epProfileID = *pID;
//  411         osal_mem_free( pID );
//  412       }
//  413     }
//  414     else if ( epDesc->simpleDesc )
//  415     {
//  416       epProfileID = epDesc->simpleDesc->AppProfId;
//  417     }
//  418 
//  419     // First part of verification is to make sure that:
//  420     // the local Endpoint ProfileID matches the received ProfileID OR
//  421     // the message is specifically send to ZDO (this excludes the broadcast endpoint) OR
//  422     // if the Wildcard ProfileID is received the message should not be sent to ZDO endpoint
//  423     if ( (aff->ProfileID == epProfileID) ||
//  424          ((epDesc->endPoint == ZDO_EP) && (aff->ProfileID == ZDO_PROFILE_ID)) ||
//  425          ((epDesc->endPoint != ZDO_EP) && ( aff->ProfileID == ZDO_WILDCARD_PROFILE_ID )) )
//  426     {
//  427       // Save original endpoint
//  428       uint8 endpoint = aff->DstEndPoint;
//  429 
//  430       // overwrite with descriptor's endpoint
//  431       aff->DstEndPoint = epDesc->endPoint;
//  432 
//  433       afBuildMSGIncoming( aff, epDesc, SrcAddress, SrcPanId, sig,
//  434                          nwkSeqNum, SecurityUse, timestamp, radius );
//  435 
//  436       // Restore with original endpoint
//  437       aff->DstEndPoint = endpoint;
//  438     }
//  439 
//  440     if ( ((aff->FrmCtrl & APS_DELIVERYMODE_MASK) == APS_FC_DM_GROUP) )
//  441     {
//  442 #if !defined ( APS_NO_GROUPS )
//  443       // Find the next endpoint for this group
//  444       grpEp = aps_FindGroupForEndpoint( aff->GroupID, grpEp );
//  445       if ( grpEp == APS_GROUPS_EP_NOT_FOUND )
//  446         return;   // No endpoint found
//  447 
//  448       epDesc = afFindEndPointDesc( grpEp );
//  449       if ( epDesc == NULL )
//  450         return;   // Endpoint descriptor not found
//  451 
//  452       pList = afFindEndPointDescList( epDesc->endPoint );
//  453 #else
//  454       return;
//  455 #endif
//  456     }
//  457     else if ( aff->DstEndPoint == AF_BROADCAST_ENDPOINT )
//  458     {
//  459       pList = pList->nextDesc;
//  460       if ( pList )
//  461         epDesc = pList->epDesc;
??afIncomingData_6:
        MOV       DPL,?V0
        MOV       DPH,?V1
        INC       DPTR
        INC       DPTR
        MOVX      A,@DPTR
        MOV       R6,A
        INC       DPTR
        MOVX      A,@DPTR
        MOV       R7,A
??afIncomingData_5:
        MOV       A,R6
        ORL       A,R7
        JNZ       $+5
        LJMP      ??afIncomingData_1 & 0xFFFF
        SJMP      ??afIncomingData_7
??afIncomingData_8:
        ; Setup parameters for call to function afFindEndPointDescList
        MOV       DPL,R6
        MOV       DPH,R7
        MOVX      A,@DPTR
        MOV       R1,A
        LCALL     `??afFindEndPointDescList::?relay`; Banked call to: afFindEndPointDescList
        MOV       ?V0,R2
        MOV       ?V1,R3
??afIncomingData_7:
        MOV       ?V10,#-0x2
        MOV       ?V11,#-0x1
        MOV       DPL,?V0
        MOV       DPH,?V1
        LCALL     ?Subroutine4 & 0xFFFF
??CrossCallReturnLabel_62:
        MOV       DPL,R6
        MOV       DPH,R7
        JZ        ??afIncomingData_9
        ; Setup parameters for indirect call
        MOVX      A,@DPTR
        MOV       R2,A
        MOV       R1,#0x2
        MOV       DPL,?V0
        MOV       DPH,?V1
        INC       DPTR
        INC       DPTR
        INC       DPTR
        INC       DPTR
        LCALL     ??Subroutine40_0 & 0xFFFF
??CrossCallReturnLabel_93:
        LCALL     ?CALL_IND
        MOV       A,R2
        ORL       A,R3
        JZ        ??afIncomingData_10
        MOV       DPL,R2
        MOV       DPH,R3
        MOVX      A,@DPTR
        MOV       ?V10,A
        INC       DPTR
        MOVX      A,@DPTR
        MOV       ?V11,A
        ; Setup parameters for call to function osal_mem_free
        LCALL     `??osal_mem_free::?relay`; Banked call to: osal_mem_free
        SJMP      ??afIncomingData_10
??afIncomingData_9:
        LCALL     ??Subroutine33_0 & 0xFFFF
??CrossCallReturnLabel_60:
        JZ        ??afIncomingData_10
        MOV       DPL,R6
        MOV       DPH,R7
        INC       DPTR
        INC       DPTR
        INC       DPTR
        LCALL     ??Subroutine40_0 & 0xFFFF
??CrossCallReturnLabel_94:
        INC       DPTR
        MOVX      A,@DPTR
        MOV       ?V10,A
        INC       DPTR
        MOVX      A,@DPTR
        MOV       ?V11,A
??afIncomingData_10:
        MOV       DPL,?V2
        MOV       DPH,?V3
        INC       DPTR
        INC       DPTR
        INC       DPTR
        INC       DPTR
        INC       DPTR
        INC       DPTR
        INC       DPTR
        INC       DPTR
        MOVX      A,@DPTR
        XRL       A,?V10
        JNZ       ??afIncomingData_11
        INC       DPTR
        MOVX      A,@DPTR
        XRL       A,?V11
??afIncomingData_11:
        JZ        ??afIncomingData_12
        MOV       DPL,R6
        MOV       DPH,R7
        MOVX      A,@DPTR
        MOV       DPL,?V2
        MOV       DPH,?V3
        INC       DPTR
        INC       DPTR
        INC       DPTR
        INC       DPTR
        INC       DPTR
        INC       DPTR
        INC       DPTR
        INC       DPTR
        JNZ       ??afIncomingData_13
        LCALL     ??Subroutine34_0 & 0xFFFF
??CrossCallReturnLabel_57:
        JNZ       ??CrossCallReturnLabel_23
        SJMP      ??afIncomingData_12
??afIncomingData_13:
        MOVX      A,@DPTR
        CPL       A
        JNZ       ??afIncomingData_14
        INC       DPTR
        MOVX      A,@DPTR
        CPL       A
??afIncomingData_14:
        JNZ       ??CrossCallReturnLabel_23
??afIncomingData_12:
        MOV       A,?V2
        ADD       A,#0x2
        MOV       ?V10,A
        CLR       A
        ADDC      A,?V3
        MOV       ?V11,A
        MOV       DPL,?V10
        MOV       DPH,A
        MOVX      A,@DPTR
        MOV       DPL,?XSP + 0
        MOV       DPH,?XSP + 1
        MOVX      @DPTR,A
        MOV       DPL,R6
        MOV       DPH,R7
        LCALL     ?Subroutine17 & 0xFFFF
??CrossCallReturnLabel_22:
        ; Setup parameters for call to function afBuildMSGIncoming
        MOV       A,#0x25
        LCALL     ?XSTACK_DISP0_8
        MOVX      A,@DPTR
        MOV       ?V9,A
        MOV       R0,#?V9
        LCALL     ?PUSH_XSTACK_I_ONE
          CFI CFA_XSP16 add(XSP16, 29)
        MOV       R0,#?V4
        LCALL     ?PUSH_XSTACK_I_FOUR
          CFI CFA_XSP16 add(XSP16, 33)
        MOV       A,#0x25
        LCALL     ?XSTACK_DISP0_8
        MOVX      A,@DPTR
        MOV       ?V9,A
        MOV       R0,#?V9
        LCALL     ?PUSH_XSTACK_I_ONE
          CFI CFA_XSP16 add(XSP16, 34)
        MOV       A,#0x24
        LCALL     ?XSTACK_DISP0_8
        LCALL     ?PUSH_XSTACK8_X_TWO
          CFI CFA_XSP16 add(XSP16, 36)
        MOV       R0,#?V14
        LCALL     ?PUSH_XSTACK_I_TWO
          CFI CFA_XSP16 add(XSP16, 38)
        MOV       A,#0xc
        LCALL     ?XSTACK_DISP0_8
        LCALL     ?PUSH_XSTACK8_X_TWO
          CFI CFA_XSP16 add(XSP16, 40)
        MOV       A,#0xd
        LCALL     ?XSTACK_DISP0_8
        MOVX      A,@DPTR
        MOV       R1,A
        MOV       A,R6
        MOV       R4,A
        MOV       A,R7
        MOV       R5,A
        MOV       R2,?V2
        MOV       R3,?V3
        LCALL     `??afBuildMSGIncoming::?relay`; Banked call to: afBuildMSGIncoming
        MOV       A,#0xc
        LCALL     ?DEALLOC_XSTACK8
          CFI CFA_XSP16 add(XSP16, 28)
        MOV       DPL,?XSP + 0
        MOV       DPH,?XSP + 1
        LCALL     ?Subroutine17 & 0xFFFF
??CrossCallReturnLabel_23:
        MOV       DPL,?V2
        MOV       DPH,?V3
        MOVX      A,@DPTR
        ANL       A,#0xc
        XRL       A,#0xc
        JNZ       ??afIncomingData_15
        ; Setup parameters for call to function aps_FindGroupForEndpoint
        MOV       R1,?V8
        LCALL     ?Subroutine10 & 0xFFFF
??CrossCallReturnLabel_110:
        LCALL     `??aps_FindGroupForEndpoint::?relay`; Banked call to: aps_FindGroupForEndpoint
        MOV       A,R1
        MOV       ?V8,A
        MOV       A,#-0x2
        XRL       A,?V8
        JZ        ??afIncomingData_1
        ; Setup parameters for call to function afFindEndPointDesc
        LCALL     `??afFindEndPointDesc::?relay`; Banked call to: afFindEndPointDesc
        MOV       ?V0,R2
        MOV       ?V1,R3
        MOV       R6,?V0
        MOV       R7,?V1
        MOV       A,R6
        ORL       A,R7
        JZ        $+5
        LJMP      ??afIncomingData_8 & 0xFFFF
        SJMP      ??afIncomingData_1
??afIncomingData_15:
        INC       DPTR
        INC       DPTR
        MOVX      A,@DPTR
        CPL       A
        JNZ       ??afIncomingData_1
        MOV       DPL,?V0
        MOV       DPH,?V1
        MOVX      A,@DPTR
        MOV       ?V0,A
        INC       DPTR
        MOVX      A,@DPTR
        MOV       ?V1,A
        MOV       A,?V0
        ORL       A,?V1
        JZ        $+5
        LJMP      ??afIncomingData_6 & 0xFFFF
//  462       else
//  463         epDesc = NULL;
//  464     }
//  465     else
//  466       epDesc = NULL;
//  467   }
//  468 }
??afIncomingData_1:
        MOV       A,#0x4
        LCALL     ?DEALLOC_XSTACK8
          CFI CFA_XSP16 add(XSP16, 24)
        MOV       R7,#0x10
        LJMP      ?BANKED_LEAVE_XDATA
          CFI EndBlock cfiBlock42

        RSEG BANKED_CODE:HUGECODE:NOROOT(0)
?Subroutine17:
          CFI Block cfiCond43 Using cfiCommon0
          CFI Function afIncomingData
          CFI Conditional ??CrossCallReturnLabel_22
          CFI R6 load(1, XDATA, add(CFA_XSP16, literal(-24)))
          CFI VB load(1, XDATA, add(CFA_XSP16, literal(-23)))
          CFI V0 load(1, XDATA, add(CFA_XSP16, literal(-22)))
          CFI V1 load(1, XDATA, add(CFA_XSP16, literal(-21)))
          CFI V2 load(1, XDATA, add(CFA_XSP16, literal(-20)))
          CFI V3 load(1, XDATA, add(CFA_XSP16, literal(-19)))
          CFI V4 load(1, XDATA, add(CFA_XSP16, literal(-18)))
          CFI V5 load(1, XDATA, add(CFA_XSP16, literal(-17)))
          CFI V6 load(1, XDATA, add(CFA_XSP16, literal(-16)))
          CFI V7 load(1, XDATA, add(CFA_XSP16, literal(-15)))
          CFI V8 load(1, XDATA, add(CFA_XSP16, literal(-14)))
          CFI V9 load(1, XDATA, add(CFA_XSP16, literal(-13)))
          CFI V10 load(1, XDATA, add(CFA_XSP16, literal(-12)))
          CFI V11 load(1, XDATA, add(CFA_XSP16, literal(-11)))
          CFI V12 load(1, XDATA, add(CFA_XSP16, literal(-10)))
          CFI V13 load(1, XDATA, add(CFA_XSP16, literal(-9)))
          CFI V14 load(1, XDATA, add(CFA_XSP16, literal(-8)))
          CFI V15 load(1, XDATA, add(CFA_XSP16, literal(-7)))
          CFI R7 load(1, XDATA, add(CFA_XSP16, literal(-6)))
          CFI ?RET_LOW load(1, XDATA, add(CFA_XSP16, literal(-5)))
          CFI ?RET_HIGH load(1, XDATA, add(CFA_XSP16, literal(-4)))
          CFI ?BRET_EXT load(1, XDATA, add(CFA_XSP16, literal(-3)))
          CFI DPL0 load(1, XDATA, add(CFA_XSP16, literal(-2)))
          CFI DPH0 load(1, XDATA, add(CFA_XSP16, literal(-1)))
          CFI CFA_SP SP+-2
          CFI CFA_XSP16 add(XSP16, 28)
          CFI Block cfiCond44 Using cfiCommon0
          CFI (cfiCond44) Function afIncomingData
          CFI (cfiCond44) Conditional ??CrossCallReturnLabel_23
          CFI (cfiCond44) R6 load(1, XDATA, add(CFA_XSP16, literal(-24)))
          CFI (cfiCond44) VB load(1, XDATA, add(CFA_XSP16, literal(-23)))
          CFI (cfiCond44) V0 load(1, XDATA, add(CFA_XSP16, literal(-22)))
          CFI (cfiCond44) V1 load(1, XDATA, add(CFA_XSP16, literal(-21)))
          CFI (cfiCond44) V2 load(1, XDATA, add(CFA_XSP16, literal(-20)))
          CFI (cfiCond44) V3 load(1, XDATA, add(CFA_XSP16, literal(-19)))
          CFI (cfiCond44) V4 load(1, XDATA, add(CFA_XSP16, literal(-18)))
          CFI (cfiCond44) V5 load(1, XDATA, add(CFA_XSP16, literal(-17)))
          CFI (cfiCond44) V6 load(1, XDATA, add(CFA_XSP16, literal(-16)))
          CFI (cfiCond44) V7 load(1, XDATA, add(CFA_XSP16, literal(-15)))
          CFI (cfiCond44) V8 load(1, XDATA, add(CFA_XSP16, literal(-14)))
          CFI (cfiCond44) V9 load(1, XDATA, add(CFA_XSP16, literal(-13)))
          CFI (cfiCond44) V10 load(1, XDATA, add(CFA_XSP16, literal(-12)))
          CFI (cfiCond44) V11 load(1, XDATA, add(CFA_XSP16, literal(-11)))
          CFI (cfiCond44) V12 load(1, XDATA, add(CFA_XSP16, literal(-10)))
          CFI (cfiCond44) V13 load(1, XDATA, add(CFA_XSP16, literal(-9)))
          CFI (cfiCond44) V14 load(1, XDATA, add(CFA_XSP16, literal(-8)))
          CFI (cfiCond44) V15 load(1, XDATA, add(CFA_XSP16, literal(-7)))
          CFI (cfiCond44) R7 load(1, XDATA, add(CFA_XSP16, literal(-6)))
          CFI (cfiCond44) ?RET_LOW load(1, XDATA, add(CFA_XSP16, literal(-5)))
          CFI (cfiCond44) ?RET_HIGH load(1, XDATA, add(CFA_XSP16, literal(-4)))
          CFI (cfiCond44) ?BRET_EXT load(1, XDATA, add(CFA_XSP16, literal(-3)))
          CFI (cfiCond44) DPL0 load(1, XDATA, add(CFA_XSP16, literal(-2)))
          CFI (cfiCond44) DPH0 load(1, XDATA, add(CFA_XSP16, literal(-1)))
          CFI (cfiCond44) CFA_SP SP+-2
          CFI (cfiCond44) CFA_XSP16 add(XSP16, 28)
          CFI Block cfiPicker45 Using cfiCommon1
          CFI (cfiPicker45) NoFunction
          CFI (cfiPicker45) Picker
        MOVX      A,@DPTR
        MOV       DPL,?V10
        MOV       DPH,?V11
        MOVX      @DPTR,A
        RET
          CFI EndBlock cfiCond43
          CFI EndBlock cfiCond44
          CFI EndBlock cfiPicker45
//  469 
//  470 /*********************************************************************
//  471  * @fn          afBuildMSGIncoming
//  472  *
//  473  * @brief       Build the message for the app
//  474  *
//  475  * @param
//  476  *
//  477  * @return      pointer to next in data buffer
//  478  */

        RSEG BANKED_CODE:HUGECODE:NOROOT(0)
//  479 static void afBuildMSGIncoming( aps_FrameFormat_t *aff, endPointDesc_t *epDesc,
afBuildMSGIncoming:
          CFI Block cfiBlock46 Using cfiCommon0
          CFI Function afBuildMSGIncoming
        CODE
//  480                  zAddrType_t *SrcAddress, uint16 SrcPanId, NLDE_Signal_t *sig,
//  481                  uint8 nwkSeqNum, uint8 SecurityUse, uint32 timestamp, uint8 radius )
//  482 {
        FUNCALL afBuildMSGIncoming, osal_msg_allocate
        LOCFRAME ISTACK, 0, STACK
        LOCFRAME PSTACK, 0, STACK
        LOCFRAME XSTACK, 19, STACK
        LOCFRAME IOVERLAY, 0, STATIC
        LOCFRAME DOVERLAY, 0, STATIC
        ARGFRAME ISTACK, 0, STACK
        ARGFRAME PSTACK, 0, STACK
        ARGFRAME XSTACK, 19, STACK
        ARGFRAME IOVERLAY, 0, STATIC
        ARGFRAME DOVERLAY, 0, STATIC
        FUNCALL afBuildMSGIncoming, afCopyAddress
        LOCFRAME ISTACK, 0, STACK
        LOCFRAME PSTACK, 0, STACK
        LOCFRAME XSTACK, 19, STACK
        LOCFRAME IOVERLAY, 0, STATIC
        LOCFRAME DOVERLAY, 0, STATIC
        ARGFRAME ISTACK, 0, STACK
        ARGFRAME PSTACK, 0, STACK
        ARGFRAME XSTACK, 19, STACK
        ARGFRAME IOVERLAY, 0, STATIC
        ARGFRAME DOVERLAY, 0, STATIC
        FUNCALL afBuildMSGIncoming, osal_memcpy
        LOCFRAME ISTACK, 0, STACK
        LOCFRAME PSTACK, 0, STACK
        LOCFRAME XSTACK, 22, STACK
        LOCFRAME IOVERLAY, 0, STATIC
        LOCFRAME DOVERLAY, 0, STATIC
        ARGFRAME ISTACK, 0, STACK
        ARGFRAME PSTACK, 0, STACK
        ARGFRAME XSTACK, 22, STACK
        ARGFRAME IOVERLAY, 0, STATIC
        ARGFRAME DOVERLAY, 0, STATIC
        FUNCALL afBuildMSGIncoming, osal_msg_send
        LOCFRAME ISTACK, 0, STACK
        LOCFRAME PSTACK, 0, STACK
        LOCFRAME XSTACK, 19, STACK
        LOCFRAME IOVERLAY, 0, STATIC
        LOCFRAME DOVERLAY, 0, STATIC
        ARGFRAME ISTACK, 0, STACK
        ARGFRAME PSTACK, 0, STACK
        ARGFRAME XSTACK, 19, STACK
        ARGFRAME IOVERLAY, 0, STATIC
        ARGFRAME DOVERLAY, 0, STATIC
        REQUIRE ?V0
        REQUIRE ?V1
        REQUIRE ?V2
        REQUIRE ?V3
        REQUIRE ?V4
        REQUIRE ?V5
        REQUIRE ?V6
        REQUIRE ?V8
        REQUIRE ?V9
        REQUIRE ?V10
        MOV       A,#-0x13
        LCALL     ?BANKED_ENTER_XDATA
          CFI DPH0 load(1, XDATA, add(CFA_XSP16, literal(-1)))
          CFI DPL0 load(1, XDATA, add(CFA_XSP16, literal(-2)))
          CFI ?BRET_EXT load(1, XDATA, add(CFA_XSP16, literal(-3)))
          CFI ?RET_HIGH load(1, XDATA, add(CFA_XSP16, literal(-4)))
          CFI ?RET_LOW load(1, XDATA, add(CFA_XSP16, literal(-5)))
          CFI R7 load(1, XDATA, add(CFA_XSP16, literal(-6)))
          CFI V10 load(1, XDATA, add(CFA_XSP16, literal(-7)))
          CFI V9 load(1, XDATA, add(CFA_XSP16, literal(-8)))
          CFI V8 load(1, XDATA, add(CFA_XSP16, literal(-9)))
          CFI V7 load(1, XDATA, add(CFA_XSP16, literal(-10)))
          CFI V6 load(1, XDATA, add(CFA_XSP16, literal(-11)))
          CFI V5 load(1, XDATA, add(CFA_XSP16, literal(-12)))
          CFI V4 load(1, XDATA, add(CFA_XSP16, literal(-13)))
          CFI V3 load(1, XDATA, add(CFA_XSP16, literal(-14)))
          CFI V2 load(1, XDATA, add(CFA_XSP16, literal(-15)))
          CFI V1 load(1, XDATA, add(CFA_XSP16, literal(-16)))
          CFI V0 load(1, XDATA, add(CFA_XSP16, literal(-17)))
          CFI VB load(1, XDATA, add(CFA_XSP16, literal(-18)))
          CFI R6 load(1, XDATA, add(CFA_XSP16, literal(-19)))
          CFI CFA_SP SP+0
          CFI CFA_XSP16 add(XSP16, 19)
        ; Saved register size: 19
        ; Auto size: 0
        MOV       ?V0,R2
        MOV       ?V1,R3
        MOV       ?V2,R4
        MOV       ?V3,R5
        MOV       ?V6,R1
//  483   afIncomingMSGPacket_t *MSGpkt;
//  484   const uint8 len = sizeof( afIncomingMSGPacket_t ) + aff->asduLength;
//  485   uint8 *asdu = aff->asdu;
        MOV       A,R2
        ADD       A,#0xe
        MOV       DPL,A
        CLR       A
        ADDC      A,?V1
        MOV       DPH,A
        MOVX      A,@DPTR
        MOV       ?V4,A
        INC       DPTR
        MOVX      A,@DPTR
        MOV       ?V5,A
//  486   MSGpkt = (afIncomingMSGPacket_t *)osal_msg_allocate( len );
        ; Setup parameters for call to function osal_msg_allocate
        MOV       A,R2
        LCALL     ?Subroutine27 & 0xFFFF
??CrossCallReturnLabel_43:
        ADD       A,#0x27
        MOV       R2,A
        MOV       R3,#0x0
        LCALL     `??osal_msg_allocate::?relay`; Banked call to: osal_msg_allocate
        MOV       ?V8,R2
        MOV       ?V9,R3
        MOV       R6,?V8
        MOV       R7,?V9
//  487 
//  488   if ( MSGpkt == NULL )
        MOV       A,R6
        ORL       A,R7
        JNZ       $+5
        LJMP      ??afBuildMSGIncoming_0 & 0xFFFF
//  489   {
//  490     return;
//  491   }
//  492 
//  493   MSGpkt->hdr.event = AF_INCOMING_MSG_CMD;
        MOV       DPL,R6
        MOV       DPH,R7
        MOV       A,#0x1a
        LCALL     ?Subroutine22 & 0xFFFF
//  494   MSGpkt->groupId = aff->GroupID;
??CrossCallReturnLabel_31:
        LCALL     ?Subroutine6 & 0xFFFF
??CrossCallReturnLabel_3:
        LCALL     ?Subroutine18 & 0xFFFF
//  495   MSGpkt->clusterId = aff->ClusterID;
??CrossCallReturnLabel_24:
        LCALL     ?Subroutine6 & 0xFFFF
??CrossCallReturnLabel_4:
        INC       DPTR
        INC       DPTR
        LCALL     ??Subroutine35_0 & 0xFFFF
//  496   afCopyAddress( &MSGpkt->srcAddr, SrcAddress );
??CrossCallReturnLabel_66:
        ; Setup parameters for call to function afCopyAddress
        MOV       A,#0x13
        LCALL     ?XSTACK_DISP0_8
        LCALL     ?Subroutine8 & 0xFFFF
??CrossCallReturnLabel_9:
        MOV       A,R6
        ADD       A,#0x6
        MOV       R2,A
        CLR       A
        ADDC      A,R7
        MOV       R3,A
        LCALL     `??afCopyAddress::?relay`; Banked call to: afCopyAddress
//  497   MSGpkt->srcAddr.endPoint = aff->SrcEndPoint;
        MOV       DPL,?V0
        MOV       DPH,?V1
        INC       DPTR
        INC       DPTR
        INC       DPTR
        MOVX      A,@DPTR
        PUSH      A
          CFI CFA_SP SP+-1
        MOV       A,R6
        ADD       A,#0xf
        MOV       DPL,A
        CLR       A
        ADDC      A,R7
        MOV       DPH,A
        POP       A
          CFI CFA_SP SP+0
        MOVX      @DPTR,A
//  498   MSGpkt->endPoint = epDesc->endPoint;
        MOV       DPL,?V2
        MOV       DPH,?V3
        MOVX      A,@DPTR
        PUSH      A
          CFI CFA_SP SP+-1
        MOV       A,R6
        ADD       A,#0x14
        MOV       DPL,A
        CLR       A
        ADDC      A,R7
        MOV       DPH,A
        POP       A
          CFI CFA_SP SP+0
        MOVX      @DPTR,A
//  499   MSGpkt->wasBroadcast = aff->wasBroadcast;
        MOV       A,?V0
        ADD       A,#0xc
        MOV       DPL,A
        CLR       A
        ADDC      A,?V1
        MOV       DPH,A
        MOVX      A,@DPTR
        PUSH      A
          CFI CFA_SP SP+-1
        MOV       A,R6
        ADD       A,#0x15
        MOV       DPL,A
        CLR       A
        ADDC      A,R7
        MOV       DPH,A
        POP       A
          CFI CFA_SP SP+0
        MOVX      @DPTR,A
        MOV       A,#0x17
        LCALL     ?XSTACK_DISP0_8
        LCALL     ?Subroutine14 & 0xFFFF
//  500   MSGpkt->LinkQuality = sig->LinkQuality;
??CrossCallReturnLabel_17:
        MOVX      A,@DPTR
        PUSH      A
          CFI CFA_SP SP+-1
        MOV       A,R6
        ADD       A,#0x16
        MOV       DPL,A
        CLR       A
        ADDC      A,R7
        MOV       DPH,A
        POP       A
          CFI CFA_SP SP+0
        LCALL     ?Subroutine30 & 0xFFFF
//  501   MSGpkt->correlation = sig->correlation;
??CrossCallReturnLabel_49:
        INC       DPTR
        MOVX      A,@DPTR
        PUSH      A
          CFI CFA_SP SP+-1
        MOV       A,R6
        ADD       A,#0x17
        MOV       DPL,A
        CLR       A
        ADDC      A,R7
        MOV       DPH,A
        POP       A
          CFI CFA_SP SP+0
        LCALL     ?Subroutine30 & 0xFFFF
//  502   MSGpkt->rssi = sig->rssi;
??CrossCallReturnLabel_50:
        INC       DPTR
        INC       DPTR
        MOVX      A,@DPTR
        PUSH      A
          CFI CFA_SP SP+-1
        MOV       A,R6
        ADD       A,#0x18
        MOV       DPL,A
        CLR       A
        ADDC      A,R7
        MOV       DPH,A
        POP       A
          CFI CFA_SP SP+0
        MOVX      @DPTR,A
//  503   MSGpkt->SecurityUse = SecurityUse;
        MOV       A,#0x19
        LCALL     ?XSTACK_DISP0_8
        MOVX      A,@DPTR
        PUSH      A
          CFI CFA_SP SP+-1
        MOV       A,R6
        ADD       A,#0x19
        MOV       DPL,A
        CLR       A
        ADDC      A,R7
        MOV       DPH,A
        POP       A
          CFI CFA_SP SP+0
        MOVX      @DPTR,A
//  504   MSGpkt->timestamp = timestamp;
        MOV       A,#0x1a
        LCALL     ?XSTACK_DISP0_8
        LCALL     ?XLOAD_R0123
        MOV       A,R6
        ADD       A,#0x1a
        MOV       DPL,A
        CLR       A
        ADDC      A,R7
        MOV       DPH,A
        LCALL     ?XSTORE_R0123
//  505   MSGpkt->nwkSeqNum = nwkSeqNum;
        MOV       A,R6
        ADD       A,#0x1e
        MOV       DPL,A
        CLR       A
        ADDC      A,R7
        MOV       DPH,A
        MOV       A,?V6
        MOVX      @DPTR,A
//  506   MSGpkt->macSrcAddr = aff->macSrcAddr;
        MOV       A,?V0
        ADD       A,#0x15
        MOV       DPL,A
        CLR       A
        ADDC      A,?V1
        MOV       DPH,A
        LCALL     ?Subroutine15 & 0xFFFF
??CrossCallReturnLabel_19:
        ADD       A,#0x24
        MOV       DPL,A
        CLR       A
        ADDC      A,R7
        MOV       DPH,A
        LCALL     ?Subroutine18 & 0xFFFF
//  507   MSGpkt->macDestAddr = aff->macDestAddr;
??CrossCallReturnLabel_25:
        INC       DPTR
        INC       DPTR
        INC       DPTR
        INC       DPTR
        INC       DPTR
        INC       DPTR
        INC       DPTR
        INC       DPTR
        LCALL     ?Subroutine15 & 0xFFFF
??CrossCallReturnLabel_20:
        ADD       A,#0x12
        LCALL     ?Subroutine19 & 0xFFFF
//  508   MSGpkt->srcAddr.panId = SrcPanId;
??CrossCallReturnLabel_73:
        MOV       A,#0x15
        LCALL     ?XSTACK_DISP0_8
        LCALL     ?Subroutine15 & 0xFFFF
??CrossCallReturnLabel_21:
        ADD       A,#0x10
        LCALL     ?Subroutine19 & 0xFFFF
//  509   MSGpkt->cmd.TransSeqNumber = 0;
??CrossCallReturnLabel_74:
        MOV       A,R6
        ADD       A,#0x1f
        MOV       DPL,A
        CLR       A
        ADDC      A,R7
        MOV       DPH,A
        CLR       A
        MOVX      @DPTR,A
//  510   MSGpkt->cmd.DataLength = aff->asduLength;
        MOV       A,R6
        ADD       A,#0x20
        MOV       R0,A
        CLR       A
        ADDC      A,R7
        MOV       R1,A
        MOV       A,?V0
        LCALL     ?Subroutine27 & 0xFFFF
??CrossCallReturnLabel_44:
        MOV       DPL,R0
        MOV       DPH,R1
        MOVX      @DPTR,A
        INC       DPTR
        CLR       A
        MOVX      @DPTR,A
//  511   MSGpkt->radius = radius;
        MOV       A,#0x1e
        LCALL     ?XSTACK_DISP0_8
        MOVX      A,@DPTR
        PUSH      A
          CFI CFA_SP SP+-1
        MOV       A,R6
        ADD       A,#0x26
        MOV       DPL,A
        CLR       A
        ADDC      A,R7
        MOV       DPH,A
        POP       A
          CFI CFA_SP SP+0
        LCALL     ?Subroutine30 & 0xFFFF
//  512 
//  513   if ( MSGpkt->cmd.DataLength )
??CrossCallReturnLabel_51:
        LCALL     ??Subroutine34_0 & 0xFFFF
??CrossCallReturnLabel_58:
        JZ        ??afBuildMSGIncoming_1
//  514   {
//  515     MSGpkt->cmd.Data = (uint8 *)(MSGpkt + 1);
        MOV       A,R6
        ADD       A,#0x27
        MOV       R2,A
        CLR       A
        ADDC      A,R7
        MOV       R3,A
        LCALL     ?Subroutine28 & 0xFFFF
??CrossCallReturnLabel_45:
        MOV       A,R2
        MOVX      @DPTR,A
        INC       DPTR
        MOV       A,R3
        MOVX      @DPTR,A
//  516     osal_memcpy( MSGpkt->cmd.Data, asdu, MSGpkt->cmd.DataLength );
        ; Setup parameters for call to function osal_memcpy
        MOV       ?V8,?V4
        MOV       ?V9,?V5
        MOV       ?V10,#0x0
        MOV       R0,#?V8
        LCALL     ?PUSH_XSTACK_I_THREE
          CFI CFA_XSP16 add(XSP16, 22)
        MOV       A,R6
        ADD       A,#0x20
        MOV       DPL,A
        CLR       A
        ADDC      A,R7
        MOV       DPH,A
        LCALL     ?Subroutine8 & 0xFFFF
//  517   }
??CrossCallReturnLabel_10:
        LCALL     `??osal_memcpy::?relay`; Banked call to: osal_memcpy
        MOV       A,#0x3
        LCALL     ?DEALLOC_XSTACK8
          CFI CFA_XSP16 add(XSP16, 19)
        SJMP      ??afBuildMSGIncoming_2
//  518   else
//  519   {
//  520     MSGpkt->cmd.Data = NULL;
??afBuildMSGIncoming_1:
        LCALL     ?Subroutine28 & 0xFFFF
//  521   }
??CrossCallReturnLabel_46:
        CLR       A
        MOVX      @DPTR,A
        INC       DPTR
        MOVX      @DPTR,A
//  522 
//  523 #if defined ( MT_AF_CB_FUNC )
//  524   // If ZDO or SAPI have registered for this endpoint, dont intercept it here
//  525   if (AFCB_CHECK(CB_ID_AF_DATA_IND, *(epDesc->task_id)))
//  526   {
//  527     MT_AfIncomingMsg( (void *)MSGpkt );
//  528     // Release the memory.
//  529     osal_msg_deallocate( (void *)MSGpkt );
//  530   }
//  531   else
//  532 #endif
//  533   {
//  534     // Send message through task message.
//  535     osal_msg_send( *(epDesc->task_id), (uint8 *)MSGpkt );
??afBuildMSGIncoming_2:
        ; Setup parameters for call to function osal_msg_send
        MOV       A,R6
        MOV       R2,A
        MOV       A,R7
        MOV       R3,A
        MOV       DPL,?V2
        MOV       DPH,?V3
        LCALL     ?Subroutine5 & 0xFFFF
//  536   }
??CrossCallReturnLabel_2:
        LCALL     `??osal_msg_send::?relay`; Banked call to: osal_msg_send
//  537 }
??afBuildMSGIncoming_0:
        MOV       R7,#0xb
        LJMP      ?BANKED_LEAVE_XDATA
          CFI EndBlock cfiBlock46

        RSEG BANKED_CODE:HUGECODE:NOROOT(0)
?Subroutine28:
          CFI Block cfiCond47 Using cfiCommon0
          CFI Function afBuildMSGIncoming
          CFI Conditional ??CrossCallReturnLabel_45
          CFI R6 load(1, XDATA, add(CFA_XSP16, literal(-19)))
          CFI VB load(1, XDATA, add(CFA_XSP16, literal(-18)))
          CFI V0 load(1, XDATA, add(CFA_XSP16, literal(-17)))
          CFI V1 load(1, XDATA, add(CFA_XSP16, literal(-16)))
          CFI V2 load(1, XDATA, add(CFA_XSP16, literal(-15)))
          CFI V3 load(1, XDATA, add(CFA_XSP16, literal(-14)))
          CFI V4 load(1, XDATA, add(CFA_XSP16, literal(-13)))
          CFI V5 load(1, XDATA, add(CFA_XSP16, literal(-12)))
          CFI V6 load(1, XDATA, add(CFA_XSP16, literal(-11)))
          CFI V7 load(1, XDATA, add(CFA_XSP16, literal(-10)))
          CFI V8 load(1, XDATA, add(CFA_XSP16, literal(-9)))
          CFI V9 load(1, XDATA, add(CFA_XSP16, literal(-8)))
          CFI V10 load(1, XDATA, add(CFA_XSP16, literal(-7)))
          CFI R7 load(1, XDATA, add(CFA_XSP16, literal(-6)))
          CFI ?RET_LOW load(1, XDATA, add(CFA_XSP16, literal(-5)))
          CFI ?RET_HIGH load(1, XDATA, add(CFA_XSP16, literal(-4)))
          CFI ?BRET_EXT load(1, XDATA, add(CFA_XSP16, literal(-3)))
          CFI DPL0 load(1, XDATA, add(CFA_XSP16, literal(-2)))
          CFI DPH0 load(1, XDATA, add(CFA_XSP16, literal(-1)))
          CFI CFA_SP SP+-2
          CFI CFA_XSP16 add(XSP16, 19)
          CFI Block cfiCond48 Using cfiCommon0
          CFI (cfiCond48) Function afBuildMSGIncoming
          CFI (cfiCond48) Conditional ??CrossCallReturnLabel_46
          CFI (cfiCond48) R6 load(1, XDATA, add(CFA_XSP16, literal(-19)))
          CFI (cfiCond48) VB load(1, XDATA, add(CFA_XSP16, literal(-18)))
          CFI (cfiCond48) V0 load(1, XDATA, add(CFA_XSP16, literal(-17)))
          CFI (cfiCond48) V1 load(1, XDATA, add(CFA_XSP16, literal(-16)))
          CFI (cfiCond48) V2 load(1, XDATA, add(CFA_XSP16, literal(-15)))
          CFI (cfiCond48) V3 load(1, XDATA, add(CFA_XSP16, literal(-14)))
          CFI (cfiCond48) V4 load(1, XDATA, add(CFA_XSP16, literal(-13)))
          CFI (cfiCond48) V5 load(1, XDATA, add(CFA_XSP16, literal(-12)))
          CFI (cfiCond48) V6 load(1, XDATA, add(CFA_XSP16, literal(-11)))
          CFI (cfiCond48) V7 load(1, XDATA, add(CFA_XSP16, literal(-10)))
          CFI (cfiCond48) V8 load(1, XDATA, add(CFA_XSP16, literal(-9)))
          CFI (cfiCond48) V9 load(1, XDATA, add(CFA_XSP16, literal(-8)))
          CFI (cfiCond48) V10 load(1, XDATA, add(CFA_XSP16, literal(-7)))
          CFI (cfiCond48) R7 load(1, XDATA, add(CFA_XSP16, literal(-6)))
          CFI (cfiCond48) ?RET_LOW load(1, XDATA, add(CFA_XSP16, literal(-5)))
          CFI (cfiCond48) ?RET_HIGH load(1, XDATA, add(CFA_XSP16, literal(-4)))
          CFI (cfiCond48) ?BRET_EXT load(1, XDATA, add(CFA_XSP16, literal(-3)))
          CFI (cfiCond48) DPL0 load(1, XDATA, add(CFA_XSP16, literal(-2)))
          CFI (cfiCond48) DPH0 load(1, XDATA, add(CFA_XSP16, literal(-1)))
          CFI (cfiCond48) CFA_SP SP+-2
          CFI (cfiCond48) CFA_XSP16 add(XSP16, 19)
          CFI Block cfiPicker49 Using cfiCommon1
          CFI (cfiPicker49) NoFunction
          CFI (cfiPicker49) Picker
        MOV       A,R6
        ADD       A,#0x22
        MOV       DPL,A
        CLR       A
        ADDC      A,R7
        MOV       DPH,A
        RET
          CFI EndBlock cfiCond47
          CFI EndBlock cfiCond48
          CFI EndBlock cfiPicker49

        RSEG BANKED_CODE:HUGECODE:NOROOT(0)
?Subroutine27:
          CFI Block cfiCond50 Using cfiCommon0
          CFI Function afBuildMSGIncoming
          CFI Conditional ??CrossCallReturnLabel_43
          CFI R6 load(1, XDATA, add(CFA_XSP16, literal(-19)))
          CFI VB load(1, XDATA, add(CFA_XSP16, literal(-18)))
          CFI V0 load(1, XDATA, add(CFA_XSP16, literal(-17)))
          CFI V1 load(1, XDATA, add(CFA_XSP16, literal(-16)))
          CFI V2 load(1, XDATA, add(CFA_XSP16, literal(-15)))
          CFI V3 load(1, XDATA, add(CFA_XSP16, literal(-14)))
          CFI V4 load(1, XDATA, add(CFA_XSP16, literal(-13)))
          CFI V5 load(1, XDATA, add(CFA_XSP16, literal(-12)))
          CFI V6 load(1, XDATA, add(CFA_XSP16, literal(-11)))
          CFI V7 load(1, XDATA, add(CFA_XSP16, literal(-10)))
          CFI V8 load(1, XDATA, add(CFA_XSP16, literal(-9)))
          CFI V9 load(1, XDATA, add(CFA_XSP16, literal(-8)))
          CFI V10 load(1, XDATA, add(CFA_XSP16, literal(-7)))
          CFI R7 load(1, XDATA, add(CFA_XSP16, literal(-6)))
          CFI ?RET_LOW load(1, XDATA, add(CFA_XSP16, literal(-5)))
          CFI ?RET_HIGH load(1, XDATA, add(CFA_XSP16, literal(-4)))
          CFI ?BRET_EXT load(1, XDATA, add(CFA_XSP16, literal(-3)))
          CFI DPL0 load(1, XDATA, add(CFA_XSP16, literal(-2)))
          CFI DPH0 load(1, XDATA, add(CFA_XSP16, literal(-1)))
          CFI CFA_SP SP+-2
          CFI CFA_XSP16 add(XSP16, 19)
          CFI Block cfiCond51 Using cfiCommon0
          CFI (cfiCond51) Function afBuildMSGIncoming
          CFI (cfiCond51) Conditional ??CrossCallReturnLabel_44
          CFI (cfiCond51) R6 load(1, XDATA, add(CFA_XSP16, literal(-19)))
          CFI (cfiCond51) VB load(1, XDATA, add(CFA_XSP16, literal(-18)))
          CFI (cfiCond51) V0 load(1, XDATA, add(CFA_XSP16, literal(-17)))
          CFI (cfiCond51) V1 load(1, XDATA, add(CFA_XSP16, literal(-16)))
          CFI (cfiCond51) V2 load(1, XDATA, add(CFA_XSP16, literal(-15)))
          CFI (cfiCond51) V3 load(1, XDATA, add(CFA_XSP16, literal(-14)))
          CFI (cfiCond51) V4 load(1, XDATA, add(CFA_XSP16, literal(-13)))
          CFI (cfiCond51) V5 load(1, XDATA, add(CFA_XSP16, literal(-12)))
          CFI (cfiCond51) V6 load(1, XDATA, add(CFA_XSP16, literal(-11)))
          CFI (cfiCond51) V7 load(1, XDATA, add(CFA_XSP16, literal(-10)))
          CFI (cfiCond51) V8 load(1, XDATA, add(CFA_XSP16, literal(-9)))
          CFI (cfiCond51) V9 load(1, XDATA, add(CFA_XSP16, literal(-8)))
          CFI (cfiCond51) V10 load(1, XDATA, add(CFA_XSP16, literal(-7)))
          CFI (cfiCond51) R7 load(1, XDATA, add(CFA_XSP16, literal(-6)))
          CFI (cfiCond51) ?RET_LOW load(1, XDATA, add(CFA_XSP16, literal(-5)))
          CFI (cfiCond51) ?RET_HIGH load(1, XDATA, add(CFA_XSP16, literal(-4)))
          CFI (cfiCond51) ?BRET_EXT load(1, XDATA, add(CFA_XSP16, literal(-3)))
          CFI (cfiCond51) DPL0 load(1, XDATA, add(CFA_XSP16, literal(-2)))
          CFI (cfiCond51) DPH0 load(1, XDATA, add(CFA_XSP16, literal(-1)))
          CFI (cfiCond51) CFA_SP SP+-2
          CFI (cfiCond51) CFA_XSP16 add(XSP16, 19)
          CFI Block cfiPicker52 Using cfiCommon1
          CFI (cfiPicker52) NoFunction
          CFI (cfiPicker52) Picker
        ADD       A,#0x10
        MOV       DPL,A
        CLR       A
        ADDC      A,?V1
        MOV       DPH,A
        MOVX      A,@DPTR
        RET
          CFI EndBlock cfiCond50
          CFI EndBlock cfiCond51
          CFI EndBlock cfiPicker52

        RSEG BANKED_CODE:HUGECODE:NOROOT(0)
?Subroutine22:
          CFI Block cfiCond53 Using cfiCommon0
          CFI Function afReflectError
          CFI Conditional ??CrossCallReturnLabel_30
          CFI R6 load(1, XDATA, add(CFA_XSP16, literal(-16)))
          CFI VB load(1, XDATA, add(CFA_XSP16, literal(-15)))
          CFI V0 load(1, XDATA, add(CFA_XSP16, literal(-14)))
          CFI V1 load(1, XDATA, add(CFA_XSP16, literal(-13)))
          CFI V2 load(1, XDATA, add(CFA_XSP16, literal(-12)))
          CFI V3 load(1, XDATA, add(CFA_XSP16, literal(-11)))
          CFI V4 load(1, XDATA, add(CFA_XSP16, literal(-10)))
          CFI V5 load(1, XDATA, add(CFA_XSP16, literal(-9)))
          CFI V6 load(1, XDATA, add(CFA_XSP16, literal(-8)))
          CFI V7 load(1, XDATA, add(CFA_XSP16, literal(-7)))
          CFI R7 load(1, XDATA, add(CFA_XSP16, literal(-6)))
          CFI ?RET_LOW load(1, XDATA, add(CFA_XSP16, literal(-5)))
          CFI ?RET_HIGH load(1, XDATA, add(CFA_XSP16, literal(-4)))
          CFI ?BRET_EXT load(1, XDATA, add(CFA_XSP16, literal(-3)))
          CFI DPL0 load(1, XDATA, add(CFA_XSP16, literal(-2)))
          CFI DPH0 load(1, XDATA, add(CFA_XSP16, literal(-1)))
          CFI CFA_SP SP+-2
          CFI CFA_XSP16 add(XSP16, 16)
          CFI Block cfiCond54 Using cfiCommon0
          CFI (cfiCond54) Function afBuildMSGIncoming
          CFI (cfiCond54) Conditional ??CrossCallReturnLabel_31
          CFI (cfiCond54) R6 load(1, XDATA, add(CFA_XSP16, literal(-19)))
          CFI (cfiCond54) VB load(1, XDATA, add(CFA_XSP16, literal(-18)))
          CFI (cfiCond54) V0 load(1, XDATA, add(CFA_XSP16, literal(-17)))
          CFI (cfiCond54) V1 load(1, XDATA, add(CFA_XSP16, literal(-16)))
          CFI (cfiCond54) V2 load(1, XDATA, add(CFA_XSP16, literal(-15)))
          CFI (cfiCond54) V3 load(1, XDATA, add(CFA_XSP16, literal(-14)))
          CFI (cfiCond54) V4 load(1, XDATA, add(CFA_XSP16, literal(-13)))
          CFI (cfiCond54) V5 load(1, XDATA, add(CFA_XSP16, literal(-12)))
          CFI (cfiCond54) V6 load(1, XDATA, add(CFA_XSP16, literal(-11)))
          CFI (cfiCond54) V7 load(1, XDATA, add(CFA_XSP16, literal(-10)))
          CFI (cfiCond54) V8 load(1, XDATA, add(CFA_XSP16, literal(-9)))
          CFI (cfiCond54) V9 load(1, XDATA, add(CFA_XSP16, literal(-8)))
          CFI (cfiCond54) V10 load(1, XDATA, add(CFA_XSP16, literal(-7)))
          CFI (cfiCond54) R7 load(1, XDATA, add(CFA_XSP16, literal(-6)))
          CFI (cfiCond54) ?RET_LOW load(1, XDATA, add(CFA_XSP16, literal(-5)))
          CFI (cfiCond54) ?RET_HIGH load(1, XDATA, add(CFA_XSP16, literal(-4)))
          CFI (cfiCond54) ?BRET_EXT load(1, XDATA, add(CFA_XSP16, literal(-3)))
          CFI (cfiCond54) DPL0 load(1, XDATA, add(CFA_XSP16, literal(-2)))
          CFI (cfiCond54) DPH0 load(1, XDATA, add(CFA_XSP16, literal(-1)))
          CFI (cfiCond54) CFA_SP SP+-2
          CFI (cfiCond54) CFA_XSP16 add(XSP16, 19)
          CFI Block cfiCond55 Using cfiCommon0
          CFI (cfiCond55) Function AF_DataRequest
          CFI (cfiCond55) Conditional ??CrossCallReturnLabel_32
          CFI (cfiCond55) R6 load(1, XDATA, add(CFA_XSP16, literal(-18)))
          CFI (cfiCond55) VB load(1, XDATA, add(CFA_XSP16, literal(-17)))
          CFI (cfiCond55) V0 load(1, XDATA, add(CFA_XSP16, literal(-16)))
          CFI (cfiCond55) V1 load(1, XDATA, add(CFA_XSP16, literal(-15)))
          CFI (cfiCond55) V2 load(1, XDATA, add(CFA_XSP16, literal(-14)))
          CFI (cfiCond55) V3 load(1, XDATA, add(CFA_XSP16, literal(-13)))
          CFI (cfiCond55) V4 load(1, XDATA, add(CFA_XSP16, literal(-12)))
          CFI (cfiCond55) V5 load(1, XDATA, add(CFA_XSP16, literal(-11)))
          CFI (cfiCond55) V6 load(1, XDATA, add(CFA_XSP16, literal(-10)))
          CFI (cfiCond55) V7 load(1, XDATA, add(CFA_XSP16, literal(-9)))
          CFI (cfiCond55) V8 load(1, XDATA, add(CFA_XSP16, literal(-8)))
          CFI (cfiCond55) V9 load(1, XDATA, add(CFA_XSP16, literal(-7)))
          CFI (cfiCond55) R7 load(1, XDATA, add(CFA_XSP16, literal(-6)))
          CFI (cfiCond55) ?RET_LOW load(1, XDATA, add(CFA_XSP16, literal(-5)))
          CFI (cfiCond55) ?RET_HIGH load(1, XDATA, add(CFA_XSP16, literal(-4)))
          CFI (cfiCond55) ?BRET_EXT load(1, XDATA, add(CFA_XSP16, literal(-3)))
          CFI (cfiCond55) DPL0 load(1, XDATA, add(CFA_XSP16, literal(-2)))
          CFI (cfiCond55) DPH0 load(1, XDATA, add(CFA_XSP16, literal(-1)))
          CFI (cfiCond55) CFA_SP SP+-2
          CFI (cfiCond55) CFA_XSP16 add(XSP16, 50)
          CFI Block cfiPicker56 Using cfiCommon1
          CFI (cfiPicker56) NoFunction
          CFI (cfiPicker56) Picker
        MOVX      @DPTR,A
        ; Setup parameters for call to function osal_msg_send
        MOV       DPL,?V0
        MOV       DPH,?V1
        RET
          CFI EndBlock cfiCond53
          CFI EndBlock cfiCond54
          CFI EndBlock cfiCond55
          CFI EndBlock cfiPicker56

        RSEG BANKED_CODE:HUGECODE:NOROOT(0)
?Subroutine18:
          CFI Block cfiCond57 Using cfiCommon0
          CFI Function afBuildMSGIncoming
          CFI Conditional ??CrossCallReturnLabel_24
          CFI R6 load(1, XDATA, add(CFA_XSP16, literal(-19)))
          CFI VB load(1, XDATA, add(CFA_XSP16, literal(-18)))
          CFI V0 load(1, XDATA, add(CFA_XSP16, literal(-17)))
          CFI V1 load(1, XDATA, add(CFA_XSP16, literal(-16)))
          CFI V2 load(1, XDATA, add(CFA_XSP16, literal(-15)))
          CFI V3 load(1, XDATA, add(CFA_XSP16, literal(-14)))
          CFI V4 load(1, XDATA, add(CFA_XSP16, literal(-13)))
          CFI V5 load(1, XDATA, add(CFA_XSP16, literal(-12)))
          CFI V6 load(1, XDATA, add(CFA_XSP16, literal(-11)))
          CFI V7 load(1, XDATA, add(CFA_XSP16, literal(-10)))
          CFI V8 load(1, XDATA, add(CFA_XSP16, literal(-9)))
          CFI V9 load(1, XDATA, add(CFA_XSP16, literal(-8)))
          CFI V10 load(1, XDATA, add(CFA_XSP16, literal(-7)))
          CFI R7 load(1, XDATA, add(CFA_XSP16, literal(-6)))
          CFI ?RET_LOW load(1, XDATA, add(CFA_XSP16, literal(-5)))
          CFI ?RET_HIGH load(1, XDATA, add(CFA_XSP16, literal(-4)))
          CFI ?BRET_EXT load(1, XDATA, add(CFA_XSP16, literal(-3)))
          CFI DPL0 load(1, XDATA, add(CFA_XSP16, literal(-2)))
          CFI DPH0 load(1, XDATA, add(CFA_XSP16, literal(-1)))
          CFI CFA_SP SP+-2
          CFI CFA_XSP16 add(XSP16, 19)
          CFI Block cfiCond58 Using cfiCommon0
          CFI (cfiCond58) Function afBuildMSGIncoming
          CFI (cfiCond58) Conditional ??CrossCallReturnLabel_25
          CFI (cfiCond58) R6 load(1, XDATA, add(CFA_XSP16, literal(-19)))
          CFI (cfiCond58) VB load(1, XDATA, add(CFA_XSP16, literal(-18)))
          CFI (cfiCond58) V0 load(1, XDATA, add(CFA_XSP16, literal(-17)))
          CFI (cfiCond58) V1 load(1, XDATA, add(CFA_XSP16, literal(-16)))
          CFI (cfiCond58) V2 load(1, XDATA, add(CFA_XSP16, literal(-15)))
          CFI (cfiCond58) V3 load(1, XDATA, add(CFA_XSP16, literal(-14)))
          CFI (cfiCond58) V4 load(1, XDATA, add(CFA_XSP16, literal(-13)))
          CFI (cfiCond58) V5 load(1, XDATA, add(CFA_XSP16, literal(-12)))
          CFI (cfiCond58) V6 load(1, XDATA, add(CFA_XSP16, literal(-11)))
          CFI (cfiCond58) V7 load(1, XDATA, add(CFA_XSP16, literal(-10)))
          CFI (cfiCond58) V8 load(1, XDATA, add(CFA_XSP16, literal(-9)))
          CFI (cfiCond58) V9 load(1, XDATA, add(CFA_XSP16, literal(-8)))
          CFI (cfiCond58) V10 load(1, XDATA, add(CFA_XSP16, literal(-7)))
          CFI (cfiCond58) R7 load(1, XDATA, add(CFA_XSP16, literal(-6)))
          CFI (cfiCond58) ?RET_LOW load(1, XDATA, add(CFA_XSP16, literal(-5)))
          CFI (cfiCond58) ?RET_HIGH load(1, XDATA, add(CFA_XSP16, literal(-4)))
          CFI (cfiCond58) ?BRET_EXT load(1, XDATA, add(CFA_XSP16, literal(-3)))
          CFI (cfiCond58) DPL0 load(1, XDATA, add(CFA_XSP16, literal(-2)))
          CFI (cfiCond58) DPH0 load(1, XDATA, add(CFA_XSP16, literal(-1)))
          CFI (cfiCond58) CFA_SP SP+-2
          CFI (cfiCond58) CFA_XSP16 add(XSP16, 19)
          CFI Block cfiPicker59 Using cfiCommon1
          CFI (cfiPicker59) NoFunction
          CFI (cfiPicker59) Picker
        MOV       A,R0
        MOVX      @DPTR,A
        INC       DPTR
        MOV       A,R1
        MOVX      @DPTR,A
        MOV       DPL,?V0
        MOV       DPH,?V1
        INC       DPTR
        INC       DPTR
        RET
          CFI EndBlock cfiCond57
          CFI EndBlock cfiCond58
          CFI EndBlock cfiPicker59

        RSEG BANKED_CODE:HUGECODE:NOROOT(0)
?Subroutine15:
          CFI Block cfiCond60 Using cfiCommon0
          CFI Function afBuildMSGIncoming
          CFI Conditional ??CrossCallReturnLabel_19
          CFI R6 load(1, XDATA, add(CFA_XSP16, literal(-19)))
          CFI VB load(1, XDATA, add(CFA_XSP16, literal(-18)))
          CFI V0 load(1, XDATA, add(CFA_XSP16, literal(-17)))
          CFI V1 load(1, XDATA, add(CFA_XSP16, literal(-16)))
          CFI V2 load(1, XDATA, add(CFA_XSP16, literal(-15)))
          CFI V3 load(1, XDATA, add(CFA_XSP16, literal(-14)))
          CFI V4 load(1, XDATA, add(CFA_XSP16, literal(-13)))
          CFI V5 load(1, XDATA, add(CFA_XSP16, literal(-12)))
          CFI V6 load(1, XDATA, add(CFA_XSP16, literal(-11)))
          CFI V7 load(1, XDATA, add(CFA_XSP16, literal(-10)))
          CFI V8 load(1, XDATA, add(CFA_XSP16, literal(-9)))
          CFI V9 load(1, XDATA, add(CFA_XSP16, literal(-8)))
          CFI V10 load(1, XDATA, add(CFA_XSP16, literal(-7)))
          CFI R7 load(1, XDATA, add(CFA_XSP16, literal(-6)))
          CFI ?RET_LOW load(1, XDATA, add(CFA_XSP16, literal(-5)))
          CFI ?RET_HIGH load(1, XDATA, add(CFA_XSP16, literal(-4)))
          CFI ?BRET_EXT load(1, XDATA, add(CFA_XSP16, literal(-3)))
          CFI DPL0 load(1, XDATA, add(CFA_XSP16, literal(-2)))
          CFI DPH0 load(1, XDATA, add(CFA_XSP16, literal(-1)))
          CFI CFA_SP SP+-2
          CFI CFA_XSP16 add(XSP16, 19)
          CFI Block cfiCond61 Using cfiCommon0
          CFI (cfiCond61) Function afBuildMSGIncoming
          CFI (cfiCond61) Conditional ??CrossCallReturnLabel_20
          CFI (cfiCond61) R6 load(1, XDATA, add(CFA_XSP16, literal(-19)))
          CFI (cfiCond61) VB load(1, XDATA, add(CFA_XSP16, literal(-18)))
          CFI (cfiCond61) V0 load(1, XDATA, add(CFA_XSP16, literal(-17)))
          CFI (cfiCond61) V1 load(1, XDATA, add(CFA_XSP16, literal(-16)))
          CFI (cfiCond61) V2 load(1, XDATA, add(CFA_XSP16, literal(-15)))
          CFI (cfiCond61) V3 load(1, XDATA, add(CFA_XSP16, literal(-14)))
          CFI (cfiCond61) V4 load(1, XDATA, add(CFA_XSP16, literal(-13)))
          CFI (cfiCond61) V5 load(1, XDATA, add(CFA_XSP16, literal(-12)))
          CFI (cfiCond61) V6 load(1, XDATA, add(CFA_XSP16, literal(-11)))
          CFI (cfiCond61) V7 load(1, XDATA, add(CFA_XSP16, literal(-10)))
          CFI (cfiCond61) V8 load(1, XDATA, add(CFA_XSP16, literal(-9)))
          CFI (cfiCond61) V9 load(1, XDATA, add(CFA_XSP16, literal(-8)))
          CFI (cfiCond61) V10 load(1, XDATA, add(CFA_XSP16, literal(-7)))
          CFI (cfiCond61) R7 load(1, XDATA, add(CFA_XSP16, literal(-6)))
          CFI (cfiCond61) ?RET_LOW load(1, XDATA, add(CFA_XSP16, literal(-5)))
          CFI (cfiCond61) ?RET_HIGH load(1, XDATA, add(CFA_XSP16, literal(-4)))
          CFI (cfiCond61) ?BRET_EXT load(1, XDATA, add(CFA_XSP16, literal(-3)))
          CFI (cfiCond61) DPL0 load(1, XDATA, add(CFA_XSP16, literal(-2)))
          CFI (cfiCond61) DPH0 load(1, XDATA, add(CFA_XSP16, literal(-1)))
          CFI (cfiCond61) CFA_SP SP+-2
          CFI (cfiCond61) CFA_XSP16 add(XSP16, 19)
          CFI Block cfiCond62 Using cfiCommon0
          CFI (cfiCond62) Function afBuildMSGIncoming
          CFI (cfiCond62) Conditional ??CrossCallReturnLabel_21
          CFI (cfiCond62) R6 load(1, XDATA, add(CFA_XSP16, literal(-19)))
          CFI (cfiCond62) VB load(1, XDATA, add(CFA_XSP16, literal(-18)))
          CFI (cfiCond62) V0 load(1, XDATA, add(CFA_XSP16, literal(-17)))
          CFI (cfiCond62) V1 load(1, XDATA, add(CFA_XSP16, literal(-16)))
          CFI (cfiCond62) V2 load(1, XDATA, add(CFA_XSP16, literal(-15)))
          CFI (cfiCond62) V3 load(1, XDATA, add(CFA_XSP16, literal(-14)))
          CFI (cfiCond62) V4 load(1, XDATA, add(CFA_XSP16, literal(-13)))
          CFI (cfiCond62) V5 load(1, XDATA, add(CFA_XSP16, literal(-12)))
          CFI (cfiCond62) V6 load(1, XDATA, add(CFA_XSP16, literal(-11)))
          CFI (cfiCond62) V7 load(1, XDATA, add(CFA_XSP16, literal(-10)))
          CFI (cfiCond62) V8 load(1, XDATA, add(CFA_XSP16, literal(-9)))
          CFI (cfiCond62) V9 load(1, XDATA, add(CFA_XSP16, literal(-8)))
          CFI (cfiCond62) V10 load(1, XDATA, add(CFA_XSP16, literal(-7)))
          CFI (cfiCond62) R7 load(1, XDATA, add(CFA_XSP16, literal(-6)))
          CFI (cfiCond62) ?RET_LOW load(1, XDATA, add(CFA_XSP16, literal(-5)))
          CFI (cfiCond62) ?RET_HIGH load(1, XDATA, add(CFA_XSP16, literal(-4)))
          CFI (cfiCond62) ?BRET_EXT load(1, XDATA, add(CFA_XSP16, literal(-3)))
          CFI (cfiCond62) DPL0 load(1, XDATA, add(CFA_XSP16, literal(-2)))
          CFI (cfiCond62) DPH0 load(1, XDATA, add(CFA_XSP16, literal(-1)))
          CFI (cfiCond62) CFA_SP SP+-2
          CFI (cfiCond62) CFA_XSP16 add(XSP16, 19)
          CFI Block cfiPicker63 Using cfiCommon1
          CFI (cfiPicker63) NoFunction
          CFI (cfiPicker63) Picker
        LCALL     ?Subroutine31 & 0xFFFF
??CrossCallReturnLabel_86:
        MOV       A,R6
        RET
          CFI EndBlock cfiCond60
          CFI EndBlock cfiCond61
          CFI EndBlock cfiCond62
          CFI EndBlock cfiPicker63

        RSEG BANKED_CODE:HUGECODE:NOROOT(0)
?Subroutine6:
          CFI Block cfiCond64 Using cfiCommon0
          CFI Function afBuildMSGIncoming
          CFI Conditional ??CrossCallReturnLabel_3
          CFI R6 load(1, XDATA, add(CFA_XSP16, literal(-19)))
          CFI VB load(1, XDATA, add(CFA_XSP16, literal(-18)))
          CFI V0 load(1, XDATA, add(CFA_XSP16, literal(-17)))
          CFI V1 load(1, XDATA, add(CFA_XSP16, literal(-16)))
          CFI V2 load(1, XDATA, add(CFA_XSP16, literal(-15)))
          CFI V3 load(1, XDATA, add(CFA_XSP16, literal(-14)))
          CFI V4 load(1, XDATA, add(CFA_XSP16, literal(-13)))
          CFI V5 load(1, XDATA, add(CFA_XSP16, literal(-12)))
          CFI V6 load(1, XDATA, add(CFA_XSP16, literal(-11)))
          CFI V7 load(1, XDATA, add(CFA_XSP16, literal(-10)))
          CFI V8 load(1, XDATA, add(CFA_XSP16, literal(-9)))
          CFI V9 load(1, XDATA, add(CFA_XSP16, literal(-8)))
          CFI V10 load(1, XDATA, add(CFA_XSP16, literal(-7)))
          CFI R7 load(1, XDATA, add(CFA_XSP16, literal(-6)))
          CFI ?RET_LOW load(1, XDATA, add(CFA_XSP16, literal(-5)))
          CFI ?RET_HIGH load(1, XDATA, add(CFA_XSP16, literal(-4)))
          CFI ?BRET_EXT load(1, XDATA, add(CFA_XSP16, literal(-3)))
          CFI DPL0 load(1, XDATA, add(CFA_XSP16, literal(-2)))
          CFI DPH0 load(1, XDATA, add(CFA_XSP16, literal(-1)))
          CFI CFA_SP SP+-2
          CFI CFA_XSP16 add(XSP16, 19)
          CFI Block cfiCond65 Using cfiCommon0
          CFI (cfiCond65) Function afBuildMSGIncoming
          CFI (cfiCond65) Conditional ??CrossCallReturnLabel_4
          CFI (cfiCond65) R6 load(1, XDATA, add(CFA_XSP16, literal(-19)))
          CFI (cfiCond65) VB load(1, XDATA, add(CFA_XSP16, literal(-18)))
          CFI (cfiCond65) V0 load(1, XDATA, add(CFA_XSP16, literal(-17)))
          CFI (cfiCond65) V1 load(1, XDATA, add(CFA_XSP16, literal(-16)))
          CFI (cfiCond65) V2 load(1, XDATA, add(CFA_XSP16, literal(-15)))
          CFI (cfiCond65) V3 load(1, XDATA, add(CFA_XSP16, literal(-14)))
          CFI (cfiCond65) V4 load(1, XDATA, add(CFA_XSP16, literal(-13)))
          CFI (cfiCond65) V5 load(1, XDATA, add(CFA_XSP16, literal(-12)))
          CFI (cfiCond65) V6 load(1, XDATA, add(CFA_XSP16, literal(-11)))
          CFI (cfiCond65) V7 load(1, XDATA, add(CFA_XSP16, literal(-10)))
          CFI (cfiCond65) V8 load(1, XDATA, add(CFA_XSP16, literal(-9)))
          CFI (cfiCond65) V9 load(1, XDATA, add(CFA_XSP16, literal(-8)))
          CFI (cfiCond65) V10 load(1, XDATA, add(CFA_XSP16, literal(-7)))
          CFI (cfiCond65) R7 load(1, XDATA, add(CFA_XSP16, literal(-6)))
          CFI (cfiCond65) ?RET_LOW load(1, XDATA, add(CFA_XSP16, literal(-5)))
          CFI (cfiCond65) ?RET_HIGH load(1, XDATA, add(CFA_XSP16, literal(-4)))
          CFI (cfiCond65) ?BRET_EXT load(1, XDATA, add(CFA_XSP16, literal(-3)))
          CFI (cfiCond65) DPL0 load(1, XDATA, add(CFA_XSP16, literal(-2)))
          CFI (cfiCond65) DPH0 load(1, XDATA, add(CFA_XSP16, literal(-1)))
          CFI (cfiCond65) CFA_SP SP+-2
          CFI (cfiCond65) CFA_XSP16 add(XSP16, 19)
          CFI Block cfiPicker66 Using cfiCommon1
          CFI (cfiPicker66) NoFunction
          CFI (cfiPicker66) Picker
        INC       DPTR
        INC       DPTR
        INC       DPTR
        INC       DPTR
        LCALL     ?Subroutine31 & 0xFFFF
??CrossCallReturnLabel_83:
        MOV       DPL,R6
        MOV       DPH,R7
        INC       DPTR
        INC       DPTR
        RET
          CFI EndBlock cfiCond64
          CFI EndBlock cfiCond65
          CFI EndBlock cfiPicker66

        RSEG BANKED_CODE:HUGECODE:NOROOT(0)
?Subroutine4:
          CFI Block cfiCond67 Using cfiCommon0
          CFI Function afIncomingData
          CFI Conditional ??CrossCallReturnLabel_62
          CFI R6 load(1, XDATA, add(CFA_XSP16, literal(-24)))
          CFI VB load(1, XDATA, add(CFA_XSP16, literal(-23)))
          CFI V0 load(1, XDATA, add(CFA_XSP16, literal(-22)))
          CFI V1 load(1, XDATA, add(CFA_XSP16, literal(-21)))
          CFI V2 load(1, XDATA, add(CFA_XSP16, literal(-20)))
          CFI V3 load(1, XDATA, add(CFA_XSP16, literal(-19)))
          CFI V4 load(1, XDATA, add(CFA_XSP16, literal(-18)))
          CFI V5 load(1, XDATA, add(CFA_XSP16, literal(-17)))
          CFI V6 load(1, XDATA, add(CFA_XSP16, literal(-16)))
          CFI V7 load(1, XDATA, add(CFA_XSP16, literal(-15)))
          CFI V8 load(1, XDATA, add(CFA_XSP16, literal(-14)))
          CFI V9 load(1, XDATA, add(CFA_XSP16, literal(-13)))
          CFI V10 load(1, XDATA, add(CFA_XSP16, literal(-12)))
          CFI V11 load(1, XDATA, add(CFA_XSP16, literal(-11)))
          CFI V12 load(1, XDATA, add(CFA_XSP16, literal(-10)))
          CFI V13 load(1, XDATA, add(CFA_XSP16, literal(-9)))
          CFI V14 load(1, XDATA, add(CFA_XSP16, literal(-8)))
          CFI V15 load(1, XDATA, add(CFA_XSP16, literal(-7)))
          CFI R7 load(1, XDATA, add(CFA_XSP16, literal(-6)))
          CFI ?RET_LOW load(1, XDATA, add(CFA_XSP16, literal(-5)))
          CFI ?RET_HIGH load(1, XDATA, add(CFA_XSP16, literal(-4)))
          CFI ?BRET_EXT load(1, XDATA, add(CFA_XSP16, literal(-3)))
          CFI DPL0 load(1, XDATA, add(CFA_XSP16, literal(-2)))
          CFI DPH0 load(1, XDATA, add(CFA_XSP16, literal(-1)))
          CFI CFA_SP SP+-2
          CFI CFA_XSP16 add(XSP16, 28)
          CFI Block cfiCond68 Using cfiCommon0
          CFI (cfiCond68) Function AF_DataRequest
          CFI (cfiCond68) Conditional ??CrossCallReturnLabel_63
          CFI (cfiCond68) R6 load(1, XDATA, add(CFA_XSP16, literal(-18)))
          CFI (cfiCond68) VB load(1, XDATA, add(CFA_XSP16, literal(-17)))
          CFI (cfiCond68) V0 load(1, XDATA, add(CFA_XSP16, literal(-16)))
          CFI (cfiCond68) V1 load(1, XDATA, add(CFA_XSP16, literal(-15)))
          CFI (cfiCond68) V2 load(1, XDATA, add(CFA_XSP16, literal(-14)))
          CFI (cfiCond68) V3 load(1, XDATA, add(CFA_XSP16, literal(-13)))
          CFI (cfiCond68) V4 load(1, XDATA, add(CFA_XSP16, literal(-12)))
          CFI (cfiCond68) V5 load(1, XDATA, add(CFA_XSP16, literal(-11)))
          CFI (cfiCond68) V6 load(1, XDATA, add(CFA_XSP16, literal(-10)))
          CFI (cfiCond68) V7 load(1, XDATA, add(CFA_XSP16, literal(-9)))
          CFI (cfiCond68) V8 load(1, XDATA, add(CFA_XSP16, literal(-8)))
          CFI (cfiCond68) V9 load(1, XDATA, add(CFA_XSP16, literal(-7)))
          CFI (cfiCond68) R7 load(1, XDATA, add(CFA_XSP16, literal(-6)))
          CFI (cfiCond68) ?RET_LOW load(1, XDATA, add(CFA_XSP16, literal(-5)))
          CFI (cfiCond68) ?RET_HIGH load(1, XDATA, add(CFA_XSP16, literal(-4)))
          CFI (cfiCond68) ?BRET_EXT load(1, XDATA, add(CFA_XSP16, literal(-3)))
          CFI (cfiCond68) DPL0 load(1, XDATA, add(CFA_XSP16, literal(-2)))
          CFI (cfiCond68) DPH0 load(1, XDATA, add(CFA_XSP16, literal(-1)))
          CFI (cfiCond68) CFA_SP SP+-2
          CFI (cfiCond68) CFA_XSP16 add(XSP16, 50)
          CFI Block cfiPicker69 Using cfiCommon1
          CFI (cfiPicker69) NoFunction
          CFI (cfiPicker69) Picker
        INC       DPTR
          CFI EndBlock cfiCond67
          CFI EndBlock cfiCond68
          CFI EndBlock cfiPicker69
        REQUIRE ??Subroutine33_0
        ; // Fall through to label ??Subroutine33_0

        RSEG BANKED_CODE:HUGECODE:NOROOT(0)
??Subroutine33_0:
          CFI Block cfiCond70 Using cfiCommon0
          CFI Function afIncomingData
          CFI Conditional ??CrossCallReturnLabel_60
          CFI R6 load(1, XDATA, add(CFA_XSP16, literal(-24)))
          CFI VB load(1, XDATA, add(CFA_XSP16, literal(-23)))
          CFI V0 load(1, XDATA, add(CFA_XSP16, literal(-22)))
          CFI V1 load(1, XDATA, add(CFA_XSP16, literal(-21)))
          CFI V2 load(1, XDATA, add(CFA_XSP16, literal(-20)))
          CFI V3 load(1, XDATA, add(CFA_XSP16, literal(-19)))
          CFI V4 load(1, XDATA, add(CFA_XSP16, literal(-18)))
          CFI V5 load(1, XDATA, add(CFA_XSP16, literal(-17)))
          CFI V6 load(1, XDATA, add(CFA_XSP16, literal(-16)))
          CFI V7 load(1, XDATA, add(CFA_XSP16, literal(-15)))
          CFI V8 load(1, XDATA, add(CFA_XSP16, literal(-14)))
          CFI V9 load(1, XDATA, add(CFA_XSP16, literal(-13)))
          CFI V10 load(1, XDATA, add(CFA_XSP16, literal(-12)))
          CFI V11 load(1, XDATA, add(CFA_XSP16, literal(-11)))
          CFI V12 load(1, XDATA, add(CFA_XSP16, literal(-10)))
          CFI V13 load(1, XDATA, add(CFA_XSP16, literal(-9)))
          CFI V14 load(1, XDATA, add(CFA_XSP16, literal(-8)))
          CFI V15 load(1, XDATA, add(CFA_XSP16, literal(-7)))
          CFI R7 load(1, XDATA, add(CFA_XSP16, literal(-6)))
          CFI ?RET_LOW load(1, XDATA, add(CFA_XSP16, literal(-5)))
          CFI ?RET_HIGH load(1, XDATA, add(CFA_XSP16, literal(-4)))
          CFI ?BRET_EXT load(1, XDATA, add(CFA_XSP16, literal(-3)))
          CFI DPL0 load(1, XDATA, add(CFA_XSP16, literal(-2)))
          CFI DPH0 load(1, XDATA, add(CFA_XSP16, literal(-1)))
          CFI CFA_SP SP+-2
          CFI CFA_XSP16 add(XSP16, 28)
          CFI Block cfiCond71 Using cfiCommon0
          CFI (cfiCond71) Function AF_DataRequest
          CFI (cfiCond71) Conditional ??CrossCallReturnLabel_61
          CFI (cfiCond71) R6 load(1, XDATA, add(CFA_XSP16, literal(-18)))
          CFI (cfiCond71) VB load(1, XDATA, add(CFA_XSP16, literal(-17)))
          CFI (cfiCond71) V0 load(1, XDATA, add(CFA_XSP16, literal(-16)))
          CFI (cfiCond71) V1 load(1, XDATA, add(CFA_XSP16, literal(-15)))
          CFI (cfiCond71) V2 load(1, XDATA, add(CFA_XSP16, literal(-14)))
          CFI (cfiCond71) V3 load(1, XDATA, add(CFA_XSP16, literal(-13)))
          CFI (cfiCond71) V4 load(1, XDATA, add(CFA_XSP16, literal(-12)))
          CFI (cfiCond71) V5 load(1, XDATA, add(CFA_XSP16, literal(-11)))
          CFI (cfiCond71) V6 load(1, XDATA, add(CFA_XSP16, literal(-10)))
          CFI (cfiCond71) V7 load(1, XDATA, add(CFA_XSP16, literal(-9)))
          CFI (cfiCond71) V8 load(1, XDATA, add(CFA_XSP16, literal(-8)))
          CFI (cfiCond71) V9 load(1, XDATA, add(CFA_XSP16, literal(-7)))
          CFI (cfiCond71) R7 load(1, XDATA, add(CFA_XSP16, literal(-6)))
          CFI (cfiCond71) ?RET_LOW load(1, XDATA, add(CFA_XSP16, literal(-5)))
          CFI (cfiCond71) ?RET_HIGH load(1, XDATA, add(CFA_XSP16, literal(-4)))
          CFI (cfiCond71) ?BRET_EXT load(1, XDATA, add(CFA_XSP16, literal(-3)))
          CFI (cfiCond71) DPL0 load(1, XDATA, add(CFA_XSP16, literal(-2)))
          CFI (cfiCond71) DPH0 load(1, XDATA, add(CFA_XSP16, literal(-1)))
          CFI (cfiCond71) CFA_SP SP+-2
          CFI (cfiCond71) CFA_XSP16 add(XSP16, 50)
          CFI Block cfiCond72 Using cfiCommon0
          CFI (cfiCond72) Function afIncomingData
          CFI (cfiCond72) Conditional ??CrossCallReturnLabel_62
          CFI (cfiCond72) R6 load(1, XDATA, add(CFA_XSP16, literal(-24)))
          CFI (cfiCond72) VB load(1, XDATA, add(CFA_XSP16, literal(-23)))
          CFI (cfiCond72) V0 load(1, XDATA, add(CFA_XSP16, literal(-22)))
          CFI (cfiCond72) V1 load(1, XDATA, add(CFA_XSP16, literal(-21)))
          CFI (cfiCond72) V2 load(1, XDATA, add(CFA_XSP16, literal(-20)))
          CFI (cfiCond72) V3 load(1, XDATA, add(CFA_XSP16, literal(-19)))
          CFI (cfiCond72) V4 load(1, XDATA, add(CFA_XSP16, literal(-18)))
          CFI (cfiCond72) V5 load(1, XDATA, add(CFA_XSP16, literal(-17)))
          CFI (cfiCond72) V6 load(1, XDATA, add(CFA_XSP16, literal(-16)))
          CFI (cfiCond72) V7 load(1, XDATA, add(CFA_XSP16, literal(-15)))
          CFI (cfiCond72) V8 load(1, XDATA, add(CFA_XSP16, literal(-14)))
          CFI (cfiCond72) V9 load(1, XDATA, add(CFA_XSP16, literal(-13)))
          CFI (cfiCond72) V10 load(1, XDATA, add(CFA_XSP16, literal(-12)))
          CFI (cfiCond72) V11 load(1, XDATA, add(CFA_XSP16, literal(-11)))
          CFI (cfiCond72) V12 load(1, XDATA, add(CFA_XSP16, literal(-10)))
          CFI (cfiCond72) V13 load(1, XDATA, add(CFA_XSP16, literal(-9)))
          CFI (cfiCond72) V14 load(1, XDATA, add(CFA_XSP16, literal(-8)))
          CFI (cfiCond72) V15 load(1, XDATA, add(CFA_XSP16, literal(-7)))
          CFI (cfiCond72) R7 load(1, XDATA, add(CFA_XSP16, literal(-6)))
          CFI (cfiCond72) ?RET_LOW load(1, XDATA, add(CFA_XSP16, literal(-5)))
          CFI (cfiCond72) ?RET_HIGH load(1, XDATA, add(CFA_XSP16, literal(-4)))
          CFI (cfiCond72) ?BRET_EXT load(1, XDATA, add(CFA_XSP16, literal(-3)))
          CFI (cfiCond72) DPL0 load(1, XDATA, add(CFA_XSP16, literal(-2)))
          CFI (cfiCond72) DPH0 load(1, XDATA, add(CFA_XSP16, literal(-1)))
          CFI (cfiCond72) CFA_SP SP+-2
          CFI (cfiCond72) CFA_XSP16 add(XSP16, 28)
          CFI Block cfiCond73 Using cfiCommon0
          CFI (cfiCond73) Function AF_DataRequest
          CFI (cfiCond73) Conditional ??CrossCallReturnLabel_63
          CFI (cfiCond73) R6 load(1, XDATA, add(CFA_XSP16, literal(-18)))
          CFI (cfiCond73) VB load(1, XDATA, add(CFA_XSP16, literal(-17)))
          CFI (cfiCond73) V0 load(1, XDATA, add(CFA_XSP16, literal(-16)))
          CFI (cfiCond73) V1 load(1, XDATA, add(CFA_XSP16, literal(-15)))
          CFI (cfiCond73) V2 load(1, XDATA, add(CFA_XSP16, literal(-14)))
          CFI (cfiCond73) V3 load(1, XDATA, add(CFA_XSP16, literal(-13)))
          CFI (cfiCond73) V4 load(1, XDATA, add(CFA_XSP16, literal(-12)))
          CFI (cfiCond73) V5 load(1, XDATA, add(CFA_XSP16, literal(-11)))
          CFI (cfiCond73) V6 load(1, XDATA, add(CFA_XSP16, literal(-10)))
          CFI (cfiCond73) V7 load(1, XDATA, add(CFA_XSP16, literal(-9)))
          CFI (cfiCond73) V8 load(1, XDATA, add(CFA_XSP16, literal(-8)))
          CFI (cfiCond73) V9 load(1, XDATA, add(CFA_XSP16, literal(-7)))
          CFI (cfiCond73) R7 load(1, XDATA, add(CFA_XSP16, literal(-6)))
          CFI (cfiCond73) ?RET_LOW load(1, XDATA, add(CFA_XSP16, literal(-5)))
          CFI (cfiCond73) ?RET_HIGH load(1, XDATA, add(CFA_XSP16, literal(-4)))
          CFI (cfiCond73) ?BRET_EXT load(1, XDATA, add(CFA_XSP16, literal(-3)))
          CFI (cfiCond73) DPL0 load(1, XDATA, add(CFA_XSP16, literal(-2)))
          CFI (cfiCond73) DPH0 load(1, XDATA, add(CFA_XSP16, literal(-1)))
          CFI (cfiCond73) CFA_SP SP+-2
          CFI (cfiCond73) CFA_XSP16 add(XSP16, 50)
          CFI Block cfiPicker74 Using cfiCommon1
          CFI (cfiPicker74) NoFunction
          CFI (cfiPicker74) Picker
        INC       DPTR
        INC       DPTR
        INC       DPTR
          CFI EndBlock cfiCond70
          CFI EndBlock cfiCond71
          CFI EndBlock cfiCond72
          CFI EndBlock cfiCond73
          CFI EndBlock cfiPicker74
        REQUIRE ??Subroutine34_0
        ; // Fall through to label ??Subroutine34_0

        RSEG BANKED_CODE:HUGECODE:NOROOT(0)
??Subroutine34_0:
          CFI Block cfiCond75 Using cfiCommon0
          CFI Function afDelete
          CFI Conditional ??CrossCallReturnLabel_56
          CFI R6 load(1, XDATA, add(CFA_XSP16, literal(-9)))
          CFI VB load(1, XDATA, add(CFA_XSP16, literal(-8)))
          CFI V0 load(1, XDATA, add(CFA_XSP16, literal(-7)))
          CFI R7 load(1, XDATA, add(CFA_XSP16, literal(-6)))
          CFI ?RET_LOW load(1, XDATA, add(CFA_XSP16, literal(-5)))
          CFI ?RET_HIGH load(1, XDATA, add(CFA_XSP16, literal(-4)))
          CFI ?BRET_EXT load(1, XDATA, add(CFA_XSP16, literal(-3)))
          CFI DPL0 load(1, XDATA, add(CFA_XSP16, literal(-2)))
          CFI DPH0 load(1, XDATA, add(CFA_XSP16, literal(-1)))
          CFI CFA_SP SP+-2
          CFI CFA_XSP16 add(XSP16, 9)
          CFI Block cfiCond76 Using cfiCommon0
          CFI (cfiCond76) Function afIncomingData
          CFI (cfiCond76) Conditional ??CrossCallReturnLabel_57
          CFI (cfiCond76) R6 load(1, XDATA, add(CFA_XSP16, literal(-24)))
          CFI (cfiCond76) VB load(1, XDATA, add(CFA_XSP16, literal(-23)))
          CFI (cfiCond76) V0 load(1, XDATA, add(CFA_XSP16, literal(-22)))
          CFI (cfiCond76) V1 load(1, XDATA, add(CFA_XSP16, literal(-21)))
          CFI (cfiCond76) V2 load(1, XDATA, add(CFA_XSP16, literal(-20)))
          CFI (cfiCond76) V3 load(1, XDATA, add(CFA_XSP16, literal(-19)))
          CFI (cfiCond76) V4 load(1, XDATA, add(CFA_XSP16, literal(-18)))
          CFI (cfiCond76) V5 load(1, XDATA, add(CFA_XSP16, literal(-17)))
          CFI (cfiCond76) V6 load(1, XDATA, add(CFA_XSP16, literal(-16)))
          CFI (cfiCond76) V7 load(1, XDATA, add(CFA_XSP16, literal(-15)))
          CFI (cfiCond76) V8 load(1, XDATA, add(CFA_XSP16, literal(-14)))
          CFI (cfiCond76) V9 load(1, XDATA, add(CFA_XSP16, literal(-13)))
          CFI (cfiCond76) V10 load(1, XDATA, add(CFA_XSP16, literal(-12)))
          CFI (cfiCond76) V11 load(1, XDATA, add(CFA_XSP16, literal(-11)))
          CFI (cfiCond76) V12 load(1, XDATA, add(CFA_XSP16, literal(-10)))
          CFI (cfiCond76) V13 load(1, XDATA, add(CFA_XSP16, literal(-9)))
          CFI (cfiCond76) V14 load(1, XDATA, add(CFA_XSP16, literal(-8)))
          CFI (cfiCond76) V15 load(1, XDATA, add(CFA_XSP16, literal(-7)))
          CFI (cfiCond76) R7 load(1, XDATA, add(CFA_XSP16, literal(-6)))
          CFI (cfiCond76) ?RET_LOW load(1, XDATA, add(CFA_XSP16, literal(-5)))
          CFI (cfiCond76) ?RET_HIGH load(1, XDATA, add(CFA_XSP16, literal(-4)))
          CFI (cfiCond76) ?BRET_EXT load(1, XDATA, add(CFA_XSP16, literal(-3)))
          CFI (cfiCond76) DPL0 load(1, XDATA, add(CFA_XSP16, literal(-2)))
          CFI (cfiCond76) DPH0 load(1, XDATA, add(CFA_XSP16, literal(-1)))
          CFI (cfiCond76) CFA_SP SP+-2
          CFI (cfiCond76) CFA_XSP16 add(XSP16, 28)
          CFI Block cfiCond77 Using cfiCommon0
          CFI (cfiCond77) Function afBuildMSGIncoming
          CFI (cfiCond77) Conditional ??CrossCallReturnLabel_58
          CFI (cfiCond77) R6 load(1, XDATA, add(CFA_XSP16, literal(-19)))
          CFI (cfiCond77) VB load(1, XDATA, add(CFA_XSP16, literal(-18)))
          CFI (cfiCond77) V0 load(1, XDATA, add(CFA_XSP16, literal(-17)))
          CFI (cfiCond77) V1 load(1, XDATA, add(CFA_XSP16, literal(-16)))
          CFI (cfiCond77) V2 load(1, XDATA, add(CFA_XSP16, literal(-15)))
          CFI (cfiCond77) V3 load(1, XDATA, add(CFA_XSP16, literal(-14)))
          CFI (cfiCond77) V4 load(1, XDATA, add(CFA_XSP16, literal(-13)))
          CFI (cfiCond77) V5 load(1, XDATA, add(CFA_XSP16, literal(-12)))
          CFI (cfiCond77) V6 load(1, XDATA, add(CFA_XSP16, literal(-11)))
          CFI (cfiCond77) V7 load(1, XDATA, add(CFA_XSP16, literal(-10)))
          CFI (cfiCond77) V8 load(1, XDATA, add(CFA_XSP16, literal(-9)))
          CFI (cfiCond77) V9 load(1, XDATA, add(CFA_XSP16, literal(-8)))
          CFI (cfiCond77) V10 load(1, XDATA, add(CFA_XSP16, literal(-7)))
          CFI (cfiCond77) R7 load(1, XDATA, add(CFA_XSP16, literal(-6)))
          CFI (cfiCond77) ?RET_LOW load(1, XDATA, add(CFA_XSP16, literal(-5)))
          CFI (cfiCond77) ?RET_HIGH load(1, XDATA, add(CFA_XSP16, literal(-4)))
          CFI (cfiCond77) ?BRET_EXT load(1, XDATA, add(CFA_XSP16, literal(-3)))
          CFI (cfiCond77) DPL0 load(1, XDATA, add(CFA_XSP16, literal(-2)))
          CFI (cfiCond77) DPH0 load(1, XDATA, add(CFA_XSP16, literal(-1)))
          CFI (cfiCond77) CFA_SP SP+-2
          CFI (cfiCond77) CFA_XSP16 add(XSP16, 19)
          CFI Block cfiCond78 Using cfiCommon0
          CFI (cfiCond78) Function AF_DataRequest
          CFI (cfiCond78) Conditional ??CrossCallReturnLabel_55
          CFI (cfiCond78) R6 load(1, XDATA, add(CFA_XSP16, literal(-18)))
          CFI (cfiCond78) VB load(1, XDATA, add(CFA_XSP16, literal(-17)))
          CFI (cfiCond78) V0 load(1, XDATA, add(CFA_XSP16, literal(-16)))
          CFI (cfiCond78) V1 load(1, XDATA, add(CFA_XSP16, literal(-15)))
          CFI (cfiCond78) V2 load(1, XDATA, add(CFA_XSP16, literal(-14)))
          CFI (cfiCond78) V3 load(1, XDATA, add(CFA_XSP16, literal(-13)))
          CFI (cfiCond78) V4 load(1, XDATA, add(CFA_XSP16, literal(-12)))
          CFI (cfiCond78) V5 load(1, XDATA, add(CFA_XSP16, literal(-11)))
          CFI (cfiCond78) V6 load(1, XDATA, add(CFA_XSP16, literal(-10)))
          CFI (cfiCond78) V7 load(1, XDATA, add(CFA_XSP16, literal(-9)))
          CFI (cfiCond78) V8 load(1, XDATA, add(CFA_XSP16, literal(-8)))
          CFI (cfiCond78) V9 load(1, XDATA, add(CFA_XSP16, literal(-7)))
          CFI (cfiCond78) R7 load(1, XDATA, add(CFA_XSP16, literal(-6)))
          CFI (cfiCond78) ?RET_LOW load(1, XDATA, add(CFA_XSP16, literal(-5)))
          CFI (cfiCond78) ?RET_HIGH load(1, XDATA, add(CFA_XSP16, literal(-4)))
          CFI (cfiCond78) ?BRET_EXT load(1, XDATA, add(CFA_XSP16, literal(-3)))
          CFI (cfiCond78) DPL0 load(1, XDATA, add(CFA_XSP16, literal(-2)))
          CFI (cfiCond78) DPH0 load(1, XDATA, add(CFA_XSP16, literal(-1)))
          CFI (cfiCond78) CFA_SP SP+-2
          CFI (cfiCond78) CFA_XSP16 add(XSP16, 50)
          CFI Block cfiCond79 Using cfiCommon0
          CFI (cfiCond79) Function AF_DataRequest
          CFI (cfiCond79) Conditional ??CrossCallReturnLabel_59
          CFI (cfiCond79) R6 load(1, XDATA, add(CFA_XSP16, literal(-18)))
          CFI (cfiCond79) VB load(1, XDATA, add(CFA_XSP16, literal(-17)))
          CFI (cfiCond79) V0 load(1, XDATA, add(CFA_XSP16, literal(-16)))
          CFI (cfiCond79) V1 load(1, XDATA, add(CFA_XSP16, literal(-15)))
          CFI (cfiCond79) V2 load(1, XDATA, add(CFA_XSP16, literal(-14)))
          CFI (cfiCond79) V3 load(1, XDATA, add(CFA_XSP16, literal(-13)))
          CFI (cfiCond79) V4 load(1, XDATA, add(CFA_XSP16, literal(-12)))
          CFI (cfiCond79) V5 load(1, XDATA, add(CFA_XSP16, literal(-11)))
          CFI (cfiCond79) V6 load(1, XDATA, add(CFA_XSP16, literal(-10)))
          CFI (cfiCond79) V7 load(1, XDATA, add(CFA_XSP16, literal(-9)))
          CFI (cfiCond79) V8 load(1, XDATA, add(CFA_XSP16, literal(-8)))
          CFI (cfiCond79) V9 load(1, XDATA, add(CFA_XSP16, literal(-7)))
          CFI (cfiCond79) R7 load(1, XDATA, add(CFA_XSP16, literal(-6)))
          CFI (cfiCond79) ?RET_LOW load(1, XDATA, add(CFA_XSP16, literal(-5)))
          CFI (cfiCond79) ?RET_HIGH load(1, XDATA, add(CFA_XSP16, literal(-4)))
          CFI (cfiCond79) ?BRET_EXT load(1, XDATA, add(CFA_XSP16, literal(-3)))
          CFI (cfiCond79) DPL0 load(1, XDATA, add(CFA_XSP16, literal(-2)))
          CFI (cfiCond79) DPH0 load(1, XDATA, add(CFA_XSP16, literal(-1)))
          CFI (cfiCond79) CFA_SP SP+-2
          CFI (cfiCond79) CFA_XSP16 add(XSP16, 50)
          CFI Block cfiCond80 Using cfiCommon0
          CFI (cfiCond80) Function afIncomingData
          CFI (cfiCond80) Conditional ??CrossCallReturnLabel_60
          CFI (cfiCond80) R6 load(1, XDATA, add(CFA_XSP16, literal(-24)))
          CFI (cfiCond80) VB load(1, XDATA, add(CFA_XSP16, literal(-23)))
          CFI (cfiCond80) V0 load(1, XDATA, add(CFA_XSP16, literal(-22)))
          CFI (cfiCond80) V1 load(1, XDATA, add(CFA_XSP16, literal(-21)))
          CFI (cfiCond80) V2 load(1, XDATA, add(CFA_XSP16, literal(-20)))
          CFI (cfiCond80) V3 load(1, XDATA, add(CFA_XSP16, literal(-19)))
          CFI (cfiCond80) V4 load(1, XDATA, add(CFA_XSP16, literal(-18)))
          CFI (cfiCond80) V5 load(1, XDATA, add(CFA_XSP16, literal(-17)))
          CFI (cfiCond80) V6 load(1, XDATA, add(CFA_XSP16, literal(-16)))
          CFI (cfiCond80) V7 load(1, XDATA, add(CFA_XSP16, literal(-15)))
          CFI (cfiCond80) V8 load(1, XDATA, add(CFA_XSP16, literal(-14)))
          CFI (cfiCond80) V9 load(1, XDATA, add(CFA_XSP16, literal(-13)))
          CFI (cfiCond80) V10 load(1, XDATA, add(CFA_XSP16, literal(-12)))
          CFI (cfiCond80) V11 load(1, XDATA, add(CFA_XSP16, literal(-11)))
          CFI (cfiCond80) V12 load(1, XDATA, add(CFA_XSP16, literal(-10)))
          CFI (cfiCond80) V13 load(1, XDATA, add(CFA_XSP16, literal(-9)))
          CFI (cfiCond80) V14 load(1, XDATA, add(CFA_XSP16, literal(-8)))
          CFI (cfiCond80) V15 load(1, XDATA, add(CFA_XSP16, literal(-7)))
          CFI (cfiCond80) R7 load(1, XDATA, add(CFA_XSP16, literal(-6)))
          CFI (cfiCond80) ?RET_LOW load(1, XDATA, add(CFA_XSP16, literal(-5)))
          CFI (cfiCond80) ?RET_HIGH load(1, XDATA, add(CFA_XSP16, literal(-4)))
          CFI (cfiCond80) ?BRET_EXT load(1, XDATA, add(CFA_XSP16, literal(-3)))
          CFI (cfiCond80) DPL0 load(1, XDATA, add(CFA_XSP16, literal(-2)))
          CFI (cfiCond80) DPH0 load(1, XDATA, add(CFA_XSP16, literal(-1)))
          CFI (cfiCond80) CFA_SP SP+-2
          CFI (cfiCond80) CFA_XSP16 add(XSP16, 28)
          CFI Block cfiCond81 Using cfiCommon0
          CFI (cfiCond81) Function AF_DataRequest
          CFI (cfiCond81) Conditional ??CrossCallReturnLabel_61
          CFI (cfiCond81) R6 load(1, XDATA, add(CFA_XSP16, literal(-18)))
          CFI (cfiCond81) VB load(1, XDATA, add(CFA_XSP16, literal(-17)))
          CFI (cfiCond81) V0 load(1, XDATA, add(CFA_XSP16, literal(-16)))
          CFI (cfiCond81) V1 load(1, XDATA, add(CFA_XSP16, literal(-15)))
          CFI (cfiCond81) V2 load(1, XDATA, add(CFA_XSP16, literal(-14)))
          CFI (cfiCond81) V3 load(1, XDATA, add(CFA_XSP16, literal(-13)))
          CFI (cfiCond81) V4 load(1, XDATA, add(CFA_XSP16, literal(-12)))
          CFI (cfiCond81) V5 load(1, XDATA, add(CFA_XSP16, literal(-11)))
          CFI (cfiCond81) V6 load(1, XDATA, add(CFA_XSP16, literal(-10)))
          CFI (cfiCond81) V7 load(1, XDATA, add(CFA_XSP16, literal(-9)))
          CFI (cfiCond81) V8 load(1, XDATA, add(CFA_XSP16, literal(-8)))
          CFI (cfiCond81) V9 load(1, XDATA, add(CFA_XSP16, literal(-7)))
          CFI (cfiCond81) R7 load(1, XDATA, add(CFA_XSP16, literal(-6)))
          CFI (cfiCond81) ?RET_LOW load(1, XDATA, add(CFA_XSP16, literal(-5)))
          CFI (cfiCond81) ?RET_HIGH load(1, XDATA, add(CFA_XSP16, literal(-4)))
          CFI (cfiCond81) ?BRET_EXT load(1, XDATA, add(CFA_XSP16, literal(-3)))
          CFI (cfiCond81) DPL0 load(1, XDATA, add(CFA_XSP16, literal(-2)))
          CFI (cfiCond81) DPH0 load(1, XDATA, add(CFA_XSP16, literal(-1)))
          CFI (cfiCond81) CFA_SP SP+-2
          CFI (cfiCond81) CFA_XSP16 add(XSP16, 50)
          CFI Block cfiCond82 Using cfiCommon0
          CFI (cfiCond82) Function afIncomingData
          CFI (cfiCond82) Conditional ??CrossCallReturnLabel_62
          CFI (cfiCond82) R6 load(1, XDATA, add(CFA_XSP16, literal(-24)))
          CFI (cfiCond82) VB load(1, XDATA, add(CFA_XSP16, literal(-23)))
          CFI (cfiCond82) V0 load(1, XDATA, add(CFA_XSP16, literal(-22)))
          CFI (cfiCond82) V1 load(1, XDATA, add(CFA_XSP16, literal(-21)))
          CFI (cfiCond82) V2 load(1, XDATA, add(CFA_XSP16, literal(-20)))
          CFI (cfiCond82) V3 load(1, XDATA, add(CFA_XSP16, literal(-19)))
          CFI (cfiCond82) V4 load(1, XDATA, add(CFA_XSP16, literal(-18)))
          CFI (cfiCond82) V5 load(1, XDATA, add(CFA_XSP16, literal(-17)))
          CFI (cfiCond82) V6 load(1, XDATA, add(CFA_XSP16, literal(-16)))
          CFI (cfiCond82) V7 load(1, XDATA, add(CFA_XSP16, literal(-15)))
          CFI (cfiCond82) V8 load(1, XDATA, add(CFA_XSP16, literal(-14)))
          CFI (cfiCond82) V9 load(1, XDATA, add(CFA_XSP16, literal(-13)))
          CFI (cfiCond82) V10 load(1, XDATA, add(CFA_XSP16, literal(-12)))
          CFI (cfiCond82) V11 load(1, XDATA, add(CFA_XSP16, literal(-11)))
          CFI (cfiCond82) V12 load(1, XDATA, add(CFA_XSP16, literal(-10)))
          CFI (cfiCond82) V13 load(1, XDATA, add(CFA_XSP16, literal(-9)))
          CFI (cfiCond82) V14 load(1, XDATA, add(CFA_XSP16, literal(-8)))
          CFI (cfiCond82) V15 load(1, XDATA, add(CFA_XSP16, literal(-7)))
          CFI (cfiCond82) R7 load(1, XDATA, add(CFA_XSP16, literal(-6)))
          CFI (cfiCond82) ?RET_LOW load(1, XDATA, add(CFA_XSP16, literal(-5)))
          CFI (cfiCond82) ?RET_HIGH load(1, XDATA, add(CFA_XSP16, literal(-4)))
          CFI (cfiCond82) ?BRET_EXT load(1, XDATA, add(CFA_XSP16, literal(-3)))
          CFI (cfiCond82) DPL0 load(1, XDATA, add(CFA_XSP16, literal(-2)))
          CFI (cfiCond82) DPH0 load(1, XDATA, add(CFA_XSP16, literal(-1)))
          CFI (cfiCond82) CFA_SP SP+-2
          CFI (cfiCond82) CFA_XSP16 add(XSP16, 28)
          CFI Block cfiCond83 Using cfiCommon0
          CFI (cfiCond83) Function AF_DataRequest
          CFI (cfiCond83) Conditional ??CrossCallReturnLabel_63
          CFI (cfiCond83) R6 load(1, XDATA, add(CFA_XSP16, literal(-18)))
          CFI (cfiCond83) VB load(1, XDATA, add(CFA_XSP16, literal(-17)))
          CFI (cfiCond83) V0 load(1, XDATA, add(CFA_XSP16, literal(-16)))
          CFI (cfiCond83) V1 load(1, XDATA, add(CFA_XSP16, literal(-15)))
          CFI (cfiCond83) V2 load(1, XDATA, add(CFA_XSP16, literal(-14)))
          CFI (cfiCond83) V3 load(1, XDATA, add(CFA_XSP16, literal(-13)))
          CFI (cfiCond83) V4 load(1, XDATA, add(CFA_XSP16, literal(-12)))
          CFI (cfiCond83) V5 load(1, XDATA, add(CFA_XSP16, literal(-11)))
          CFI (cfiCond83) V6 load(1, XDATA, add(CFA_XSP16, literal(-10)))
          CFI (cfiCond83) V7 load(1, XDATA, add(CFA_XSP16, literal(-9)))
          CFI (cfiCond83) V8 load(1, XDATA, add(CFA_XSP16, literal(-8)))
          CFI (cfiCond83) V9 load(1, XDATA, add(CFA_XSP16, literal(-7)))
          CFI (cfiCond83) R7 load(1, XDATA, add(CFA_XSP16, literal(-6)))
          CFI (cfiCond83) ?RET_LOW load(1, XDATA, add(CFA_XSP16, literal(-5)))
          CFI (cfiCond83) ?RET_HIGH load(1, XDATA, add(CFA_XSP16, literal(-4)))
          CFI (cfiCond83) ?BRET_EXT load(1, XDATA, add(CFA_XSP16, literal(-3)))
          CFI (cfiCond83) DPL0 load(1, XDATA, add(CFA_XSP16, literal(-2)))
          CFI (cfiCond83) DPH0 load(1, XDATA, add(CFA_XSP16, literal(-1)))
          CFI (cfiCond83) CFA_SP SP+-2
          CFI (cfiCond83) CFA_XSP16 add(XSP16, 50)
          CFI Block cfiPicker84 Using cfiCommon1
          CFI (cfiPicker84) NoFunction
          CFI (cfiPicker84) Picker
        LCALL     ?Subroutine31 & 0xFFFF
??CrossCallReturnLabel_87:
        MOV       A,R0
        ORL       A,R1
        RET
          CFI EndBlock cfiCond75
          CFI EndBlock cfiCond76
          CFI EndBlock cfiCond77
          CFI EndBlock cfiCond78
          CFI EndBlock cfiCond79
          CFI EndBlock cfiCond80
          CFI EndBlock cfiCond81
          CFI EndBlock cfiCond82
          CFI EndBlock cfiCond83
          CFI EndBlock cfiPicker84
//  538 
//  539 /*********************************************************************
//  540  * @fn      AF_DataRequest
//  541  *
//  542  * @brief   Common functionality for invoking APSDE_DataReq() for both
//  543  *          SendMulti and MSG-Send.
//  544  *
//  545  * input parameters
//  546  *
//  547  * @param  *dstAddr - Full ZB destination address: Nwk Addr + End Point.
//  548  * @param  *srcEP - Origination (i.e. respond to or ack to) End Point Descr.
//  549  * @param   cID - A valid cluster ID as specified by the Profile.
//  550  * @param   len - Number of bytes of data pointed to by next param.
//  551  * @param  *buf - A pointer to the data bytes to send.
//  552  * @param  *transID - A pointer to a byte which can be modified and which will
//  553  *                    be used as the transaction sequence number of the msg.
//  554  * @param   options - Valid bit mask of Tx options.
//  555  * @param   radius - Normally set to AF_DEFAULT_RADIUS.
//  556  *
//  557  * output parameters
//  558  *
//  559  * @param  *transID - Incremented by one if the return value is success.
//  560  *
//  561  * @return  afStatus_t - See previous definition of afStatus_... types.
//  562  */

        RSEG XDATA_I:XDATA:NOROOT(0)
//  563 uint8 AF_DataRequestDiscoverRoute = DISC_ROUTE_NETWORK;
AF_DataRequestDiscoverRoute:
        DATA8
        DS 1
        REQUIRE `?<Initializer for AF_DataRequestDiscoverRoute>`
        REQUIRE __INIT_XDATA_I

        RSEG BANKED_CODE:HUGECODE:NOROOT(0)
//  564 afStatus_t AF_DataRequest( afAddrType_t *dstAddr, endPointDesc_t *srcEP,
AF_DataRequest:
          CFI Block cfiBlock85 Using cfiCommon0
          CFI Function AF_DataRequest
        CODE
//  565                            uint16 cID, uint16 len, uint8 *buf, uint8 *transID,
//  566                            uint8 options, uint8 radius )
//  567 {
        FUNCALL AF_DataRequest, NLME_GetShortAddr
        LOCFRAME ISTACK, 0, STACK
        LOCFRAME PSTACK, 0, STACK
        LOCFRAME XSTACK, 50, STACK
        LOCFRAME IOVERLAY, 0, STATIC
        LOCFRAME DOVERLAY, 0, STATIC
        ARGFRAME ISTACK, 0, STACK
        ARGFRAME PSTACK, 0, STACK
        ARGFRAME XSTACK, 50, STACK
        ARGFRAME IOVERLAY, 0, STATIC
        ARGFRAME DOVERLAY, 0, STATIC
        FUNCALL AF_DataRequest, RTG_CheckRtStatus
        LOCFRAME ISTACK, 0, STACK
        LOCFRAME PSTACK, 0, STACK
        LOCFRAME XSTACK, 50, STACK
        LOCFRAME IOVERLAY, 0, STATIC
        LOCFRAME DOVERLAY, 0, STATIC
        ARGFRAME ISTACK, 0, STACK
        ARGFRAME PSTACK, 0, STACK
        ARGFRAME XSTACK, 50, STACK
        ARGFRAME IOVERLAY, 0, STATIC
        ARGFRAME DOVERLAY, 0, STATIC
        FUNCALL AF_DataRequest, NLME_IsAddressBroadcast
        LOCFRAME ISTACK, 0, STACK
        LOCFRAME PSTACK, 0, STACK
        LOCFRAME XSTACK, 50, STACK
        LOCFRAME IOVERLAY, 0, STATIC
        LOCFRAME DOVERLAY, 0, STATIC
        ARGFRAME ISTACK, 0, STACK
        ARGFRAME PSTACK, 0, STACK
        ARGFRAME XSTACK, 50, STACK
        ARGFRAME IOVERLAY, 0, STATIC
        ARGFRAME DOVERLAY, 0, STATIC
        FUNCALL AF_DataRequest, sAddrExtCpy
        LOCFRAME ISTACK, 0, STACK
        LOCFRAME PSTACK, 0, STACK
        LOCFRAME XSTACK, 50, STACK
        LOCFRAME IOVERLAY, 0, STATIC
        LOCFRAME DOVERLAY, 0, STATIC
        ARGFRAME ISTACK, 0, STACK
        ARGFRAME PSTACK, 0, STACK
        ARGFRAME XSTACK, 50, STACK
        ARGFRAME IOVERLAY, 0, STATIC
        ARGFRAME DOVERLAY, 0, STATIC
        FUNCALL AF_DataRequest, osal_mem_free
        LOCFRAME ISTACK, 0, STACK
        LOCFRAME PSTACK, 0, STACK
        LOCFRAME XSTACK, 50, STACK
        LOCFRAME IOVERLAY, 0, STATIC
        LOCFRAME DOVERLAY, 0, STATIC
        ARGFRAME ISTACK, 0, STACK
        ARGFRAME PSTACK, 0, STACK
        ARGFRAME XSTACK, 50, STACK
        ARGFRAME IOVERLAY, 0, STATIC
        ARGFRAME DOVERLAY, 0, STATIC
        FUNCALL AF_DataRequest, afFindEndPointDescList
        LOCFRAME ISTACK, 0, STACK
        LOCFRAME PSTACK, 0, STACK
        LOCFRAME XSTACK, 50, STACK
        LOCFRAME IOVERLAY, 0, STATIC
        LOCFRAME DOVERLAY, 0, STATIC
        ARGFRAME ISTACK, 0, STACK
        ARGFRAME PSTACK, 0, STACK
        ARGFRAME XSTACK, 50, STACK
        ARGFRAME IOVERLAY, 0, STATIC
        ARGFRAME DOVERLAY, 0, STATIC
        FUNCALL AF_DataRequest, StubAPS_InterPan
        LOCFRAME ISTACK, 0, STACK
        LOCFRAME PSTACK, 0, STACK
        LOCFRAME XSTACK, 50, STACK
        LOCFRAME IOVERLAY, 0, STATIC
        LOCFRAME DOVERLAY, 0, STATIC
        ARGFRAME ISTACK, 0, STACK
        ARGFRAME PSTACK, 0, STACK
        ARGFRAME XSTACK, 50, STACK
        ARGFRAME IOVERLAY, 0, STATIC
        ARGFRAME DOVERLAY, 0, STATIC
        FUNCALL AF_DataRequest, INTERP_DataReqMTU
        LOCFRAME ISTACK, 0, STACK
        LOCFRAME PSTACK, 0, STACK
        LOCFRAME XSTACK, 50, STACK
        LOCFRAME IOVERLAY, 0, STATIC
        LOCFRAME DOVERLAY, 0, STATIC
        ARGFRAME ISTACK, 0, STACK
        ARGFRAME PSTACK, 0, STACK
        ARGFRAME XSTACK, 50, STACK
        ARGFRAME IOVERLAY, 0, STATIC
        ARGFRAME DOVERLAY, 0, STATIC
        FUNCALL AF_DataRequest, INTERP_DataReq
        LOCFRAME ISTACK, 0, STACK
        LOCFRAME PSTACK, 0, STACK
        LOCFRAME XSTACK, 50, STACK
        LOCFRAME IOVERLAY, 0, STATIC
        LOCFRAME DOVERLAY, 0, STATIC
        ARGFRAME ISTACK, 0, STACK
        ARGFRAME PSTACK, 0, STACK
        ARGFRAME XSTACK, 50, STACK
        ARGFRAME IOVERLAY, 0, STATIC
        ARGFRAME DOVERLAY, 0, STATIC
        FUNCALL AF_DataRequest, afDataReqMTU
        LOCFRAME ISTACK, 0, STACK
        LOCFRAME PSTACK, 0, STACK
        LOCFRAME XSTACK, 50, STACK
        LOCFRAME IOVERLAY, 0, STATIC
        LOCFRAME DOVERLAY, 0, STATIC
        ARGFRAME ISTACK, 0, STACK
        ARGFRAME PSTACK, 0, STACK
        ARGFRAME XSTACK, 50, STACK
        ARGFRAME IOVERLAY, 0, STATIC
        ARGFRAME DOVERLAY, 0, STATIC
        FUNCALL AF_DataRequest, APSDE_DataReq
        LOCFRAME ISTACK, 0, STACK
        LOCFRAME PSTACK, 0, STACK
        LOCFRAME XSTACK, 50, STACK
        LOCFRAME IOVERLAY, 0, STATIC
        LOCFRAME DOVERLAY, 0, STATIC
        ARGFRAME ISTACK, 0, STACK
        ARGFRAME PSTACK, 0, STACK
        ARGFRAME XSTACK, 50, STACK
        ARGFRAME IOVERLAY, 0, STATIC
        ARGFRAME DOVERLAY, 0, STATIC
        FUNCALL AF_DataRequest, NLME_GetShortAddr
        LOCFRAME ISTACK, 0, STACK
        LOCFRAME PSTACK, 0, STACK
        LOCFRAME XSTACK, 50, STACK
        LOCFRAME IOVERLAY, 0, STATIC
        LOCFRAME DOVERLAY, 0, STATIC
        ARGFRAME ISTACK, 0, STACK
        ARGFRAME PSTACK, 0, STACK
        ARGFRAME XSTACK, 50, STACK
        ARGFRAME IOVERLAY, 0, STATIC
        ARGFRAME DOVERLAY, 0, STATIC
        FUNCALL AF_DataRequest, afDataConfirm
        LOCFRAME ISTACK, 0, STACK
        LOCFRAME PSTACK, 0, STACK
        LOCFRAME XSTACK, 50, STACK
        LOCFRAME IOVERLAY, 0, STATIC
        LOCFRAME DOVERLAY, 0, STATIC
        ARGFRAME ISTACK, 0, STACK
        ARGFRAME PSTACK, 0, STACK
        ARGFRAME XSTACK, 50, STACK
        ARGFRAME IOVERLAY, 0, STATIC
        ARGFRAME DOVERLAY, 0, STATIC
        REQUIRE ?V0
        REQUIRE ?V1
        REQUIRE ?V2
        REQUIRE ?V4
        REQUIRE ?V5
        REQUIRE ?V6
        REQUIRE ?V7
        REQUIRE ?V8
        REQUIRE ?V9
        MOV       A,#-0x12
        LCALL     ?BANKED_ENTER_XDATA
          CFI DPH0 load(1, XDATA, add(CFA_XSP16, literal(-1)))
          CFI DPL0 load(1, XDATA, add(CFA_XSP16, literal(-2)))
          CFI ?BRET_EXT load(1, XDATA, add(CFA_XSP16, literal(-3)))
          CFI ?RET_HIGH load(1, XDATA, add(CFA_XSP16, literal(-4)))
          CFI ?RET_LOW load(1, XDATA, add(CFA_XSP16, literal(-5)))
          CFI R7 load(1, XDATA, add(CFA_XSP16, literal(-6)))
          CFI V9 load(1, XDATA, add(CFA_XSP16, literal(-7)))
          CFI V8 load(1, XDATA, add(CFA_XSP16, literal(-8)))
          CFI V7 load(1, XDATA, add(CFA_XSP16, literal(-9)))
          CFI V6 load(1, XDATA, add(CFA_XSP16, literal(-10)))
          CFI V5 load(1, XDATA, add(CFA_XSP16, literal(-11)))
          CFI V4 load(1, XDATA, add(CFA_XSP16, literal(-12)))
          CFI V3 load(1, XDATA, add(CFA_XSP16, literal(-13)))
          CFI V2 load(1, XDATA, add(CFA_XSP16, literal(-14)))
          CFI V1 load(1, XDATA, add(CFA_XSP16, literal(-15)))
          CFI V0 load(1, XDATA, add(CFA_XSP16, literal(-16)))
          CFI VB load(1, XDATA, add(CFA_XSP16, literal(-17)))
          CFI R6 load(1, XDATA, add(CFA_XSP16, literal(-18)))
          CFI CFA_SP SP+0
          CFI CFA_XSP16 add(XSP16, 18)
        ; Saved register size: 18
        ; Auto size: 32
        MOV       A,#-0x20
        LCALL     ?ALLOC_XSTACK8
          CFI CFA_XSP16 add(XSP16, 50)
        MOV       A,R2
        MOV       R6,A
        MOV       A,R3
        MOV       R7,A
        MOV       ?V0,R4
        MOV       ?V1,R5
        MOV       ?V2,R1
//  568   pDescCB pfnDescCB;
//  569   ZStatus_t stat;
//  570   APSDE_DataReq_t req;
//  571   afDataReqMTU_t mtu;
//  572   epList_t *pList;
//  573 
//  574   // Verify source end point
//  575   if ( srcEP == NULL )
        MOV       A,R4
        ORL       A,?V1
        JNZ       $+5
        LJMP      ??AF_DataRequest_0 & 0xFFFF
//  576   {
//  577     return afStatus_INVALID_PARAMETER;
//  578   }
//  579 
//  580 #if !defined( REFLECTOR )
//  581   if ( dstAddr->addrMode == afAddrNotPresent )
//  582   {
//  583     return afStatus_INVALID_PARAMETER;
//  584   }
//  585 #endif
//  586 
//  587   // Check if route is available before sending data
//  588   if ( options & AF_LIMIT_CONCENTRATOR  )
        MOV       A,R1
        MOV       C,0xE0 /* A   */.3
        JNC       ??AF_DataRequest_1
//  589   {
//  590     if ( dstAddr->addrMode != afAddr16Bit )
        MOV       DPL,R6
        MOV       DPH,R7
        INC       DPTR
        INC       DPTR
        INC       DPTR
        INC       DPTR
        INC       DPTR
        INC       DPTR
        INC       DPTR
        INC       DPTR
        MOVX      A,@DPTR
        XRL       A,#0x2
        JZ        $+5
        LJMP      ??AF_DataRequest_0 & 0xFFFF
//  591     {
//  592       return ( afStatus_INVALID_PARAMETER );
//  593     }
//  594 
//  595     // First, make sure the destination is not its self, then check for an existing route.
//  596     if ( (dstAddr->addr.shortAddr != NLME_GetShortAddr())
//  597         && (RTG_CheckRtStatus( dstAddr->addr.shortAddr, RT_ACTIVE, (MTO_ROUTE | NO_ROUTE_CACHE) ) != RTG_SUCCESS) )
        ; Setup parameters for call to function NLME_GetShortAddr
        LCALL     `??NLME_GetShortAddr::?relay`; Banked call to: NLME_GetShortAddr
        MOV       ?V4,R2
        MOV       ?V5,R3
        MOV       R0,?V4
        MOV       R1,?V5
        MOV       DPL,R6
        MOV       DPH,R7
        MOVX      A,@DPTR
        XRL       A,R0
        JNZ       ??AF_DataRequest_2
        INC       DPTR
        MOVX      A,@DPTR
        XRL       A,R1
??AF_DataRequest_2:
        JZ        ??AF_DataRequest_1
        ; Setup parameters for call to function RTG_CheckRtStatus
        MOV       R4,#0x3
        MOV       R1,#0x1
        MOV       DPL,R6
        MOV       DPH,R7
        LCALL     ??Subroutine44_0 & 0xFFFF
??CrossCallReturnLabel_102:
        LCALL     `??RTG_CheckRtStatus::?relay`; Banked call to: RTG_CheckRtStatus
        MOV       A,R1
        JZ        ??AF_DataRequest_1
//  598     {
//  599       // A valid route to a concentrator wasn't found
//  600       return ( afStatus_NO_ROUTE );
        MOV       R1,#-0x33
        LJMP      ??AF_DataRequest_3 & 0xFFFF
//  601     }
//  602   }
//  603 
//  604   // Validate broadcasting
//  605   if ( ( dstAddr->addrMode == afAddr16Bit     ) ||
//  606        ( dstAddr->addrMode == afAddrBroadcast )    )
??AF_DataRequest_1:
        MOV       DPL,R6
        MOV       DPH,R7
        INC       DPTR
        INC       DPTR
        INC       DPTR
        INC       DPTR
        INC       DPTR
        INC       DPTR
        INC       DPTR
        INC       DPTR
        MOVX      A,@DPTR
        XRL       A,#0x2
        JZ        ??AF_DataRequest_4
        MOV       DPL,R6
        MOV       DPH,R7
        INC       DPTR
        INC       DPTR
        INC       DPTR
        INC       DPTR
        INC       DPTR
        INC       DPTR
        INC       DPTR
        INC       DPTR
        MOVX      A,@DPTR
        XRL       A,#0xf
        JNZ       ??AF_DataRequest_5
//  607   {
//  608     // Check for valid broadcast values
//  609     if( ADDR_NOT_BCAST != NLME_IsAddressBroadcast( dstAddr->addr.shortAddr )  )
??AF_DataRequest_4:
        ; Setup parameters for call to function NLME_IsAddressBroadcast
        MOV       DPL,R6
        MOV       DPH,R7
        LCALL     ??Subroutine44_0 & 0xFFFF
??CrossCallReturnLabel_103:
        LCALL     `??NLME_IsAddressBroadcast::?relay`; Banked call to: NLME_IsAddressBroadcast
        MOV       A,R1
        MOV       DPL,R6
        MOV       DPH,R7
        INC       DPTR
        INC       DPTR
        INC       DPTR
        INC       DPTR
        INC       DPTR
        INC       DPTR
        INC       DPTR
        INC       DPTR
        JZ        ??AF_DataRequest_6
//  610     {
//  611       // Force mode to broadcast
//  612       dstAddr->addrMode = afAddrBroadcast;
        MOV       A,#0xf
        MOVX      @DPTR,A
//  613     }
//  614     else
//  615     {
//  616       // Address is not a valid broadcast type
//  617       if ( dstAddr->addrMode == afAddrBroadcast )
//  618       {
//  619         return afStatus_INVALID_PARAMETER;
//  620       }
//  621     }
//  622   }
//  623   else if ( dstAddr->addrMode != afAddr64Bit &&
//  624             dstAddr->addrMode != afAddrGroup &&
//  625             dstAddr->addrMode != afAddrNotPresent )
//  626   {
//  627     return afStatus_INVALID_PARAMETER;
//  628   }
//  629 
//  630   // Set destination address
//  631   req.dstAddr.addrMode = dstAddr->addrMode;
??AF_DataRequest_7:
        MOV       A,R6
        ADD       A,#0x8
        MOV       R0,A
        CLR       A
        ADDC      A,R7
        MOV       R1,A
        MOV       DPL,R0
        MOV       DPH,R1
        MOVX      A,@DPTR
        PUSH      A
          CFI CFA_SP SP+-1
        MOV       A,#0xa
        LCALL     ?XSTACK_DISP0_8
        POP       A
          CFI CFA_SP SP+0
        LCALL     ?Subroutine26 & 0xFFFF
//  632   if ( dstAddr->addrMode == afAddr64Bit )
??CrossCallReturnLabel_41:
        JNZ       ??AF_DataRequest_8
//  633   {
//  634     osal_cpyExtAddr( req.dstAddr.addr.extAddr, dstAddr->addr.extAddr );
        ; Setup parameters for call to function sAddrExtCpy
        MOV       A,R6
        MOV       R4,A
        MOV       A,R7
        MOV       R5,A
        MOV       A,#0x2
        LCALL     ?XSTACK_DISP101_8
        LCALL     `??sAddrExtCpy::?relay`; Banked call to: sAddrExtCpy
        SJMP      ??CrossCallReturnLabel_67
//  635   }
??AF_DataRequest_6:
        MOVX      A,@DPTR
        XRL       A,#0xf
        JNZ       ??AF_DataRequest_7
        SJMP      ??AF_DataRequest_0
??AF_DataRequest_5:
        MOV       DPL,R6
        MOV       DPH,R7
        INC       DPTR
        INC       DPTR
        INC       DPTR
        INC       DPTR
        INC       DPTR
        INC       DPTR
        INC       DPTR
        INC       DPTR
        MOVX      A,@DPTR
        XRL       A,#0x3
        JZ        ??AF_DataRequest_7
        MOV       DPL,R6
        MOV       DPH,R7
        INC       DPTR
        INC       DPTR
        INC       DPTR
        INC       DPTR
        INC       DPTR
        INC       DPTR
        INC       DPTR
        INC       DPTR
        MOVX      A,@DPTR
        XRL       A,#0x1
        JZ        ??AF_DataRequest_7
        MOV       DPL,R6
        MOV       DPH,R7
        INC       DPTR
        INC       DPTR
        INC       DPTR
        INC       DPTR
        INC       DPTR
        INC       DPTR
        INC       DPTR
        INC       DPTR
        MOVX      A,@DPTR
        JZ        ??AF_DataRequest_7
??AF_DataRequest_0:
        MOV       R1,#0x2
        LJMP      ??AF_DataRequest_3 & 0xFFFF
//  636   else
//  637   {
//  638     req.dstAddr.addr.shortAddr = dstAddr->addr.shortAddr;
??AF_DataRequest_8:
        MOV       DPL,R6
        MOV       DPH,R7
        LCALL     ??Subroutine37_0 & 0xFFFF
//  639   }
??CrossCallReturnLabel_76:
        MOV       A,#0x2
        LCALL     ?XSTACK_DISP0_8
        LCALL     ??Subroutine35_0 & 0xFFFF
//  640 
//  641   // This option is to use Wildcard ProfileID in outgoing packets
//  642   if ( options & AF_WILDCARD_PROFILEID )
??CrossCallReturnLabel_67:
        MOV       A,?V2
        MOV       C,0xE0 /* A   */.1
        MOV       A,#0x11
        JNC       ??AF_DataRequest_9
//  643   {
//  644     req.profileID = ZDO_WILDCARD_PROFILE_ID;
        LCALL     ?XSTACK_DISP0_8
        MOV       A,#-0x1
        MOVX      @DPTR,A
        INC       DPTR
        SJMP      ??AF_DataRequest_10
//  645   }
//  646   else
//  647   {
//  648     req.profileID = ZDO_PROFILE_ID;
??AF_DataRequest_9:
        LCALL     ?XSTACK_DISP0_8
        CLR       A
        MOVX      @DPTR,A
        INC       DPTR
        MOVX      @DPTR,A
//  649 
//  650     if ( (pfnDescCB = afGetDescCB( srcEP )) )
        MOV       DPTR,#epList
??AF_DataRequest_11:
        LCALL     ??Subroutine34_0 & 0xFFFF
??CrossCallReturnLabel_55:
        JZ        ??AF_DataRequest_12
        MOV       DPL,R0
        MOV       DPH,R1
        LCALL     ??Subroutine43_0 & 0xFFFF
??CrossCallReturnLabel_106:
        MOV       A,?V0
        XRL       A,R2
        JNZ       ??AF_DataRequest_13
        MOV       A,?V1
        XRL       A,R3
??AF_DataRequest_13:
        MOV       DPL,R0
        MOV       DPH,R1
        JNZ       ??AF_DataRequest_11
        LCALL     ?Subroutine16 & 0xFFFF
??CrossCallReturnLabel_81:
        MOV       A,R0
        MOV       R4,A
        MOV       A,R1
        MOV       R5,A
        MOV       A,R4
        ORL       A,R5
        JZ        ??AF_DataRequest_12
//  651     {
//  652       uint16 *pID = (uint16 *)(pfnDescCB(
//  653                                    AF_DESCRIPTOR_PROFILE_ID, srcEP->endPoint ));
        ; Setup parameters for indirect call
        MOV       DPL,?V0
        MOV       DPH,?V1
        MOVX      A,@DPTR
        MOV       R2,A
        MOV       R1,#0x2
        MOV       DPL,R4
        MOV       DPH,R5
        LCALL     ?CALL_IND
//  654       if ( pID )
        MOV       A,R2
        ORL       A,R3
        JZ        ??AF_DataRequest_14
//  655       {
//  656         req.profileID = *pID;
        MOV       DPL,R2
        MOV       DPH,R3
        LCALL     ??Subroutine37_0 & 0xFFFF
??CrossCallReturnLabel_77:
        MOV       A,#0x11
        LCALL     ?XSTACK_DISP0_8
        LCALL     ??Subroutine35_0 & 0xFFFF
//  657         osal_mem_free( pID );
??CrossCallReturnLabel_68:
        ; Setup parameters for call to function osal_mem_free
        LCALL     `??osal_mem_free::?relay`; Banked call to: osal_mem_free
        SJMP      ??AF_DataRequest_14
//  658       }
//  659     }
//  660     else if ( srcEP->simpleDesc )
??AF_DataRequest_12:
        MOV       DPL,?V0
        MOV       DPH,?V1
        LCALL     ??Subroutine33_0 & 0xFFFF
??CrossCallReturnLabel_61:
        JZ        ??AF_DataRequest_14
//  661     {
//  662       req.profileID = srcEP->simpleDesc->AppProfId;
        MOV       DPL,?V0
        MOV       DPH,?V1
        INC       DPTR
        INC       DPTR
        INC       DPTR
        LCALL     ??Subroutine40_0 & 0xFFFF
//  663     }
//  664   }
??CrossCallReturnLabel_95:
        LCALL     ??Subroutine36_0 & 0xFFFF
??CrossCallReturnLabel_80:
        MOV       A,#0x11
        LCALL     ?XSTACK_DISP0_8
        MOV       A,R0
        MOVX      @DPTR,A
        INC       DPTR
        MOV       A,R1
??AF_DataRequest_10:
        MOVX      @DPTR,A
//  665 
//  666   req.txOptions = 0;
??AF_DataRequest_14:
        MOV       A,#0x17
        LCALL     ?XSTACK_DISP0_8
        CLR       A
        MOVX      @DPTR,A
        INC       DPTR
        MOVX      @DPTR,A
//  667 
//  668   if ( ( options & AF_ACK_REQUEST              ) &&
//  669        ( req.dstAddr.addrMode != AddrBroadcast ) &&
//  670        ( req.dstAddr.addrMode != AddrGroup     )    )
        MOV       A,?V2
        MOV       C,0xE0 /* A   */.4
        JNC       ??AF_DataRequest_15
        MOV       A,#0xa
        LCALL     ?XSTACK_DISP0_8
        MOVX      A,@DPTR
        XRL       A,#0xf
        JZ        ??AF_DataRequest_15
        MOVX      A,@DPTR
        XRL       A,#0x1
        JZ        ??AF_DataRequest_15
//  671   {
//  672     req.txOptions |=  APS_TX_OPTIONS_ACK;
        MOV       A,#0x17
        LCALL     ?XSTACK_DISP0_8
        MOV       A,#0x4
        MOVX      @DPTR,A
        INC       DPTR
        CLR       A
        MOVX      @DPTR,A
//  673   }
//  674 
//  675   if ( options & AF_SKIP_ROUTING )
??AF_DataRequest_15:
        MOV       A,?V2
        MOV       C,0xE0 /* A   */.7
        JNC       ??AF_DataRequest_16
//  676   {
//  677     req.txOptions |=  APS_TX_OPTIONS_SKIP_ROUTING;
        MOV       A,#0x17
        LCALL     ?XSTACK_DISP0_8
        MOVX      A,@DPTR
        ORL       A,#0x10
        MOVX      @DPTR,A
//  678   }
//  679 
//  680   if ( options & AF_EN_SECURITY )
??AF_DataRequest_16:
        MOV       A,?V2
        MOV       C,0xE0 /* A   */.6
        JNC       ??AF_DataRequest_17
//  681   {
//  682     req.txOptions |= APS_TX_OPTIONS_SECURITY_ENABLE;
        MOV       A,#0x17
        LCALL     ?XSTACK_DISP0_8
        MOVX      A,@DPTR
        ORL       A,#0x1
        MOVX      @DPTR,A
//  683     mtu.aps.secure = TRUE;
        MOV       A,#0x1
        LCALL     ?XSTACK_DISP0_8
        MOV       A,#0x1
        SJMP      ??AF_DataRequest_18
//  684   }
//  685   else
//  686   {
//  687     mtu.aps.secure = FALSE;
??AF_DataRequest_17:
        MOV       A,#0x1
        LCALL     ?XSTACK_DISP0_8
        CLR       A
??AF_DataRequest_18:
        MOVX      @DPTR,A
//  688   }
//  689 
//  690   if ( options & AF_PREPROCESS )
        MOV       A,?V2
        MOV       C,0xE0 /* A   */.2
        JNC       ??AF_DataRequest_19
//  691   {
//  692     req.txOptions |=  APS_TX_OPTIONS_PREPROCESS;
        MOV       A,#0x17
        LCALL     ?XSTACK_DISP0_8
        MOVX      A,@DPTR
        ORL       A,#0x40
        MOVX      @DPTR,A
//  693   }
//  694 
//  695   mtu.kvp = FALSE;
??AF_DataRequest_19:
        MOV       DPL,?XSP + 0
        MOV       DPH,?XSP + 1
        CLR       A
        MOVX      @DPTR,A
//  696 
//  697   if ( options & AF_SUPRESS_ROUTE_DISC_NETWORK )
        MOV       A,?V2
        MOV       C,0xE0 /* A   */.5
        JNC       ??AF_DataRequest_20
//  698   {
//  699     req.discoverRoute = DISC_ROUTE_INITIATE;
        MOV       A,#0x1a
        LCALL     ?XSTACK_DISP0_8
        MOV       A,#0x4
        SJMP      ??AF_DataRequest_21
//  700   }
//  701   else
//  702   {
//  703     req.discoverRoute = AF_DataRequestDiscoverRoute;
??AF_DataRequest_20:
        MOV       DPTR,#AF_DataRequestDiscoverRoute
        MOVX      A,@DPTR
        PUSH      A
          CFI CFA_SP SP+-1
        MOV       A,#0x1a
        LCALL     ?XSTACK_DISP0_8
        POP       A
          CFI CFA_SP SP+0
??AF_DataRequest_21:
        MOVX      @DPTR,A
        MOV       A,#0x38
        LCALL     ?XSTACK_DISP0_8
        MOVX      A,@DPTR
        MOV       ?V6,A
        INC       DPTR
        MOVX      A,@DPTR
        MOV       ?V7,A
//  704   }
//  705 
//  706   req.transID       = *transID;
        MOV       DPL,?V6
        MOV       DPH,A
        MOVX      A,@DPTR
        PUSH      A
          CFI CFA_SP SP+-1
        MOV       A,#0x19
        LCALL     ?XSTACK_DISP0_8
        POP       A
          CFI CFA_SP SP+0
        LCALL     ?Subroutine22 & 0xFFFF
//  707   req.srcEP         = srcEP->endPoint;
??CrossCallReturnLabel_32:
        MOVX      A,@DPTR
        PUSH      A
          CFI CFA_SP SP+-1
        MOV       A,#0xb
        LCALL     ?XSTACK_DISP0_8
        POP       A
          CFI CFA_SP SP+0
        LCALL     ?Subroutine21 & 0xFFFF
//  708   req.dstEP         = dstAddr->endPoint;
??CrossCallReturnLabel_28:
        INC       DPTR
        INC       DPTR
        INC       DPTR
        MOVX      A,@DPTR
        PUSH      A
          CFI CFA_SP SP+-1
        MOV       A,#0xc
        LCALL     ?XSTACK_DISP0_8
        POP       A
          CFI CFA_SP SP+0
        MOVX      @DPTR,A
//  709   req.clusterID     = cID;
        MOV       A,#0x32
        LCALL     ?XSTACK_DISP0_8
        LCALL     ??Subroutine37_0 & 0xFFFF
??CrossCallReturnLabel_78:
        MOV       A,#0xf
        LCALL     ?XSTACK_DISP0_8
        LCALL     ??Subroutine35_0 & 0xFFFF
??CrossCallReturnLabel_69:
        MOV       A,#0x34
        LCALL     ?XSTACK_DISP0_8
        MOVX      A,@DPTR
        MOV       ?V4,A
        INC       DPTR
        MOVX      A,@DPTR
        MOV       ?V5,A
//  710   req.asduLen       = len;
        MOV       A,#0x13
        LCALL     ?XSTACK_DISP0_8
        MOV       A,?V4
        MOVX      @DPTR,A
        INC       DPTR
        MOV       A,?V5
        MOVX      @DPTR,A
//  711   req.asdu          = buf;
        MOV       A,#0x36
        LCALL     ?XSTACK_DISP0_8
        LCALL     ??Subroutine37_0 & 0xFFFF
??CrossCallReturnLabel_79:
        MOV       A,#0x15
        LCALL     ?XSTACK_DISP0_8
        LCALL     ??Subroutine35_0 & 0xFFFF
//  712   req.radiusCounter = radius;
??CrossCallReturnLabel_70:
        MOV       A,#0x3a
        LCALL     ?XSTACK_DISP0_8
        MOVX      A,@DPTR
        PUSH      A
          CFI CFA_SP SP+-1
        MOV       A,#0x1b
        LCALL     ?XSTACK_DISP0_8
        POP       A
          CFI CFA_SP SP+0
        LCALL     ?Subroutine21 & 0xFFFF
//  713 #if defined ( INTER_PAN )
//  714   req.dstPanId      = dstAddr->panId;
??CrossCallReturnLabel_29:
        LCALL     ?Subroutine16 & 0xFFFF
??CrossCallReturnLabel_82:
        MOV       A,#0xd
        LCALL     ?XSTACK_DISP0_8
        LCALL     ??Subroutine35_0 & 0xFFFF
//  715 #endif // INTER_PAN
//  716 
//  717   // Look if there is a Callback function registered for this endpoint
//  718   // The callback is used to control the AF Transaction ID used when sending messages
//  719   pList = afFindEndPointDescList( srcEP->endPoint );
??CrossCallReturnLabel_71:
        ; Setup parameters for call to function afFindEndPointDescList
        MOV       DPL,?V0
        MOV       DPH,?V1
        MOVX      A,@DPTR
        MOV       R1,A
        LCALL     `??afFindEndPointDescList::?relay`; Banked call to: afFindEndPointDescList
        MOV       ?V8,R2
        MOV       ?V9,R3
        MOV       R4,?V8
        MOV       R5,?V9
//  720 
//  721   if ( ( pList != NULL ) && ( pList->pfnApplCB != NULL ) )
        MOV       A,R4
        ORL       A,R5
        JZ        ??AF_DataRequest_22
        MOV       DPL,R4
        MOV       DPH,R5
        INC       DPTR
        INC       DPTR
        INC       DPTR
        INC       DPTR
        INC       DPTR
        LCALL     ?Subroutine4 & 0xFFFF
??CrossCallReturnLabel_63:
        JZ        ??AF_DataRequest_22
//  722   {
//  723     pList->pfnApplCB( &req );
        ; Setup parameters for indirect call
        MOV       A,#0x2
        LCALL     ?XSTACK_DISP101_8
        MOV       DPL,R4
        MOV       DPH,R5
        INC       DPTR
        INC       DPTR
        INC       DPTR
        INC       DPTR
        INC       DPTR
        INC       DPTR
        INC       DPTR
        INC       DPTR
        INC       DPTR
        LCALL     ??Subroutine40_0 & 0xFFFF
//  724   }
??CrossCallReturnLabel_96:
        LCALL     ?CALL_IND
//  725 
//  726 #if defined ( INTER_PAN )
//  727   if ( StubAPS_InterPan( dstAddr->panId, dstAddr->endPoint ) )
??AF_DataRequest_22:
        ; Setup parameters for call to function StubAPS_InterPan
        MOV       DPL,R6
        MOV       DPH,R7
        INC       DPTR
        INC       DPTR
        INC       DPTR
        INC       DPTR
        INC       DPTR
        INC       DPTR
        INC       DPTR
        INC       DPTR
        LCALL     ?Subroutine13 & 0xFFFF
??CrossCallReturnLabel_90:
        INC       DPTR
        INC       DPTR
        INC       DPTR
        INC       DPTR
        INC       DPTR
        INC       DPTR
        LCALL     ?Subroutine10 & 0xFFFF
??CrossCallReturnLabel_111:
        LCALL     `??StubAPS_InterPan::?relay`; Banked call to: StubAPS_InterPan
        MOV       A,R1
        JZ        ??AF_DataRequest_23
//  728   {
//  729     if ( len > INTERP_DataReqMTU() )
        ; Setup parameters for call to function INTERP_DataReqMTU
        LCALL     `??INTERP_DataReqMTU::?relay`; Banked call to: INTERP_DataReqMTU
        MOV       A,R1
        CLR       C
        SUBB      A,?V4
        CLR       A
        SUBB      A,?V5
        JC        ??AF_DataRequest_24
//  730     {
//  731       stat = afStatus_INVALID_PARAMETER;
//  732     }
//  733     else
//  734     {
//  735       stat = INTERP_DataReq( &req );
        ; Setup parameters for call to function INTERP_DataReq
        MOV       A,#0x2
        LCALL     ?XSTACK_DISP101_8
        LCALL     `??INTERP_DataReq::?relay`; Banked call to: INTERP_DataReq
        SJMP      ??AF_DataRequest_25
//  736     }
//  737   }
//  738   else
//  739 #endif // INTER_PAN
//  740   {
//  741     if (len > afDataReqMTU( &mtu ) )
??AF_DataRequest_23:
        ; Setup parameters for call to function afDataReqMTU
        MOV       R2,?XSP + 0
        MOV       R3,?XSP + 1
        LCALL     `??afDataReqMTU::?relay`; Banked call to: afDataReqMTU
        MOV       A,R1
        CLR       C
        SUBB      A,?V4
        CLR       A
        SUBB      A,?V5
        JNC       ??AF_DataRequest_26
//  742     {
//  743       if (apsfSendFragmented)
        MOV       DPTR,#apsfSendFragmented
        LCALL     ??Subroutine34_0 & 0xFFFF
??CrossCallReturnLabel_59:
        JZ        ??AF_DataRequest_24
//  744       {
//  745         stat = (*apsfSendFragmented)( &req );
        ; Setup parameters for indirect call
        MOV       A,#0x2
        LCALL     ?XSTACK_DISP101_8
        LCALL     ??Subroutine41_0 & 0xFFFF
//  746       }
??CrossCallReturnLabel_92:
        LCALL     ?CALL_IND
        SJMP      ??AF_DataRequest_25
//  747       else
//  748       {
//  749         stat = afStatus_INVALID_PARAMETER;
??AF_DataRequest_24:
        MOV       R6,#0x2
        SJMP      ??AF_DataRequest_27
//  750       }
//  751     }
//  752     else
//  753     {
//  754       stat = APSDE_DataReq( &req );
??AF_DataRequest_26:
        ; Setup parameters for call to function APSDE_DataReq
        MOV       A,#0x2
        LCALL     ?XSTACK_DISP101_8
        LCALL     `??APSDE_DataReq::?relay`; Banked call to: APSDE_DataReq
??AF_DataRequest_25:
        MOV       A,R1
        MOV       R6,A
//  755     }
//  756   }
//  757 
//  758   /*
//  759    * If this is an EndPoint-to-EndPoint message on the same device, it will not
//  760    * get added to the NWK databufs. So it will not go OTA and it will not get
//  761    * a MACCB_DATA_CONFIRM_CMD callback. Thus it is necessary to generate the
//  762    * AF_DATA_CONFIRM_CMD here. Note that APSDE_DataConfirm() only generates one
//  763    * message with the first in line TransSeqNumber, even on a multi message.
//  764    * Also note that a reflected msg will not have its confirmation generated
//  765    * here.
//  766    */
//  767   if ( (req.dstAddr.addrMode == Addr16Bit) &&
//  768        (req.dstAddr.addr.shortAddr == NLME_GetShortAddr()) )
??AF_DataRequest_27:
        MOV       A,#0xa
        LCALL     ?XSTACK_DISP0_8
        MOVX      A,@DPTR
        XRL       A,#0x2
        JNZ       ??AF_DataRequest_28
        ; Setup parameters for call to function NLME_GetShortAddr
        LCALL     `??NLME_GetShortAddr::?relay`; Banked call to: NLME_GetShortAddr
        MOV       ?V4,R2
        MOV       ?V5,R3
        MOV       R0,?V4
        MOV       R1,?V5
        MOV       A,#0x2
        LCALL     ?XSTACK_DISP0_8
        MOVX      A,@DPTR
        XRL       A,R0
        JNZ       ??AF_DataRequest_29
        INC       DPTR
        MOVX      A,@DPTR
        XRL       A,R1
??AF_DataRequest_29:
        JNZ       ??AF_DataRequest_28
//  769   {
//  770     afDataConfirm( srcEP->endPoint, *transID, stat );
        ; Setup parameters for call to function afDataConfirm
        MOV       A,R6
        MOV       R3,A
        MOV       DPL,?V6
        MOV       DPH,?V7
        MOVX      A,@DPTR
        MOV       R2,A
        MOV       DPL,?V0
        MOV       DPH,?V1
        MOVX      A,@DPTR
        MOV       R1,A
        LCALL     `??afDataConfirm::?relay`; Banked call to: afDataConfirm
//  771   }
//  772 
//  773   if ( stat == afStatus_SUCCESS )
??AF_DataRequest_28:
        MOV       A,R6
        JNZ       ??AF_DataRequest_30
//  774   {
//  775     (*transID)++;
        MOV       DPL,?V6
        MOV       DPH,?V7
        MOVX      A,@DPTR
        INC       A
        MOVX      @DPTR,A
//  776   }
//  777 
//  778   return (afStatus_t)stat;
??AF_DataRequest_30:
        MOV       A,R6
        MOV       R1,A
??AF_DataRequest_3:
        MOV       A,#0x20
        LCALL     ?DEALLOC_XSTACK8
          CFI CFA_XSP16 add(XSP16, 18)
        MOV       R7,#0xa
        LJMP      ?BANKED_LEAVE_XDATA
//  779 }
          CFI EndBlock cfiBlock85

        RSEG BANKED_CODE:HUGECODE:NOROOT(0)
?Subroutine21:
          CFI Block cfiCond86 Using cfiCommon0
          CFI Function AF_DataRequest
          CFI Conditional ??CrossCallReturnLabel_28
          CFI R6 load(1, XDATA, add(CFA_XSP16, literal(-18)))
          CFI VB load(1, XDATA, add(CFA_XSP16, literal(-17)))
          CFI V0 load(1, XDATA, add(CFA_XSP16, literal(-16)))
          CFI V1 load(1, XDATA, add(CFA_XSP16, literal(-15)))
          CFI V2 load(1, XDATA, add(CFA_XSP16, literal(-14)))
          CFI V3 load(1, XDATA, add(CFA_XSP16, literal(-13)))
          CFI V4 load(1, XDATA, add(CFA_XSP16, literal(-12)))
          CFI V5 load(1, XDATA, add(CFA_XSP16, literal(-11)))
          CFI V6 load(1, XDATA, add(CFA_XSP16, literal(-10)))
          CFI V7 load(1, XDATA, add(CFA_XSP16, literal(-9)))
          CFI V8 load(1, XDATA, add(CFA_XSP16, literal(-8)))
          CFI V9 load(1, XDATA, add(CFA_XSP16, literal(-7)))
          CFI R7 load(1, XDATA, add(CFA_XSP16, literal(-6)))
          CFI ?RET_LOW load(1, XDATA, add(CFA_XSP16, literal(-5)))
          CFI ?RET_HIGH load(1, XDATA, add(CFA_XSP16, literal(-4)))
          CFI ?BRET_EXT load(1, XDATA, add(CFA_XSP16, literal(-3)))
          CFI DPL0 load(1, XDATA, add(CFA_XSP16, literal(-2)))
          CFI DPH0 load(1, XDATA, add(CFA_XSP16, literal(-1)))
          CFI CFA_SP SP+-2
          CFI CFA_XSP16 add(XSP16, 50)
          CFI Block cfiCond87 Using cfiCommon0
          CFI (cfiCond87) Function AF_DataRequest
          CFI (cfiCond87) Conditional ??CrossCallReturnLabel_29
          CFI (cfiCond87) R6 load(1, XDATA, add(CFA_XSP16, literal(-18)))
          CFI (cfiCond87) VB load(1, XDATA, add(CFA_XSP16, literal(-17)))
          CFI (cfiCond87) V0 load(1, XDATA, add(CFA_XSP16, literal(-16)))
          CFI (cfiCond87) V1 load(1, XDATA, add(CFA_XSP16, literal(-15)))
          CFI (cfiCond87) V2 load(1, XDATA, add(CFA_XSP16, literal(-14)))
          CFI (cfiCond87) V3 load(1, XDATA, add(CFA_XSP16, literal(-13)))
          CFI (cfiCond87) V4 load(1, XDATA, add(CFA_XSP16, literal(-12)))
          CFI (cfiCond87) V5 load(1, XDATA, add(CFA_XSP16, literal(-11)))
          CFI (cfiCond87) V6 load(1, XDATA, add(CFA_XSP16, literal(-10)))
          CFI (cfiCond87) V7 load(1, XDATA, add(CFA_XSP16, literal(-9)))
          CFI (cfiCond87) V8 load(1, XDATA, add(CFA_XSP16, literal(-8)))
          CFI (cfiCond87) V9 load(1, XDATA, add(CFA_XSP16, literal(-7)))
          CFI (cfiCond87) R7 load(1, XDATA, add(CFA_XSP16, literal(-6)))
          CFI (cfiCond87) ?RET_LOW load(1, XDATA, add(CFA_XSP16, literal(-5)))
          CFI (cfiCond87) ?RET_HIGH load(1, XDATA, add(CFA_XSP16, literal(-4)))
          CFI (cfiCond87) ?BRET_EXT load(1, XDATA, add(CFA_XSP16, literal(-3)))
          CFI (cfiCond87) DPL0 load(1, XDATA, add(CFA_XSP16, literal(-2)))
          CFI (cfiCond87) DPH0 load(1, XDATA, add(CFA_XSP16, literal(-1)))
          CFI (cfiCond87) CFA_SP SP+-2
          CFI (cfiCond87) CFA_XSP16 add(XSP16, 50)
          CFI Block cfiPicker88 Using cfiCommon1
          CFI (cfiPicker88) NoFunction
          CFI (cfiPicker88) Picker
        MOVX      @DPTR,A
        MOV       DPL,R6
        MOV       DPH,R7
        INC       DPTR
        INC       DPTR
        INC       DPTR
        INC       DPTR
        INC       DPTR
        INC       DPTR
        RET
          CFI EndBlock cfiCond86
          CFI EndBlock cfiCond87
          CFI EndBlock cfiPicker88

        RSEG BANKED_CODE:HUGECODE:NOROOT(0)
?Subroutine19:
          CFI Block cfiCond89 Using cfiCommon0
          CFI Function afBuildMSGIncoming
          CFI Conditional ??CrossCallReturnLabel_73
          CFI R6 load(1, XDATA, add(CFA_XSP16, literal(-19)))
          CFI VB load(1, XDATA, add(CFA_XSP16, literal(-18)))
          CFI V0 load(1, XDATA, add(CFA_XSP16, literal(-17)))
          CFI V1 load(1, XDATA, add(CFA_XSP16, literal(-16)))
          CFI V2 load(1, XDATA, add(CFA_XSP16, literal(-15)))
          CFI V3 load(1, XDATA, add(CFA_XSP16, literal(-14)))
          CFI V4 load(1, XDATA, add(CFA_XSP16, literal(-13)))
          CFI V5 load(1, XDATA, add(CFA_XSP16, literal(-12)))
          CFI V6 load(1, XDATA, add(CFA_XSP16, literal(-11)))
          CFI V7 load(1, XDATA, add(CFA_XSP16, literal(-10)))
          CFI V8 load(1, XDATA, add(CFA_XSP16, literal(-9)))
          CFI V9 load(1, XDATA, add(CFA_XSP16, literal(-8)))
          CFI V10 load(1, XDATA, add(CFA_XSP16, literal(-7)))
          CFI R7 load(1, XDATA, add(CFA_XSP16, literal(-6)))
          CFI ?RET_LOW load(1, XDATA, add(CFA_XSP16, literal(-5)))
          CFI ?RET_HIGH load(1, XDATA, add(CFA_XSP16, literal(-4)))
          CFI ?BRET_EXT load(1, XDATA, add(CFA_XSP16, literal(-3)))
          CFI DPL0 load(1, XDATA, add(CFA_XSP16, literal(-2)))
          CFI DPH0 load(1, XDATA, add(CFA_XSP16, literal(-1)))
          CFI CFA_SP SP+-2
          CFI CFA_XSP16 add(XSP16, 19)
          CFI Block cfiCond90 Using cfiCommon0
          CFI (cfiCond90) Function afBuildMSGIncoming
          CFI (cfiCond90) Conditional ??CrossCallReturnLabel_74
          CFI (cfiCond90) R6 load(1, XDATA, add(CFA_XSP16, literal(-19)))
          CFI (cfiCond90) VB load(1, XDATA, add(CFA_XSP16, literal(-18)))
          CFI (cfiCond90) V0 load(1, XDATA, add(CFA_XSP16, literal(-17)))
          CFI (cfiCond90) V1 load(1, XDATA, add(CFA_XSP16, literal(-16)))
          CFI (cfiCond90) V2 load(1, XDATA, add(CFA_XSP16, literal(-15)))
          CFI (cfiCond90) V3 load(1, XDATA, add(CFA_XSP16, literal(-14)))
          CFI (cfiCond90) V4 load(1, XDATA, add(CFA_XSP16, literal(-13)))
          CFI (cfiCond90) V5 load(1, XDATA, add(CFA_XSP16, literal(-12)))
          CFI (cfiCond90) V6 load(1, XDATA, add(CFA_XSP16, literal(-11)))
          CFI (cfiCond90) V7 load(1, XDATA, add(CFA_XSP16, literal(-10)))
          CFI (cfiCond90) V8 load(1, XDATA, add(CFA_XSP16, literal(-9)))
          CFI (cfiCond90) V9 load(1, XDATA, add(CFA_XSP16, literal(-8)))
          CFI (cfiCond90) V10 load(1, XDATA, add(CFA_XSP16, literal(-7)))
          CFI (cfiCond90) R7 load(1, XDATA, add(CFA_XSP16, literal(-6)))
          CFI (cfiCond90) ?RET_LOW load(1, XDATA, add(CFA_XSP16, literal(-5)))
          CFI (cfiCond90) ?RET_HIGH load(1, XDATA, add(CFA_XSP16, literal(-4)))
          CFI (cfiCond90) ?BRET_EXT load(1, XDATA, add(CFA_XSP16, literal(-3)))
          CFI (cfiCond90) DPL0 load(1, XDATA, add(CFA_XSP16, literal(-2)))
          CFI (cfiCond90) DPH0 load(1, XDATA, add(CFA_XSP16, literal(-1)))
          CFI (cfiCond90) CFA_SP SP+-2
          CFI (cfiCond90) CFA_XSP16 add(XSP16, 19)
          CFI Block cfiPicker91 Using cfiCommon1
          CFI (cfiPicker91) NoFunction
          CFI (cfiPicker91) Picker
        MOV       DPL,A
        CLR       A
        ADDC      A,R7
        MOV       DPH,A
          CFI EndBlock cfiCond89
          CFI EndBlock cfiCond90
          CFI EndBlock cfiPicker91
        REQUIRE ??Subroutine35_0
        ; // Fall through to label ??Subroutine35_0

        RSEG BANKED_CODE:HUGECODE:NOROOT(0)
??Subroutine35_0:
          CFI Block cfiCond92 Using cfiCommon0
          CFI Function afRegisterExtended
          CFI Conditional ??CrossCallReturnLabel_64
          CFI R6 load(1, XDATA, add(CFA_XSP16, literal(-12)))
          CFI VB load(1, XDATA, add(CFA_XSP16, literal(-11)))
          CFI V0 load(1, XDATA, add(CFA_XSP16, literal(-10)))
          CFI V1 load(1, XDATA, add(CFA_XSP16, literal(-9)))
          CFI V2 load(1, XDATA, add(CFA_XSP16, literal(-8)))
          CFI V3 load(1, XDATA, add(CFA_XSP16, literal(-7)))
          CFI R7 load(1, XDATA, add(CFA_XSP16, literal(-6)))
          CFI ?RET_LOW load(1, XDATA, add(CFA_XSP16, literal(-5)))
          CFI ?RET_HIGH load(1, XDATA, add(CFA_XSP16, literal(-4)))
          CFI ?BRET_EXT load(1, XDATA, add(CFA_XSP16, literal(-3)))
          CFI DPL0 load(1, XDATA, add(CFA_XSP16, literal(-2)))
          CFI DPH0 load(1, XDATA, add(CFA_XSP16, literal(-1)))
          CFI CFA_SP SP+-2
          CFI CFA_XSP16 add(XSP16, 12)
          CFI Block cfiCond93 Using cfiCommon0
          CFI (cfiCond93) Function afRegisterExtended
          CFI (cfiCond93) Conditional ??CrossCallReturnLabel_65
          CFI (cfiCond93) R6 load(1, XDATA, add(CFA_XSP16, literal(-12)))
          CFI (cfiCond93) VB load(1, XDATA, add(CFA_XSP16, literal(-11)))
          CFI (cfiCond93) V0 load(1, XDATA, add(CFA_XSP16, literal(-10)))
          CFI (cfiCond93) V1 load(1, XDATA, add(CFA_XSP16, literal(-9)))
          CFI (cfiCond93) V2 load(1, XDATA, add(CFA_XSP16, literal(-8)))
          CFI (cfiCond93) V3 load(1, XDATA, add(CFA_XSP16, literal(-7)))
          CFI (cfiCond93) R7 load(1, XDATA, add(CFA_XSP16, literal(-6)))
          CFI (cfiCond93) ?RET_LOW load(1, XDATA, add(CFA_XSP16, literal(-5)))
          CFI (cfiCond93) ?RET_HIGH load(1, XDATA, add(CFA_XSP16, literal(-4)))
          CFI (cfiCond93) ?BRET_EXT load(1, XDATA, add(CFA_XSP16, literal(-3)))
          CFI (cfiCond93) DPL0 load(1, XDATA, add(CFA_XSP16, literal(-2)))
          CFI (cfiCond93) DPH0 load(1, XDATA, add(CFA_XSP16, literal(-1)))
          CFI (cfiCond93) CFA_SP SP+-2
          CFI (cfiCond93) CFA_XSP16 add(XSP16, 12)
          CFI Block cfiCond94 Using cfiCommon0
          CFI (cfiCond94) Function afBuildMSGIncoming
          CFI (cfiCond94) Conditional ??CrossCallReturnLabel_66
          CFI (cfiCond94) R6 load(1, XDATA, add(CFA_XSP16, literal(-19)))
          CFI (cfiCond94) VB load(1, XDATA, add(CFA_XSP16, literal(-18)))
          CFI (cfiCond94) V0 load(1, XDATA, add(CFA_XSP16, literal(-17)))
          CFI (cfiCond94) V1 load(1, XDATA, add(CFA_XSP16, literal(-16)))
          CFI (cfiCond94) V2 load(1, XDATA, add(CFA_XSP16, literal(-15)))
          CFI (cfiCond94) V3 load(1, XDATA, add(CFA_XSP16, literal(-14)))
          CFI (cfiCond94) V4 load(1, XDATA, add(CFA_XSP16, literal(-13)))
          CFI (cfiCond94) V5 load(1, XDATA, add(CFA_XSP16, literal(-12)))
          CFI (cfiCond94) V6 load(1, XDATA, add(CFA_XSP16, literal(-11)))
          CFI (cfiCond94) V7 load(1, XDATA, add(CFA_XSP16, literal(-10)))
          CFI (cfiCond94) V8 load(1, XDATA, add(CFA_XSP16, literal(-9)))
          CFI (cfiCond94) V9 load(1, XDATA, add(CFA_XSP16, literal(-8)))
          CFI (cfiCond94) V10 load(1, XDATA, add(CFA_XSP16, literal(-7)))
          CFI (cfiCond94) R7 load(1, XDATA, add(CFA_XSP16, literal(-6)))
          CFI (cfiCond94) ?RET_LOW load(1, XDATA, add(CFA_XSP16, literal(-5)))
          CFI (cfiCond94) ?RET_HIGH load(1, XDATA, add(CFA_XSP16, literal(-4)))
          CFI (cfiCond94) ?BRET_EXT load(1, XDATA, add(CFA_XSP16, literal(-3)))
          CFI (cfiCond94) DPL0 load(1, XDATA, add(CFA_XSP16, literal(-2)))
          CFI (cfiCond94) DPH0 load(1, XDATA, add(CFA_XSP16, literal(-1)))
          CFI (cfiCond94) CFA_SP SP+-2
          CFI (cfiCond94) CFA_XSP16 add(XSP16, 19)
          CFI Block cfiCond95 Using cfiCommon0
          CFI (cfiCond95) Function AF_DataRequest
          CFI (cfiCond95) Conditional ??CrossCallReturnLabel_67
          CFI (cfiCond95) R6 load(1, XDATA, add(CFA_XSP16, literal(-18)))
          CFI (cfiCond95) VB load(1, XDATA, add(CFA_XSP16, literal(-17)))
          CFI (cfiCond95) V0 load(1, XDATA, add(CFA_XSP16, literal(-16)))
          CFI (cfiCond95) V1 load(1, XDATA, add(CFA_XSP16, literal(-15)))
          CFI (cfiCond95) V2 load(1, XDATA, add(CFA_XSP16, literal(-14)))
          CFI (cfiCond95) V3 load(1, XDATA, add(CFA_XSP16, literal(-13)))
          CFI (cfiCond95) V4 load(1, XDATA, add(CFA_XSP16, literal(-12)))
          CFI (cfiCond95) V5 load(1, XDATA, add(CFA_XSP16, literal(-11)))
          CFI (cfiCond95) V6 load(1, XDATA, add(CFA_XSP16, literal(-10)))
          CFI (cfiCond95) V7 load(1, XDATA, add(CFA_XSP16, literal(-9)))
          CFI (cfiCond95) V8 load(1, XDATA, add(CFA_XSP16, literal(-8)))
          CFI (cfiCond95) V9 load(1, XDATA, add(CFA_XSP16, literal(-7)))
          CFI (cfiCond95) R7 load(1, XDATA, add(CFA_XSP16, literal(-6)))
          CFI (cfiCond95) ?RET_LOW load(1, XDATA, add(CFA_XSP16, literal(-5)))
          CFI (cfiCond95) ?RET_HIGH load(1, XDATA, add(CFA_XSP16, literal(-4)))
          CFI (cfiCond95) ?BRET_EXT load(1, XDATA, add(CFA_XSP16, literal(-3)))
          CFI (cfiCond95) DPL0 load(1, XDATA, add(CFA_XSP16, literal(-2)))
          CFI (cfiCond95) DPH0 load(1, XDATA, add(CFA_XSP16, literal(-1)))
          CFI (cfiCond95) CFA_SP SP+-2
          CFI (cfiCond95) CFA_XSP16 add(XSP16, 50)
          CFI Block cfiCond96 Using cfiCommon0
          CFI (cfiCond96) Function AF_DataRequest
          CFI (cfiCond96) Conditional ??CrossCallReturnLabel_68
          CFI (cfiCond96) R6 load(1, XDATA, add(CFA_XSP16, literal(-18)))
          CFI (cfiCond96) VB load(1, XDATA, add(CFA_XSP16, literal(-17)))
          CFI (cfiCond96) V0 load(1, XDATA, add(CFA_XSP16, literal(-16)))
          CFI (cfiCond96) V1 load(1, XDATA, add(CFA_XSP16, literal(-15)))
          CFI (cfiCond96) V2 load(1, XDATA, add(CFA_XSP16, literal(-14)))
          CFI (cfiCond96) V3 load(1, XDATA, add(CFA_XSP16, literal(-13)))
          CFI (cfiCond96) V4 load(1, XDATA, add(CFA_XSP16, literal(-12)))
          CFI (cfiCond96) V5 load(1, XDATA, add(CFA_XSP16, literal(-11)))
          CFI (cfiCond96) V6 load(1, XDATA, add(CFA_XSP16, literal(-10)))
          CFI (cfiCond96) V7 load(1, XDATA, add(CFA_XSP16, literal(-9)))
          CFI (cfiCond96) V8 load(1, XDATA, add(CFA_XSP16, literal(-8)))
          CFI (cfiCond96) V9 load(1, XDATA, add(CFA_XSP16, literal(-7)))
          CFI (cfiCond96) R7 load(1, XDATA, add(CFA_XSP16, literal(-6)))
          CFI (cfiCond96) ?RET_LOW load(1, XDATA, add(CFA_XSP16, literal(-5)))
          CFI (cfiCond96) ?RET_HIGH load(1, XDATA, add(CFA_XSP16, literal(-4)))
          CFI (cfiCond96) ?BRET_EXT load(1, XDATA, add(CFA_XSP16, literal(-3)))
          CFI (cfiCond96) DPL0 load(1, XDATA, add(CFA_XSP16, literal(-2)))
          CFI (cfiCond96) DPH0 load(1, XDATA, add(CFA_XSP16, literal(-1)))
          CFI (cfiCond96) CFA_SP SP+-2
          CFI (cfiCond96) CFA_XSP16 add(XSP16, 50)
          CFI Block cfiCond97 Using cfiCommon0
          CFI (cfiCond97) Function AF_DataRequest
          CFI (cfiCond97) Conditional ??CrossCallReturnLabel_69
          CFI (cfiCond97) R6 load(1, XDATA, add(CFA_XSP16, literal(-18)))
          CFI (cfiCond97) VB load(1, XDATA, add(CFA_XSP16, literal(-17)))
          CFI (cfiCond97) V0 load(1, XDATA, add(CFA_XSP16, literal(-16)))
          CFI (cfiCond97) V1 load(1, XDATA, add(CFA_XSP16, literal(-15)))
          CFI (cfiCond97) V2 load(1, XDATA, add(CFA_XSP16, literal(-14)))
          CFI (cfiCond97) V3 load(1, XDATA, add(CFA_XSP16, literal(-13)))
          CFI (cfiCond97) V4 load(1, XDATA, add(CFA_XSP16, literal(-12)))
          CFI (cfiCond97) V5 load(1, XDATA, add(CFA_XSP16, literal(-11)))
          CFI (cfiCond97) V6 load(1, XDATA, add(CFA_XSP16, literal(-10)))
          CFI (cfiCond97) V7 load(1, XDATA, add(CFA_XSP16, literal(-9)))
          CFI (cfiCond97) V8 load(1, XDATA, add(CFA_XSP16, literal(-8)))
          CFI (cfiCond97) V9 load(1, XDATA, add(CFA_XSP16, literal(-7)))
          CFI (cfiCond97) R7 load(1, XDATA, add(CFA_XSP16, literal(-6)))
          CFI (cfiCond97) ?RET_LOW load(1, XDATA, add(CFA_XSP16, literal(-5)))
          CFI (cfiCond97) ?RET_HIGH load(1, XDATA, add(CFA_XSP16, literal(-4)))
          CFI (cfiCond97) ?BRET_EXT load(1, XDATA, add(CFA_XSP16, literal(-3)))
          CFI (cfiCond97) DPL0 load(1, XDATA, add(CFA_XSP16, literal(-2)))
          CFI (cfiCond97) DPH0 load(1, XDATA, add(CFA_XSP16, literal(-1)))
          CFI (cfiCond97) CFA_SP SP+-2
          CFI (cfiCond97) CFA_XSP16 add(XSP16, 50)
          CFI Block cfiCond98 Using cfiCommon0
          CFI (cfiCond98) Function AF_DataRequest
          CFI (cfiCond98) Conditional ??CrossCallReturnLabel_70
          CFI (cfiCond98) R6 load(1, XDATA, add(CFA_XSP16, literal(-18)))
          CFI (cfiCond98) VB load(1, XDATA, add(CFA_XSP16, literal(-17)))
          CFI (cfiCond98) V0 load(1, XDATA, add(CFA_XSP16, literal(-16)))
          CFI (cfiCond98) V1 load(1, XDATA, add(CFA_XSP16, literal(-15)))
          CFI (cfiCond98) V2 load(1, XDATA, add(CFA_XSP16, literal(-14)))
          CFI (cfiCond98) V3 load(1, XDATA, add(CFA_XSP16, literal(-13)))
          CFI (cfiCond98) V4 load(1, XDATA, add(CFA_XSP16, literal(-12)))
          CFI (cfiCond98) V5 load(1, XDATA, add(CFA_XSP16, literal(-11)))
          CFI (cfiCond98) V6 load(1, XDATA, add(CFA_XSP16, literal(-10)))
          CFI (cfiCond98) V7 load(1, XDATA, add(CFA_XSP16, literal(-9)))
          CFI (cfiCond98) V8 load(1, XDATA, add(CFA_XSP16, literal(-8)))
          CFI (cfiCond98) V9 load(1, XDATA, add(CFA_XSP16, literal(-7)))
          CFI (cfiCond98) R7 load(1, XDATA, add(CFA_XSP16, literal(-6)))
          CFI (cfiCond98) ?RET_LOW load(1, XDATA, add(CFA_XSP16, literal(-5)))
          CFI (cfiCond98) ?RET_HIGH load(1, XDATA, add(CFA_XSP16, literal(-4)))
          CFI (cfiCond98) ?BRET_EXT load(1, XDATA, add(CFA_XSP16, literal(-3)))
          CFI (cfiCond98) DPL0 load(1, XDATA, add(CFA_XSP16, literal(-2)))
          CFI (cfiCond98) DPH0 load(1, XDATA, add(CFA_XSP16, literal(-1)))
          CFI (cfiCond98) CFA_SP SP+-2
          CFI (cfiCond98) CFA_XSP16 add(XSP16, 50)
          CFI Block cfiCond99 Using cfiCommon0
          CFI (cfiCond99) Function AF_DataRequest
          CFI (cfiCond99) Conditional ??CrossCallReturnLabel_71
          CFI (cfiCond99) R6 load(1, XDATA, add(CFA_XSP16, literal(-18)))
          CFI (cfiCond99) VB load(1, XDATA, add(CFA_XSP16, literal(-17)))
          CFI (cfiCond99) V0 load(1, XDATA, add(CFA_XSP16, literal(-16)))
          CFI (cfiCond99) V1 load(1, XDATA, add(CFA_XSP16, literal(-15)))
          CFI (cfiCond99) V2 load(1, XDATA, add(CFA_XSP16, literal(-14)))
          CFI (cfiCond99) V3 load(1, XDATA, add(CFA_XSP16, literal(-13)))
          CFI (cfiCond99) V4 load(1, XDATA, add(CFA_XSP16, literal(-12)))
          CFI (cfiCond99) V5 load(1, XDATA, add(CFA_XSP16, literal(-11)))
          CFI (cfiCond99) V6 load(1, XDATA, add(CFA_XSP16, literal(-10)))
          CFI (cfiCond99) V7 load(1, XDATA, add(CFA_XSP16, literal(-9)))
          CFI (cfiCond99) V8 load(1, XDATA, add(CFA_XSP16, literal(-8)))
          CFI (cfiCond99) V9 load(1, XDATA, add(CFA_XSP16, literal(-7)))
          CFI (cfiCond99) R7 load(1, XDATA, add(CFA_XSP16, literal(-6)))
          CFI (cfiCond99) ?RET_LOW load(1, XDATA, add(CFA_XSP16, literal(-5)))
          CFI (cfiCond99) ?RET_HIGH load(1, XDATA, add(CFA_XSP16, literal(-4)))
          CFI (cfiCond99) ?BRET_EXT load(1, XDATA, add(CFA_XSP16, literal(-3)))
          CFI (cfiCond99) DPL0 load(1, XDATA, add(CFA_XSP16, literal(-2)))
          CFI (cfiCond99) DPH0 load(1, XDATA, add(CFA_XSP16, literal(-1)))
          CFI (cfiCond99) CFA_SP SP+-2
          CFI (cfiCond99) CFA_XSP16 add(XSP16, 50)
          CFI Block cfiCond100 Using cfiCommon0
          CFI (cfiCond100) Function afCopyAddress
          CFI (cfiCond100) Conditional ??CrossCallReturnLabel_72
          CFI (cfiCond100) R6 load(1, XDATA, add(CFA_XSP16, literal(-9)))
          CFI (cfiCond100) VB load(1, XDATA, add(CFA_XSP16, literal(-8)))
          CFI (cfiCond100) V0 load(1, XDATA, add(CFA_XSP16, literal(-7)))
          CFI (cfiCond100) R7 load(1, XDATA, add(CFA_XSP16, literal(-6)))
          CFI (cfiCond100) ?RET_LOW load(1, XDATA, add(CFA_XSP16, literal(-5)))
          CFI (cfiCond100) ?RET_HIGH load(1, XDATA, add(CFA_XSP16, literal(-4)))
          CFI (cfiCond100) ?BRET_EXT load(1, XDATA, add(CFA_XSP16, literal(-3)))
          CFI (cfiCond100) DPL0 load(1, XDATA, add(CFA_XSP16, literal(-2)))
          CFI (cfiCond100) DPH0 load(1, XDATA, add(CFA_XSP16, literal(-1)))
          CFI (cfiCond100) CFA_SP SP+-2
          CFI (cfiCond100) CFA_XSP16 add(XSP16, 9)
          CFI Block cfiCond101 Using cfiCommon0
          CFI (cfiCond101) Function afBuildMSGIncoming
          CFI (cfiCond101) Conditional ??CrossCallReturnLabel_73
          CFI (cfiCond101) R6 load(1, XDATA, add(CFA_XSP16, literal(-19)))
          CFI (cfiCond101) VB load(1, XDATA, add(CFA_XSP16, literal(-18)))
          CFI (cfiCond101) V0 load(1, XDATA, add(CFA_XSP16, literal(-17)))
          CFI (cfiCond101) V1 load(1, XDATA, add(CFA_XSP16, literal(-16)))
          CFI (cfiCond101) V2 load(1, XDATA, add(CFA_XSP16, literal(-15)))
          CFI (cfiCond101) V3 load(1, XDATA, add(CFA_XSP16, literal(-14)))
          CFI (cfiCond101) V4 load(1, XDATA, add(CFA_XSP16, literal(-13)))
          CFI (cfiCond101) V5 load(1, XDATA, add(CFA_XSP16, literal(-12)))
          CFI (cfiCond101) V6 load(1, XDATA, add(CFA_XSP16, literal(-11)))
          CFI (cfiCond101) V7 load(1, XDATA, add(CFA_XSP16, literal(-10)))
          CFI (cfiCond101) V8 load(1, XDATA, add(CFA_XSP16, literal(-9)))
          CFI (cfiCond101) V9 load(1, XDATA, add(CFA_XSP16, literal(-8)))
          CFI (cfiCond101) V10 load(1, XDATA, add(CFA_XSP16, literal(-7)))
          CFI (cfiCond101) R7 load(1, XDATA, add(CFA_XSP16, literal(-6)))
          CFI (cfiCond101) ?RET_LOW load(1, XDATA, add(CFA_XSP16, literal(-5)))
          CFI (cfiCond101) ?RET_HIGH load(1, XDATA, add(CFA_XSP16, literal(-4)))
          CFI (cfiCond101) ?BRET_EXT load(1, XDATA, add(CFA_XSP16, literal(-3)))
          CFI (cfiCond101) DPL0 load(1, XDATA, add(CFA_XSP16, literal(-2)))
          CFI (cfiCond101) DPH0 load(1, XDATA, add(CFA_XSP16, literal(-1)))
          CFI (cfiCond101) CFA_SP SP+-2
          CFI (cfiCond101) CFA_XSP16 add(XSP16, 19)
          CFI Block cfiCond102 Using cfiCommon0
          CFI (cfiCond102) Function afBuildMSGIncoming
          CFI (cfiCond102) Conditional ??CrossCallReturnLabel_74
          CFI (cfiCond102) R6 load(1, XDATA, add(CFA_XSP16, literal(-19)))
          CFI (cfiCond102) VB load(1, XDATA, add(CFA_XSP16, literal(-18)))
          CFI (cfiCond102) V0 load(1, XDATA, add(CFA_XSP16, literal(-17)))
          CFI (cfiCond102) V1 load(1, XDATA, add(CFA_XSP16, literal(-16)))
          CFI (cfiCond102) V2 load(1, XDATA, add(CFA_XSP16, literal(-15)))
          CFI (cfiCond102) V3 load(1, XDATA, add(CFA_XSP16, literal(-14)))
          CFI (cfiCond102) V4 load(1, XDATA, add(CFA_XSP16, literal(-13)))
          CFI (cfiCond102) V5 load(1, XDATA, add(CFA_XSP16, literal(-12)))
          CFI (cfiCond102) V6 load(1, XDATA, add(CFA_XSP16, literal(-11)))
          CFI (cfiCond102) V7 load(1, XDATA, add(CFA_XSP16, literal(-10)))
          CFI (cfiCond102) V8 load(1, XDATA, add(CFA_XSP16, literal(-9)))
          CFI (cfiCond102) V9 load(1, XDATA, add(CFA_XSP16, literal(-8)))
          CFI (cfiCond102) V10 load(1, XDATA, add(CFA_XSP16, literal(-7)))
          CFI (cfiCond102) R7 load(1, XDATA, add(CFA_XSP16, literal(-6)))
          CFI (cfiCond102) ?RET_LOW load(1, XDATA, add(CFA_XSP16, literal(-5)))
          CFI (cfiCond102) ?RET_HIGH load(1, XDATA, add(CFA_XSP16, literal(-4)))
          CFI (cfiCond102) ?BRET_EXT load(1, XDATA, add(CFA_XSP16, literal(-3)))
          CFI (cfiCond102) DPL0 load(1, XDATA, add(CFA_XSP16, literal(-2)))
          CFI (cfiCond102) DPH0 load(1, XDATA, add(CFA_XSP16, literal(-1)))
          CFI (cfiCond102) CFA_SP SP+-2
          CFI (cfiCond102) CFA_XSP16 add(XSP16, 19)
          CFI Block cfiPicker103 Using cfiCommon1
          CFI (cfiPicker103) NoFunction
          CFI (cfiPicker103) Picker
        MOV       A,R0
        MOVX      @DPTR,A
        INC       DPTR
        MOV       A,R1
        MOVX      @DPTR,A
        RET
          CFI EndBlock cfiCond92
          CFI EndBlock cfiCond93
          CFI EndBlock cfiCond94
          CFI EndBlock cfiCond95
          CFI EndBlock cfiCond96
          CFI EndBlock cfiCond97
          CFI EndBlock cfiCond98
          CFI EndBlock cfiCond99
          CFI EndBlock cfiCond100
          CFI EndBlock cfiCond101
          CFI EndBlock cfiCond102
          CFI EndBlock cfiPicker103

        RSEG BANKED_CODE:HUGECODE:NOROOT(0)
?Subroutine16:
          CFI Block cfiCond104 Using cfiCommon0
          CFI Function AF_DataRequest
          CFI Conditional ??CrossCallReturnLabel_81
          CFI R6 load(1, XDATA, add(CFA_XSP16, literal(-18)))
          CFI VB load(1, XDATA, add(CFA_XSP16, literal(-17)))
          CFI V0 load(1, XDATA, add(CFA_XSP16, literal(-16)))
          CFI V1 load(1, XDATA, add(CFA_XSP16, literal(-15)))
          CFI V2 load(1, XDATA, add(CFA_XSP16, literal(-14)))
          CFI V3 load(1, XDATA, add(CFA_XSP16, literal(-13)))
          CFI V4 load(1, XDATA, add(CFA_XSP16, literal(-12)))
          CFI V5 load(1, XDATA, add(CFA_XSP16, literal(-11)))
          CFI V6 load(1, XDATA, add(CFA_XSP16, literal(-10)))
          CFI V7 load(1, XDATA, add(CFA_XSP16, literal(-9)))
          CFI V8 load(1, XDATA, add(CFA_XSP16, literal(-8)))
          CFI V9 load(1, XDATA, add(CFA_XSP16, literal(-7)))
          CFI R7 load(1, XDATA, add(CFA_XSP16, literal(-6)))
          CFI ?RET_LOW load(1, XDATA, add(CFA_XSP16, literal(-5)))
          CFI ?RET_HIGH load(1, XDATA, add(CFA_XSP16, literal(-4)))
          CFI ?BRET_EXT load(1, XDATA, add(CFA_XSP16, literal(-3)))
          CFI DPL0 load(1, XDATA, add(CFA_XSP16, literal(-2)))
          CFI DPH0 load(1, XDATA, add(CFA_XSP16, literal(-1)))
          CFI CFA_SP SP+-2
          CFI CFA_XSP16 add(XSP16, 50)
          CFI Block cfiCond105 Using cfiCommon0
          CFI (cfiCond105) Function AF_DataRequest
          CFI (cfiCond105) Conditional ??CrossCallReturnLabel_82
          CFI (cfiCond105) R6 load(1, XDATA, add(CFA_XSP16, literal(-18)))
          CFI (cfiCond105) VB load(1, XDATA, add(CFA_XSP16, literal(-17)))
          CFI (cfiCond105) V0 load(1, XDATA, add(CFA_XSP16, literal(-16)))
          CFI (cfiCond105) V1 load(1, XDATA, add(CFA_XSP16, literal(-15)))
          CFI (cfiCond105) V2 load(1, XDATA, add(CFA_XSP16, literal(-14)))
          CFI (cfiCond105) V3 load(1, XDATA, add(CFA_XSP16, literal(-13)))
          CFI (cfiCond105) V4 load(1, XDATA, add(CFA_XSP16, literal(-12)))
          CFI (cfiCond105) V5 load(1, XDATA, add(CFA_XSP16, literal(-11)))
          CFI (cfiCond105) V6 load(1, XDATA, add(CFA_XSP16, literal(-10)))
          CFI (cfiCond105) V7 load(1, XDATA, add(CFA_XSP16, literal(-9)))
          CFI (cfiCond105) V8 load(1, XDATA, add(CFA_XSP16, literal(-8)))
          CFI (cfiCond105) V9 load(1, XDATA, add(CFA_XSP16, literal(-7)))
          CFI (cfiCond105) R7 load(1, XDATA, add(CFA_XSP16, literal(-6)))
          CFI (cfiCond105) ?RET_LOW load(1, XDATA, add(CFA_XSP16, literal(-5)))
          CFI (cfiCond105) ?RET_HIGH load(1, XDATA, add(CFA_XSP16, literal(-4)))
          CFI (cfiCond105) ?BRET_EXT load(1, XDATA, add(CFA_XSP16, literal(-3)))
          CFI (cfiCond105) DPL0 load(1, XDATA, add(CFA_XSP16, literal(-2)))
          CFI (cfiCond105) DPH0 load(1, XDATA, add(CFA_XSP16, literal(-1)))
          CFI (cfiCond105) CFA_SP SP+-2
          CFI (cfiCond105) CFA_XSP16 add(XSP16, 50)
          CFI Block cfiPicker106 Using cfiCommon1
          CFI (cfiPicker106) NoFunction
          CFI (cfiPicker106) Picker
        INC       DPTR
        INC       DPTR
        INC       DPTR
          CFI EndBlock cfiCond104
          CFI EndBlock cfiCond105
          CFI EndBlock cfiPicker106
        REQUIRE ??Subroutine36_0
        ; // Fall through to label ??Subroutine36_0

        RSEG BANKED_CODE:HUGECODE:NOROOT(0)
??Subroutine36_0:
          CFI Block cfiCond107 Using cfiCommon0
          CFI Function AF_DataRequest
          CFI Conditional ??CrossCallReturnLabel_80
          CFI R6 load(1, XDATA, add(CFA_XSP16, literal(-18)))
          CFI VB load(1, XDATA, add(CFA_XSP16, literal(-17)))
          CFI V0 load(1, XDATA, add(CFA_XSP16, literal(-16)))
          CFI V1 load(1, XDATA, add(CFA_XSP16, literal(-15)))
          CFI V2 load(1, XDATA, add(CFA_XSP16, literal(-14)))
          CFI V3 load(1, XDATA, add(CFA_XSP16, literal(-13)))
          CFI V4 load(1, XDATA, add(CFA_XSP16, literal(-12)))
          CFI V5 load(1, XDATA, add(CFA_XSP16, literal(-11)))
          CFI V6 load(1, XDATA, add(CFA_XSP16, literal(-10)))
          CFI V7 load(1, XDATA, add(CFA_XSP16, literal(-9)))
          CFI V8 load(1, XDATA, add(CFA_XSP16, literal(-8)))
          CFI V9 load(1, XDATA, add(CFA_XSP16, literal(-7)))
          CFI R7 load(1, XDATA, add(CFA_XSP16, literal(-6)))
          CFI ?RET_LOW load(1, XDATA, add(CFA_XSP16, literal(-5)))
          CFI ?RET_HIGH load(1, XDATA, add(CFA_XSP16, literal(-4)))
          CFI ?BRET_EXT load(1, XDATA, add(CFA_XSP16, literal(-3)))
          CFI DPL0 load(1, XDATA, add(CFA_XSP16, literal(-2)))
          CFI DPH0 load(1, XDATA, add(CFA_XSP16, literal(-1)))
          CFI CFA_SP SP+-2
          CFI CFA_XSP16 add(XSP16, 50)
          CFI Block cfiCond108 Using cfiCommon0
          CFI (cfiCond108) Function AF_DataRequest
          CFI (cfiCond108) Conditional ??CrossCallReturnLabel_81
          CFI (cfiCond108) R6 load(1, XDATA, add(CFA_XSP16, literal(-18)))
          CFI (cfiCond108) VB load(1, XDATA, add(CFA_XSP16, literal(-17)))
          CFI (cfiCond108) V0 load(1, XDATA, add(CFA_XSP16, literal(-16)))
          CFI (cfiCond108) V1 load(1, XDATA, add(CFA_XSP16, literal(-15)))
          CFI (cfiCond108) V2 load(1, XDATA, add(CFA_XSP16, literal(-14)))
          CFI (cfiCond108) V3 load(1, XDATA, add(CFA_XSP16, literal(-13)))
          CFI (cfiCond108) V4 load(1, XDATA, add(CFA_XSP16, literal(-12)))
          CFI (cfiCond108) V5 load(1, XDATA, add(CFA_XSP16, literal(-11)))
          CFI (cfiCond108) V6 load(1, XDATA, add(CFA_XSP16, literal(-10)))
          CFI (cfiCond108) V7 load(1, XDATA, add(CFA_XSP16, literal(-9)))
          CFI (cfiCond108) V8 load(1, XDATA, add(CFA_XSP16, literal(-8)))
          CFI (cfiCond108) V9 load(1, XDATA, add(CFA_XSP16, literal(-7)))
          CFI (cfiCond108) R7 load(1, XDATA, add(CFA_XSP16, literal(-6)))
          CFI (cfiCond108) ?RET_LOW load(1, XDATA, add(CFA_XSP16, literal(-5)))
          CFI (cfiCond108) ?RET_HIGH load(1, XDATA, add(CFA_XSP16, literal(-4)))
          CFI (cfiCond108) ?BRET_EXT load(1, XDATA, add(CFA_XSP16, literal(-3)))
          CFI (cfiCond108) DPL0 load(1, XDATA, add(CFA_XSP16, literal(-2)))
          CFI (cfiCond108) DPH0 load(1, XDATA, add(CFA_XSP16, literal(-1)))
          CFI (cfiCond108) CFA_SP SP+-2
          CFI (cfiCond108) CFA_XSP16 add(XSP16, 50)
          CFI Block cfiCond109 Using cfiCommon0
          CFI (cfiCond109) Function AF_DataRequest
          CFI (cfiCond109) Conditional ??CrossCallReturnLabel_82
          CFI (cfiCond109) R6 load(1, XDATA, add(CFA_XSP16, literal(-18)))
          CFI (cfiCond109) VB load(1, XDATA, add(CFA_XSP16, literal(-17)))
          CFI (cfiCond109) V0 load(1, XDATA, add(CFA_XSP16, literal(-16)))
          CFI (cfiCond109) V1 load(1, XDATA, add(CFA_XSP16, literal(-15)))
          CFI (cfiCond109) V2 load(1, XDATA, add(CFA_XSP16, literal(-14)))
          CFI (cfiCond109) V3 load(1, XDATA, add(CFA_XSP16, literal(-13)))
          CFI (cfiCond109) V4 load(1, XDATA, add(CFA_XSP16, literal(-12)))
          CFI (cfiCond109) V5 load(1, XDATA, add(CFA_XSP16, literal(-11)))
          CFI (cfiCond109) V6 load(1, XDATA, add(CFA_XSP16, literal(-10)))
          CFI (cfiCond109) V7 load(1, XDATA, add(CFA_XSP16, literal(-9)))
          CFI (cfiCond109) V8 load(1, XDATA, add(CFA_XSP16, literal(-8)))
          CFI (cfiCond109) V9 load(1, XDATA, add(CFA_XSP16, literal(-7)))
          CFI (cfiCond109) R7 load(1, XDATA, add(CFA_XSP16, literal(-6)))
          CFI (cfiCond109) ?RET_LOW load(1, XDATA, add(CFA_XSP16, literal(-5)))
          CFI (cfiCond109) ?RET_HIGH load(1, XDATA, add(CFA_XSP16, literal(-4)))
          CFI (cfiCond109) ?BRET_EXT load(1, XDATA, add(CFA_XSP16, literal(-3)))
          CFI (cfiCond109) DPL0 load(1, XDATA, add(CFA_XSP16, literal(-2)))
          CFI (cfiCond109) DPH0 load(1, XDATA, add(CFA_XSP16, literal(-1)))
          CFI (cfiCond109) CFA_SP SP+-2
          CFI (cfiCond109) CFA_XSP16 add(XSP16, 50)
          CFI Block cfiPicker110 Using cfiCommon1
          CFI (cfiPicker110) NoFunction
          CFI (cfiPicker110) Picker
        INC       DPTR
          CFI EndBlock cfiCond107
          CFI EndBlock cfiCond108
          CFI EndBlock cfiCond109
          CFI EndBlock cfiPicker110
        REQUIRE ??Subroutine37_0
        ; // Fall through to label ??Subroutine37_0

        RSEG BANKED_CODE:HUGECODE:NOROOT(0)
??Subroutine37_0:
          CFI Block cfiCond111 Using cfiCommon0
          CFI Function afDelete
          CFI Conditional ??CrossCallReturnLabel_75
          CFI R6 load(1, XDATA, add(CFA_XSP16, literal(-9)))
          CFI VB load(1, XDATA, add(CFA_XSP16, literal(-8)))
          CFI V0 load(1, XDATA, add(CFA_XSP16, literal(-7)))
          CFI R7 load(1, XDATA, add(CFA_XSP16, literal(-6)))
          CFI ?RET_LOW load(1, XDATA, add(CFA_XSP16, literal(-5)))
          CFI ?RET_HIGH load(1, XDATA, add(CFA_XSP16, literal(-4)))
          CFI ?BRET_EXT load(1, XDATA, add(CFA_XSP16, literal(-3)))
          CFI DPL0 load(1, XDATA, add(CFA_XSP16, literal(-2)))
          CFI DPH0 load(1, XDATA, add(CFA_XSP16, literal(-1)))
          CFI CFA_SP SP+-2
          CFI CFA_XSP16 add(XSP16, 9)
          CFI Block cfiCond112 Using cfiCommon0
          CFI (cfiCond112) Function AF_DataRequest
          CFI (cfiCond112) Conditional ??CrossCallReturnLabel_76
          CFI (cfiCond112) R6 load(1, XDATA, add(CFA_XSP16, literal(-18)))
          CFI (cfiCond112) VB load(1, XDATA, add(CFA_XSP16, literal(-17)))
          CFI (cfiCond112) V0 load(1, XDATA, add(CFA_XSP16, literal(-16)))
          CFI (cfiCond112) V1 load(1, XDATA, add(CFA_XSP16, literal(-15)))
          CFI (cfiCond112) V2 load(1, XDATA, add(CFA_XSP16, literal(-14)))
          CFI (cfiCond112) V3 load(1, XDATA, add(CFA_XSP16, literal(-13)))
          CFI (cfiCond112) V4 load(1, XDATA, add(CFA_XSP16, literal(-12)))
          CFI (cfiCond112) V5 load(1, XDATA, add(CFA_XSP16, literal(-11)))
          CFI (cfiCond112) V6 load(1, XDATA, add(CFA_XSP16, literal(-10)))
          CFI (cfiCond112) V7 load(1, XDATA, add(CFA_XSP16, literal(-9)))
          CFI (cfiCond112) V8 load(1, XDATA, add(CFA_XSP16, literal(-8)))
          CFI (cfiCond112) V9 load(1, XDATA, add(CFA_XSP16, literal(-7)))
          CFI (cfiCond112) R7 load(1, XDATA, add(CFA_XSP16, literal(-6)))
          CFI (cfiCond112) ?RET_LOW load(1, XDATA, add(CFA_XSP16, literal(-5)))
          CFI (cfiCond112) ?RET_HIGH load(1, XDATA, add(CFA_XSP16, literal(-4)))
          CFI (cfiCond112) ?BRET_EXT load(1, XDATA, add(CFA_XSP16, literal(-3)))
          CFI (cfiCond112) DPL0 load(1, XDATA, add(CFA_XSP16, literal(-2)))
          CFI (cfiCond112) DPH0 load(1, XDATA, add(CFA_XSP16, literal(-1)))
          CFI (cfiCond112) CFA_SP SP+-2
          CFI (cfiCond112) CFA_XSP16 add(XSP16, 50)
          CFI Block cfiCond113 Using cfiCommon0
          CFI (cfiCond113) Function AF_DataRequest
          CFI (cfiCond113) Conditional ??CrossCallReturnLabel_77
          CFI (cfiCond113) R6 load(1, XDATA, add(CFA_XSP16, literal(-18)))
          CFI (cfiCond113) VB load(1, XDATA, add(CFA_XSP16, literal(-17)))
          CFI (cfiCond113) V0 load(1, XDATA, add(CFA_XSP16, literal(-16)))
          CFI (cfiCond113) V1 load(1, XDATA, add(CFA_XSP16, literal(-15)))
          CFI (cfiCond113) V2 load(1, XDATA, add(CFA_XSP16, literal(-14)))
          CFI (cfiCond113) V3 load(1, XDATA, add(CFA_XSP16, literal(-13)))
          CFI (cfiCond113) V4 load(1, XDATA, add(CFA_XSP16, literal(-12)))
          CFI (cfiCond113) V5 load(1, XDATA, add(CFA_XSP16, literal(-11)))
          CFI (cfiCond113) V6 load(1, XDATA, add(CFA_XSP16, literal(-10)))
          CFI (cfiCond113) V7 load(1, XDATA, add(CFA_XSP16, literal(-9)))
          CFI (cfiCond113) V8 load(1, XDATA, add(CFA_XSP16, literal(-8)))
          CFI (cfiCond113) V9 load(1, XDATA, add(CFA_XSP16, literal(-7)))
          CFI (cfiCond113) R7 load(1, XDATA, add(CFA_XSP16, literal(-6)))
          CFI (cfiCond113) ?RET_LOW load(1, XDATA, add(CFA_XSP16, literal(-5)))
          CFI (cfiCond113) ?RET_HIGH load(1, XDATA, add(CFA_XSP16, literal(-4)))
          CFI (cfiCond113) ?BRET_EXT load(1, XDATA, add(CFA_XSP16, literal(-3)))
          CFI (cfiCond113) DPL0 load(1, XDATA, add(CFA_XSP16, literal(-2)))
          CFI (cfiCond113) DPH0 load(1, XDATA, add(CFA_XSP16, literal(-1)))
          CFI (cfiCond113) CFA_SP SP+-2
          CFI (cfiCond113) CFA_XSP16 add(XSP16, 50)
          CFI Block cfiCond114 Using cfiCommon0
          CFI (cfiCond114) Function AF_DataRequest
          CFI (cfiCond114) Conditional ??CrossCallReturnLabel_78
          CFI (cfiCond114) R6 load(1, XDATA, add(CFA_XSP16, literal(-18)))
          CFI (cfiCond114) VB load(1, XDATA, add(CFA_XSP16, literal(-17)))
          CFI (cfiCond114) V0 load(1, XDATA, add(CFA_XSP16, literal(-16)))
          CFI (cfiCond114) V1 load(1, XDATA, add(CFA_XSP16, literal(-15)))
          CFI (cfiCond114) V2 load(1, XDATA, add(CFA_XSP16, literal(-14)))
          CFI (cfiCond114) V3 load(1, XDATA, add(CFA_XSP16, literal(-13)))
          CFI (cfiCond114) V4 load(1, XDATA, add(CFA_XSP16, literal(-12)))
          CFI (cfiCond114) V5 load(1, XDATA, add(CFA_XSP16, literal(-11)))
          CFI (cfiCond114) V6 load(1, XDATA, add(CFA_XSP16, literal(-10)))
          CFI (cfiCond114) V7 load(1, XDATA, add(CFA_XSP16, literal(-9)))
          CFI (cfiCond114) V8 load(1, XDATA, add(CFA_XSP16, literal(-8)))
          CFI (cfiCond114) V9 load(1, XDATA, add(CFA_XSP16, literal(-7)))
          CFI (cfiCond114) R7 load(1, XDATA, add(CFA_XSP16, literal(-6)))
          CFI (cfiCond114) ?RET_LOW load(1, XDATA, add(CFA_XSP16, literal(-5)))
          CFI (cfiCond114) ?RET_HIGH load(1, XDATA, add(CFA_XSP16, literal(-4)))
          CFI (cfiCond114) ?BRET_EXT load(1, XDATA, add(CFA_XSP16, literal(-3)))
          CFI (cfiCond114) DPL0 load(1, XDATA, add(CFA_XSP16, literal(-2)))
          CFI (cfiCond114) DPH0 load(1, XDATA, add(CFA_XSP16, literal(-1)))
          CFI (cfiCond114) CFA_SP SP+-2
          CFI (cfiCond114) CFA_XSP16 add(XSP16, 50)
          CFI Block cfiCond115 Using cfiCommon0
          CFI (cfiCond115) Function AF_DataRequest
          CFI (cfiCond115) Conditional ??CrossCallReturnLabel_79
          CFI (cfiCond115) R6 load(1, XDATA, add(CFA_XSP16, literal(-18)))
          CFI (cfiCond115) VB load(1, XDATA, add(CFA_XSP16, literal(-17)))
          CFI (cfiCond115) V0 load(1, XDATA, add(CFA_XSP16, literal(-16)))
          CFI (cfiCond115) V1 load(1, XDATA, add(CFA_XSP16, literal(-15)))
          CFI (cfiCond115) V2 load(1, XDATA, add(CFA_XSP16, literal(-14)))
          CFI (cfiCond115) V3 load(1, XDATA, add(CFA_XSP16, literal(-13)))
          CFI (cfiCond115) V4 load(1, XDATA, add(CFA_XSP16, literal(-12)))
          CFI (cfiCond115) V5 load(1, XDATA, add(CFA_XSP16, literal(-11)))
          CFI (cfiCond115) V6 load(1, XDATA, add(CFA_XSP16, literal(-10)))
          CFI (cfiCond115) V7 load(1, XDATA, add(CFA_XSP16, literal(-9)))
          CFI (cfiCond115) V8 load(1, XDATA, add(CFA_XSP16, literal(-8)))
          CFI (cfiCond115) V9 load(1, XDATA, add(CFA_XSP16, literal(-7)))
          CFI (cfiCond115) R7 load(1, XDATA, add(CFA_XSP16, literal(-6)))
          CFI (cfiCond115) ?RET_LOW load(1, XDATA, add(CFA_XSP16, literal(-5)))
          CFI (cfiCond115) ?RET_HIGH load(1, XDATA, add(CFA_XSP16, literal(-4)))
          CFI (cfiCond115) ?BRET_EXT load(1, XDATA, add(CFA_XSP16, literal(-3)))
          CFI (cfiCond115) DPL0 load(1, XDATA, add(CFA_XSP16, literal(-2)))
          CFI (cfiCond115) DPH0 load(1, XDATA, add(CFA_XSP16, literal(-1)))
          CFI (cfiCond115) CFA_SP SP+-2
          CFI (cfiCond115) CFA_XSP16 add(XSP16, 50)
          CFI Block cfiCond116 Using cfiCommon0
          CFI (cfiCond116) Function AF_DataRequest
          CFI (cfiCond116) Conditional ??CrossCallReturnLabel_80
          CFI (cfiCond116) R6 load(1, XDATA, add(CFA_XSP16, literal(-18)))
          CFI (cfiCond116) VB load(1, XDATA, add(CFA_XSP16, literal(-17)))
          CFI (cfiCond116) V0 load(1, XDATA, add(CFA_XSP16, literal(-16)))
          CFI (cfiCond116) V1 load(1, XDATA, add(CFA_XSP16, literal(-15)))
          CFI (cfiCond116) V2 load(1, XDATA, add(CFA_XSP16, literal(-14)))
          CFI (cfiCond116) V3 load(1, XDATA, add(CFA_XSP16, literal(-13)))
          CFI (cfiCond116) V4 load(1, XDATA, add(CFA_XSP16, literal(-12)))
          CFI (cfiCond116) V5 load(1, XDATA, add(CFA_XSP16, literal(-11)))
          CFI (cfiCond116) V6 load(1, XDATA, add(CFA_XSP16, literal(-10)))
          CFI (cfiCond116) V7 load(1, XDATA, add(CFA_XSP16, literal(-9)))
          CFI (cfiCond116) V8 load(1, XDATA, add(CFA_XSP16, literal(-8)))
          CFI (cfiCond116) V9 load(1, XDATA, add(CFA_XSP16, literal(-7)))
          CFI (cfiCond116) R7 load(1, XDATA, add(CFA_XSP16, literal(-6)))
          CFI (cfiCond116) ?RET_LOW load(1, XDATA, add(CFA_XSP16, literal(-5)))
          CFI (cfiCond116) ?RET_HIGH load(1, XDATA, add(CFA_XSP16, literal(-4)))
          CFI (cfiCond116) ?BRET_EXT load(1, XDATA, add(CFA_XSP16, literal(-3)))
          CFI (cfiCond116) DPL0 load(1, XDATA, add(CFA_XSP16, literal(-2)))
          CFI (cfiCond116) DPH0 load(1, XDATA, add(CFA_XSP16, literal(-1)))
          CFI (cfiCond116) CFA_SP SP+-2
          CFI (cfiCond116) CFA_XSP16 add(XSP16, 50)
          CFI Block cfiCond117 Using cfiCommon0
          CFI (cfiCond117) Function AF_DataRequest
          CFI (cfiCond117) Conditional ??CrossCallReturnLabel_81
          CFI (cfiCond117) R6 load(1, XDATA, add(CFA_XSP16, literal(-18)))
          CFI (cfiCond117) VB load(1, XDATA, add(CFA_XSP16, literal(-17)))
          CFI (cfiCond117) V0 load(1, XDATA, add(CFA_XSP16, literal(-16)))
          CFI (cfiCond117) V1 load(1, XDATA, add(CFA_XSP16, literal(-15)))
          CFI (cfiCond117) V2 load(1, XDATA, add(CFA_XSP16, literal(-14)))
          CFI (cfiCond117) V3 load(1, XDATA, add(CFA_XSP16, literal(-13)))
          CFI (cfiCond117) V4 load(1, XDATA, add(CFA_XSP16, literal(-12)))
          CFI (cfiCond117) V5 load(1, XDATA, add(CFA_XSP16, literal(-11)))
          CFI (cfiCond117) V6 load(1, XDATA, add(CFA_XSP16, literal(-10)))
          CFI (cfiCond117) V7 load(1, XDATA, add(CFA_XSP16, literal(-9)))
          CFI (cfiCond117) V8 load(1, XDATA, add(CFA_XSP16, literal(-8)))
          CFI (cfiCond117) V9 load(1, XDATA, add(CFA_XSP16, literal(-7)))
          CFI (cfiCond117) R7 load(1, XDATA, add(CFA_XSP16, literal(-6)))
          CFI (cfiCond117) ?RET_LOW load(1, XDATA, add(CFA_XSP16, literal(-5)))
          CFI (cfiCond117) ?RET_HIGH load(1, XDATA, add(CFA_XSP16, literal(-4)))
          CFI (cfiCond117) ?BRET_EXT load(1, XDATA, add(CFA_XSP16, literal(-3)))
          CFI (cfiCond117) DPL0 load(1, XDATA, add(CFA_XSP16, literal(-2)))
          CFI (cfiCond117) DPH0 load(1, XDATA, add(CFA_XSP16, literal(-1)))
          CFI (cfiCond117) CFA_SP SP+-2
          CFI (cfiCond117) CFA_XSP16 add(XSP16, 50)
          CFI Block cfiCond118 Using cfiCommon0
          CFI (cfiCond118) Function AF_DataRequest
          CFI (cfiCond118) Conditional ??CrossCallReturnLabel_82
          CFI (cfiCond118) R6 load(1, XDATA, add(CFA_XSP16, literal(-18)))
          CFI (cfiCond118) VB load(1, XDATA, add(CFA_XSP16, literal(-17)))
          CFI (cfiCond118) V0 load(1, XDATA, add(CFA_XSP16, literal(-16)))
          CFI (cfiCond118) V1 load(1, XDATA, add(CFA_XSP16, literal(-15)))
          CFI (cfiCond118) V2 load(1, XDATA, add(CFA_XSP16, literal(-14)))
          CFI (cfiCond118) V3 load(1, XDATA, add(CFA_XSP16, literal(-13)))
          CFI (cfiCond118) V4 load(1, XDATA, add(CFA_XSP16, literal(-12)))
          CFI (cfiCond118) V5 load(1, XDATA, add(CFA_XSP16, literal(-11)))
          CFI (cfiCond118) V6 load(1, XDATA, add(CFA_XSP16, literal(-10)))
          CFI (cfiCond118) V7 load(1, XDATA, add(CFA_XSP16, literal(-9)))
          CFI (cfiCond118) V8 load(1, XDATA, add(CFA_XSP16, literal(-8)))
          CFI (cfiCond118) V9 load(1, XDATA, add(CFA_XSP16, literal(-7)))
          CFI (cfiCond118) R7 load(1, XDATA, add(CFA_XSP16, literal(-6)))
          CFI (cfiCond118) ?RET_LOW load(1, XDATA, add(CFA_XSP16, literal(-5)))
          CFI (cfiCond118) ?RET_HIGH load(1, XDATA, add(CFA_XSP16, literal(-4)))
          CFI (cfiCond118) ?BRET_EXT load(1, XDATA, add(CFA_XSP16, literal(-3)))
          CFI (cfiCond118) DPL0 load(1, XDATA, add(CFA_XSP16, literal(-2)))
          CFI (cfiCond118) DPH0 load(1, XDATA, add(CFA_XSP16, literal(-1)))
          CFI (cfiCond118) CFA_SP SP+-2
          CFI (cfiCond118) CFA_XSP16 add(XSP16, 50)
          CFI Block cfiPicker119 Using cfiCommon1
          CFI (cfiPicker119) NoFunction
          CFI (cfiPicker119) Picker
        LCALL     ?Subroutine31 & 0xFFFF
??CrossCallReturnLabel_88:
        RET
          CFI EndBlock cfiCond111
          CFI EndBlock cfiCond112
          CFI EndBlock cfiCond113
          CFI EndBlock cfiCond114
          CFI EndBlock cfiCond115
          CFI EndBlock cfiCond116
          CFI EndBlock cfiCond117
          CFI EndBlock cfiCond118
          CFI EndBlock cfiPicker119

        RSEG BANKED_CODE:HUGECODE:NOROOT(0)
?Subroutine31:
          CFI Block cfiCond120 Using cfiCommon0
          CFI Function afRegisterExtended
          CFI Conditional ??CrossCallReturnLabel_84, ??CrossCallReturnLabel_15
          CFI R6 load(1, XDATA, add(CFA_XSP16, literal(-12)))
          CFI VB load(1, XDATA, add(CFA_XSP16, literal(-11)))
          CFI V0 load(1, XDATA, add(CFA_XSP16, literal(-10)))
          CFI V1 load(1, XDATA, add(CFA_XSP16, literal(-9)))
          CFI V2 load(1, XDATA, add(CFA_XSP16, literal(-8)))
          CFI V3 load(1, XDATA, add(CFA_XSP16, literal(-7)))
          CFI R7 load(1, XDATA, add(CFA_XSP16, literal(-6)))
          CFI ?RET_LOW load(1, XDATA, add(CFA_XSP16, literal(-5)))
          CFI ?RET_HIGH load(1, XDATA, add(CFA_XSP16, literal(-4)))
          CFI ?BRET_EXT load(1, XDATA, add(CFA_XSP16, literal(-3)))
          CFI DPL0 load(1, XDATA, add(CFA_XSP16, literal(-2)))
          CFI DPH0 load(1, XDATA, add(CFA_XSP16, literal(-1)))
          CFI CFA_SP SP+-4
          CFI CFA_XSP16 add(XSP16, 12)
          CFI Block cfiCond121 Using cfiCommon0
          CFI (cfiCond121) Function afRegisterExtended
          CFI (cfiCond121) Conditional ??CrossCallReturnLabel_84, ??CrossCallReturnLabel_16
          CFI (cfiCond121) R6 load(1, XDATA, add(CFA_XSP16, literal(-12)))
          CFI (cfiCond121) VB load(1, XDATA, add(CFA_XSP16, literal(-11)))
          CFI (cfiCond121) V0 load(1, XDATA, add(CFA_XSP16, literal(-10)))
          CFI (cfiCond121) V1 load(1, XDATA, add(CFA_XSP16, literal(-9)))
          CFI (cfiCond121) V2 load(1, XDATA, add(CFA_XSP16, literal(-8)))
          CFI (cfiCond121) V3 load(1, XDATA, add(CFA_XSP16, literal(-7)))
          CFI (cfiCond121) R7 load(1, XDATA, add(CFA_XSP16, literal(-6)))
          CFI (cfiCond121) ?RET_LOW load(1, XDATA, add(CFA_XSP16, literal(-5)))
          CFI (cfiCond121) ?RET_HIGH load(1, XDATA, add(CFA_XSP16, literal(-4)))
          CFI (cfiCond121) ?BRET_EXT load(1, XDATA, add(CFA_XSP16, literal(-3)))
          CFI (cfiCond121) DPL0 load(1, XDATA, add(CFA_XSP16, literal(-2)))
          CFI (cfiCond121) DPH0 load(1, XDATA, add(CFA_XSP16, literal(-1)))
          CFI (cfiCond121) CFA_SP SP+-4
          CFI (cfiCond121) CFA_XSP16 add(XSP16, 12)
          CFI Block cfiCond122 Using cfiCommon0
          CFI (cfiCond122) Function afBuildMSGIncoming
          CFI (cfiCond122) Conditional ??CrossCallReturnLabel_86, ??CrossCallReturnLabel_19
          CFI (cfiCond122) R6 load(1, XDATA, add(CFA_XSP16, literal(-19)))
          CFI (cfiCond122) VB load(1, XDATA, add(CFA_XSP16, literal(-18)))
          CFI (cfiCond122) V0 load(1, XDATA, add(CFA_XSP16, literal(-17)))
          CFI (cfiCond122) V1 load(1, XDATA, add(CFA_XSP16, literal(-16)))
          CFI (cfiCond122) V2 load(1, XDATA, add(CFA_XSP16, literal(-15)))
          CFI (cfiCond122) V3 load(1, XDATA, add(CFA_XSP16, literal(-14)))
          CFI (cfiCond122) V4 load(1, XDATA, add(CFA_XSP16, literal(-13)))
          CFI (cfiCond122) V5 load(1, XDATA, add(CFA_XSP16, literal(-12)))
          CFI (cfiCond122) V6 load(1, XDATA, add(CFA_XSP16, literal(-11)))
          CFI (cfiCond122) V7 load(1, XDATA, add(CFA_XSP16, literal(-10)))
          CFI (cfiCond122) V8 load(1, XDATA, add(CFA_XSP16, literal(-9)))
          CFI (cfiCond122) V9 load(1, XDATA, add(CFA_XSP16, literal(-8)))
          CFI (cfiCond122) V10 load(1, XDATA, add(CFA_XSP16, literal(-7)))
          CFI (cfiCond122) R7 load(1, XDATA, add(CFA_XSP16, literal(-6)))
          CFI (cfiCond122) ?RET_LOW load(1, XDATA, add(CFA_XSP16, literal(-5)))
          CFI (cfiCond122) ?RET_HIGH load(1, XDATA, add(CFA_XSP16, literal(-4)))
          CFI (cfiCond122) ?BRET_EXT load(1, XDATA, add(CFA_XSP16, literal(-3)))
          CFI (cfiCond122) DPL0 load(1, XDATA, add(CFA_XSP16, literal(-2)))
          CFI (cfiCond122) DPH0 load(1, XDATA, add(CFA_XSP16, literal(-1)))
          CFI (cfiCond122) CFA_SP SP+-4
          CFI (cfiCond122) CFA_XSP16 add(XSP16, 19)
          CFI Block cfiCond123 Using cfiCommon0
          CFI (cfiCond123) Function afBuildMSGIncoming
          CFI (cfiCond123) Conditional ??CrossCallReturnLabel_86, ??CrossCallReturnLabel_20
          CFI (cfiCond123) R6 load(1, XDATA, add(CFA_XSP16, literal(-19)))
          CFI (cfiCond123) VB load(1, XDATA, add(CFA_XSP16, literal(-18)))
          CFI (cfiCond123) V0 load(1, XDATA, add(CFA_XSP16, literal(-17)))
          CFI (cfiCond123) V1 load(1, XDATA, add(CFA_XSP16, literal(-16)))
          CFI (cfiCond123) V2 load(1, XDATA, add(CFA_XSP16, literal(-15)))
          CFI (cfiCond123) V3 load(1, XDATA, add(CFA_XSP16, literal(-14)))
          CFI (cfiCond123) V4 load(1, XDATA, add(CFA_XSP16, literal(-13)))
          CFI (cfiCond123) V5 load(1, XDATA, add(CFA_XSP16, literal(-12)))
          CFI (cfiCond123) V6 load(1, XDATA, add(CFA_XSP16, literal(-11)))
          CFI (cfiCond123) V7 load(1, XDATA, add(CFA_XSP16, literal(-10)))
          CFI (cfiCond123) V8 load(1, XDATA, add(CFA_XSP16, literal(-9)))
          CFI (cfiCond123) V9 load(1, XDATA, add(CFA_XSP16, literal(-8)))
          CFI (cfiCond123) V10 load(1, XDATA, add(CFA_XSP16, literal(-7)))
          CFI (cfiCond123) R7 load(1, XDATA, add(CFA_XSP16, literal(-6)))
          CFI (cfiCond123) ?RET_LOW load(1, XDATA, add(CFA_XSP16, literal(-5)))
          CFI (cfiCond123) ?RET_HIGH load(1, XDATA, add(CFA_XSP16, literal(-4)))
          CFI (cfiCond123) ?BRET_EXT load(1, XDATA, add(CFA_XSP16, literal(-3)))
          CFI (cfiCond123) DPL0 load(1, XDATA, add(CFA_XSP16, literal(-2)))
          CFI (cfiCond123) DPH0 load(1, XDATA, add(CFA_XSP16, literal(-1)))
          CFI (cfiCond123) CFA_SP SP+-4
          CFI (cfiCond123) CFA_XSP16 add(XSP16, 19)
          CFI Block cfiCond124 Using cfiCommon0
          CFI (cfiCond124) Function afBuildMSGIncoming
          CFI (cfiCond124) Conditional ??CrossCallReturnLabel_86, ??CrossCallReturnLabel_21
          CFI (cfiCond124) R6 load(1, XDATA, add(CFA_XSP16, literal(-19)))
          CFI (cfiCond124) VB load(1, XDATA, add(CFA_XSP16, literal(-18)))
          CFI (cfiCond124) V0 load(1, XDATA, add(CFA_XSP16, literal(-17)))
          CFI (cfiCond124) V1 load(1, XDATA, add(CFA_XSP16, literal(-16)))
          CFI (cfiCond124) V2 load(1, XDATA, add(CFA_XSP16, literal(-15)))
          CFI (cfiCond124) V3 load(1, XDATA, add(CFA_XSP16, literal(-14)))
          CFI (cfiCond124) V4 load(1, XDATA, add(CFA_XSP16, literal(-13)))
          CFI (cfiCond124) V5 load(1, XDATA, add(CFA_XSP16, literal(-12)))
          CFI (cfiCond124) V6 load(1, XDATA, add(CFA_XSP16, literal(-11)))
          CFI (cfiCond124) V7 load(1, XDATA, add(CFA_XSP16, literal(-10)))
          CFI (cfiCond124) V8 load(1, XDATA, add(CFA_XSP16, literal(-9)))
          CFI (cfiCond124) V9 load(1, XDATA, add(CFA_XSP16, literal(-8)))
          CFI (cfiCond124) V10 load(1, XDATA, add(CFA_XSP16, literal(-7)))
          CFI (cfiCond124) R7 load(1, XDATA, add(CFA_XSP16, literal(-6)))
          CFI (cfiCond124) ?RET_LOW load(1, XDATA, add(CFA_XSP16, literal(-5)))
          CFI (cfiCond124) ?RET_HIGH load(1, XDATA, add(CFA_XSP16, literal(-4)))
          CFI (cfiCond124) ?BRET_EXT load(1, XDATA, add(CFA_XSP16, literal(-3)))
          CFI (cfiCond124) DPL0 load(1, XDATA, add(CFA_XSP16, literal(-2)))
          CFI (cfiCond124) DPH0 load(1, XDATA, add(CFA_XSP16, literal(-1)))
          CFI (cfiCond124) CFA_SP SP+-4
          CFI (cfiCond124) CFA_XSP16 add(XSP16, 19)
          CFI Block cfiCond125 Using cfiCommon0
          CFI (cfiCond125) Function afBuildMSGIncoming
          CFI (cfiCond125) Conditional ??CrossCallReturnLabel_83, ??CrossCallReturnLabel_3
          CFI (cfiCond125) R6 load(1, XDATA, add(CFA_XSP16, literal(-19)))
          CFI (cfiCond125) VB load(1, XDATA, add(CFA_XSP16, literal(-18)))
          CFI (cfiCond125) V0 load(1, XDATA, add(CFA_XSP16, literal(-17)))
          CFI (cfiCond125) V1 load(1, XDATA, add(CFA_XSP16, literal(-16)))
          CFI (cfiCond125) V2 load(1, XDATA, add(CFA_XSP16, literal(-15)))
          CFI (cfiCond125) V3 load(1, XDATA, add(CFA_XSP16, literal(-14)))
          CFI (cfiCond125) V4 load(1, XDATA, add(CFA_XSP16, literal(-13)))
          CFI (cfiCond125) V5 load(1, XDATA, add(CFA_XSP16, literal(-12)))
          CFI (cfiCond125) V6 load(1, XDATA, add(CFA_XSP16, literal(-11)))
          CFI (cfiCond125) V7 load(1, XDATA, add(CFA_XSP16, literal(-10)))
          CFI (cfiCond125) V8 load(1, XDATA, add(CFA_XSP16, literal(-9)))
          CFI (cfiCond125) V9 load(1, XDATA, add(CFA_XSP16, literal(-8)))
          CFI (cfiCond125) V10 load(1, XDATA, add(CFA_XSP16, literal(-7)))
          CFI (cfiCond125) R7 load(1, XDATA, add(CFA_XSP16, literal(-6)))
          CFI (cfiCond125) ?RET_LOW load(1, XDATA, add(CFA_XSP16, literal(-5)))
          CFI (cfiCond125) ?RET_HIGH load(1, XDATA, add(CFA_XSP16, literal(-4)))
          CFI (cfiCond125) ?BRET_EXT load(1, XDATA, add(CFA_XSP16, literal(-3)))
          CFI (cfiCond125) DPL0 load(1, XDATA, add(CFA_XSP16, literal(-2)))
          CFI (cfiCond125) DPH0 load(1, XDATA, add(CFA_XSP16, literal(-1)))
          CFI (cfiCond125) CFA_SP SP+-4
          CFI (cfiCond125) CFA_XSP16 add(XSP16, 19)
          CFI Block cfiCond126 Using cfiCommon0
          CFI (cfiCond126) Function afBuildMSGIncoming
          CFI (cfiCond126) Conditional ??CrossCallReturnLabel_83, ??CrossCallReturnLabel_4
          CFI (cfiCond126) R6 load(1, XDATA, add(CFA_XSP16, literal(-19)))
          CFI (cfiCond126) VB load(1, XDATA, add(CFA_XSP16, literal(-18)))
          CFI (cfiCond126) V0 load(1, XDATA, add(CFA_XSP16, literal(-17)))
          CFI (cfiCond126) V1 load(1, XDATA, add(CFA_XSP16, literal(-16)))
          CFI (cfiCond126) V2 load(1, XDATA, add(CFA_XSP16, literal(-15)))
          CFI (cfiCond126) V3 load(1, XDATA, add(CFA_XSP16, literal(-14)))
          CFI (cfiCond126) V4 load(1, XDATA, add(CFA_XSP16, literal(-13)))
          CFI (cfiCond126) V5 load(1, XDATA, add(CFA_XSP16, literal(-12)))
          CFI (cfiCond126) V6 load(1, XDATA, add(CFA_XSP16, literal(-11)))
          CFI (cfiCond126) V7 load(1, XDATA, add(CFA_XSP16, literal(-10)))
          CFI (cfiCond126) V8 load(1, XDATA, add(CFA_XSP16, literal(-9)))
          CFI (cfiCond126) V9 load(1, XDATA, add(CFA_XSP16, literal(-8)))
          CFI (cfiCond126) V10 load(1, XDATA, add(CFA_XSP16, literal(-7)))
          CFI (cfiCond126) R7 load(1, XDATA, add(CFA_XSP16, literal(-6)))
          CFI (cfiCond126) ?RET_LOW load(1, XDATA, add(CFA_XSP16, literal(-5)))
          CFI (cfiCond126) ?RET_HIGH load(1, XDATA, add(CFA_XSP16, literal(-4)))
          CFI (cfiCond126) ?BRET_EXT load(1, XDATA, add(CFA_XSP16, literal(-3)))
          CFI (cfiCond126) DPL0 load(1, XDATA, add(CFA_XSP16, literal(-2)))
          CFI (cfiCond126) DPH0 load(1, XDATA, add(CFA_XSP16, literal(-1)))
          CFI (cfiCond126) CFA_SP SP+-4
          CFI (cfiCond126) CFA_XSP16 add(XSP16, 19)
          CFI Block cfiCond127 Using cfiCommon0
          CFI (cfiCond127) Function afIncomingData
          CFI (cfiCond127) Conditional ??CrossCallReturnLabel_87, ??CrossCallReturnLabel_62
          CFI (cfiCond127) R6 load(1, XDATA, add(CFA_XSP16, literal(-24)))
          CFI (cfiCond127) VB load(1, XDATA, add(CFA_XSP16, literal(-23)))
          CFI (cfiCond127) V0 load(1, XDATA, add(CFA_XSP16, literal(-22)))
          CFI (cfiCond127) V1 load(1, XDATA, add(CFA_XSP16, literal(-21)))
          CFI (cfiCond127) V2 load(1, XDATA, add(CFA_XSP16, literal(-20)))
          CFI (cfiCond127) V3 load(1, XDATA, add(CFA_XSP16, literal(-19)))
          CFI (cfiCond127) V4 load(1, XDATA, add(CFA_XSP16, literal(-18)))
          CFI (cfiCond127) V5 load(1, XDATA, add(CFA_XSP16, literal(-17)))
          CFI (cfiCond127) V6 load(1, XDATA, add(CFA_XSP16, literal(-16)))
          CFI (cfiCond127) V7 load(1, XDATA, add(CFA_XSP16, literal(-15)))
          CFI (cfiCond127) V8 load(1, XDATA, add(CFA_XSP16, literal(-14)))
          CFI (cfiCond127) V9 load(1, XDATA, add(CFA_XSP16, literal(-13)))
          CFI (cfiCond127) V10 load(1, XDATA, add(CFA_XSP16, literal(-12)))
          CFI (cfiCond127) V11 load(1, XDATA, add(CFA_XSP16, literal(-11)))
          CFI (cfiCond127) V12 load(1, XDATA, add(CFA_XSP16, literal(-10)))
          CFI (cfiCond127) V13 load(1, XDATA, add(CFA_XSP16, literal(-9)))
          CFI (cfiCond127) V14 load(1, XDATA, add(CFA_XSP16, literal(-8)))
          CFI (cfiCond127) V15 load(1, XDATA, add(CFA_XSP16, literal(-7)))
          CFI (cfiCond127) R7 load(1, XDATA, add(CFA_XSP16, literal(-6)))
          CFI (cfiCond127) ?RET_LOW load(1, XDATA, add(CFA_XSP16, literal(-5)))
          CFI (cfiCond127) ?RET_HIGH load(1, XDATA, add(CFA_XSP16, literal(-4)))
          CFI (cfiCond127) ?BRET_EXT load(1, XDATA, add(CFA_XSP16, literal(-3)))
          CFI (cfiCond127) DPL0 load(1, XDATA, add(CFA_XSP16, literal(-2)))
          CFI (cfiCond127) DPH0 load(1, XDATA, add(CFA_XSP16, literal(-1)))
          CFI (cfiCond127) CFA_SP SP+-4
          CFI (cfiCond127) CFA_XSP16 add(XSP16, 28)
          CFI Block cfiCond128 Using cfiCommon0
          CFI (cfiCond128) Function AF_DataRequest
          CFI (cfiCond128) Conditional ??CrossCallReturnLabel_87, ??CrossCallReturnLabel_63
          CFI (cfiCond128) R6 load(1, XDATA, add(CFA_XSP16, literal(-18)))
          CFI (cfiCond128) VB load(1, XDATA, add(CFA_XSP16, literal(-17)))
          CFI (cfiCond128) V0 load(1, XDATA, add(CFA_XSP16, literal(-16)))
          CFI (cfiCond128) V1 load(1, XDATA, add(CFA_XSP16, literal(-15)))
          CFI (cfiCond128) V2 load(1, XDATA, add(CFA_XSP16, literal(-14)))
          CFI (cfiCond128) V3 load(1, XDATA, add(CFA_XSP16, literal(-13)))
          CFI (cfiCond128) V4 load(1, XDATA, add(CFA_XSP16, literal(-12)))
          CFI (cfiCond128) V5 load(1, XDATA, add(CFA_XSP16, literal(-11)))
          CFI (cfiCond128) V6 load(1, XDATA, add(CFA_XSP16, literal(-10)))
          CFI (cfiCond128) V7 load(1, XDATA, add(CFA_XSP16, literal(-9)))
          CFI (cfiCond128) V8 load(1, XDATA, add(CFA_XSP16, literal(-8)))
          CFI (cfiCond128) V9 load(1, XDATA, add(CFA_XSP16, literal(-7)))
          CFI (cfiCond128) R7 load(1, XDATA, add(CFA_XSP16, literal(-6)))
          CFI (cfiCond128) ?RET_LOW load(1, XDATA, add(CFA_XSP16, literal(-5)))
          CFI (cfiCond128) ?RET_HIGH load(1, XDATA, add(CFA_XSP16, literal(-4)))
          CFI (cfiCond128) ?BRET_EXT load(1, XDATA, add(CFA_XSP16, literal(-3)))
          CFI (cfiCond128) DPL0 load(1, XDATA, add(CFA_XSP16, literal(-2)))
          CFI (cfiCond128) DPH0 load(1, XDATA, add(CFA_XSP16, literal(-1)))
          CFI (cfiCond128) CFA_SP SP+-4
          CFI (cfiCond128) CFA_XSP16 add(XSP16, 50)
          CFI Block cfiCond129 Using cfiCommon0
          CFI (cfiCond129) Function afIncomingData
          CFI (cfiCond129) Conditional ??CrossCallReturnLabel_87, ??CrossCallReturnLabel_60
          CFI (cfiCond129) R6 load(1, XDATA, add(CFA_XSP16, literal(-24)))
          CFI (cfiCond129) VB load(1, XDATA, add(CFA_XSP16, literal(-23)))
          CFI (cfiCond129) V0 load(1, XDATA, add(CFA_XSP16, literal(-22)))
          CFI (cfiCond129) V1 load(1, XDATA, add(CFA_XSP16, literal(-21)))
          CFI (cfiCond129) V2 load(1, XDATA, add(CFA_XSP16, literal(-20)))
          CFI (cfiCond129) V3 load(1, XDATA, add(CFA_XSP16, literal(-19)))
          CFI (cfiCond129) V4 load(1, XDATA, add(CFA_XSP16, literal(-18)))
          CFI (cfiCond129) V5 load(1, XDATA, add(CFA_XSP16, literal(-17)))
          CFI (cfiCond129) V6 load(1, XDATA, add(CFA_XSP16, literal(-16)))
          CFI (cfiCond129) V7 load(1, XDATA, add(CFA_XSP16, literal(-15)))
          CFI (cfiCond129) V8 load(1, XDATA, add(CFA_XSP16, literal(-14)))
          CFI (cfiCond129) V9 load(1, XDATA, add(CFA_XSP16, literal(-13)))
          CFI (cfiCond129) V10 load(1, XDATA, add(CFA_XSP16, literal(-12)))
          CFI (cfiCond129) V11 load(1, XDATA, add(CFA_XSP16, literal(-11)))
          CFI (cfiCond129) V12 load(1, XDATA, add(CFA_XSP16, literal(-10)))
          CFI (cfiCond129) V13 load(1, XDATA, add(CFA_XSP16, literal(-9)))
          CFI (cfiCond129) V14 load(1, XDATA, add(CFA_XSP16, literal(-8)))
          CFI (cfiCond129) V15 load(1, XDATA, add(CFA_XSP16, literal(-7)))
          CFI (cfiCond129) R7 load(1, XDATA, add(CFA_XSP16, literal(-6)))
          CFI (cfiCond129) ?RET_LOW load(1, XDATA, add(CFA_XSP16, literal(-5)))
          CFI (cfiCond129) ?RET_HIGH load(1, XDATA, add(CFA_XSP16, literal(-4)))
          CFI (cfiCond129) ?BRET_EXT load(1, XDATA, add(CFA_XSP16, literal(-3)))
          CFI (cfiCond129) DPL0 load(1, XDATA, add(CFA_XSP16, literal(-2)))
          CFI (cfiCond129) DPH0 load(1, XDATA, add(CFA_XSP16, literal(-1)))
          CFI (cfiCond129) CFA_SP SP+-4
          CFI (cfiCond129) CFA_XSP16 add(XSP16, 28)
          CFI Block cfiCond130 Using cfiCommon0
          CFI (cfiCond130) Function AF_DataRequest
          CFI (cfiCond130) Conditional ??CrossCallReturnLabel_87, ??CrossCallReturnLabel_61
          CFI (cfiCond130) R6 load(1, XDATA, add(CFA_XSP16, literal(-18)))
          CFI (cfiCond130) VB load(1, XDATA, add(CFA_XSP16, literal(-17)))
          CFI (cfiCond130) V0 load(1, XDATA, add(CFA_XSP16, literal(-16)))
          CFI (cfiCond130) V1 load(1, XDATA, add(CFA_XSP16, literal(-15)))
          CFI (cfiCond130) V2 load(1, XDATA, add(CFA_XSP16, literal(-14)))
          CFI (cfiCond130) V3 load(1, XDATA, add(CFA_XSP16, literal(-13)))
          CFI (cfiCond130) V4 load(1, XDATA, add(CFA_XSP16, literal(-12)))
          CFI (cfiCond130) V5 load(1, XDATA, add(CFA_XSP16, literal(-11)))
          CFI (cfiCond130) V6 load(1, XDATA, add(CFA_XSP16, literal(-10)))
          CFI (cfiCond130) V7 load(1, XDATA, add(CFA_XSP16, literal(-9)))
          CFI (cfiCond130) V8 load(1, XDATA, add(CFA_XSP16, literal(-8)))
          CFI (cfiCond130) V9 load(1, XDATA, add(CFA_XSP16, literal(-7)))
          CFI (cfiCond130) R7 load(1, XDATA, add(CFA_XSP16, literal(-6)))
          CFI (cfiCond130) ?RET_LOW load(1, XDATA, add(CFA_XSP16, literal(-5)))
          CFI (cfiCond130) ?RET_HIGH load(1, XDATA, add(CFA_XSP16, literal(-4)))
          CFI (cfiCond130) ?BRET_EXT load(1, XDATA, add(CFA_XSP16, literal(-3)))
          CFI (cfiCond130) DPL0 load(1, XDATA, add(CFA_XSP16, literal(-2)))
          CFI (cfiCond130) DPH0 load(1, XDATA, add(CFA_XSP16, literal(-1)))
          CFI (cfiCond130) CFA_SP SP+-4
          CFI (cfiCond130) CFA_XSP16 add(XSP16, 50)
          CFI Block cfiCond131 Using cfiCommon0
          CFI (cfiCond131) Function afDelete
          CFI (cfiCond131) Conditional ??CrossCallReturnLabel_87, ??CrossCallReturnLabel_56
          CFI (cfiCond131) R6 load(1, XDATA, add(CFA_XSP16, literal(-9)))
          CFI (cfiCond131) VB load(1, XDATA, add(CFA_XSP16, literal(-8)))
          CFI (cfiCond131) V0 load(1, XDATA, add(CFA_XSP16, literal(-7)))
          CFI (cfiCond131) R7 load(1, XDATA, add(CFA_XSP16, literal(-6)))
          CFI (cfiCond131) ?RET_LOW load(1, XDATA, add(CFA_XSP16, literal(-5)))
          CFI (cfiCond131) ?RET_HIGH load(1, XDATA, add(CFA_XSP16, literal(-4)))
          CFI (cfiCond131) ?BRET_EXT load(1, XDATA, add(CFA_XSP16, literal(-3)))
          CFI (cfiCond131) DPL0 load(1, XDATA, add(CFA_XSP16, literal(-2)))
          CFI (cfiCond131) DPH0 load(1, XDATA, add(CFA_XSP16, literal(-1)))
          CFI (cfiCond131) CFA_SP SP+-4
          CFI (cfiCond131) CFA_XSP16 add(XSP16, 9)
          CFI Block cfiCond132 Using cfiCommon0
          CFI (cfiCond132) Function afIncomingData
          CFI (cfiCond132) Conditional ??CrossCallReturnLabel_87, ??CrossCallReturnLabel_57
          CFI (cfiCond132) R6 load(1, XDATA, add(CFA_XSP16, literal(-24)))
          CFI (cfiCond132) VB load(1, XDATA, add(CFA_XSP16, literal(-23)))
          CFI (cfiCond132) V0 load(1, XDATA, add(CFA_XSP16, literal(-22)))
          CFI (cfiCond132) V1 load(1, XDATA, add(CFA_XSP16, literal(-21)))
          CFI (cfiCond132) V2 load(1, XDATA, add(CFA_XSP16, literal(-20)))
          CFI (cfiCond132) V3 load(1, XDATA, add(CFA_XSP16, literal(-19)))
          CFI (cfiCond132) V4 load(1, XDATA, add(CFA_XSP16, literal(-18)))
          CFI (cfiCond132) V5 load(1, XDATA, add(CFA_XSP16, literal(-17)))
          CFI (cfiCond132) V6 load(1, XDATA, add(CFA_XSP16, literal(-16)))
          CFI (cfiCond132) V7 load(1, XDATA, add(CFA_XSP16, literal(-15)))
          CFI (cfiCond132) V8 load(1, XDATA, add(CFA_XSP16, literal(-14)))
          CFI (cfiCond132) V9 load(1, XDATA, add(CFA_XSP16, literal(-13)))
          CFI (cfiCond132) V10 load(1, XDATA, add(CFA_XSP16, literal(-12)))
          CFI (cfiCond132) V11 load(1, XDATA, add(CFA_XSP16, literal(-11)))
          CFI (cfiCond132) V12 load(1, XDATA, add(CFA_XSP16, literal(-10)))
          CFI (cfiCond132) V13 load(1, XDATA, add(CFA_XSP16, literal(-9)))
          CFI (cfiCond132) V14 load(1, XDATA, add(CFA_XSP16, literal(-8)))
          CFI (cfiCond132) V15 load(1, XDATA, add(CFA_XSP16, literal(-7)))
          CFI (cfiCond132) R7 load(1, XDATA, add(CFA_XSP16, literal(-6)))
          CFI (cfiCond132) ?RET_LOW load(1, XDATA, add(CFA_XSP16, literal(-5)))
          CFI (cfiCond132) ?RET_HIGH load(1, XDATA, add(CFA_XSP16, literal(-4)))
          CFI (cfiCond132) ?BRET_EXT load(1, XDATA, add(CFA_XSP16, literal(-3)))
          CFI (cfiCond132) DPL0 load(1, XDATA, add(CFA_XSP16, literal(-2)))
          CFI (cfiCond132) DPH0 load(1, XDATA, add(CFA_XSP16, literal(-1)))
          CFI (cfiCond132) CFA_SP SP+-4
          CFI (cfiCond132) CFA_XSP16 add(XSP16, 28)
          CFI Block cfiCond133 Using cfiCommon0
          CFI (cfiCond133) Function afBuildMSGIncoming
          CFI (cfiCond133) Conditional ??CrossCallReturnLabel_87, ??CrossCallReturnLabel_58
          CFI (cfiCond133) R6 load(1, XDATA, add(CFA_XSP16, literal(-19)))
          CFI (cfiCond133) VB load(1, XDATA, add(CFA_XSP16, literal(-18)))
          CFI (cfiCond133) V0 load(1, XDATA, add(CFA_XSP16, literal(-17)))
          CFI (cfiCond133) V1 load(1, XDATA, add(CFA_XSP16, literal(-16)))
          CFI (cfiCond133) V2 load(1, XDATA, add(CFA_XSP16, literal(-15)))
          CFI (cfiCond133) V3 load(1, XDATA, add(CFA_XSP16, literal(-14)))
          CFI (cfiCond133) V4 load(1, XDATA, add(CFA_XSP16, literal(-13)))
          CFI (cfiCond133) V5 load(1, XDATA, add(CFA_XSP16, literal(-12)))
          CFI (cfiCond133) V6 load(1, XDATA, add(CFA_XSP16, literal(-11)))
          CFI (cfiCond133) V7 load(1, XDATA, add(CFA_XSP16, literal(-10)))
          CFI (cfiCond133) V8 load(1, XDATA, add(CFA_XSP16, literal(-9)))
          CFI (cfiCond133) V9 load(1, XDATA, add(CFA_XSP16, literal(-8)))
          CFI (cfiCond133) V10 load(1, XDATA, add(CFA_XSP16, literal(-7)))
          CFI (cfiCond133) R7 load(1, XDATA, add(CFA_XSP16, literal(-6)))
          CFI (cfiCond133) ?RET_LOW load(1, XDATA, add(CFA_XSP16, literal(-5)))
          CFI (cfiCond133) ?RET_HIGH load(1, XDATA, add(CFA_XSP16, literal(-4)))
          CFI (cfiCond133) ?BRET_EXT load(1, XDATA, add(CFA_XSP16, literal(-3)))
          CFI (cfiCond133) DPL0 load(1, XDATA, add(CFA_XSP16, literal(-2)))
          CFI (cfiCond133) DPH0 load(1, XDATA, add(CFA_XSP16, literal(-1)))
          CFI (cfiCond133) CFA_SP SP+-4
          CFI (cfiCond133) CFA_XSP16 add(XSP16, 19)
          CFI Block cfiCond134 Using cfiCommon0
          CFI (cfiCond134) Function AF_DataRequest
          CFI (cfiCond134) Conditional ??CrossCallReturnLabel_87, ??CrossCallReturnLabel_55
          CFI (cfiCond134) R6 load(1, XDATA, add(CFA_XSP16, literal(-18)))
          CFI (cfiCond134) VB load(1, XDATA, add(CFA_XSP16, literal(-17)))
          CFI (cfiCond134) V0 load(1, XDATA, add(CFA_XSP16, literal(-16)))
          CFI (cfiCond134) V1 load(1, XDATA, add(CFA_XSP16, literal(-15)))
          CFI (cfiCond134) V2 load(1, XDATA, add(CFA_XSP16, literal(-14)))
          CFI (cfiCond134) V3 load(1, XDATA, add(CFA_XSP16, literal(-13)))
          CFI (cfiCond134) V4 load(1, XDATA, add(CFA_XSP16, literal(-12)))
          CFI (cfiCond134) V5 load(1, XDATA, add(CFA_XSP16, literal(-11)))
          CFI (cfiCond134) V6 load(1, XDATA, add(CFA_XSP16, literal(-10)))
          CFI (cfiCond134) V7 load(1, XDATA, add(CFA_XSP16, literal(-9)))
          CFI (cfiCond134) V8 load(1, XDATA, add(CFA_XSP16, literal(-8)))
          CFI (cfiCond134) V9 load(1, XDATA, add(CFA_XSP16, literal(-7)))
          CFI (cfiCond134) R7 load(1, XDATA, add(CFA_XSP16, literal(-6)))
          CFI (cfiCond134) ?RET_LOW load(1, XDATA, add(CFA_XSP16, literal(-5)))
          CFI (cfiCond134) ?RET_HIGH load(1, XDATA, add(CFA_XSP16, literal(-4)))
          CFI (cfiCond134) ?BRET_EXT load(1, XDATA, add(CFA_XSP16, literal(-3)))
          CFI (cfiCond134) DPL0 load(1, XDATA, add(CFA_XSP16, literal(-2)))
          CFI (cfiCond134) DPH0 load(1, XDATA, add(CFA_XSP16, literal(-1)))
          CFI (cfiCond134) CFA_SP SP+-4
          CFI (cfiCond134) CFA_XSP16 add(XSP16, 50)
          CFI Block cfiCond135 Using cfiCommon0
          CFI (cfiCond135) Function AF_DataRequest
          CFI (cfiCond135) Conditional ??CrossCallReturnLabel_87, ??CrossCallReturnLabel_59
          CFI (cfiCond135) R6 load(1, XDATA, add(CFA_XSP16, literal(-18)))
          CFI (cfiCond135) VB load(1, XDATA, add(CFA_XSP16, literal(-17)))
          CFI (cfiCond135) V0 load(1, XDATA, add(CFA_XSP16, literal(-16)))
          CFI (cfiCond135) V1 load(1, XDATA, add(CFA_XSP16, literal(-15)))
          CFI (cfiCond135) V2 load(1, XDATA, add(CFA_XSP16, literal(-14)))
          CFI (cfiCond135) V3 load(1, XDATA, add(CFA_XSP16, literal(-13)))
          CFI (cfiCond135) V4 load(1, XDATA, add(CFA_XSP16, literal(-12)))
          CFI (cfiCond135) V5 load(1, XDATA, add(CFA_XSP16, literal(-11)))
          CFI (cfiCond135) V6 load(1, XDATA, add(CFA_XSP16, literal(-10)))
          CFI (cfiCond135) V7 load(1, XDATA, add(CFA_XSP16, literal(-9)))
          CFI (cfiCond135) V8 load(1, XDATA, add(CFA_XSP16, literal(-8)))
          CFI (cfiCond135) V9 load(1, XDATA, add(CFA_XSP16, literal(-7)))
          CFI (cfiCond135) R7 load(1, XDATA, add(CFA_XSP16, literal(-6)))
          CFI (cfiCond135) ?RET_LOW load(1, XDATA, add(CFA_XSP16, literal(-5)))
          CFI (cfiCond135) ?RET_HIGH load(1, XDATA, add(CFA_XSP16, literal(-4)))
          CFI (cfiCond135) ?BRET_EXT load(1, XDATA, add(CFA_XSP16, literal(-3)))
          CFI (cfiCond135) DPL0 load(1, XDATA, add(CFA_XSP16, literal(-2)))
          CFI (cfiCond135) DPH0 load(1, XDATA, add(CFA_XSP16, literal(-1)))
          CFI (cfiCond135) CFA_SP SP+-4
          CFI (cfiCond135) CFA_XSP16 add(XSP16, 50)
          CFI Block cfiCond136 Using cfiCommon0
          CFI (cfiCond136) Function AF_DataRequest
          CFI (cfiCond136) Conditional ??CrossCallReturnLabel_88, ??CrossCallReturnLabel_81
          CFI (cfiCond136) R6 load(1, XDATA, add(CFA_XSP16, literal(-18)))
          CFI (cfiCond136) VB load(1, XDATA, add(CFA_XSP16, literal(-17)))
          CFI (cfiCond136) V0 load(1, XDATA, add(CFA_XSP16, literal(-16)))
          CFI (cfiCond136) V1 load(1, XDATA, add(CFA_XSP16, literal(-15)))
          CFI (cfiCond136) V2 load(1, XDATA, add(CFA_XSP16, literal(-14)))
          CFI (cfiCond136) V3 load(1, XDATA, add(CFA_XSP16, literal(-13)))
          CFI (cfiCond136) V4 load(1, XDATA, add(CFA_XSP16, literal(-12)))
          CFI (cfiCond136) V5 load(1, XDATA, add(CFA_XSP16, literal(-11)))
          CFI (cfiCond136) V6 load(1, XDATA, add(CFA_XSP16, literal(-10)))
          CFI (cfiCond136) V7 load(1, XDATA, add(CFA_XSP16, literal(-9)))
          CFI (cfiCond136) V8 load(1, XDATA, add(CFA_XSP16, literal(-8)))
          CFI (cfiCond136) V9 load(1, XDATA, add(CFA_XSP16, literal(-7)))
          CFI (cfiCond136) R7 load(1, XDATA, add(CFA_XSP16, literal(-6)))
          CFI (cfiCond136) ?RET_LOW load(1, XDATA, add(CFA_XSP16, literal(-5)))
          CFI (cfiCond136) ?RET_HIGH load(1, XDATA, add(CFA_XSP16, literal(-4)))
          CFI (cfiCond136) ?BRET_EXT load(1, XDATA, add(CFA_XSP16, literal(-3)))
          CFI (cfiCond136) DPL0 load(1, XDATA, add(CFA_XSP16, literal(-2)))
          CFI (cfiCond136) DPH0 load(1, XDATA, add(CFA_XSP16, literal(-1)))
          CFI (cfiCond136) CFA_SP SP+-4
          CFI (cfiCond136) CFA_XSP16 add(XSP16, 50)
          CFI Block cfiCond137 Using cfiCommon0
          CFI (cfiCond137) Function AF_DataRequest
          CFI (cfiCond137) Conditional ??CrossCallReturnLabel_88, ??CrossCallReturnLabel_82
          CFI (cfiCond137) R6 load(1, XDATA, add(CFA_XSP16, literal(-18)))
          CFI (cfiCond137) VB load(1, XDATA, add(CFA_XSP16, literal(-17)))
          CFI (cfiCond137) V0 load(1, XDATA, add(CFA_XSP16, literal(-16)))
          CFI (cfiCond137) V1 load(1, XDATA, add(CFA_XSP16, literal(-15)))
          CFI (cfiCond137) V2 load(1, XDATA, add(CFA_XSP16, literal(-14)))
          CFI (cfiCond137) V3 load(1, XDATA, add(CFA_XSP16, literal(-13)))
          CFI (cfiCond137) V4 load(1, XDATA, add(CFA_XSP16, literal(-12)))
          CFI (cfiCond137) V5 load(1, XDATA, add(CFA_XSP16, literal(-11)))
          CFI (cfiCond137) V6 load(1, XDATA, add(CFA_XSP16, literal(-10)))
          CFI (cfiCond137) V7 load(1, XDATA, add(CFA_XSP16, literal(-9)))
          CFI (cfiCond137) V8 load(1, XDATA, add(CFA_XSP16, literal(-8)))
          CFI (cfiCond137) V9 load(1, XDATA, add(CFA_XSP16, literal(-7)))
          CFI (cfiCond137) R7 load(1, XDATA, add(CFA_XSP16, literal(-6)))
          CFI (cfiCond137) ?RET_LOW load(1, XDATA, add(CFA_XSP16, literal(-5)))
          CFI (cfiCond137) ?RET_HIGH load(1, XDATA, add(CFA_XSP16, literal(-4)))
          CFI (cfiCond137) ?BRET_EXT load(1, XDATA, add(CFA_XSP16, literal(-3)))
          CFI (cfiCond137) DPL0 load(1, XDATA, add(CFA_XSP16, literal(-2)))
          CFI (cfiCond137) DPH0 load(1, XDATA, add(CFA_XSP16, literal(-1)))
          CFI (cfiCond137) CFA_SP SP+-4
          CFI (cfiCond137) CFA_XSP16 add(XSP16, 50)
          CFI Block cfiCond138 Using cfiCommon0
          CFI (cfiCond138) Function AF_DataRequest
          CFI (cfiCond138) Conditional ??CrossCallReturnLabel_88, ??CrossCallReturnLabel_80
          CFI (cfiCond138) R6 load(1, XDATA, add(CFA_XSP16, literal(-18)))
          CFI (cfiCond138) VB load(1, XDATA, add(CFA_XSP16, literal(-17)))
          CFI (cfiCond138) V0 load(1, XDATA, add(CFA_XSP16, literal(-16)))
          CFI (cfiCond138) V1 load(1, XDATA, add(CFA_XSP16, literal(-15)))
          CFI (cfiCond138) V2 load(1, XDATA, add(CFA_XSP16, literal(-14)))
          CFI (cfiCond138) V3 load(1, XDATA, add(CFA_XSP16, literal(-13)))
          CFI (cfiCond138) V4 load(1, XDATA, add(CFA_XSP16, literal(-12)))
          CFI (cfiCond138) V5 load(1, XDATA, add(CFA_XSP16, literal(-11)))
          CFI (cfiCond138) V6 load(1, XDATA, add(CFA_XSP16, literal(-10)))
          CFI (cfiCond138) V7 load(1, XDATA, add(CFA_XSP16, literal(-9)))
          CFI (cfiCond138) V8 load(1, XDATA, add(CFA_XSP16, literal(-8)))
          CFI (cfiCond138) V9 load(1, XDATA, add(CFA_XSP16, literal(-7)))
          CFI (cfiCond138) R7 load(1, XDATA, add(CFA_XSP16, literal(-6)))
          CFI (cfiCond138) ?RET_LOW load(1, XDATA, add(CFA_XSP16, literal(-5)))
          CFI (cfiCond138) ?RET_HIGH load(1, XDATA, add(CFA_XSP16, literal(-4)))
          CFI (cfiCond138) ?BRET_EXT load(1, XDATA, add(CFA_XSP16, literal(-3)))
          CFI (cfiCond138) DPL0 load(1, XDATA, add(CFA_XSP16, literal(-2)))
          CFI (cfiCond138) DPH0 load(1, XDATA, add(CFA_XSP16, literal(-1)))
          CFI (cfiCond138) CFA_SP SP+-4
          CFI (cfiCond138) CFA_XSP16 add(XSP16, 50)
          CFI Block cfiCond139 Using cfiCommon0
          CFI (cfiCond139) Function afDelete
          CFI (cfiCond139) Conditional ??CrossCallReturnLabel_88, ??CrossCallReturnLabel_75
          CFI (cfiCond139) R6 load(1, XDATA, add(CFA_XSP16, literal(-9)))
          CFI (cfiCond139) VB load(1, XDATA, add(CFA_XSP16, literal(-8)))
          CFI (cfiCond139) V0 load(1, XDATA, add(CFA_XSP16, literal(-7)))
          CFI (cfiCond139) R7 load(1, XDATA, add(CFA_XSP16, literal(-6)))
          CFI (cfiCond139) ?RET_LOW load(1, XDATA, add(CFA_XSP16, literal(-5)))
          CFI (cfiCond139) ?RET_HIGH load(1, XDATA, add(CFA_XSP16, literal(-4)))
          CFI (cfiCond139) ?BRET_EXT load(1, XDATA, add(CFA_XSP16, literal(-3)))
          CFI (cfiCond139) DPL0 load(1, XDATA, add(CFA_XSP16, literal(-2)))
          CFI (cfiCond139) DPH0 load(1, XDATA, add(CFA_XSP16, literal(-1)))
          CFI (cfiCond139) CFA_SP SP+-4
          CFI (cfiCond139) CFA_XSP16 add(XSP16, 9)
          CFI Block cfiCond140 Using cfiCommon0
          CFI (cfiCond140) Function AF_DataRequest
          CFI (cfiCond140) Conditional ??CrossCallReturnLabel_88, ??CrossCallReturnLabel_76
          CFI (cfiCond140) R6 load(1, XDATA, add(CFA_XSP16, literal(-18)))
          CFI (cfiCond140) VB load(1, XDATA, add(CFA_XSP16, literal(-17)))
          CFI (cfiCond140) V0 load(1, XDATA, add(CFA_XSP16, literal(-16)))
          CFI (cfiCond140) V1 load(1, XDATA, add(CFA_XSP16, literal(-15)))
          CFI (cfiCond140) V2 load(1, XDATA, add(CFA_XSP16, literal(-14)))
          CFI (cfiCond140) V3 load(1, XDATA, add(CFA_XSP16, literal(-13)))
          CFI (cfiCond140) V4 load(1, XDATA, add(CFA_XSP16, literal(-12)))
          CFI (cfiCond140) V5 load(1, XDATA, add(CFA_XSP16, literal(-11)))
          CFI (cfiCond140) V6 load(1, XDATA, add(CFA_XSP16, literal(-10)))
          CFI (cfiCond140) V7 load(1, XDATA, add(CFA_XSP16, literal(-9)))
          CFI (cfiCond140) V8 load(1, XDATA, add(CFA_XSP16, literal(-8)))
          CFI (cfiCond140) V9 load(1, XDATA, add(CFA_XSP16, literal(-7)))
          CFI (cfiCond140) R7 load(1, XDATA, add(CFA_XSP16, literal(-6)))
          CFI (cfiCond140) ?RET_LOW load(1, XDATA, add(CFA_XSP16, literal(-5)))
          CFI (cfiCond140) ?RET_HIGH load(1, XDATA, add(CFA_XSP16, literal(-4)))
          CFI (cfiCond140) ?BRET_EXT load(1, XDATA, add(CFA_XSP16, literal(-3)))
          CFI (cfiCond140) DPL0 load(1, XDATA, add(CFA_XSP16, literal(-2)))
          CFI (cfiCond140) DPH0 load(1, XDATA, add(CFA_XSP16, literal(-1)))
          CFI (cfiCond140) CFA_SP SP+-4
          CFI (cfiCond140) CFA_XSP16 add(XSP16, 50)
          CFI Block cfiCond141 Using cfiCommon0
          CFI (cfiCond141) Function AF_DataRequest
          CFI (cfiCond141) Conditional ??CrossCallReturnLabel_88, ??CrossCallReturnLabel_77
          CFI (cfiCond141) R6 load(1, XDATA, add(CFA_XSP16, literal(-18)))
          CFI (cfiCond141) VB load(1, XDATA, add(CFA_XSP16, literal(-17)))
          CFI (cfiCond141) V0 load(1, XDATA, add(CFA_XSP16, literal(-16)))
          CFI (cfiCond141) V1 load(1, XDATA, add(CFA_XSP16, literal(-15)))
          CFI (cfiCond141) V2 load(1, XDATA, add(CFA_XSP16, literal(-14)))
          CFI (cfiCond141) V3 load(1, XDATA, add(CFA_XSP16, literal(-13)))
          CFI (cfiCond141) V4 load(1, XDATA, add(CFA_XSP16, literal(-12)))
          CFI (cfiCond141) V5 load(1, XDATA, add(CFA_XSP16, literal(-11)))
          CFI (cfiCond141) V6 load(1, XDATA, add(CFA_XSP16, literal(-10)))
          CFI (cfiCond141) V7 load(1, XDATA, add(CFA_XSP16, literal(-9)))
          CFI (cfiCond141) V8 load(1, XDATA, add(CFA_XSP16, literal(-8)))
          CFI (cfiCond141) V9 load(1, XDATA, add(CFA_XSP16, literal(-7)))
          CFI (cfiCond141) R7 load(1, XDATA, add(CFA_XSP16, literal(-6)))
          CFI (cfiCond141) ?RET_LOW load(1, XDATA, add(CFA_XSP16, literal(-5)))
          CFI (cfiCond141) ?RET_HIGH load(1, XDATA, add(CFA_XSP16, literal(-4)))
          CFI (cfiCond141) ?BRET_EXT load(1, XDATA, add(CFA_XSP16, literal(-3)))
          CFI (cfiCond141) DPL0 load(1, XDATA, add(CFA_XSP16, literal(-2)))
          CFI (cfiCond141) DPH0 load(1, XDATA, add(CFA_XSP16, literal(-1)))
          CFI (cfiCond141) CFA_SP SP+-4
          CFI (cfiCond141) CFA_XSP16 add(XSP16, 50)
          CFI Block cfiCond142 Using cfiCommon0
          CFI (cfiCond142) Function AF_DataRequest
          CFI (cfiCond142) Conditional ??CrossCallReturnLabel_88, ??CrossCallReturnLabel_78
          CFI (cfiCond142) R6 load(1, XDATA, add(CFA_XSP16, literal(-18)))
          CFI (cfiCond142) VB load(1, XDATA, add(CFA_XSP16, literal(-17)))
          CFI (cfiCond142) V0 load(1, XDATA, add(CFA_XSP16, literal(-16)))
          CFI (cfiCond142) V1 load(1, XDATA, add(CFA_XSP16, literal(-15)))
          CFI (cfiCond142) V2 load(1, XDATA, add(CFA_XSP16, literal(-14)))
          CFI (cfiCond142) V3 load(1, XDATA, add(CFA_XSP16, literal(-13)))
          CFI (cfiCond142) V4 load(1, XDATA, add(CFA_XSP16, literal(-12)))
          CFI (cfiCond142) V5 load(1, XDATA, add(CFA_XSP16, literal(-11)))
          CFI (cfiCond142) V6 load(1, XDATA, add(CFA_XSP16, literal(-10)))
          CFI (cfiCond142) V7 load(1, XDATA, add(CFA_XSP16, literal(-9)))
          CFI (cfiCond142) V8 load(1, XDATA, add(CFA_XSP16, literal(-8)))
          CFI (cfiCond142) V9 load(1, XDATA, add(CFA_XSP16, literal(-7)))
          CFI (cfiCond142) R7 load(1, XDATA, add(CFA_XSP16, literal(-6)))
          CFI (cfiCond142) ?RET_LOW load(1, XDATA, add(CFA_XSP16, literal(-5)))
          CFI (cfiCond142) ?RET_HIGH load(1, XDATA, add(CFA_XSP16, literal(-4)))
          CFI (cfiCond142) ?BRET_EXT load(1, XDATA, add(CFA_XSP16, literal(-3)))
          CFI (cfiCond142) DPL0 load(1, XDATA, add(CFA_XSP16, literal(-2)))
          CFI (cfiCond142) DPH0 load(1, XDATA, add(CFA_XSP16, literal(-1)))
          CFI (cfiCond142) CFA_SP SP+-4
          CFI (cfiCond142) CFA_XSP16 add(XSP16, 50)
          CFI Block cfiCond143 Using cfiCommon0
          CFI (cfiCond143) Function AF_DataRequest
          CFI (cfiCond143) Conditional ??CrossCallReturnLabel_88, ??CrossCallReturnLabel_79
          CFI (cfiCond143) R6 load(1, XDATA, add(CFA_XSP16, literal(-18)))
          CFI (cfiCond143) VB load(1, XDATA, add(CFA_XSP16, literal(-17)))
          CFI (cfiCond143) V0 load(1, XDATA, add(CFA_XSP16, literal(-16)))
          CFI (cfiCond143) V1 load(1, XDATA, add(CFA_XSP16, literal(-15)))
          CFI (cfiCond143) V2 load(1, XDATA, add(CFA_XSP16, literal(-14)))
          CFI (cfiCond143) V3 load(1, XDATA, add(CFA_XSP16, literal(-13)))
          CFI (cfiCond143) V4 load(1, XDATA, add(CFA_XSP16, literal(-12)))
          CFI (cfiCond143) V5 load(1, XDATA, add(CFA_XSP16, literal(-11)))
          CFI (cfiCond143) V6 load(1, XDATA, add(CFA_XSP16, literal(-10)))
          CFI (cfiCond143) V7 load(1, XDATA, add(CFA_XSP16, literal(-9)))
          CFI (cfiCond143) V8 load(1, XDATA, add(CFA_XSP16, literal(-8)))
          CFI (cfiCond143) V9 load(1, XDATA, add(CFA_XSP16, literal(-7)))
          CFI (cfiCond143) R7 load(1, XDATA, add(CFA_XSP16, literal(-6)))
          CFI (cfiCond143) ?RET_LOW load(1, XDATA, add(CFA_XSP16, literal(-5)))
          CFI (cfiCond143) ?RET_HIGH load(1, XDATA, add(CFA_XSP16, literal(-4)))
          CFI (cfiCond143) ?BRET_EXT load(1, XDATA, add(CFA_XSP16, literal(-3)))
          CFI (cfiCond143) DPL0 load(1, XDATA, add(CFA_XSP16, literal(-2)))
          CFI (cfiCond143) DPH0 load(1, XDATA, add(CFA_XSP16, literal(-1)))
          CFI (cfiCond143) CFA_SP SP+-4
          CFI (cfiCond143) CFA_XSP16 add(XSP16, 50)
          CFI Block cfiCond144 Using cfiCommon0
          CFI (cfiCond144) Function afBuildMSGIncoming
          CFI (cfiCond144) Conditional ??CrossCallReturnLabel_85, ??CrossCallReturnLabel_17
          CFI (cfiCond144) R6 load(1, XDATA, add(CFA_XSP16, literal(-19)))
          CFI (cfiCond144) VB load(1, XDATA, add(CFA_XSP16, literal(-18)))
          CFI (cfiCond144) V0 load(1, XDATA, add(CFA_XSP16, literal(-17)))
          CFI (cfiCond144) V1 load(1, XDATA, add(CFA_XSP16, literal(-16)))
          CFI (cfiCond144) V2 load(1, XDATA, add(CFA_XSP16, literal(-15)))
          CFI (cfiCond144) V3 load(1, XDATA, add(CFA_XSP16, literal(-14)))
          CFI (cfiCond144) V4 load(1, XDATA, add(CFA_XSP16, literal(-13)))
          CFI (cfiCond144) V5 load(1, XDATA, add(CFA_XSP16, literal(-12)))
          CFI (cfiCond144) V6 load(1, XDATA, add(CFA_XSP16, literal(-11)))
          CFI (cfiCond144) V7 load(1, XDATA, add(CFA_XSP16, literal(-10)))
          CFI (cfiCond144) V8 load(1, XDATA, add(CFA_XSP16, literal(-9)))
          CFI (cfiCond144) V9 load(1, XDATA, add(CFA_XSP16, literal(-8)))
          CFI (cfiCond144) V10 load(1, XDATA, add(CFA_XSP16, literal(-7)))
          CFI (cfiCond144) R7 load(1, XDATA, add(CFA_XSP16, literal(-6)))
          CFI (cfiCond144) ?RET_LOW load(1, XDATA, add(CFA_XSP16, literal(-5)))
          CFI (cfiCond144) ?RET_HIGH load(1, XDATA, add(CFA_XSP16, literal(-4)))
          CFI (cfiCond144) ?BRET_EXT load(1, XDATA, add(CFA_XSP16, literal(-3)))
          CFI (cfiCond144) DPL0 load(1, XDATA, add(CFA_XSP16, literal(-2)))
          CFI (cfiCond144) DPH0 load(1, XDATA, add(CFA_XSP16, literal(-1)))
          CFI (cfiCond144) CFA_SP SP+-4
          CFI (cfiCond144) CFA_XSP16 add(XSP16, 19)
          CFI Block cfiCond145 Using cfiCommon0
          CFI (cfiCond145) Function afNumEndPoints
          CFI (cfiCond145) Conditional ??CrossCallReturnLabel_85, ??CrossCallReturnLabel_18
          CFI (cfiCond145) DPL0 Frame(CFA_SP, 4)
          CFI (cfiCond145) DPH0 Frame(CFA_SP, 5)
          CFI (cfiCond145) CFA_SP SP+-9
          CFI Block cfiPicker146 Using cfiCommon1
          CFI (cfiPicker146) NoFunction
          CFI (cfiPicker146) Picker
        MOVX      A,@DPTR
        MOV       R0,A
        INC       DPTR
        MOVX      A,@DPTR
        MOV       R1,A
        RET
          CFI EndBlock cfiCond120
          CFI EndBlock cfiCond121
          CFI EndBlock cfiCond122
          CFI EndBlock cfiCond123
          CFI EndBlock cfiCond124
          CFI EndBlock cfiCond125
          CFI EndBlock cfiCond126
          CFI EndBlock cfiCond127
          CFI EndBlock cfiCond128
          CFI EndBlock cfiCond129
          CFI EndBlock cfiCond130
          CFI EndBlock cfiCond131
          CFI EndBlock cfiCond132
          CFI EndBlock cfiCond133
          CFI EndBlock cfiCond134
          CFI EndBlock cfiCond135
          CFI EndBlock cfiCond136
          CFI EndBlock cfiCond137
          CFI EndBlock cfiCond138
          CFI EndBlock cfiCond139
          CFI EndBlock cfiCond140
          CFI EndBlock cfiCond141
          CFI EndBlock cfiCond142
          CFI EndBlock cfiCond143
          CFI EndBlock cfiCond144
          CFI EndBlock cfiCond145
          CFI EndBlock cfiPicker146

        RSEG BANKED_CODE:HUGECODE:NOROOT(0)
?Subroutine13:
          CFI Block cfiCond147 Using cfiCommon0
          CFI Function AF_DataRequest
          CFI Conditional ??CrossCallReturnLabel_90
          CFI R6 load(1, XDATA, add(CFA_XSP16, literal(-18)))
          CFI VB load(1, XDATA, add(CFA_XSP16, literal(-17)))
          CFI V0 load(1, XDATA, add(CFA_XSP16, literal(-16)))
          CFI V1 load(1, XDATA, add(CFA_XSP16, literal(-15)))
          CFI V2 load(1, XDATA, add(CFA_XSP16, literal(-14)))
          CFI V3 load(1, XDATA, add(CFA_XSP16, literal(-13)))
          CFI V4 load(1, XDATA, add(CFA_XSP16, literal(-12)))
          CFI V5 load(1, XDATA, add(CFA_XSP16, literal(-11)))
          CFI V6 load(1, XDATA, add(CFA_XSP16, literal(-10)))
          CFI V7 load(1, XDATA, add(CFA_XSP16, literal(-9)))
          CFI V8 load(1, XDATA, add(CFA_XSP16, literal(-8)))
          CFI V9 load(1, XDATA, add(CFA_XSP16, literal(-7)))
          CFI R7 load(1, XDATA, add(CFA_XSP16, literal(-6)))
          CFI ?RET_LOW load(1, XDATA, add(CFA_XSP16, literal(-5)))
          CFI ?RET_HIGH load(1, XDATA, add(CFA_XSP16, literal(-4)))
          CFI ?BRET_EXT load(1, XDATA, add(CFA_XSP16, literal(-3)))
          CFI DPL0 load(1, XDATA, add(CFA_XSP16, literal(-2)))
          CFI DPH0 load(1, XDATA, add(CFA_XSP16, literal(-1)))
          CFI CFA_SP SP+-2
          CFI CFA_XSP16 add(XSP16, 50)
          CFI Block cfiCond148 Using cfiCommon0
          CFI (cfiCond148) Function afCopyAddress
          CFI (cfiCond148) Conditional ??CrossCallReturnLabel_91
          CFI (cfiCond148) R6 load(1, XDATA, add(CFA_XSP16, literal(-9)))
          CFI (cfiCond148) VB load(1, XDATA, add(CFA_XSP16, literal(-8)))
          CFI (cfiCond148) V0 load(1, XDATA, add(CFA_XSP16, literal(-7)))
          CFI (cfiCond148) R7 load(1, XDATA, add(CFA_XSP16, literal(-6)))
          CFI (cfiCond148) ?RET_LOW load(1, XDATA, add(CFA_XSP16, literal(-5)))
          CFI (cfiCond148) ?RET_HIGH load(1, XDATA, add(CFA_XSP16, literal(-4)))
          CFI (cfiCond148) ?BRET_EXT load(1, XDATA, add(CFA_XSP16, literal(-3)))
          CFI (cfiCond148) DPL0 load(1, XDATA, add(CFA_XSP16, literal(-2)))
          CFI (cfiCond148) DPH0 load(1, XDATA, add(CFA_XSP16, literal(-1)))
          CFI (cfiCond148) CFA_SP SP+-2
          CFI (cfiCond148) CFA_XSP16 add(XSP16, 9)
          CFI Block cfiPicker149 Using cfiCommon1
          CFI (cfiPicker149) NoFunction
          CFI (cfiPicker149) Picker
        INC       DPTR
          CFI EndBlock cfiCond147
          CFI EndBlock cfiCond148
          CFI EndBlock cfiPicker149
        REQUIRE ??Subroutine38_0
        ; // Fall through to label ??Subroutine38_0

        RSEG BANKED_CODE:HUGECODE:NOROOT(0)
??Subroutine38_0:
          CFI Block cfiCond150 Using cfiCommon0
          CFI Function AF_DataRequestSrcRtg
          CFI Conditional ??CrossCallReturnLabel_89
          CFI R6 load(1, XDATA, add(CFA_XSP16, literal(-12)))
          CFI VB load(1, XDATA, add(CFA_XSP16, literal(-11)))
          CFI V0 load(1, XDATA, add(CFA_XSP16, literal(-10)))
          CFI V1 load(1, XDATA, add(CFA_XSP16, literal(-9)))
          CFI V2 load(1, XDATA, add(CFA_XSP16, literal(-8)))
          CFI V3 load(1, XDATA, add(CFA_XSP16, literal(-7)))
          CFI R7 load(1, XDATA, add(CFA_XSP16, literal(-6)))
          CFI ?RET_LOW load(1, XDATA, add(CFA_XSP16, literal(-5)))
          CFI ?RET_HIGH load(1, XDATA, add(CFA_XSP16, literal(-4)))
          CFI ?BRET_EXT load(1, XDATA, add(CFA_XSP16, literal(-3)))
          CFI DPL0 load(1, XDATA, add(CFA_XSP16, literal(-2)))
          CFI DPH0 load(1, XDATA, add(CFA_XSP16, literal(-1)))
          CFI CFA_SP SP+-2
          CFI CFA_XSP16 add(XSP16, 12)
          CFI Block cfiCond151 Using cfiCommon0
          CFI (cfiCond151) Function AF_DataRequest
          CFI (cfiCond151) Conditional ??CrossCallReturnLabel_90
          CFI (cfiCond151) R6 load(1, XDATA, add(CFA_XSP16, literal(-18)))
          CFI (cfiCond151) VB load(1, XDATA, add(CFA_XSP16, literal(-17)))
          CFI (cfiCond151) V0 load(1, XDATA, add(CFA_XSP16, literal(-16)))
          CFI (cfiCond151) V1 load(1, XDATA, add(CFA_XSP16, literal(-15)))
          CFI (cfiCond151) V2 load(1, XDATA, add(CFA_XSP16, literal(-14)))
          CFI (cfiCond151) V3 load(1, XDATA, add(CFA_XSP16, literal(-13)))
          CFI (cfiCond151) V4 load(1, XDATA, add(CFA_XSP16, literal(-12)))
          CFI (cfiCond151) V5 load(1, XDATA, add(CFA_XSP16, literal(-11)))
          CFI (cfiCond151) V6 load(1, XDATA, add(CFA_XSP16, literal(-10)))
          CFI (cfiCond151) V7 load(1, XDATA, add(CFA_XSP16, literal(-9)))
          CFI (cfiCond151) V8 load(1, XDATA, add(CFA_XSP16, literal(-8)))
          CFI (cfiCond151) V9 load(1, XDATA, add(CFA_XSP16, literal(-7)))
          CFI (cfiCond151) R7 load(1, XDATA, add(CFA_XSP16, literal(-6)))
          CFI (cfiCond151) ?RET_LOW load(1, XDATA, add(CFA_XSP16, literal(-5)))
          CFI (cfiCond151) ?RET_HIGH load(1, XDATA, add(CFA_XSP16, literal(-4)))
          CFI (cfiCond151) ?BRET_EXT load(1, XDATA, add(CFA_XSP16, literal(-3)))
          CFI (cfiCond151) DPL0 load(1, XDATA, add(CFA_XSP16, literal(-2)))
          CFI (cfiCond151) DPH0 load(1, XDATA, add(CFA_XSP16, literal(-1)))
          CFI (cfiCond151) CFA_SP SP+-2
          CFI (cfiCond151) CFA_XSP16 add(XSP16, 50)
          CFI Block cfiCond152 Using cfiCommon0
          CFI (cfiCond152) Function afCopyAddress
          CFI (cfiCond152) Conditional ??CrossCallReturnLabel_91
          CFI (cfiCond152) R6 load(1, XDATA, add(CFA_XSP16, literal(-9)))
          CFI (cfiCond152) VB load(1, XDATA, add(CFA_XSP16, literal(-8)))
          CFI (cfiCond152) V0 load(1, XDATA, add(CFA_XSP16, literal(-7)))
          CFI (cfiCond152) R7 load(1, XDATA, add(CFA_XSP16, literal(-6)))
          CFI (cfiCond152) ?RET_LOW load(1, XDATA, add(CFA_XSP16, literal(-5)))
          CFI (cfiCond152) ?RET_HIGH load(1, XDATA, add(CFA_XSP16, literal(-4)))
          CFI (cfiCond152) ?BRET_EXT load(1, XDATA, add(CFA_XSP16, literal(-3)))
          CFI (cfiCond152) DPL0 load(1, XDATA, add(CFA_XSP16, literal(-2)))
          CFI (cfiCond152) DPH0 load(1, XDATA, add(CFA_XSP16, literal(-1)))
          CFI (cfiCond152) CFA_SP SP+-2
          CFI (cfiCond152) CFA_XSP16 add(XSP16, 9)
          CFI Block cfiPicker153 Using cfiCommon1
          CFI (cfiPicker153) NoFunction
          CFI (cfiPicker153) Picker
        MOVX      A,@DPTR
        MOV       R1,A
        MOV       DPL,R6
        MOV       DPH,R7
        RET
          CFI EndBlock cfiCond150
          CFI EndBlock cfiCond151
          CFI EndBlock cfiCond152
          CFI EndBlock cfiPicker153
//  780 
//  781 #if defined ( ZIGBEEPRO )
//  782 /*********************************************************************
//  783  * @fn      AF_DataRequestSrcRtg
//  784  *
//  785  * @brief   Common functionality for invoking APSDE_DataReq() for both
//  786  *          SendMulti and MSG-Send.
//  787  *
//  788  * input parameters
//  789  *
//  790  * @param  *dstAddr - Full ZB destination address: Nwk Addr + End Point.
//  791  * @param  *srcEP - Origination (i.e. respond to or ack to) End Point Descr.
//  792  * @param   cID - A valid cluster ID as specified by the Profile.
//  793  * @param   len - Number of bytes of data pointed to by next param.
//  794  * @param  *buf - A pointer to the data bytes to send.
//  795  * @param  *transID - A pointer to a byte which can be modified and which will
//  796  *                    be used as the transaction sequence number of the msg.
//  797  * @param   options - Valid bit mask of Tx options.
//  798  * @param   radius - Normally set to AF_DEFAULT_RADIUS.
//  799  * @param   relayCnt - Number of devices in the relay list
//  800  * @param   pRelayList - Pointer to the relay list
//  801  *
//  802  * output parameters
//  803  *
//  804  * @param  *transID - Incremented by one if the return value is success.
//  805  *
//  806  * @return  afStatus_t - See previous definition of afStatus_... types.
//  807  */
//  808 

        RSEG BANKED_CODE:HUGECODE:NOROOT(0)
//  809 afStatus_t AF_DataRequestSrcRtg( afAddrType_t *dstAddr, endPointDesc_t *srcEP,
AF_DataRequestSrcRtg:
          CFI Block cfiBlock154 Using cfiCommon0
          CFI Function AF_DataRequestSrcRtg
        CODE
//  810                            uint16 cID, uint16 len, uint8 *buf, uint8 *transID,
//  811                            uint8 options, uint8 radius, uint8 relayCnt, uint16* pRelayList )
//  812 {
        FUNCALL AF_DataRequestSrcRtg, RTG_AddSrcRtgEntry_Guaranteed
        LOCFRAME ISTACK, 0, STACK
        LOCFRAME PSTACK, 0, STACK
        LOCFRAME XSTACK, 12, STACK
        LOCFRAME IOVERLAY, 0, STATIC
        LOCFRAME DOVERLAY, 0, STATIC
        ARGFRAME ISTACK, 0, STACK
        ARGFRAME PSTACK, 0, STACK
        ARGFRAME XSTACK, 12, STACK
        ARGFRAME IOVERLAY, 0, STATIC
        ARGFRAME DOVERLAY, 0, STATIC
        FUNCALL AF_DataRequestSrcRtg, AF_DataRequest
        LOCFRAME ISTACK, 0, STACK
        LOCFRAME PSTACK, 0, STACK
        LOCFRAME XSTACK, 21, STACK
        LOCFRAME IOVERLAY, 0, STATIC
        LOCFRAME DOVERLAY, 0, STATIC
        ARGFRAME ISTACK, 0, STACK
        ARGFRAME PSTACK, 0, STACK
        ARGFRAME XSTACK, 21, STACK
        ARGFRAME IOVERLAY, 0, STATIC
        ARGFRAME DOVERLAY, 0, STATIC
        REQUIRE ?V0
        REQUIRE ?V1
        REQUIRE ?V2
        REQUIRE ?V3
        MOV       A,#-0xc
        LCALL     ?BANKED_ENTER_XDATA
          CFI DPH0 load(1, XDATA, add(CFA_XSP16, literal(-1)))
          CFI DPL0 load(1, XDATA, add(CFA_XSP16, literal(-2)))
          CFI ?BRET_EXT load(1, XDATA, add(CFA_XSP16, literal(-3)))
          CFI ?RET_HIGH load(1, XDATA, add(CFA_XSP16, literal(-4)))
          CFI ?RET_LOW load(1, XDATA, add(CFA_XSP16, literal(-5)))
          CFI R7 load(1, XDATA, add(CFA_XSP16, literal(-6)))
          CFI V3 load(1, XDATA, add(CFA_XSP16, literal(-7)))
          CFI V2 load(1, XDATA, add(CFA_XSP16, literal(-8)))
          CFI V1 load(1, XDATA, add(CFA_XSP16, literal(-9)))
          CFI V0 load(1, XDATA, add(CFA_XSP16, literal(-10)))
          CFI VB load(1, XDATA, add(CFA_XSP16, literal(-11)))
          CFI R6 load(1, XDATA, add(CFA_XSP16, literal(-12)))
          CFI CFA_SP SP+0
          CFI CFA_XSP16 add(XSP16, 12)
        ; Saved register size: 12
        ; Auto size: 0
        MOV       A,R2
        MOV       R6,A
        MOV       A,R3
        MOV       R7,A
        MOV       ?V0,R4
        MOV       ?V1,R5
        MOV       ?V2,R1
//  813   uint8 status;
//  814 
//  815   /* Add the source route to the source routing table */
//  816   status = RTG_AddSrcRtgEntry_Guaranteed( dstAddr->addr.shortAddr, relayCnt,
//  817                                          pRelayList );
        ; Setup parameters for call to function RTG_AddSrcRtgEntry_Guaranteed
        MOV       A,#0x16
        LCALL     ?XSTACK_DISP0_8
        LCALL     ?Subroutine8 & 0xFFFF
??CrossCallReturnLabel_11:
        MOV       A,#0x15
        LCALL     ?XSTACK_DISP0_8
        LCALL     ??Subroutine38_0 & 0xFFFF
??CrossCallReturnLabel_89:
        LCALL     ??Subroutine44_0 & 0xFFFF
??CrossCallReturnLabel_104:
        LCALL     `??RTG_AddSrcRtgEntry_Guaranteed::?relay`; Banked call to: RTG_AddSrcRtgEntry_Guaranteed
        MOV       A,R1
        MOV       R1,A
//  818 
//  819   if( status == RTG_SUCCESS)
        JNZ       ??AF_DataRequestSrcRtg_0
//  820   {
//  821     /* Call AF_DataRequest to send the data */
//  822     status = AF_DataRequest( dstAddr, srcEP, cID, len, buf, transID, options, radius );
        ; Setup parameters for call to function AF_DataRequest
        MOV       A,#0x14
        LCALL     ?XSTACK_DISP0_8
        MOVX      A,@DPTR
        MOV       ?V3,A
        MOV       R0,#?V3
        LCALL     ?PUSH_XSTACK_I_ONE
          CFI CFA_XSP16 add(XSP16, 13)
        MOV       A,#0x13
        LCALL     ?XSTACK_DISP0_8
        LCALL     ?PUSH_XSTACK8_X_TWO
          CFI CFA_XSP16 add(XSP16, 15)
        MOV       A,#0x13
        LCALL     ?XSTACK_DISP0_8
        LCALL     ?PUSH_XSTACK8_X_TWO
          CFI CFA_XSP16 add(XSP16, 17)
        MOV       A,#0x13
        LCALL     ?XSTACK_DISP0_8
        LCALL     ?PUSH_XSTACK8_X_TWO
          CFI CFA_XSP16 add(XSP16, 19)
        MOV       A,#0x13
        LCALL     ?XSTACK_DISP0_8
        LCALL     ?PUSH_XSTACK8_X_TWO
          CFI CFA_XSP16 add(XSP16, 21)
        MOV       R1,?V2
        MOV       R4,?V0
        MOV       R5,?V1
        MOV       A,R6
        MOV       R2,A
        MOV       A,R7
        MOV       R3,A
        LCALL     `??AF_DataRequest::?relay`; Banked call to: AF_DataRequest
        MOV       A,#0x9
        LCALL     ?DEALLOC_XSTACK8
          CFI CFA_XSP16 add(XSP16, 12)
        MOV       A,R1
        MOV       R1,A
        SJMP      ??AF_DataRequestSrcRtg_1
//  823   }
//  824   else if( status == RTG_INVALID_PATH )
??AF_DataRequestSrcRtg_0:
        MOV       A,#0x5
        XRL       A,R1
        JNZ       ??AF_DataRequestSrcRtg_2
//  825   {
//  826     /* The source route relay count is exceeding the network limit */
//  827     status = afStatus_INVALID_PARAMETER;
        MOV       R1,#0x2
        SJMP      ??AF_DataRequestSrcRtg_1
//  828   }
//  829   else
//  830   {
//  831     /* The guaranteed adding entry fails due to memory failure */
//  832     status = afStatus_MEM_FAIL;
??AF_DataRequestSrcRtg_2:
        MOV       R1,#0x10
//  833   }
//  834   return status;
??AF_DataRequestSrcRtg_1:
        LJMP      ?Subroutine0 & 0xFFFF
//  835 }
          CFI EndBlock cfiBlock154

        RSEG BANKED_CODE:HUGECODE:NOROOT(0)
?Subroutine8:
          CFI Block cfiCond155 Using cfiCommon0
          CFI Function afDelete
          CFI Conditional ??CrossCallReturnLabel_8
          CFI R6 load(1, XDATA, add(CFA_XSP16, literal(-9)))
          CFI VB load(1, XDATA, add(CFA_XSP16, literal(-8)))
          CFI V0 load(1, XDATA, add(CFA_XSP16, literal(-7)))
          CFI R7 load(1, XDATA, add(CFA_XSP16, literal(-6)))
          CFI ?RET_LOW load(1, XDATA, add(CFA_XSP16, literal(-5)))
          CFI ?RET_HIGH load(1, XDATA, add(CFA_XSP16, literal(-4)))
          CFI ?BRET_EXT load(1, XDATA, add(CFA_XSP16, literal(-3)))
          CFI DPL0 load(1, XDATA, add(CFA_XSP16, literal(-2)))
          CFI DPH0 load(1, XDATA, add(CFA_XSP16, literal(-1)))
          CFI CFA_SP SP+-2
          CFI CFA_XSP16 add(XSP16, 9)
          CFI Block cfiCond156 Using cfiCommon0
          CFI (cfiCond156) Function afBuildMSGIncoming
          CFI (cfiCond156) Conditional ??CrossCallReturnLabel_9
          CFI (cfiCond156) R6 load(1, XDATA, add(CFA_XSP16, literal(-19)))
          CFI (cfiCond156) VB load(1, XDATA, add(CFA_XSP16, literal(-18)))
          CFI (cfiCond156) V0 load(1, XDATA, add(CFA_XSP16, literal(-17)))
          CFI (cfiCond156) V1 load(1, XDATA, add(CFA_XSP16, literal(-16)))
          CFI (cfiCond156) V2 load(1, XDATA, add(CFA_XSP16, literal(-15)))
          CFI (cfiCond156) V3 load(1, XDATA, add(CFA_XSP16, literal(-14)))
          CFI (cfiCond156) V4 load(1, XDATA, add(CFA_XSP16, literal(-13)))
          CFI (cfiCond156) V5 load(1, XDATA, add(CFA_XSP16, literal(-12)))
          CFI (cfiCond156) V6 load(1, XDATA, add(CFA_XSP16, literal(-11)))
          CFI (cfiCond156) V7 load(1, XDATA, add(CFA_XSP16, literal(-10)))
          CFI (cfiCond156) V8 load(1, XDATA, add(CFA_XSP16, literal(-9)))
          CFI (cfiCond156) V9 load(1, XDATA, add(CFA_XSP16, literal(-8)))
          CFI (cfiCond156) V10 load(1, XDATA, add(CFA_XSP16, literal(-7)))
          CFI (cfiCond156) R7 load(1, XDATA, add(CFA_XSP16, literal(-6)))
          CFI (cfiCond156) ?RET_LOW load(1, XDATA, add(CFA_XSP16, literal(-5)))
          CFI (cfiCond156) ?RET_HIGH load(1, XDATA, add(CFA_XSP16, literal(-4)))
          CFI (cfiCond156) ?BRET_EXT load(1, XDATA, add(CFA_XSP16, literal(-3)))
          CFI (cfiCond156) DPL0 load(1, XDATA, add(CFA_XSP16, literal(-2)))
          CFI (cfiCond156) DPH0 load(1, XDATA, add(CFA_XSP16, literal(-1)))
          CFI (cfiCond156) CFA_SP SP+-2
          CFI (cfiCond156) CFA_XSP16 add(XSP16, 19)
          CFI Block cfiCond157 Using cfiCommon0
          CFI (cfiCond157) Function afBuildMSGIncoming
          CFI (cfiCond157) Conditional ??CrossCallReturnLabel_10
          CFI (cfiCond157) R6 load(1, XDATA, add(CFA_XSP16, literal(-19)))
          CFI (cfiCond157) VB load(1, XDATA, add(CFA_XSP16, literal(-18)))
          CFI (cfiCond157) V0 load(1, XDATA, add(CFA_XSP16, literal(-17)))
          CFI (cfiCond157) V1 load(1, XDATA, add(CFA_XSP16, literal(-16)))
          CFI (cfiCond157) V2 load(1, XDATA, add(CFA_XSP16, literal(-15)))
          CFI (cfiCond157) V3 load(1, XDATA, add(CFA_XSP16, literal(-14)))
          CFI (cfiCond157) V4 load(1, XDATA, add(CFA_XSP16, literal(-13)))
          CFI (cfiCond157) V5 load(1, XDATA, add(CFA_XSP16, literal(-12)))
          CFI (cfiCond157) V6 load(1, XDATA, add(CFA_XSP16, literal(-11)))
          CFI (cfiCond157) V7 load(1, XDATA, add(CFA_XSP16, literal(-10)))
          CFI (cfiCond157) V8 load(1, XDATA, add(CFA_XSP16, literal(-9)))
          CFI (cfiCond157) V9 load(1, XDATA, add(CFA_XSP16, literal(-8)))
          CFI (cfiCond157) V10 load(1, XDATA, add(CFA_XSP16, literal(-7)))
          CFI (cfiCond157) R7 load(1, XDATA, add(CFA_XSP16, literal(-6)))
          CFI (cfiCond157) ?RET_LOW load(1, XDATA, add(CFA_XSP16, literal(-5)))
          CFI (cfiCond157) ?RET_HIGH load(1, XDATA, add(CFA_XSP16, literal(-4)))
          CFI (cfiCond157) ?BRET_EXT load(1, XDATA, add(CFA_XSP16, literal(-3)))
          CFI (cfiCond157) DPL0 load(1, XDATA, add(CFA_XSP16, literal(-2)))
          CFI (cfiCond157) DPH0 load(1, XDATA, add(CFA_XSP16, literal(-1)))
          CFI (cfiCond157) CFA_SP SP+-2
          CFI (cfiCond157) CFA_XSP16 add(XSP16, 22)
          CFI Block cfiCond158 Using cfiCommon0
          CFI (cfiCond158) Function AF_DataRequestSrcRtg
          CFI (cfiCond158) Conditional ??CrossCallReturnLabel_11
          CFI (cfiCond158) R6 load(1, XDATA, add(CFA_XSP16, literal(-12)))
          CFI (cfiCond158) VB load(1, XDATA, add(CFA_XSP16, literal(-11)))
          CFI (cfiCond158) V0 load(1, XDATA, add(CFA_XSP16, literal(-10)))
          CFI (cfiCond158) V1 load(1, XDATA, add(CFA_XSP16, literal(-9)))
          CFI (cfiCond158) V2 load(1, XDATA, add(CFA_XSP16, literal(-8)))
          CFI (cfiCond158) V3 load(1, XDATA, add(CFA_XSP16, literal(-7)))
          CFI (cfiCond158) R7 load(1, XDATA, add(CFA_XSP16, literal(-6)))
          CFI (cfiCond158) ?RET_LOW load(1, XDATA, add(CFA_XSP16, literal(-5)))
          CFI (cfiCond158) ?RET_HIGH load(1, XDATA, add(CFA_XSP16, literal(-4)))
          CFI (cfiCond158) ?BRET_EXT load(1, XDATA, add(CFA_XSP16, literal(-3)))
          CFI (cfiCond158) DPL0 load(1, XDATA, add(CFA_XSP16, literal(-2)))
          CFI (cfiCond158) DPH0 load(1, XDATA, add(CFA_XSP16, literal(-1)))
          CFI (cfiCond158) CFA_SP SP+-2
          CFI (cfiCond158) CFA_XSP16 add(XSP16, 12)
          CFI Block cfiCond159 Using cfiCommon0
          CFI (cfiCond159) Function afEndPoints
          CFI (cfiCond159) Conditional ??CrossCallReturnLabel_12
          CFI (cfiCond159) DPL0 Frame(CFA_SP, 4)
          CFI (cfiCond159) DPH0 Frame(CFA_SP, 5)
          CFI (cfiCond159) CFA_SP SP+-7
          CFI Block cfiPicker160 Using cfiCommon1
          CFI (cfiPicker160) NoFunction
          CFI (cfiPicker160) Picker
        MOVX      A,@DPTR
        MOV       R4,A
        INC       DPTR
        MOVX      A,@DPTR
        MOV       R5,A
        RET
          CFI EndBlock cfiCond155
          CFI EndBlock cfiCond156
          CFI EndBlock cfiCond157
          CFI EndBlock cfiCond158
          CFI EndBlock cfiCond159
          CFI EndBlock cfiPicker160
//  836 
//  837 #endif // ZIGBEEPRO
//  838 
//  839 /*********************************************************************
//  840  * @fn      afFindEndPointDescList
//  841  *
//  842  * @brief   Find the endpoint description entry from the endpoint
//  843  *          number.
//  844  *
//  845  * @param   EndPoint - Application Endpoint to look for
//  846  *
//  847  * @return  the address to the endpoint/interface description entry
//  848  */

        RSEG BANKED_CODE:HUGECODE:NOROOT(0)
//  849 static epList_t *afFindEndPointDescList( uint8 EndPoint )
afFindEndPointDescList:
          CFI Block cfiBlock161 Using cfiCommon0
          CFI Function afFindEndPointDescList
        CODE
//  850 {
        PUSH      DPL
          CFI DPL0 Frame(CFA_SP, 4)
          CFI CFA_SP SP+-4
        PUSH      DPH
          CFI DPH0 Frame(CFA_SP, 5)
          CFI CFA_SP SP+-5
        ; Saved register size: 2
        ; Auto size: 0
//  851   epList_t *epSearch;
//  852 
//  853   for (epSearch = epList; epSearch != NULL; epSearch = epSearch->nextDesc)
        MOV       DPTR,#epList
        SJMP      ??afFindEndPointDescList_0
??afFindEndPointDescList_1:
        MOV       DPL,R2
        MOV       DPH,R3
??afFindEndPointDescList_0:
        LCALL     ?Subroutine7 & 0xFFFF
??CrossCallReturnLabel_6:
        JZ        ??afFindEndPointDescList_2
//  854   {
//  855     if (epSearch->epDesc->endPoint == EndPoint)
        MOV       DPL,R2
        MOV       DPH,R3
        LCALL     ??Subroutine39_0 & 0xFFFF
//  856     {
//  857       break;
//  858     }
//  859   }
??CrossCallReturnLabel_97:
        MOVX      A,@DPTR
        XRL       A,R1
        JNZ       ??afFindEndPointDescList_1
//  860 
//  861   return epSearch;
??afFindEndPointDescList_2:
          CFI EndBlock cfiBlock161
        REQUIRE ?Subroutine3
        ; // Fall through to label ?Subroutine3
//  862 }

        RSEG BANKED_CODE:HUGECODE:NOROOT(0)
?Subroutine3:
          CFI Block cfiBlock162 Using cfiCommon0
          CFI NoFunction
          CFI CFA_SP SP+-5
          CFI DPL0 Frame(CFA_SP, 4)
          CFI DPH0 Frame(CFA_SP, 5)
        POP       DPH
          CFI CFA_SP SP+-4
          CFI DPH0 SameValue
        POP       DPL
          CFI CFA_SP SP+-3
          CFI DPL0 SameValue
        LJMP      ?BRET
          CFI EndBlock cfiBlock162

        RSEG BANKED_CODE:HUGECODE:NOROOT(0)
?Subroutine11:
          CFI Block cfiCond163 Using cfiCommon0
          CFI Function afFindSimpleDesc
          CFI Conditional ??CrossCallReturnLabel_99
          CFI R6 load(1, XDATA, add(CFA_XSP16, literal(-12)))
          CFI VB load(1, XDATA, add(CFA_XSP16, literal(-11)))
          CFI V0 load(1, XDATA, add(CFA_XSP16, literal(-10)))
          CFI V1 load(1, XDATA, add(CFA_XSP16, literal(-9)))
          CFI V2 load(1, XDATA, add(CFA_XSP16, literal(-8)))
          CFI V3 load(1, XDATA, add(CFA_XSP16, literal(-7)))
          CFI R7 load(1, XDATA, add(CFA_XSP16, literal(-6)))
          CFI ?RET_LOW load(1, XDATA, add(CFA_XSP16, literal(-5)))
          CFI ?RET_HIGH load(1, XDATA, add(CFA_XSP16, literal(-4)))
          CFI ?BRET_EXT load(1, XDATA, add(CFA_XSP16, literal(-3)))
          CFI DPL0 load(1, XDATA, add(CFA_XSP16, literal(-2)))
          CFI DPH0 load(1, XDATA, add(CFA_XSP16, literal(-1)))
          CFI CFA_SP SP+-2
          CFI CFA_XSP16 add(XSP16, 12)
          CFI Block cfiCond164 Using cfiCommon0
          CFI (cfiCond164) Function afEndPoints
          CFI (cfiCond164) Conditional ??CrossCallReturnLabel_100
          CFI (cfiCond164) DPL0 Frame(CFA_SP, 4)
          CFI (cfiCond164) DPH0 Frame(CFA_SP, 5)
          CFI (cfiCond164) CFA_SP SP+-7
          CFI Block cfiPicker165 Using cfiCommon1
          CFI (cfiPicker165) NoFunction
          CFI (cfiPicker165) Picker
        MOV       DPL,R4
        MOV       DPH,R5
          CFI EndBlock cfiCond163
          CFI EndBlock cfiCond164
          CFI EndBlock cfiPicker165
        REQUIRE ??Subroutine39_0
        ; // Fall through to label ??Subroutine39_0

        RSEG BANKED_CODE:HUGECODE:NOROOT(0)
??Subroutine39_0:
          CFI Block cfiCond166 Using cfiCommon0
          CFI Function afFindEndPointDescList
          CFI Conditional ??CrossCallReturnLabel_97
          CFI DPL0 Frame(CFA_SP, 4)
          CFI DPH0 Frame(CFA_SP, 5)
          CFI CFA_SP SP+-7
          CFI Block cfiCond167 Using cfiCommon0
          CFI (cfiCond167) Function afFindSimpleDesc
          CFI (cfiCond167) Conditional ??CrossCallReturnLabel_98
          CFI (cfiCond167) R6 load(1, XDATA, add(CFA_XSP16, literal(-12)))
          CFI (cfiCond167) VB load(1, XDATA, add(CFA_XSP16, literal(-11)))
          CFI (cfiCond167) V0 load(1, XDATA, add(CFA_XSP16, literal(-10)))
          CFI (cfiCond167) V1 load(1, XDATA, add(CFA_XSP16, literal(-9)))
          CFI (cfiCond167) V2 load(1, XDATA, add(CFA_XSP16, literal(-8)))
          CFI (cfiCond167) V3 load(1, XDATA, add(CFA_XSP16, literal(-7)))
          CFI (cfiCond167) R7 load(1, XDATA, add(CFA_XSP16, literal(-6)))
          CFI (cfiCond167) ?RET_LOW load(1, XDATA, add(CFA_XSP16, literal(-5)))
          CFI (cfiCond167) ?RET_HIGH load(1, XDATA, add(CFA_XSP16, literal(-4)))
          CFI (cfiCond167) ?BRET_EXT load(1, XDATA, add(CFA_XSP16, literal(-3)))
          CFI (cfiCond167) DPL0 load(1, XDATA, add(CFA_XSP16, literal(-2)))
          CFI (cfiCond167) DPH0 load(1, XDATA, add(CFA_XSP16, literal(-1)))
          CFI (cfiCond167) CFA_SP SP+-2
          CFI (cfiCond167) CFA_XSP16 add(XSP16, 12)
          CFI Block cfiCond168 Using cfiCommon0
          CFI (cfiCond168) Function afFindSimpleDesc
          CFI (cfiCond168) Conditional ??CrossCallReturnLabel_99
          CFI (cfiCond168) R6 load(1, XDATA, add(CFA_XSP16, literal(-12)))
          CFI (cfiCond168) VB load(1, XDATA, add(CFA_XSP16, literal(-11)))
          CFI (cfiCond168) V0 load(1, XDATA, add(CFA_XSP16, literal(-10)))
          CFI (cfiCond168) V1 load(1, XDATA, add(CFA_XSP16, literal(-9)))
          CFI (cfiCond168) V2 load(1, XDATA, add(CFA_XSP16, literal(-8)))
          CFI (cfiCond168) V3 load(1, XDATA, add(CFA_XSP16, literal(-7)))
          CFI (cfiCond168) R7 load(1, XDATA, add(CFA_XSP16, literal(-6)))
          CFI (cfiCond168) ?RET_LOW load(1, XDATA, add(CFA_XSP16, literal(-5)))
          CFI (cfiCond168) ?RET_HIGH load(1, XDATA, add(CFA_XSP16, literal(-4)))
          CFI (cfiCond168) ?BRET_EXT load(1, XDATA, add(CFA_XSP16, literal(-3)))
          CFI (cfiCond168) DPL0 load(1, XDATA, add(CFA_XSP16, literal(-2)))
          CFI (cfiCond168) DPH0 load(1, XDATA, add(CFA_XSP16, literal(-1)))
          CFI (cfiCond168) CFA_SP SP+-2
          CFI (cfiCond168) CFA_XSP16 add(XSP16, 12)
          CFI Block cfiCond169 Using cfiCommon0
          CFI (cfiCond169) Function afEndPoints
          CFI (cfiCond169) Conditional ??CrossCallReturnLabel_100
          CFI (cfiCond169) DPL0 Frame(CFA_SP, 4)
          CFI (cfiCond169) DPH0 Frame(CFA_SP, 5)
          CFI (cfiCond169) CFA_SP SP+-7
          CFI Block cfiPicker170 Using cfiCommon1
          CFI (cfiPicker170) NoFunction
          CFI (cfiPicker170) Picker
        INC       DPTR
        INC       DPTR
        MOVX      A,@DPTR
        MOV       R0,A
          CFI EndBlock cfiCond166
          CFI EndBlock cfiCond167
          CFI EndBlock cfiCond168
          CFI EndBlock cfiCond169
          CFI EndBlock cfiPicker170
        REQUIRE ??Subroutine40_0
        ; // Fall through to label ??Subroutine40_0

        RSEG BANKED_CODE:HUGECODE:NOROOT(0)
??Subroutine40_0:
          CFI Block cfiCond171 Using cfiCommon0
          CFI Function afIncomingData
          CFI Conditional ??CrossCallReturnLabel_93
          CFI R6 load(1, XDATA, add(CFA_XSP16, literal(-24)))
          CFI VB load(1, XDATA, add(CFA_XSP16, literal(-23)))
          CFI V0 load(1, XDATA, add(CFA_XSP16, literal(-22)))
          CFI V1 load(1, XDATA, add(CFA_XSP16, literal(-21)))
          CFI V2 load(1, XDATA, add(CFA_XSP16, literal(-20)))
          CFI V3 load(1, XDATA, add(CFA_XSP16, literal(-19)))
          CFI V4 load(1, XDATA, add(CFA_XSP16, literal(-18)))
          CFI V5 load(1, XDATA, add(CFA_XSP16, literal(-17)))
          CFI V6 load(1, XDATA, add(CFA_XSP16, literal(-16)))
          CFI V7 load(1, XDATA, add(CFA_XSP16, literal(-15)))
          CFI V8 load(1, XDATA, add(CFA_XSP16, literal(-14)))
          CFI V9 load(1, XDATA, add(CFA_XSP16, literal(-13)))
          CFI V10 load(1, XDATA, add(CFA_XSP16, literal(-12)))
          CFI V11 load(1, XDATA, add(CFA_XSP16, literal(-11)))
          CFI V12 load(1, XDATA, add(CFA_XSP16, literal(-10)))
          CFI V13 load(1, XDATA, add(CFA_XSP16, literal(-9)))
          CFI V14 load(1, XDATA, add(CFA_XSP16, literal(-8)))
          CFI V15 load(1, XDATA, add(CFA_XSP16, literal(-7)))
          CFI R7 load(1, XDATA, add(CFA_XSP16, literal(-6)))
          CFI ?RET_LOW load(1, XDATA, add(CFA_XSP16, literal(-5)))
          CFI ?RET_HIGH load(1, XDATA, add(CFA_XSP16, literal(-4)))
          CFI ?BRET_EXT load(1, XDATA, add(CFA_XSP16, literal(-3)))
          CFI DPL0 load(1, XDATA, add(CFA_XSP16, literal(-2)))
          CFI DPH0 load(1, XDATA, add(CFA_XSP16, literal(-1)))
          CFI CFA_SP SP+-2
          CFI CFA_XSP16 add(XSP16, 28)
          CFI Block cfiCond172 Using cfiCommon0
          CFI (cfiCond172) Function afIncomingData
          CFI (cfiCond172) Conditional ??CrossCallReturnLabel_94
          CFI (cfiCond172) R6 load(1, XDATA, add(CFA_XSP16, literal(-24)))
          CFI (cfiCond172) VB load(1, XDATA, add(CFA_XSP16, literal(-23)))
          CFI (cfiCond172) V0 load(1, XDATA, add(CFA_XSP16, literal(-22)))
          CFI (cfiCond172) V1 load(1, XDATA, add(CFA_XSP16, literal(-21)))
          CFI (cfiCond172) V2 load(1, XDATA, add(CFA_XSP16, literal(-20)))
          CFI (cfiCond172) V3 load(1, XDATA, add(CFA_XSP16, literal(-19)))
          CFI (cfiCond172) V4 load(1, XDATA, add(CFA_XSP16, literal(-18)))
          CFI (cfiCond172) V5 load(1, XDATA, add(CFA_XSP16, literal(-17)))
          CFI (cfiCond172) V6 load(1, XDATA, add(CFA_XSP16, literal(-16)))
          CFI (cfiCond172) V7 load(1, XDATA, add(CFA_XSP16, literal(-15)))
          CFI (cfiCond172) V8 load(1, XDATA, add(CFA_XSP16, literal(-14)))
          CFI (cfiCond172) V9 load(1, XDATA, add(CFA_XSP16, literal(-13)))
          CFI (cfiCond172) V10 load(1, XDATA, add(CFA_XSP16, literal(-12)))
          CFI (cfiCond172) V11 load(1, XDATA, add(CFA_XSP16, literal(-11)))
          CFI (cfiCond172) V12 load(1, XDATA, add(CFA_XSP16, literal(-10)))
          CFI (cfiCond172) V13 load(1, XDATA, add(CFA_XSP16, literal(-9)))
          CFI (cfiCond172) V14 load(1, XDATA, add(CFA_XSP16, literal(-8)))
          CFI (cfiCond172) V15 load(1, XDATA, add(CFA_XSP16, literal(-7)))
          CFI (cfiCond172) R7 load(1, XDATA, add(CFA_XSP16, literal(-6)))
          CFI (cfiCond172) ?RET_LOW load(1, XDATA, add(CFA_XSP16, literal(-5)))
          CFI (cfiCond172) ?RET_HIGH load(1, XDATA, add(CFA_XSP16, literal(-4)))
          CFI (cfiCond172) ?BRET_EXT load(1, XDATA, add(CFA_XSP16, literal(-3)))
          CFI (cfiCond172) DPL0 load(1, XDATA, add(CFA_XSP16, literal(-2)))
          CFI (cfiCond172) DPH0 load(1, XDATA, add(CFA_XSP16, literal(-1)))
          CFI (cfiCond172) CFA_SP SP+-2
          CFI (cfiCond172) CFA_XSP16 add(XSP16, 28)
          CFI Block cfiCond173 Using cfiCommon0
          CFI (cfiCond173) Function AF_DataRequest
          CFI (cfiCond173) Conditional ??CrossCallReturnLabel_95
          CFI (cfiCond173) R6 load(1, XDATA, add(CFA_XSP16, literal(-18)))
          CFI (cfiCond173) VB load(1, XDATA, add(CFA_XSP16, literal(-17)))
          CFI (cfiCond173) V0 load(1, XDATA, add(CFA_XSP16, literal(-16)))
          CFI (cfiCond173) V1 load(1, XDATA, add(CFA_XSP16, literal(-15)))
          CFI (cfiCond173) V2 load(1, XDATA, add(CFA_XSP16, literal(-14)))
          CFI (cfiCond173) V3 load(1, XDATA, add(CFA_XSP16, literal(-13)))
          CFI (cfiCond173) V4 load(1, XDATA, add(CFA_XSP16, literal(-12)))
          CFI (cfiCond173) V5 load(1, XDATA, add(CFA_XSP16, literal(-11)))
          CFI (cfiCond173) V6 load(1, XDATA, add(CFA_XSP16, literal(-10)))
          CFI (cfiCond173) V7 load(1, XDATA, add(CFA_XSP16, literal(-9)))
          CFI (cfiCond173) V8 load(1, XDATA, add(CFA_XSP16, literal(-8)))
          CFI (cfiCond173) V9 load(1, XDATA, add(CFA_XSP16, literal(-7)))
          CFI (cfiCond173) R7 load(1, XDATA, add(CFA_XSP16, literal(-6)))
          CFI (cfiCond173) ?RET_LOW load(1, XDATA, add(CFA_XSP16, literal(-5)))
          CFI (cfiCond173) ?RET_HIGH load(1, XDATA, add(CFA_XSP16, literal(-4)))
          CFI (cfiCond173) ?BRET_EXT load(1, XDATA, add(CFA_XSP16, literal(-3)))
          CFI (cfiCond173) DPL0 load(1, XDATA, add(CFA_XSP16, literal(-2)))
          CFI (cfiCond173) DPH0 load(1, XDATA, add(CFA_XSP16, literal(-1)))
          CFI (cfiCond173) CFA_SP SP+-2
          CFI (cfiCond173) CFA_XSP16 add(XSP16, 50)
          CFI Block cfiCond174 Using cfiCommon0
          CFI (cfiCond174) Function AF_DataRequest
          CFI (cfiCond174) Conditional ??CrossCallReturnLabel_96
          CFI (cfiCond174) R6 load(1, XDATA, add(CFA_XSP16, literal(-18)))
          CFI (cfiCond174) VB load(1, XDATA, add(CFA_XSP16, literal(-17)))
          CFI (cfiCond174) V0 load(1, XDATA, add(CFA_XSP16, literal(-16)))
          CFI (cfiCond174) V1 load(1, XDATA, add(CFA_XSP16, literal(-15)))
          CFI (cfiCond174) V2 load(1, XDATA, add(CFA_XSP16, literal(-14)))
          CFI (cfiCond174) V3 load(1, XDATA, add(CFA_XSP16, literal(-13)))
          CFI (cfiCond174) V4 load(1, XDATA, add(CFA_XSP16, literal(-12)))
          CFI (cfiCond174) V5 load(1, XDATA, add(CFA_XSP16, literal(-11)))
          CFI (cfiCond174) V6 load(1, XDATA, add(CFA_XSP16, literal(-10)))
          CFI (cfiCond174) V7 load(1, XDATA, add(CFA_XSP16, literal(-9)))
          CFI (cfiCond174) V8 load(1, XDATA, add(CFA_XSP16, literal(-8)))
          CFI (cfiCond174) V9 load(1, XDATA, add(CFA_XSP16, literal(-7)))
          CFI (cfiCond174) R7 load(1, XDATA, add(CFA_XSP16, literal(-6)))
          CFI (cfiCond174) ?RET_LOW load(1, XDATA, add(CFA_XSP16, literal(-5)))
          CFI (cfiCond174) ?RET_HIGH load(1, XDATA, add(CFA_XSP16, literal(-4)))
          CFI (cfiCond174) ?BRET_EXT load(1, XDATA, add(CFA_XSP16, literal(-3)))
          CFI (cfiCond174) DPL0 load(1, XDATA, add(CFA_XSP16, literal(-2)))
          CFI (cfiCond174) DPH0 load(1, XDATA, add(CFA_XSP16, literal(-1)))
          CFI (cfiCond174) CFA_SP SP+-2
          CFI (cfiCond174) CFA_XSP16 add(XSP16, 50)
          CFI Block cfiCond175 Using cfiCommon0
          CFI (cfiCond175) Function afFindEndPointDescList
          CFI (cfiCond175) Conditional ??CrossCallReturnLabel_97
          CFI (cfiCond175) DPL0 Frame(CFA_SP, 4)
          CFI (cfiCond175) DPH0 Frame(CFA_SP, 5)
          CFI (cfiCond175) CFA_SP SP+-7
          CFI Block cfiCond176 Using cfiCommon0
          CFI (cfiCond176) Function afFindSimpleDesc
          CFI (cfiCond176) Conditional ??CrossCallReturnLabel_98
          CFI (cfiCond176) R6 load(1, XDATA, add(CFA_XSP16, literal(-12)))
          CFI (cfiCond176) VB load(1, XDATA, add(CFA_XSP16, literal(-11)))
          CFI (cfiCond176) V0 load(1, XDATA, add(CFA_XSP16, literal(-10)))
          CFI (cfiCond176) V1 load(1, XDATA, add(CFA_XSP16, literal(-9)))
          CFI (cfiCond176) V2 load(1, XDATA, add(CFA_XSP16, literal(-8)))
          CFI (cfiCond176) V3 load(1, XDATA, add(CFA_XSP16, literal(-7)))
          CFI (cfiCond176) R7 load(1, XDATA, add(CFA_XSP16, literal(-6)))
          CFI (cfiCond176) ?RET_LOW load(1, XDATA, add(CFA_XSP16, literal(-5)))
          CFI (cfiCond176) ?RET_HIGH load(1, XDATA, add(CFA_XSP16, literal(-4)))
          CFI (cfiCond176) ?BRET_EXT load(1, XDATA, add(CFA_XSP16, literal(-3)))
          CFI (cfiCond176) DPL0 load(1, XDATA, add(CFA_XSP16, literal(-2)))
          CFI (cfiCond176) DPH0 load(1, XDATA, add(CFA_XSP16, literal(-1)))
          CFI (cfiCond176) CFA_SP SP+-2
          CFI (cfiCond176) CFA_XSP16 add(XSP16, 12)
          CFI Block cfiCond177 Using cfiCommon0
          CFI (cfiCond177) Function afFindSimpleDesc
          CFI (cfiCond177) Conditional ??CrossCallReturnLabel_99
          CFI (cfiCond177) R6 load(1, XDATA, add(CFA_XSP16, literal(-12)))
          CFI (cfiCond177) VB load(1, XDATA, add(CFA_XSP16, literal(-11)))
          CFI (cfiCond177) V0 load(1, XDATA, add(CFA_XSP16, literal(-10)))
          CFI (cfiCond177) V1 load(1, XDATA, add(CFA_XSP16, literal(-9)))
          CFI (cfiCond177) V2 load(1, XDATA, add(CFA_XSP16, literal(-8)))
          CFI (cfiCond177) V3 load(1, XDATA, add(CFA_XSP16, literal(-7)))
          CFI (cfiCond177) R7 load(1, XDATA, add(CFA_XSP16, literal(-6)))
          CFI (cfiCond177) ?RET_LOW load(1, XDATA, add(CFA_XSP16, literal(-5)))
          CFI (cfiCond177) ?RET_HIGH load(1, XDATA, add(CFA_XSP16, literal(-4)))
          CFI (cfiCond177) ?BRET_EXT load(1, XDATA, add(CFA_XSP16, literal(-3)))
          CFI (cfiCond177) DPL0 load(1, XDATA, add(CFA_XSP16, literal(-2)))
          CFI (cfiCond177) DPH0 load(1, XDATA, add(CFA_XSP16, literal(-1)))
          CFI (cfiCond177) CFA_SP SP+-2
          CFI (cfiCond177) CFA_XSP16 add(XSP16, 12)
          CFI Block cfiCond178 Using cfiCommon0
          CFI (cfiCond178) Function afEndPoints
          CFI (cfiCond178) Conditional ??CrossCallReturnLabel_100
          CFI (cfiCond178) DPL0 Frame(CFA_SP, 4)
          CFI (cfiCond178) DPH0 Frame(CFA_SP, 5)
          CFI (cfiCond178) CFA_SP SP+-7
          CFI Block cfiPicker179 Using cfiCommon1
          CFI (cfiPicker179) NoFunction
          CFI (cfiPicker179) Picker
        INC       DPTR
          CFI EndBlock cfiCond171
          CFI EndBlock cfiCond172
          CFI EndBlock cfiCond173
          CFI EndBlock cfiCond174
          CFI EndBlock cfiCond175
          CFI EndBlock cfiCond176
          CFI EndBlock cfiCond177
          CFI EndBlock cfiCond178
          CFI EndBlock cfiPicker179
        REQUIRE ??Subroutine41_0
        ; // Fall through to label ??Subroutine41_0

        RSEG BANKED_CODE:HUGECODE:NOROOT(0)
??Subroutine41_0:
          CFI Block cfiCond180 Using cfiCommon0
          CFI Function AF_DataRequest
          CFI Conditional ??CrossCallReturnLabel_92
          CFI R6 load(1, XDATA, add(CFA_XSP16, literal(-18)))
          CFI VB load(1, XDATA, add(CFA_XSP16, literal(-17)))
          CFI V0 load(1, XDATA, add(CFA_XSP16, literal(-16)))
          CFI V1 load(1, XDATA, add(CFA_XSP16, literal(-15)))
          CFI V2 load(1, XDATA, add(CFA_XSP16, literal(-14)))
          CFI V3 load(1, XDATA, add(CFA_XSP16, literal(-13)))
          CFI V4 load(1, XDATA, add(CFA_XSP16, literal(-12)))
          CFI V5 load(1, XDATA, add(CFA_XSP16, literal(-11)))
          CFI V6 load(1, XDATA, add(CFA_XSP16, literal(-10)))
          CFI V7 load(1, XDATA, add(CFA_XSP16, literal(-9)))
          CFI V8 load(1, XDATA, add(CFA_XSP16, literal(-8)))
          CFI V9 load(1, XDATA, add(CFA_XSP16, literal(-7)))
          CFI R7 load(1, XDATA, add(CFA_XSP16, literal(-6)))
          CFI ?RET_LOW load(1, XDATA, add(CFA_XSP16, literal(-5)))
          CFI ?RET_HIGH load(1, XDATA, add(CFA_XSP16, literal(-4)))
          CFI ?BRET_EXT load(1, XDATA, add(CFA_XSP16, literal(-3)))
          CFI DPL0 load(1, XDATA, add(CFA_XSP16, literal(-2)))
          CFI DPH0 load(1, XDATA, add(CFA_XSP16, literal(-1)))
          CFI CFA_SP SP+-2
          CFI CFA_XSP16 add(XSP16, 50)
          CFI Block cfiCond181 Using cfiCommon0
          CFI (cfiCond181) Function afIncomingData
          CFI (cfiCond181) Conditional ??CrossCallReturnLabel_93
          CFI (cfiCond181) R6 load(1, XDATA, add(CFA_XSP16, literal(-24)))
          CFI (cfiCond181) VB load(1, XDATA, add(CFA_XSP16, literal(-23)))
          CFI (cfiCond181) V0 load(1, XDATA, add(CFA_XSP16, literal(-22)))
          CFI (cfiCond181) V1 load(1, XDATA, add(CFA_XSP16, literal(-21)))
          CFI (cfiCond181) V2 load(1, XDATA, add(CFA_XSP16, literal(-20)))
          CFI (cfiCond181) V3 load(1, XDATA, add(CFA_XSP16, literal(-19)))
          CFI (cfiCond181) V4 load(1, XDATA, add(CFA_XSP16, literal(-18)))
          CFI (cfiCond181) V5 load(1, XDATA, add(CFA_XSP16, literal(-17)))
          CFI (cfiCond181) V6 load(1, XDATA, add(CFA_XSP16, literal(-16)))
          CFI (cfiCond181) V7 load(1, XDATA, add(CFA_XSP16, literal(-15)))
          CFI (cfiCond181) V8 load(1, XDATA, add(CFA_XSP16, literal(-14)))
          CFI (cfiCond181) V9 load(1, XDATA, add(CFA_XSP16, literal(-13)))
          CFI (cfiCond181) V10 load(1, XDATA, add(CFA_XSP16, literal(-12)))
          CFI (cfiCond181) V11 load(1, XDATA, add(CFA_XSP16, literal(-11)))
          CFI (cfiCond181) V12 load(1, XDATA, add(CFA_XSP16, literal(-10)))
          CFI (cfiCond181) V13 load(1, XDATA, add(CFA_XSP16, literal(-9)))
          CFI (cfiCond181) V14 load(1, XDATA, add(CFA_XSP16, literal(-8)))
          CFI (cfiCond181) V15 load(1, XDATA, add(CFA_XSP16, literal(-7)))
          CFI (cfiCond181) R7 load(1, XDATA, add(CFA_XSP16, literal(-6)))
          CFI (cfiCond181) ?RET_LOW load(1, XDATA, add(CFA_XSP16, literal(-5)))
          CFI (cfiCond181) ?RET_HIGH load(1, XDATA, add(CFA_XSP16, literal(-4)))
          CFI (cfiCond181) ?BRET_EXT load(1, XDATA, add(CFA_XSP16, literal(-3)))
          CFI (cfiCond181) DPL0 load(1, XDATA, add(CFA_XSP16, literal(-2)))
          CFI (cfiCond181) DPH0 load(1, XDATA, add(CFA_XSP16, literal(-1)))
          CFI (cfiCond181) CFA_SP SP+-2
          CFI (cfiCond181) CFA_XSP16 add(XSP16, 28)
          CFI Block cfiCond182 Using cfiCommon0
          CFI (cfiCond182) Function afIncomingData
          CFI (cfiCond182) Conditional ??CrossCallReturnLabel_94
          CFI (cfiCond182) R6 load(1, XDATA, add(CFA_XSP16, literal(-24)))
          CFI (cfiCond182) VB load(1, XDATA, add(CFA_XSP16, literal(-23)))
          CFI (cfiCond182) V0 load(1, XDATA, add(CFA_XSP16, literal(-22)))
          CFI (cfiCond182) V1 load(1, XDATA, add(CFA_XSP16, literal(-21)))
          CFI (cfiCond182) V2 load(1, XDATA, add(CFA_XSP16, literal(-20)))
          CFI (cfiCond182) V3 load(1, XDATA, add(CFA_XSP16, literal(-19)))
          CFI (cfiCond182) V4 load(1, XDATA, add(CFA_XSP16, literal(-18)))
          CFI (cfiCond182) V5 load(1, XDATA, add(CFA_XSP16, literal(-17)))
          CFI (cfiCond182) V6 load(1, XDATA, add(CFA_XSP16, literal(-16)))
          CFI (cfiCond182) V7 load(1, XDATA, add(CFA_XSP16, literal(-15)))
          CFI (cfiCond182) V8 load(1, XDATA, add(CFA_XSP16, literal(-14)))
          CFI (cfiCond182) V9 load(1, XDATA, add(CFA_XSP16, literal(-13)))
          CFI (cfiCond182) V10 load(1, XDATA, add(CFA_XSP16, literal(-12)))
          CFI (cfiCond182) V11 load(1, XDATA, add(CFA_XSP16, literal(-11)))
          CFI (cfiCond182) V12 load(1, XDATA, add(CFA_XSP16, literal(-10)))
          CFI (cfiCond182) V13 load(1, XDATA, add(CFA_XSP16, literal(-9)))
          CFI (cfiCond182) V14 load(1, XDATA, add(CFA_XSP16, literal(-8)))
          CFI (cfiCond182) V15 load(1, XDATA, add(CFA_XSP16, literal(-7)))
          CFI (cfiCond182) R7 load(1, XDATA, add(CFA_XSP16, literal(-6)))
          CFI (cfiCond182) ?RET_LOW load(1, XDATA, add(CFA_XSP16, literal(-5)))
          CFI (cfiCond182) ?RET_HIGH load(1, XDATA, add(CFA_XSP16, literal(-4)))
          CFI (cfiCond182) ?BRET_EXT load(1, XDATA, add(CFA_XSP16, literal(-3)))
          CFI (cfiCond182) DPL0 load(1, XDATA, add(CFA_XSP16, literal(-2)))
          CFI (cfiCond182) DPH0 load(1, XDATA, add(CFA_XSP16, literal(-1)))
          CFI (cfiCond182) CFA_SP SP+-2
          CFI (cfiCond182) CFA_XSP16 add(XSP16, 28)
          CFI Block cfiCond183 Using cfiCommon0
          CFI (cfiCond183) Function AF_DataRequest
          CFI (cfiCond183) Conditional ??CrossCallReturnLabel_95
          CFI (cfiCond183) R6 load(1, XDATA, add(CFA_XSP16, literal(-18)))
          CFI (cfiCond183) VB load(1, XDATA, add(CFA_XSP16, literal(-17)))
          CFI (cfiCond183) V0 load(1, XDATA, add(CFA_XSP16, literal(-16)))
          CFI (cfiCond183) V1 load(1, XDATA, add(CFA_XSP16, literal(-15)))
          CFI (cfiCond183) V2 load(1, XDATA, add(CFA_XSP16, literal(-14)))
          CFI (cfiCond183) V3 load(1, XDATA, add(CFA_XSP16, literal(-13)))
          CFI (cfiCond183) V4 load(1, XDATA, add(CFA_XSP16, literal(-12)))
          CFI (cfiCond183) V5 load(1, XDATA, add(CFA_XSP16, literal(-11)))
          CFI (cfiCond183) V6 load(1, XDATA, add(CFA_XSP16, literal(-10)))
          CFI (cfiCond183) V7 load(1, XDATA, add(CFA_XSP16, literal(-9)))
          CFI (cfiCond183) V8 load(1, XDATA, add(CFA_XSP16, literal(-8)))
          CFI (cfiCond183) V9 load(1, XDATA, add(CFA_XSP16, literal(-7)))
          CFI (cfiCond183) R7 load(1, XDATA, add(CFA_XSP16, literal(-6)))
          CFI (cfiCond183) ?RET_LOW load(1, XDATA, add(CFA_XSP16, literal(-5)))
          CFI (cfiCond183) ?RET_HIGH load(1, XDATA, add(CFA_XSP16, literal(-4)))
          CFI (cfiCond183) ?BRET_EXT load(1, XDATA, add(CFA_XSP16, literal(-3)))
          CFI (cfiCond183) DPL0 load(1, XDATA, add(CFA_XSP16, literal(-2)))
          CFI (cfiCond183) DPH0 load(1, XDATA, add(CFA_XSP16, literal(-1)))
          CFI (cfiCond183) CFA_SP SP+-2
          CFI (cfiCond183) CFA_XSP16 add(XSP16, 50)
          CFI Block cfiCond184 Using cfiCommon0
          CFI (cfiCond184) Function AF_DataRequest
          CFI (cfiCond184) Conditional ??CrossCallReturnLabel_96
          CFI (cfiCond184) R6 load(1, XDATA, add(CFA_XSP16, literal(-18)))
          CFI (cfiCond184) VB load(1, XDATA, add(CFA_XSP16, literal(-17)))
          CFI (cfiCond184) V0 load(1, XDATA, add(CFA_XSP16, literal(-16)))
          CFI (cfiCond184) V1 load(1, XDATA, add(CFA_XSP16, literal(-15)))
          CFI (cfiCond184) V2 load(1, XDATA, add(CFA_XSP16, literal(-14)))
          CFI (cfiCond184) V3 load(1, XDATA, add(CFA_XSP16, literal(-13)))
          CFI (cfiCond184) V4 load(1, XDATA, add(CFA_XSP16, literal(-12)))
          CFI (cfiCond184) V5 load(1, XDATA, add(CFA_XSP16, literal(-11)))
          CFI (cfiCond184) V6 load(1, XDATA, add(CFA_XSP16, literal(-10)))
          CFI (cfiCond184) V7 load(1, XDATA, add(CFA_XSP16, literal(-9)))
          CFI (cfiCond184) V8 load(1, XDATA, add(CFA_XSP16, literal(-8)))
          CFI (cfiCond184) V9 load(1, XDATA, add(CFA_XSP16, literal(-7)))
          CFI (cfiCond184) R7 load(1, XDATA, add(CFA_XSP16, literal(-6)))
          CFI (cfiCond184) ?RET_LOW load(1, XDATA, add(CFA_XSP16, literal(-5)))
          CFI (cfiCond184) ?RET_HIGH load(1, XDATA, add(CFA_XSP16, literal(-4)))
          CFI (cfiCond184) ?BRET_EXT load(1, XDATA, add(CFA_XSP16, literal(-3)))
          CFI (cfiCond184) DPL0 load(1, XDATA, add(CFA_XSP16, literal(-2)))
          CFI (cfiCond184) DPH0 load(1, XDATA, add(CFA_XSP16, literal(-1)))
          CFI (cfiCond184) CFA_SP SP+-2
          CFI (cfiCond184) CFA_XSP16 add(XSP16, 50)
          CFI Block cfiCond185 Using cfiCommon0
          CFI (cfiCond185) Function afFindEndPointDescList
          CFI (cfiCond185) Conditional ??CrossCallReturnLabel_97
          CFI (cfiCond185) DPL0 Frame(CFA_SP, 4)
          CFI (cfiCond185) DPH0 Frame(CFA_SP, 5)
          CFI (cfiCond185) CFA_SP SP+-7
          CFI Block cfiCond186 Using cfiCommon0
          CFI (cfiCond186) Function afFindSimpleDesc
          CFI (cfiCond186) Conditional ??CrossCallReturnLabel_98
          CFI (cfiCond186) R6 load(1, XDATA, add(CFA_XSP16, literal(-12)))
          CFI (cfiCond186) VB load(1, XDATA, add(CFA_XSP16, literal(-11)))
          CFI (cfiCond186) V0 load(1, XDATA, add(CFA_XSP16, literal(-10)))
          CFI (cfiCond186) V1 load(1, XDATA, add(CFA_XSP16, literal(-9)))
          CFI (cfiCond186) V2 load(1, XDATA, add(CFA_XSP16, literal(-8)))
          CFI (cfiCond186) V3 load(1, XDATA, add(CFA_XSP16, literal(-7)))
          CFI (cfiCond186) R7 load(1, XDATA, add(CFA_XSP16, literal(-6)))
          CFI (cfiCond186) ?RET_LOW load(1, XDATA, add(CFA_XSP16, literal(-5)))
          CFI (cfiCond186) ?RET_HIGH load(1, XDATA, add(CFA_XSP16, literal(-4)))
          CFI (cfiCond186) ?BRET_EXT load(1, XDATA, add(CFA_XSP16, literal(-3)))
          CFI (cfiCond186) DPL0 load(1, XDATA, add(CFA_XSP16, literal(-2)))
          CFI (cfiCond186) DPH0 load(1, XDATA, add(CFA_XSP16, literal(-1)))
          CFI (cfiCond186) CFA_SP SP+-2
          CFI (cfiCond186) CFA_XSP16 add(XSP16, 12)
          CFI Block cfiCond187 Using cfiCommon0
          CFI (cfiCond187) Function afFindSimpleDesc
          CFI (cfiCond187) Conditional ??CrossCallReturnLabel_99
          CFI (cfiCond187) R6 load(1, XDATA, add(CFA_XSP16, literal(-12)))
          CFI (cfiCond187) VB load(1, XDATA, add(CFA_XSP16, literal(-11)))
          CFI (cfiCond187) V0 load(1, XDATA, add(CFA_XSP16, literal(-10)))
          CFI (cfiCond187) V1 load(1, XDATA, add(CFA_XSP16, literal(-9)))
          CFI (cfiCond187) V2 load(1, XDATA, add(CFA_XSP16, literal(-8)))
          CFI (cfiCond187) V3 load(1, XDATA, add(CFA_XSP16, literal(-7)))
          CFI (cfiCond187) R7 load(1, XDATA, add(CFA_XSP16, literal(-6)))
          CFI (cfiCond187) ?RET_LOW load(1, XDATA, add(CFA_XSP16, literal(-5)))
          CFI (cfiCond187) ?RET_HIGH load(1, XDATA, add(CFA_XSP16, literal(-4)))
          CFI (cfiCond187) ?BRET_EXT load(1, XDATA, add(CFA_XSP16, literal(-3)))
          CFI (cfiCond187) DPL0 load(1, XDATA, add(CFA_XSP16, literal(-2)))
          CFI (cfiCond187) DPH0 load(1, XDATA, add(CFA_XSP16, literal(-1)))
          CFI (cfiCond187) CFA_SP SP+-2
          CFI (cfiCond187) CFA_XSP16 add(XSP16, 12)
          CFI Block cfiCond188 Using cfiCommon0
          CFI (cfiCond188) Function afEndPoints
          CFI (cfiCond188) Conditional ??CrossCallReturnLabel_100
          CFI (cfiCond188) DPL0 Frame(CFA_SP, 4)
          CFI (cfiCond188) DPH0 Frame(CFA_SP, 5)
          CFI (cfiCond188) CFA_SP SP+-7
          CFI Block cfiPicker189 Using cfiCommon1
          CFI (cfiPicker189) NoFunction
          CFI (cfiPicker189) Picker
        MOVX      A,@DPTR
        MOV       DPH,A
        MOV       DPL,R0
        RET
          CFI EndBlock cfiCond180
          CFI EndBlock cfiCond181
          CFI EndBlock cfiCond182
          CFI EndBlock cfiCond183
          CFI EndBlock cfiCond184
          CFI EndBlock cfiCond185
          CFI EndBlock cfiCond186
          CFI EndBlock cfiCond187
          CFI EndBlock cfiCond188
          CFI EndBlock cfiPicker189

        RSEG BANKED_CODE:HUGECODE:NOROOT(0)
?Subroutine7:
          CFI Block cfiCond190 Using cfiCommon0
          CFI Function afDelete
          CFI Conditional ??CrossCallReturnLabel_5
          CFI R6 load(1, XDATA, add(CFA_XSP16, literal(-9)))
          CFI VB load(1, XDATA, add(CFA_XSP16, literal(-8)))
          CFI V0 load(1, XDATA, add(CFA_XSP16, literal(-7)))
          CFI R7 load(1, XDATA, add(CFA_XSP16, literal(-6)))
          CFI ?RET_LOW load(1, XDATA, add(CFA_XSP16, literal(-5)))
          CFI ?RET_HIGH load(1, XDATA, add(CFA_XSP16, literal(-4)))
          CFI ?BRET_EXT load(1, XDATA, add(CFA_XSP16, literal(-3)))
          CFI DPL0 load(1, XDATA, add(CFA_XSP16, literal(-2)))
          CFI DPH0 load(1, XDATA, add(CFA_XSP16, literal(-1)))
          CFI CFA_SP SP+-2
          CFI CFA_XSP16 add(XSP16, 9)
          CFI Block cfiCond191 Using cfiCommon0
          CFI (cfiCond191) Function afFindEndPointDescList
          CFI (cfiCond191) Conditional ??CrossCallReturnLabel_6
          CFI (cfiCond191) DPL0 Frame(CFA_SP, 4)
          CFI (cfiCond191) DPH0 Frame(CFA_SP, 5)
          CFI (cfiCond191) CFA_SP SP+-7
          CFI Block cfiCond192 Using cfiCommon0
          CFI (cfiCond192) Function afFindSimpleDesc
          CFI (cfiCond192) Conditional ??CrossCallReturnLabel_7
          CFI (cfiCond192) R6 load(1, XDATA, add(CFA_XSP16, literal(-12)))
          CFI (cfiCond192) VB load(1, XDATA, add(CFA_XSP16, literal(-11)))
          CFI (cfiCond192) V0 load(1, XDATA, add(CFA_XSP16, literal(-10)))
          CFI (cfiCond192) V1 load(1, XDATA, add(CFA_XSP16, literal(-9)))
          CFI (cfiCond192) V2 load(1, XDATA, add(CFA_XSP16, literal(-8)))
          CFI (cfiCond192) V3 load(1, XDATA, add(CFA_XSP16, literal(-7)))
          CFI (cfiCond192) R7 load(1, XDATA, add(CFA_XSP16, literal(-6)))
          CFI (cfiCond192) ?RET_LOW load(1, XDATA, add(CFA_XSP16, literal(-5)))
          CFI (cfiCond192) ?RET_HIGH load(1, XDATA, add(CFA_XSP16, literal(-4)))
          CFI (cfiCond192) ?BRET_EXT load(1, XDATA, add(CFA_XSP16, literal(-3)))
          CFI (cfiCond192) DPL0 load(1, XDATA, add(CFA_XSP16, literal(-2)))
          CFI (cfiCond192) DPH0 load(1, XDATA, add(CFA_XSP16, literal(-1)))
          CFI (cfiCond192) CFA_SP SP+-2
          CFI (cfiCond192) CFA_XSP16 add(XSP16, 12)
          CFI Block cfiPicker193 Using cfiCommon1
          CFI (cfiPicker193) NoFunction
          CFI (cfiPicker193) Picker
        MOVX      A,@DPTR
        MOV       R2,A
        INC       DPTR
        MOVX      A,@DPTR
        MOV       R3,A
        MOV       A,R2
        ORL       A,R3
        RET
          CFI EndBlock cfiCond190
          CFI EndBlock cfiCond191
          CFI EndBlock cfiCond192
          CFI EndBlock cfiPicker193
//  863 
//  864 /*********************************************************************
//  865  * @fn      afFindEndPointDesc
//  866  *
//  867  * @brief   Find the endpoint description entry from the endpoint
//  868  *          number.
//  869  *
//  870  * @param   EndPoint - Application Endpoint to look for
//  871  *
//  872  * @return  the address to the endpoint/interface description entry
//  873  */

        RSEG BANKED_CODE:HUGECODE:NOROOT(0)
//  874 endPointDesc_t *afFindEndPointDesc( uint8 EndPoint )
afFindEndPointDesc:
          CFI Block cfiBlock194 Using cfiCommon0
          CFI Function afFindEndPointDesc
        CODE
//  875 {
        FUNCALL afFindEndPointDesc, afFindEndPointDescList
        LOCFRAME ISTACK, 0, STACK
        LOCFRAME PSTACK, 0, STACK
        LOCFRAME XSTACK, 10, STACK
        LOCFRAME IOVERLAY, 0, STATIC
        LOCFRAME DOVERLAY, 0, STATIC
        ARGFRAME ISTACK, 0, STACK
        ARGFRAME PSTACK, 0, STACK
        ARGFRAME XSTACK, 10, STACK
        ARGFRAME IOVERLAY, 0, STATIC
        ARGFRAME DOVERLAY, 0, STATIC
        REQUIRE ?V0
        REQUIRE ?V1
        MOV       A,#-0xa
        LCALL     ?BANKED_ENTER_XDATA
          CFI DPH0 load(1, XDATA, add(CFA_XSP16, literal(-1)))
          CFI DPL0 load(1, XDATA, add(CFA_XSP16, literal(-2)))
          CFI ?BRET_EXT load(1, XDATA, add(CFA_XSP16, literal(-3)))
          CFI ?RET_HIGH load(1, XDATA, add(CFA_XSP16, literal(-4)))
          CFI ?RET_LOW load(1, XDATA, add(CFA_XSP16, literal(-5)))
          CFI R7 load(1, XDATA, add(CFA_XSP16, literal(-6)))
          CFI V1 load(1, XDATA, add(CFA_XSP16, literal(-7)))
          CFI V0 load(1, XDATA, add(CFA_XSP16, literal(-8)))
          CFI VB load(1, XDATA, add(CFA_XSP16, literal(-9)))
          CFI R6 load(1, XDATA, add(CFA_XSP16, literal(-10)))
          CFI CFA_SP SP+0
          CFI CFA_XSP16 add(XSP16, 10)
        ; Saved register size: 10
        ; Auto size: 0
//  876   epList_t *epSearch;
//  877 
//  878   // Look for the endpoint
//  879   epSearch = afFindEndPointDescList( EndPoint );
        ; Setup parameters for call to function afFindEndPointDescList
        LCALL     `??afFindEndPointDescList::?relay`; Banked call to: afFindEndPointDescList
        MOV       DPL,R2
        MOV       DPH,R3
//  880 
//  881   if ( epSearch )
        MOV       A,DPL
        ORL       A,DPH
        JZ        ??afFindEndPointDesc_0
//  882     return ( epSearch->epDesc );
        LCALL     ??Subroutine43_0 & 0xFFFF
??CrossCallReturnLabel_107:
        SJMP      ??afFindEndPointDesc_1
//  883   else
//  884     return ( (endPointDesc_t *)NULL );
??afFindEndPointDesc_0:
        MOV       R2,#0x0
        MOV       R3,#0x0
??afFindEndPointDesc_1:
        LJMP      ?Subroutine1 & 0xFFFF
//  885 }
          CFI EndBlock cfiBlock194
//  886 
//  887 /*********************************************************************
//  888  * @fn      afFindSimpleDesc
//  889  *
//  890  * @brief   Find the Simple Descriptor from the endpoint number.
//  891  *
//  892  * @param   EP - Application Endpoint to look for.
//  893  *
//  894  * @return  Non-zero to indicate that the descriptor memory must be freed.
//  895  */

        RSEG BANKED_CODE:HUGECODE:NOROOT(0)
//  896 uint8 afFindSimpleDesc( SimpleDescriptionFormat_t **ppDesc, uint8 EP )
afFindSimpleDesc:
          CFI Block cfiBlock195 Using cfiCommon0
          CFI Function afFindSimpleDesc
        CODE
//  897 {
        FUNCALL afFindSimpleDesc, afFindEndPointDescList
        LOCFRAME ISTACK, 0, STACK
        LOCFRAME PSTACK, 0, STACK
        LOCFRAME XSTACK, 12, STACK
        LOCFRAME IOVERLAY, 0, STATIC
        LOCFRAME DOVERLAY, 0, STATIC
        ARGFRAME ISTACK, 0, STACK
        ARGFRAME PSTACK, 0, STACK
        ARGFRAME XSTACK, 12, STACK
        ARGFRAME IOVERLAY, 0, STATIC
        ARGFRAME DOVERLAY, 0, STATIC
        REQUIRE ?V0
        REQUIRE ?V2
        REQUIRE ?V3
        MOV       A,#-0xc
        LCALL     ?BANKED_ENTER_XDATA
          CFI DPH0 load(1, XDATA, add(CFA_XSP16, literal(-1)))
          CFI DPL0 load(1, XDATA, add(CFA_XSP16, literal(-2)))
          CFI ?BRET_EXT load(1, XDATA, add(CFA_XSP16, literal(-3)))
          CFI ?RET_HIGH load(1, XDATA, add(CFA_XSP16, literal(-4)))
          CFI ?RET_LOW load(1, XDATA, add(CFA_XSP16, literal(-5)))
          CFI R7 load(1, XDATA, add(CFA_XSP16, literal(-6)))
          CFI V3 load(1, XDATA, add(CFA_XSP16, literal(-7)))
          CFI V2 load(1, XDATA, add(CFA_XSP16, literal(-8)))
          CFI V1 load(1, XDATA, add(CFA_XSP16, literal(-9)))
          CFI V0 load(1, XDATA, add(CFA_XSP16, literal(-10)))
          CFI VB load(1, XDATA, add(CFA_XSP16, literal(-11)))
          CFI R6 load(1, XDATA, add(CFA_XSP16, literal(-12)))
          CFI CFA_SP SP+0
          CFI CFA_XSP16 add(XSP16, 12)
        ; Saved register size: 12
        ; Auto size: 0
        MOV       A,R2
        MOV       R6,A
        MOV       A,R3
        MOV       R7,A
        MOV       ?V0,R1
//  898   epList_t *epItem = afFindEndPointDescList( EP );
        ; Setup parameters for call to function afFindEndPointDescList
        LCALL     `??afFindEndPointDescList::?relay`; Banked call to: afFindEndPointDescList
        MOV       ?V2,R2
        MOV       ?V3,R3
        MOV       R4,?V2
        MOV       R5,?V3
//  899   uint8 rtrn = FALSE;
        MOV       R1,#0x0
//  900 
//  901   if ( epItem )
        MOV       A,R4
        ORL       A,R5
        JZ        ??afFindSimpleDesc_0
//  902   {
//  903     if ( epItem->pfnDescCB )
        MOV       DPL,R4
        MOV       DPH,R5
        INC       DPTR
        INC       DPTR
        INC       DPTR
        INC       DPTR
        LCALL     ?Subroutine7 & 0xFFFF
??CrossCallReturnLabel_7:
        JZ        ??afFindSimpleDesc_1
//  904     {
//  905       *ppDesc = epItem->pfnDescCB( AF_DESCRIPTOR_SIMPLE, EP );
        ; Setup parameters for indirect call
        MOV       R2,?V0
        INC       R1
        MOV       DPL,R4
        MOV       DPH,R5
        INC       DPTR
        INC       DPTR
        LCALL     ??Subroutine39_0 & 0xFFFF
??CrossCallReturnLabel_98:
        LCALL     ?CALL_IND
        MOV       DPL,R6
        MOV       DPH,R7
        MOV       A,R2
        MOVX      @DPTR,A
        INC       DPTR
        MOV       A,R3
        MOVX      @DPTR,A
//  906       rtrn = TRUE;
        MOV       R1,#0x1
        SJMP      ??afFindSimpleDesc_2
//  907     }
//  908     else
//  909     {
//  910       *ppDesc = epItem->epDesc->simpleDesc;
??afFindSimpleDesc_1:
        LCALL     ?Subroutine11 & 0xFFFF
//  911     }
//  912   }
??CrossCallReturnLabel_99:
        LCALL     ??Subroutine42_0 & 0xFFFF
??CrossCallReturnLabel_108:
        MOV       DPL,R6
        MOV       DPH,R7
        MOV       A,R2
        MOVX      @DPTR,A
        INC       DPTR
        MOV       A,R3
        SJMP      ??afFindSimpleDesc_3
//  913   else
//  914   {
//  915     *ppDesc = NULL;
??afFindSimpleDesc_0:
        MOV       DPL,R6
        MOV       DPH,R7
        CLR       A
        MOVX      @DPTR,A
        INC       DPTR
??afFindSimpleDesc_3:
        MOVX      @DPTR,A
//  916   }
//  917 
//  918   return rtrn;
??afFindSimpleDesc_2:
        LJMP      ?Subroutine0 & 0xFFFF
//  919 }
          CFI EndBlock cfiBlock195
//  920 
//  921 /*********************************************************************
//  922  * @fn      afGetDescCB
//  923  *
//  924  * @brief   Get the Descriptor callback function.
//  925  *
//  926  * @param   epDesc - pointer to the endpoint descriptor
//  927  *
//  928  * @return  function pointer or NULL
//  929  */
//  930 static pDescCB afGetDescCB( endPointDesc_t *epDesc )
//  931 {
//  932   epList_t *epSearch;
//  933 
//  934   // Start at the beginning
//  935   epSearch = epList;
//  936 
//  937   // Look through the list until the end
//  938   while ( epSearch )
//  939   {
//  940     // Is there a match?
//  941     if ( epSearch->epDesc == epDesc )
//  942     {
//  943       return ( epSearch->pfnDescCB );
//  944     }
//  945     else
//  946       epSearch = epSearch->nextDesc;  // Next entry
//  947   }
//  948 
//  949   return ( (pDescCB)NULL );
//  950 }
//  951 
//  952 /*********************************************************************
//  953  * @fn      afDataReqMTU
//  954  *
//  955  * @brief   Get the Data Request MTU(Max Transport Unit).
//  956  *
//  957  * @param   fields - afDataReqMTU_t
//  958  *
//  959  * @return  uint8(MTU)
//  960  */

        RSEG BANKED_CODE:HUGECODE:NOROOT(0)
//  961 uint8 afDataReqMTU( afDataReqMTU_t* fields )
afDataReqMTU:
          CFI Block cfiBlock196 Using cfiCommon0
          CFI Function afDataReqMTU
        CODE
//  962 {
        FUNCALL afDataReqMTU, APSDE_DataReqMTU
        LOCFRAME ISTACK, 0, STACK
        LOCFRAME PSTACK, 0, STACK
        LOCFRAME XSTACK, 9, STACK
        LOCFRAME IOVERLAY, 0, STATIC
        LOCFRAME DOVERLAY, 0, STATIC
        ARGFRAME ISTACK, 0, STACK
        ARGFRAME PSTACK, 0, STACK
        ARGFRAME XSTACK, 9, STACK
        ARGFRAME IOVERLAY, 0, STATIC
        ARGFRAME DOVERLAY, 0, STATIC
        MOV       A,#-0x9
        LCALL     ?BANKED_ENTER_XDATA
          CFI DPH0 load(1, XDATA, add(CFA_XSP16, literal(-1)))
          CFI DPL0 load(1, XDATA, add(CFA_XSP16, literal(-2)))
          CFI ?BRET_EXT load(1, XDATA, add(CFA_XSP16, literal(-3)))
          CFI ?RET_HIGH load(1, XDATA, add(CFA_XSP16, literal(-4)))
          CFI ?RET_LOW load(1, XDATA, add(CFA_XSP16, literal(-5)))
          CFI R7 load(1, XDATA, add(CFA_XSP16, literal(-6)))
          CFI V0 load(1, XDATA, add(CFA_XSP16, literal(-7)))
          CFI VB load(1, XDATA, add(CFA_XSP16, literal(-8)))
          CFI R6 load(1, XDATA, add(CFA_XSP16, literal(-9)))
          CFI CFA_SP SP+0
          CFI CFA_XSP16 add(XSP16, 9)
        ; Saved register size: 9
        ; Auto size: 0
//  963   uint8 len;
//  964   uint8 hdr;
//  965 
//  966   if ( fields->kvp == TRUE )
        MOV       DPL,R2
        MOV       DPH,R3
        MOVX      A,@DPTR
        XRL       A,#0x1
        JNZ       ??afDataReqMTU_0
//  967   {
//  968     hdr = AF_HDR_KVP_MAX_LEN;
        MOV       R6,#0x8
        SJMP      ??afDataReqMTU_1
//  969   }
//  970   else
//  971   {
//  972     hdr = AF_HDR_V1_1_MAX_LEN;
??afDataReqMTU_0:
        MOV       R6,#0x0
//  973   }
//  974 
//  975   len = (uint8)(APSDE_DataReqMTU(&fields->aps) - hdr);
//  976 
//  977   return len;
??afDataReqMTU_1:
        ; Setup parameters for call to function APSDE_DataReqMTU
        INC       DPTR
        MOV       R2,DPL
        MOV       R3,DPH
        LCALL     `??APSDE_DataReqMTU::?relay`; Banked call to: APSDE_DataReqMTU
        MOV       A,R1
        CLR       C
        SUBB      A,R6
        MOV       R1,A
        LJMP      ?Subroutine2 & 0xFFFF
//  978 }
          CFI EndBlock cfiBlock196
//  979 
//  980 /*********************************************************************
//  981  * @fn      afGetMatch
//  982  *
//  983  * @brief   Set the allow response flag.
//  984  *
//  985  * @param   ep - Application Endpoint to look for
//  986  * @param   action - true - allow response, false - no response
//  987  *
//  988  * @return  TRUE allow responses, FALSE no response
//  989  */

        RSEG BANKED_CODE:HUGECODE:NOROOT(0)
//  990 uint8 afGetMatch( uint8 ep )
afGetMatch:
          CFI Block cfiBlock197 Using cfiCommon0
          CFI Function afGetMatch
        CODE
//  991 {
        FUNCALL afGetMatch, afFindEndPointDescList
        LOCFRAME ISTACK, 0, STACK
        LOCFRAME PSTACK, 0, STACK
        LOCFRAME XSTACK, 10, STACK
        LOCFRAME IOVERLAY, 0, STATIC
        LOCFRAME DOVERLAY, 0, STATIC
        ARGFRAME ISTACK, 0, STACK
        ARGFRAME PSTACK, 0, STACK
        ARGFRAME XSTACK, 10, STACK
        ARGFRAME IOVERLAY, 0, STATIC
        ARGFRAME DOVERLAY, 0, STATIC
        REQUIRE ?V0
        REQUIRE ?V1
        MOV       A,#-0xa
        LCALL     ?BANKED_ENTER_XDATA
          CFI DPH0 load(1, XDATA, add(CFA_XSP16, literal(-1)))
          CFI DPL0 load(1, XDATA, add(CFA_XSP16, literal(-2)))
          CFI ?BRET_EXT load(1, XDATA, add(CFA_XSP16, literal(-3)))
          CFI ?RET_HIGH load(1, XDATA, add(CFA_XSP16, literal(-4)))
          CFI ?RET_LOW load(1, XDATA, add(CFA_XSP16, literal(-5)))
          CFI R7 load(1, XDATA, add(CFA_XSP16, literal(-6)))
          CFI V1 load(1, XDATA, add(CFA_XSP16, literal(-7)))
          CFI V0 load(1, XDATA, add(CFA_XSP16, literal(-8)))
          CFI VB load(1, XDATA, add(CFA_XSP16, literal(-9)))
          CFI R6 load(1, XDATA, add(CFA_XSP16, literal(-10)))
          CFI CFA_SP SP+0
          CFI CFA_XSP16 add(XSP16, 10)
        ; Saved register size: 10
        ; Auto size: 0
//  992   epList_t *epSearch;
//  993 
//  994   // Look for the endpoint
//  995   epSearch = afFindEndPointDescList( ep );
        ; Setup parameters for call to function afFindEndPointDescList
        LCALL     `??afFindEndPointDescList::?relay`; Banked call to: afFindEndPointDescList
        MOV       DPL,R2
        MOV       DPH,R3
//  996 
//  997   if ( epSearch )
        MOV       A,DPL
        ORL       A,DPH
        JZ        ??afGetMatch_0
//  998   {
//  999     if ( epSearch->flags & eEP_AllowMatch )
        INC       DPTR
        INC       DPTR
        INC       DPTR
        INC       DPTR
        INC       DPTR
        INC       DPTR
        INC       DPTR
        INC       DPTR
        MOVX      A,@DPTR
        MOV       C,0xE0 /* A   */.0
        JNC       ??afGetMatch_0
// 1000       return ( TRUE );
        MOV       R1,#0x1
        SJMP      ??afGetMatch_1
// 1001     else
// 1002       return ( FALSE );
// 1003   }
// 1004   else
// 1005     return ( FALSE );
??afGetMatch_0:
        MOV       R1,#0x0
??afGetMatch_1:
          CFI EndBlock cfiBlock197
        REQUIRE ?Subroutine1
        ; // Fall through to label ?Subroutine1
// 1006 }

        RSEG BANKED_CODE:HUGECODE:NOROOT(0)
?Subroutine1:
          CFI Block cfiBlock198 Using cfiCommon0
          CFI NoFunction
          CFI CFA_SP SP+0
          CFI CFA_XSP16 add(XSP16, 10)
          CFI VB load(1, XDATA, add(CFA_XSP16, literal(-9)))
          CFI DPL0 load(1, XDATA, add(CFA_XSP16, literal(-2)))
          CFI DPH0 load(1, XDATA, add(CFA_XSP16, literal(-1)))
          CFI R6 load(1, XDATA, add(CFA_XSP16, literal(-10)))
          CFI R7 load(1, XDATA, add(CFA_XSP16, literal(-6)))
          CFI V0 load(1, XDATA, add(CFA_XSP16, literal(-8)))
          CFI V1 load(1, XDATA, add(CFA_XSP16, literal(-7)))
          CFI ?BRET_EXT load(1, XDATA, add(CFA_XSP16, literal(-3)))
          CFI ?RET_HIGH load(1, XDATA, add(CFA_XSP16, literal(-4)))
          CFI ?RET_LOW load(1, XDATA, add(CFA_XSP16, literal(-5)))
        MOV       R7,#0x2
        LJMP      ?BANKED_LEAVE_XDATA
          CFI EndBlock cfiBlock198
// 1007 
// 1008 /*********************************************************************
// 1009  * @fn      afSetMatch
// 1010  *
// 1011  * @brief   Set the allow response flag.
// 1012  *
// 1013  * @param   ep - Application Endpoint to look for
// 1014  * @param   action - true - allow response, false - no response
// 1015  *
// 1016  * @return  TRUE if success, FALSE if endpoint not found
// 1017  */

        RSEG BANKED_CODE:HUGECODE:NOROOT(0)
// 1018 uint8 afSetMatch( uint8 ep, uint8 action )
afSetMatch:
          CFI Block cfiBlock199 Using cfiCommon0
          CFI Function afSetMatch
        CODE
// 1019 {
        FUNCALL afSetMatch, afFindEndPointDescList
        LOCFRAME ISTACK, 0, STACK
        LOCFRAME PSTACK, 0, STACK
        LOCFRAME XSTACK, 10, STACK
        LOCFRAME IOVERLAY, 0, STATIC
        LOCFRAME DOVERLAY, 0, STATIC
        ARGFRAME ISTACK, 0, STACK
        ARGFRAME PSTACK, 0, STACK
        ARGFRAME XSTACK, 10, STACK
        ARGFRAME IOVERLAY, 0, STATIC
        ARGFRAME DOVERLAY, 0, STATIC
        REQUIRE ?V0
        REQUIRE ?V1
        MOV       A,#-0xa
        LCALL     ?BANKED_ENTER_XDATA
          CFI DPH0 load(1, XDATA, add(CFA_XSP16, literal(-1)))
          CFI DPL0 load(1, XDATA, add(CFA_XSP16, literal(-2)))
          CFI ?BRET_EXT load(1, XDATA, add(CFA_XSP16, literal(-3)))
          CFI ?RET_HIGH load(1, XDATA, add(CFA_XSP16, literal(-4)))
          CFI ?RET_LOW load(1, XDATA, add(CFA_XSP16, literal(-5)))
          CFI R7 load(1, XDATA, add(CFA_XSP16, literal(-6)))
          CFI V1 load(1, XDATA, add(CFA_XSP16, literal(-7)))
          CFI V0 load(1, XDATA, add(CFA_XSP16, literal(-8)))
          CFI VB load(1, XDATA, add(CFA_XSP16, literal(-9)))
          CFI R6 load(1, XDATA, add(CFA_XSP16, literal(-10)))
          CFI CFA_SP SP+0
          CFI CFA_XSP16 add(XSP16, 10)
        ; Saved register size: 10
        ; Auto size: 0
        MOV       A,R2
        MOV       R7,A
// 1020   epList_t *epSearch;
// 1021 
// 1022   // Look for the endpoint
// 1023   epSearch = afFindEndPointDescList( ep );
        ; Setup parameters for call to function afFindEndPointDescList
        LCALL     `??afFindEndPointDescList::?relay`; Banked call to: afFindEndPointDescList
        MOV       DPL,R2
        MOV       DPH,R3
// 1024 
// 1025   if ( epSearch )
        MOV       A,DPL
        ORL       A,DPH
        JZ        ??afSetMatch_0
// 1026   {
// 1027     if ( action )
        MOV       A,R7
        INC       DPTR
        INC       DPTR
        INC       DPTR
        INC       DPTR
        INC       DPTR
        INC       DPTR
        INC       DPTR
        INC       DPTR
        JZ        ??afSetMatch_1
// 1028     {
// 1029       epSearch->flags |= eEP_AllowMatch;
        MOVX      A,@DPTR
        SETB      0xE0 /* A   */.0
        SJMP      ??afSetMatch_2
// 1030     }
// 1031     else
// 1032     {
// 1033       epSearch->flags &= (eEP_AllowMatch ^ 0xFFFF);
??afSetMatch_1:
        MOVX      A,@DPTR
        CLR       0xE0 /* A   */.0
??afSetMatch_2:
        MOVX      @DPTR,A
// 1034     }
// 1035     return ( TRUE );
        MOV       R1,#0x1
        SJMP      ??afSetMatch_3
// 1036   }
// 1037   else
// 1038     return ( FALSE );
??afSetMatch_0:
        MOV       R1,#0x0
??afSetMatch_3:
        SJMP      ?Subroutine1
// 1039 }
          CFI EndBlock cfiBlock199
// 1040 
// 1041 /*********************************************************************
// 1042  * @fn      afNumEndPoints
// 1043  *
// 1044  * @brief   Returns the number of endpoints defined (including 0)
// 1045  *
// 1046  * @param   none
// 1047  *
// 1048  * @return  number of endpoints
// 1049  */

        RSEG BANKED_CODE:HUGECODE:NOROOT(0)
// 1050 uint8 afNumEndPoints( void )
afNumEndPoints:
          CFI Block cfiBlock200 Using cfiCommon0
          CFI Function afNumEndPoints
        CODE
// 1051 {
        PUSH      DPL
          CFI DPL0 Frame(CFA_SP, 4)
          CFI CFA_SP SP+-4
        PUSH      DPH
          CFI DPH0 Frame(CFA_SP, 5)
          CFI CFA_SP SP+-5
        ; Saved register size: 2
        ; Auto size: 0
// 1052   epList_t *epSearch;
// 1053   uint8 endpoints;
// 1054 
// 1055   // Start at the beginning
// 1056   epSearch = epList;
        MOV       DPTR,#epList
        LCALL     ?Subroutine14 & 0xFFFF
// 1057   endpoints = 0;
??CrossCallReturnLabel_18:
        MOV       R1,#0x0
        SJMP      ??afNumEndPoints_0
// 1058 
// 1059   while ( epSearch )
// 1060   {
// 1061     endpoints++;
??afNumEndPoints_1:
        INC       R1
// 1062     epSearch = epSearch->nextDesc;
        LCALL     ??Subroutine44_0 & 0xFFFF
// 1063   }
??CrossCallReturnLabel_105:
        MOV       DPL,R2
        MOV       DPH,R3
??afNumEndPoints_0:
        MOV       A,DPL
        ORL       A,DPH
        JNZ       ??afNumEndPoints_1
// 1064 
// 1065   return ( endpoints );
        LJMP      ?Subroutine3 & 0xFFFF
// 1066 }
          CFI EndBlock cfiBlock200

        RSEG BANKED_CODE:HUGECODE:NOROOT(0)
?Subroutine14:
          CFI Block cfiCond201 Using cfiCommon0
          CFI Function afBuildMSGIncoming
          CFI Conditional ??CrossCallReturnLabel_17
          CFI R6 load(1, XDATA, add(CFA_XSP16, literal(-19)))
          CFI VB load(1, XDATA, add(CFA_XSP16, literal(-18)))
          CFI V0 load(1, XDATA, add(CFA_XSP16, literal(-17)))
          CFI V1 load(1, XDATA, add(CFA_XSP16, literal(-16)))
          CFI V2 load(1, XDATA, add(CFA_XSP16, literal(-15)))
          CFI V3 load(1, XDATA, add(CFA_XSP16, literal(-14)))
          CFI V4 load(1, XDATA, add(CFA_XSP16, literal(-13)))
          CFI V5 load(1, XDATA, add(CFA_XSP16, literal(-12)))
          CFI V6 load(1, XDATA, add(CFA_XSP16, literal(-11)))
          CFI V7 load(1, XDATA, add(CFA_XSP16, literal(-10)))
          CFI V8 load(1, XDATA, add(CFA_XSP16, literal(-9)))
          CFI V9 load(1, XDATA, add(CFA_XSP16, literal(-8)))
          CFI V10 load(1, XDATA, add(CFA_XSP16, literal(-7)))
          CFI R7 load(1, XDATA, add(CFA_XSP16, literal(-6)))
          CFI ?RET_LOW load(1, XDATA, add(CFA_XSP16, literal(-5)))
          CFI ?RET_HIGH load(1, XDATA, add(CFA_XSP16, literal(-4)))
          CFI ?BRET_EXT load(1, XDATA, add(CFA_XSP16, literal(-3)))
          CFI DPL0 load(1, XDATA, add(CFA_XSP16, literal(-2)))
          CFI DPH0 load(1, XDATA, add(CFA_XSP16, literal(-1)))
          CFI CFA_SP SP+-2
          CFI CFA_XSP16 add(XSP16, 19)
          CFI Block cfiCond202 Using cfiCommon0
          CFI (cfiCond202) Function afNumEndPoints
          CFI (cfiCond202) Conditional ??CrossCallReturnLabel_18
          CFI (cfiCond202) DPL0 Frame(CFA_SP, 4)
          CFI (cfiCond202) DPH0 Frame(CFA_SP, 5)
          CFI (cfiCond202) CFA_SP SP+-7
          CFI Block cfiPicker203 Using cfiCommon1
          CFI (cfiPicker203) NoFunction
          CFI (cfiPicker203) Picker
        LCALL     ?Subroutine31 & 0xFFFF
??CrossCallReturnLabel_85:
        MOV       DPL,R0
        MOV       DPH,R1
        RET
          CFI EndBlock cfiCond201
          CFI EndBlock cfiCond202
          CFI EndBlock cfiPicker203

        RSEG BANKED_CODE:HUGECODE:NOROOT(0)
?Subroutine10:
          CFI Block cfiCond204 Using cfiCommon0
          CFI Function afIncomingData
          CFI Conditional ??CrossCallReturnLabel_109
          CFI R6 load(1, XDATA, add(CFA_XSP16, literal(-24)))
          CFI VB load(1, XDATA, add(CFA_XSP16, literal(-23)))
          CFI V0 load(1, XDATA, add(CFA_XSP16, literal(-22)))
          CFI V1 load(1, XDATA, add(CFA_XSP16, literal(-21)))
          CFI V2 load(1, XDATA, add(CFA_XSP16, literal(-20)))
          CFI V3 load(1, XDATA, add(CFA_XSP16, literal(-19)))
          CFI V4 load(1, XDATA, add(CFA_XSP16, literal(-18)))
          CFI V5 load(1, XDATA, add(CFA_XSP16, literal(-17)))
          CFI V6 load(1, XDATA, add(CFA_XSP16, literal(-16)))
          CFI V7 load(1, XDATA, add(CFA_XSP16, literal(-15)))
          CFI V8 load(1, XDATA, add(CFA_XSP16, literal(-14)))
          CFI V9 load(1, XDATA, add(CFA_XSP16, literal(-13)))
          CFI V10 load(1, XDATA, add(CFA_XSP16, literal(-12)))
          CFI V11 load(1, XDATA, add(CFA_XSP16, literal(-11)))
          CFI V12 load(1, XDATA, add(CFA_XSP16, literal(-10)))
          CFI V13 load(1, XDATA, add(CFA_XSP16, literal(-9)))
          CFI V14 load(1, XDATA, add(CFA_XSP16, literal(-8)))
          CFI V15 load(1, XDATA, add(CFA_XSP16, literal(-7)))
          CFI R7 load(1, XDATA, add(CFA_XSP16, literal(-6)))
          CFI ?RET_LOW load(1, XDATA, add(CFA_XSP16, literal(-5)))
          CFI ?RET_HIGH load(1, XDATA, add(CFA_XSP16, literal(-4)))
          CFI ?BRET_EXT load(1, XDATA, add(CFA_XSP16, literal(-3)))
          CFI DPL0 load(1, XDATA, add(CFA_XSP16, literal(-2)))
          CFI DPH0 load(1, XDATA, add(CFA_XSP16, literal(-1)))
          CFI CFA_SP SP+-2
          CFI CFA_XSP16 add(XSP16, 28)
          CFI Block cfiCond205 Using cfiCommon0
          CFI (cfiCond205) Function afIncomingData
          CFI (cfiCond205) Conditional ??CrossCallReturnLabel_110
          CFI (cfiCond205) R6 load(1, XDATA, add(CFA_XSP16, literal(-24)))
          CFI (cfiCond205) VB load(1, XDATA, add(CFA_XSP16, literal(-23)))
          CFI (cfiCond205) V0 load(1, XDATA, add(CFA_XSP16, literal(-22)))
          CFI (cfiCond205) V1 load(1, XDATA, add(CFA_XSP16, literal(-21)))
          CFI (cfiCond205) V2 load(1, XDATA, add(CFA_XSP16, literal(-20)))
          CFI (cfiCond205) V3 load(1, XDATA, add(CFA_XSP16, literal(-19)))
          CFI (cfiCond205) V4 load(1, XDATA, add(CFA_XSP16, literal(-18)))
          CFI (cfiCond205) V5 load(1, XDATA, add(CFA_XSP16, literal(-17)))
          CFI (cfiCond205) V6 load(1, XDATA, add(CFA_XSP16, literal(-16)))
          CFI (cfiCond205) V7 load(1, XDATA, add(CFA_XSP16, literal(-15)))
          CFI (cfiCond205) V8 load(1, XDATA, add(CFA_XSP16, literal(-14)))
          CFI (cfiCond205) V9 load(1, XDATA, add(CFA_XSP16, literal(-13)))
          CFI (cfiCond205) V10 load(1, XDATA, add(CFA_XSP16, literal(-12)))
          CFI (cfiCond205) V11 load(1, XDATA, add(CFA_XSP16, literal(-11)))
          CFI (cfiCond205) V12 load(1, XDATA, add(CFA_XSP16, literal(-10)))
          CFI (cfiCond205) V13 load(1, XDATA, add(CFA_XSP16, literal(-9)))
          CFI (cfiCond205) V14 load(1, XDATA, add(CFA_XSP16, literal(-8)))
          CFI (cfiCond205) V15 load(1, XDATA, add(CFA_XSP16, literal(-7)))
          CFI (cfiCond205) R7 load(1, XDATA, add(CFA_XSP16, literal(-6)))
          CFI (cfiCond205) ?RET_LOW load(1, XDATA, add(CFA_XSP16, literal(-5)))
          CFI (cfiCond205) ?RET_HIGH load(1, XDATA, add(CFA_XSP16, literal(-4)))
          CFI (cfiCond205) ?BRET_EXT load(1, XDATA, add(CFA_XSP16, literal(-3)))
          CFI (cfiCond205) DPL0 load(1, XDATA, add(CFA_XSP16, literal(-2)))
          CFI (cfiCond205) DPH0 load(1, XDATA, add(CFA_XSP16, literal(-1)))
          CFI (cfiCond205) CFA_SP SP+-2
          CFI (cfiCond205) CFA_XSP16 add(XSP16, 28)
          CFI Block cfiCond206 Using cfiCommon0
          CFI (cfiCond206) Function AF_DataRequest
          CFI (cfiCond206) Conditional ??CrossCallReturnLabel_111
          CFI (cfiCond206) R6 load(1, XDATA, add(CFA_XSP16, literal(-18)))
          CFI (cfiCond206) VB load(1, XDATA, add(CFA_XSP16, literal(-17)))
          CFI (cfiCond206) V0 load(1, XDATA, add(CFA_XSP16, literal(-16)))
          CFI (cfiCond206) V1 load(1, XDATA, add(CFA_XSP16, literal(-15)))
          CFI (cfiCond206) V2 load(1, XDATA, add(CFA_XSP16, literal(-14)))
          CFI (cfiCond206) V3 load(1, XDATA, add(CFA_XSP16, literal(-13)))
          CFI (cfiCond206) V4 load(1, XDATA, add(CFA_XSP16, literal(-12)))
          CFI (cfiCond206) V5 load(1, XDATA, add(CFA_XSP16, literal(-11)))
          CFI (cfiCond206) V6 load(1, XDATA, add(CFA_XSP16, literal(-10)))
          CFI (cfiCond206) V7 load(1, XDATA, add(CFA_XSP16, literal(-9)))
          CFI (cfiCond206) V8 load(1, XDATA, add(CFA_XSP16, literal(-8)))
          CFI (cfiCond206) V9 load(1, XDATA, add(CFA_XSP16, literal(-7)))
          CFI (cfiCond206) R7 load(1, XDATA, add(CFA_XSP16, literal(-6)))
          CFI (cfiCond206) ?RET_LOW load(1, XDATA, add(CFA_XSP16, literal(-5)))
          CFI (cfiCond206) ?RET_HIGH load(1, XDATA, add(CFA_XSP16, literal(-4)))
          CFI (cfiCond206) ?BRET_EXT load(1, XDATA, add(CFA_XSP16, literal(-3)))
          CFI (cfiCond206) DPL0 load(1, XDATA, add(CFA_XSP16, literal(-2)))
          CFI (cfiCond206) DPH0 load(1, XDATA, add(CFA_XSP16, literal(-1)))
          CFI (cfiCond206) CFA_SP SP+-2
          CFI (cfiCond206) CFA_XSP16 add(XSP16, 50)
          CFI Block cfiPicker207 Using cfiCommon1
          CFI (cfiPicker207) NoFunction
          CFI (cfiPicker207) Picker
        INC       DPTR
          CFI EndBlock cfiCond204
          CFI EndBlock cfiCond205
          CFI EndBlock cfiCond206
          CFI EndBlock cfiPicker207
        REQUIRE ??Subroutine42_0
        ; // Fall through to label ??Subroutine42_0

        RSEG BANKED_CODE:HUGECODE:NOROOT(0)
??Subroutine42_0:
          CFI Block cfiCond208 Using cfiCommon0
          CFI Function afFindSimpleDesc
          CFI Conditional ??CrossCallReturnLabel_108
          CFI R6 load(1, XDATA, add(CFA_XSP16, literal(-12)))
          CFI VB load(1, XDATA, add(CFA_XSP16, literal(-11)))
          CFI V0 load(1, XDATA, add(CFA_XSP16, literal(-10)))
          CFI V1 load(1, XDATA, add(CFA_XSP16, literal(-9)))
          CFI V2 load(1, XDATA, add(CFA_XSP16, literal(-8)))
          CFI V3 load(1, XDATA, add(CFA_XSP16, literal(-7)))
          CFI R7 load(1, XDATA, add(CFA_XSP16, literal(-6)))
          CFI ?RET_LOW load(1, XDATA, add(CFA_XSP16, literal(-5)))
          CFI ?RET_HIGH load(1, XDATA, add(CFA_XSP16, literal(-4)))
          CFI ?BRET_EXT load(1, XDATA, add(CFA_XSP16, literal(-3)))
          CFI DPL0 load(1, XDATA, add(CFA_XSP16, literal(-2)))
          CFI DPH0 load(1, XDATA, add(CFA_XSP16, literal(-1)))
          CFI CFA_SP SP+-2
          CFI CFA_XSP16 add(XSP16, 12)
          CFI Block cfiCond209 Using cfiCommon0
          CFI (cfiCond209) Function afIncomingData
          CFI (cfiCond209) Conditional ??CrossCallReturnLabel_109
          CFI (cfiCond209) R6 load(1, XDATA, add(CFA_XSP16, literal(-24)))
          CFI (cfiCond209) VB load(1, XDATA, add(CFA_XSP16, literal(-23)))
          CFI (cfiCond209) V0 load(1, XDATA, add(CFA_XSP16, literal(-22)))
          CFI (cfiCond209) V1 load(1, XDATA, add(CFA_XSP16, literal(-21)))
          CFI (cfiCond209) V2 load(1, XDATA, add(CFA_XSP16, literal(-20)))
          CFI (cfiCond209) V3 load(1, XDATA, add(CFA_XSP16, literal(-19)))
          CFI (cfiCond209) V4 load(1, XDATA, add(CFA_XSP16, literal(-18)))
          CFI (cfiCond209) V5 load(1, XDATA, add(CFA_XSP16, literal(-17)))
          CFI (cfiCond209) V6 load(1, XDATA, add(CFA_XSP16, literal(-16)))
          CFI (cfiCond209) V7 load(1, XDATA, add(CFA_XSP16, literal(-15)))
          CFI (cfiCond209) V8 load(1, XDATA, add(CFA_XSP16, literal(-14)))
          CFI (cfiCond209) V9 load(1, XDATA, add(CFA_XSP16, literal(-13)))
          CFI (cfiCond209) V10 load(1, XDATA, add(CFA_XSP16, literal(-12)))
          CFI (cfiCond209) V11 load(1, XDATA, add(CFA_XSP16, literal(-11)))
          CFI (cfiCond209) V12 load(1, XDATA, add(CFA_XSP16, literal(-10)))
          CFI (cfiCond209) V13 load(1, XDATA, add(CFA_XSP16, literal(-9)))
          CFI (cfiCond209) V14 load(1, XDATA, add(CFA_XSP16, literal(-8)))
          CFI (cfiCond209) V15 load(1, XDATA, add(CFA_XSP16, literal(-7)))
          CFI (cfiCond209) R7 load(1, XDATA, add(CFA_XSP16, literal(-6)))
          CFI (cfiCond209) ?RET_LOW load(1, XDATA, add(CFA_XSP16, literal(-5)))
          CFI (cfiCond209) ?RET_HIGH load(1, XDATA, add(CFA_XSP16, literal(-4)))
          CFI (cfiCond209) ?BRET_EXT load(1, XDATA, add(CFA_XSP16, literal(-3)))
          CFI (cfiCond209) DPL0 load(1, XDATA, add(CFA_XSP16, literal(-2)))
          CFI (cfiCond209) DPH0 load(1, XDATA, add(CFA_XSP16, literal(-1)))
          CFI (cfiCond209) CFA_SP SP+-2
          CFI (cfiCond209) CFA_XSP16 add(XSP16, 28)
          CFI Block cfiCond210 Using cfiCommon0
          CFI (cfiCond210) Function afIncomingData
          CFI (cfiCond210) Conditional ??CrossCallReturnLabel_110
          CFI (cfiCond210) R6 load(1, XDATA, add(CFA_XSP16, literal(-24)))
          CFI (cfiCond210) VB load(1, XDATA, add(CFA_XSP16, literal(-23)))
          CFI (cfiCond210) V0 load(1, XDATA, add(CFA_XSP16, literal(-22)))
          CFI (cfiCond210) V1 load(1, XDATA, add(CFA_XSP16, literal(-21)))
          CFI (cfiCond210) V2 load(1, XDATA, add(CFA_XSP16, literal(-20)))
          CFI (cfiCond210) V3 load(1, XDATA, add(CFA_XSP16, literal(-19)))
          CFI (cfiCond210) V4 load(1, XDATA, add(CFA_XSP16, literal(-18)))
          CFI (cfiCond210) V5 load(1, XDATA, add(CFA_XSP16, literal(-17)))
          CFI (cfiCond210) V6 load(1, XDATA, add(CFA_XSP16, literal(-16)))
          CFI (cfiCond210) V7 load(1, XDATA, add(CFA_XSP16, literal(-15)))
          CFI (cfiCond210) V8 load(1, XDATA, add(CFA_XSP16, literal(-14)))
          CFI (cfiCond210) V9 load(1, XDATA, add(CFA_XSP16, literal(-13)))
          CFI (cfiCond210) V10 load(1, XDATA, add(CFA_XSP16, literal(-12)))
          CFI (cfiCond210) V11 load(1, XDATA, add(CFA_XSP16, literal(-11)))
          CFI (cfiCond210) V12 load(1, XDATA, add(CFA_XSP16, literal(-10)))
          CFI (cfiCond210) V13 load(1, XDATA, add(CFA_XSP16, literal(-9)))
          CFI (cfiCond210) V14 load(1, XDATA, add(CFA_XSP16, literal(-8)))
          CFI (cfiCond210) V15 load(1, XDATA, add(CFA_XSP16, literal(-7)))
          CFI (cfiCond210) R7 load(1, XDATA, add(CFA_XSP16, literal(-6)))
          CFI (cfiCond210) ?RET_LOW load(1, XDATA, add(CFA_XSP16, literal(-5)))
          CFI (cfiCond210) ?RET_HIGH load(1, XDATA, add(CFA_XSP16, literal(-4)))
          CFI (cfiCond210) ?BRET_EXT load(1, XDATA, add(CFA_XSP16, literal(-3)))
          CFI (cfiCond210) DPL0 load(1, XDATA, add(CFA_XSP16, literal(-2)))
          CFI (cfiCond210) DPH0 load(1, XDATA, add(CFA_XSP16, literal(-1)))
          CFI (cfiCond210) CFA_SP SP+-2
          CFI (cfiCond210) CFA_XSP16 add(XSP16, 28)
          CFI Block cfiCond211 Using cfiCommon0
          CFI (cfiCond211) Function AF_DataRequest
          CFI (cfiCond211) Conditional ??CrossCallReturnLabel_111
          CFI (cfiCond211) R6 load(1, XDATA, add(CFA_XSP16, literal(-18)))
          CFI (cfiCond211) VB load(1, XDATA, add(CFA_XSP16, literal(-17)))
          CFI (cfiCond211) V0 load(1, XDATA, add(CFA_XSP16, literal(-16)))
          CFI (cfiCond211) V1 load(1, XDATA, add(CFA_XSP16, literal(-15)))
          CFI (cfiCond211) V2 load(1, XDATA, add(CFA_XSP16, literal(-14)))
          CFI (cfiCond211) V3 load(1, XDATA, add(CFA_XSP16, literal(-13)))
          CFI (cfiCond211) V4 load(1, XDATA, add(CFA_XSP16, literal(-12)))
          CFI (cfiCond211) V5 load(1, XDATA, add(CFA_XSP16, literal(-11)))
          CFI (cfiCond211) V6 load(1, XDATA, add(CFA_XSP16, literal(-10)))
          CFI (cfiCond211) V7 load(1, XDATA, add(CFA_XSP16, literal(-9)))
          CFI (cfiCond211) V8 load(1, XDATA, add(CFA_XSP16, literal(-8)))
          CFI (cfiCond211) V9 load(1, XDATA, add(CFA_XSP16, literal(-7)))
          CFI (cfiCond211) R7 load(1, XDATA, add(CFA_XSP16, literal(-6)))
          CFI (cfiCond211) ?RET_LOW load(1, XDATA, add(CFA_XSP16, literal(-5)))
          CFI (cfiCond211) ?RET_HIGH load(1, XDATA, add(CFA_XSP16, literal(-4)))
          CFI (cfiCond211) ?BRET_EXT load(1, XDATA, add(CFA_XSP16, literal(-3)))
          CFI (cfiCond211) DPL0 load(1, XDATA, add(CFA_XSP16, literal(-2)))
          CFI (cfiCond211) DPH0 load(1, XDATA, add(CFA_XSP16, literal(-1)))
          CFI (cfiCond211) CFA_SP SP+-2
          CFI (cfiCond211) CFA_XSP16 add(XSP16, 50)
          CFI Block cfiPicker212 Using cfiCommon1
          CFI (cfiPicker212) NoFunction
          CFI (cfiPicker212) Picker
        INC       DPTR
          CFI EndBlock cfiCond208
          CFI EndBlock cfiCond209
          CFI EndBlock cfiCond210
          CFI EndBlock cfiCond211
          CFI EndBlock cfiPicker212
        REQUIRE ??Subroutine43_0
        ; // Fall through to label ??Subroutine43_0

        RSEG BANKED_CODE:HUGECODE:NOROOT(0)
??Subroutine43_0:
          CFI Block cfiCond213 Using cfiCommon0
          CFI Function AF_DataRequest
          CFI Conditional ??CrossCallReturnLabel_106
          CFI R6 load(1, XDATA, add(CFA_XSP16, literal(-18)))
          CFI VB load(1, XDATA, add(CFA_XSP16, literal(-17)))
          CFI V0 load(1, XDATA, add(CFA_XSP16, literal(-16)))
          CFI V1 load(1, XDATA, add(CFA_XSP16, literal(-15)))
          CFI V2 load(1, XDATA, add(CFA_XSP16, literal(-14)))
          CFI V3 load(1, XDATA, add(CFA_XSP16, literal(-13)))
          CFI V4 load(1, XDATA, add(CFA_XSP16, literal(-12)))
          CFI V5 load(1, XDATA, add(CFA_XSP16, literal(-11)))
          CFI V6 load(1, XDATA, add(CFA_XSP16, literal(-10)))
          CFI V7 load(1, XDATA, add(CFA_XSP16, literal(-9)))
          CFI V8 load(1, XDATA, add(CFA_XSP16, literal(-8)))
          CFI V9 load(1, XDATA, add(CFA_XSP16, literal(-7)))
          CFI R7 load(1, XDATA, add(CFA_XSP16, literal(-6)))
          CFI ?RET_LOW load(1, XDATA, add(CFA_XSP16, literal(-5)))
          CFI ?RET_HIGH load(1, XDATA, add(CFA_XSP16, literal(-4)))
          CFI ?BRET_EXT load(1, XDATA, add(CFA_XSP16, literal(-3)))
          CFI DPL0 load(1, XDATA, add(CFA_XSP16, literal(-2)))
          CFI DPH0 load(1, XDATA, add(CFA_XSP16, literal(-1)))
          CFI CFA_SP SP+-2
          CFI CFA_XSP16 add(XSP16, 50)
          CFI Block cfiCond214 Using cfiCommon0
          CFI (cfiCond214) Function afFindEndPointDesc
          CFI (cfiCond214) Conditional ??CrossCallReturnLabel_107
          CFI (cfiCond214) R6 load(1, XDATA, add(CFA_XSP16, literal(-10)))
          CFI (cfiCond214) VB load(1, XDATA, add(CFA_XSP16, literal(-9)))
          CFI (cfiCond214) V0 load(1, XDATA, add(CFA_XSP16, literal(-8)))
          CFI (cfiCond214) V1 load(1, XDATA, add(CFA_XSP16, literal(-7)))
          CFI (cfiCond214) R7 load(1, XDATA, add(CFA_XSP16, literal(-6)))
          CFI (cfiCond214) ?RET_LOW load(1, XDATA, add(CFA_XSP16, literal(-5)))
          CFI (cfiCond214) ?RET_HIGH load(1, XDATA, add(CFA_XSP16, literal(-4)))
          CFI (cfiCond214) ?BRET_EXT load(1, XDATA, add(CFA_XSP16, literal(-3)))
          CFI (cfiCond214) DPL0 load(1, XDATA, add(CFA_XSP16, literal(-2)))
          CFI (cfiCond214) DPH0 load(1, XDATA, add(CFA_XSP16, literal(-1)))
          CFI (cfiCond214) CFA_SP SP+-2
          CFI (cfiCond214) CFA_XSP16 add(XSP16, 10)
          CFI Block cfiCond215 Using cfiCommon0
          CFI (cfiCond215) Function afFindSimpleDesc
          CFI (cfiCond215) Conditional ??CrossCallReturnLabel_108
          CFI (cfiCond215) R6 load(1, XDATA, add(CFA_XSP16, literal(-12)))
          CFI (cfiCond215) VB load(1, XDATA, add(CFA_XSP16, literal(-11)))
          CFI (cfiCond215) V0 load(1, XDATA, add(CFA_XSP16, literal(-10)))
          CFI (cfiCond215) V1 load(1, XDATA, add(CFA_XSP16, literal(-9)))
          CFI (cfiCond215) V2 load(1, XDATA, add(CFA_XSP16, literal(-8)))
          CFI (cfiCond215) V3 load(1, XDATA, add(CFA_XSP16, literal(-7)))
          CFI (cfiCond215) R7 load(1, XDATA, add(CFA_XSP16, literal(-6)))
          CFI (cfiCond215) ?RET_LOW load(1, XDATA, add(CFA_XSP16, literal(-5)))
          CFI (cfiCond215) ?RET_HIGH load(1, XDATA, add(CFA_XSP16, literal(-4)))
          CFI (cfiCond215) ?BRET_EXT load(1, XDATA, add(CFA_XSP16, literal(-3)))
          CFI (cfiCond215) DPL0 load(1, XDATA, add(CFA_XSP16, literal(-2)))
          CFI (cfiCond215) DPH0 load(1, XDATA, add(CFA_XSP16, literal(-1)))
          CFI (cfiCond215) CFA_SP SP+-2
          CFI (cfiCond215) CFA_XSP16 add(XSP16, 12)
          CFI Block cfiCond216 Using cfiCommon0
          CFI (cfiCond216) Function afIncomingData
          CFI (cfiCond216) Conditional ??CrossCallReturnLabel_109
          CFI (cfiCond216) R6 load(1, XDATA, add(CFA_XSP16, literal(-24)))
          CFI (cfiCond216) VB load(1, XDATA, add(CFA_XSP16, literal(-23)))
          CFI (cfiCond216) V0 load(1, XDATA, add(CFA_XSP16, literal(-22)))
          CFI (cfiCond216) V1 load(1, XDATA, add(CFA_XSP16, literal(-21)))
          CFI (cfiCond216) V2 load(1, XDATA, add(CFA_XSP16, literal(-20)))
          CFI (cfiCond216) V3 load(1, XDATA, add(CFA_XSP16, literal(-19)))
          CFI (cfiCond216) V4 load(1, XDATA, add(CFA_XSP16, literal(-18)))
          CFI (cfiCond216) V5 load(1, XDATA, add(CFA_XSP16, literal(-17)))
          CFI (cfiCond216) V6 load(1, XDATA, add(CFA_XSP16, literal(-16)))
          CFI (cfiCond216) V7 load(1, XDATA, add(CFA_XSP16, literal(-15)))
          CFI (cfiCond216) V8 load(1, XDATA, add(CFA_XSP16, literal(-14)))
          CFI (cfiCond216) V9 load(1, XDATA, add(CFA_XSP16, literal(-13)))
          CFI (cfiCond216) V10 load(1, XDATA, add(CFA_XSP16, literal(-12)))
          CFI (cfiCond216) V11 load(1, XDATA, add(CFA_XSP16, literal(-11)))
          CFI (cfiCond216) V12 load(1, XDATA, add(CFA_XSP16, literal(-10)))
          CFI (cfiCond216) V13 load(1, XDATA, add(CFA_XSP16, literal(-9)))
          CFI (cfiCond216) V14 load(1, XDATA, add(CFA_XSP16, literal(-8)))
          CFI (cfiCond216) V15 load(1, XDATA, add(CFA_XSP16, literal(-7)))
          CFI (cfiCond216) R7 load(1, XDATA, add(CFA_XSP16, literal(-6)))
          CFI (cfiCond216) ?RET_LOW load(1, XDATA, add(CFA_XSP16, literal(-5)))
          CFI (cfiCond216) ?RET_HIGH load(1, XDATA, add(CFA_XSP16, literal(-4)))
          CFI (cfiCond216) ?BRET_EXT load(1, XDATA, add(CFA_XSP16, literal(-3)))
          CFI (cfiCond216) DPL0 load(1, XDATA, add(CFA_XSP16, literal(-2)))
          CFI (cfiCond216) DPH0 load(1, XDATA, add(CFA_XSP16, literal(-1)))
          CFI (cfiCond216) CFA_SP SP+-2
          CFI (cfiCond216) CFA_XSP16 add(XSP16, 28)
          CFI Block cfiCond217 Using cfiCommon0
          CFI (cfiCond217) Function afIncomingData
          CFI (cfiCond217) Conditional ??CrossCallReturnLabel_110
          CFI (cfiCond217) R6 load(1, XDATA, add(CFA_XSP16, literal(-24)))
          CFI (cfiCond217) VB load(1, XDATA, add(CFA_XSP16, literal(-23)))
          CFI (cfiCond217) V0 load(1, XDATA, add(CFA_XSP16, literal(-22)))
          CFI (cfiCond217) V1 load(1, XDATA, add(CFA_XSP16, literal(-21)))
          CFI (cfiCond217) V2 load(1, XDATA, add(CFA_XSP16, literal(-20)))
          CFI (cfiCond217) V3 load(1, XDATA, add(CFA_XSP16, literal(-19)))
          CFI (cfiCond217) V4 load(1, XDATA, add(CFA_XSP16, literal(-18)))
          CFI (cfiCond217) V5 load(1, XDATA, add(CFA_XSP16, literal(-17)))
          CFI (cfiCond217) V6 load(1, XDATA, add(CFA_XSP16, literal(-16)))
          CFI (cfiCond217) V7 load(1, XDATA, add(CFA_XSP16, literal(-15)))
          CFI (cfiCond217) V8 load(1, XDATA, add(CFA_XSP16, literal(-14)))
          CFI (cfiCond217) V9 load(1, XDATA, add(CFA_XSP16, literal(-13)))
          CFI (cfiCond217) V10 load(1, XDATA, add(CFA_XSP16, literal(-12)))
          CFI (cfiCond217) V11 load(1, XDATA, add(CFA_XSP16, literal(-11)))
          CFI (cfiCond217) V12 load(1, XDATA, add(CFA_XSP16, literal(-10)))
          CFI (cfiCond217) V13 load(1, XDATA, add(CFA_XSP16, literal(-9)))
          CFI (cfiCond217) V14 load(1, XDATA, add(CFA_XSP16, literal(-8)))
          CFI (cfiCond217) V15 load(1, XDATA, add(CFA_XSP16, literal(-7)))
          CFI (cfiCond217) R7 load(1, XDATA, add(CFA_XSP16, literal(-6)))
          CFI (cfiCond217) ?RET_LOW load(1, XDATA, add(CFA_XSP16, literal(-5)))
          CFI (cfiCond217) ?RET_HIGH load(1, XDATA, add(CFA_XSP16, literal(-4)))
          CFI (cfiCond217) ?BRET_EXT load(1, XDATA, add(CFA_XSP16, literal(-3)))
          CFI (cfiCond217) DPL0 load(1, XDATA, add(CFA_XSP16, literal(-2)))
          CFI (cfiCond217) DPH0 load(1, XDATA, add(CFA_XSP16, literal(-1)))
          CFI (cfiCond217) CFA_SP SP+-2
          CFI (cfiCond217) CFA_XSP16 add(XSP16, 28)
          CFI Block cfiCond218 Using cfiCommon0
          CFI (cfiCond218) Function AF_DataRequest
          CFI (cfiCond218) Conditional ??CrossCallReturnLabel_111
          CFI (cfiCond218) R6 load(1, XDATA, add(CFA_XSP16, literal(-18)))
          CFI (cfiCond218) VB load(1, XDATA, add(CFA_XSP16, literal(-17)))
          CFI (cfiCond218) V0 load(1, XDATA, add(CFA_XSP16, literal(-16)))
          CFI (cfiCond218) V1 load(1, XDATA, add(CFA_XSP16, literal(-15)))
          CFI (cfiCond218) V2 load(1, XDATA, add(CFA_XSP16, literal(-14)))
          CFI (cfiCond218) V3 load(1, XDATA, add(CFA_XSP16, literal(-13)))
          CFI (cfiCond218) V4 load(1, XDATA, add(CFA_XSP16, literal(-12)))
          CFI (cfiCond218) V5 load(1, XDATA, add(CFA_XSP16, literal(-11)))
          CFI (cfiCond218) V6 load(1, XDATA, add(CFA_XSP16, literal(-10)))
          CFI (cfiCond218) V7 load(1, XDATA, add(CFA_XSP16, literal(-9)))
          CFI (cfiCond218) V8 load(1, XDATA, add(CFA_XSP16, literal(-8)))
          CFI (cfiCond218) V9 load(1, XDATA, add(CFA_XSP16, literal(-7)))
          CFI (cfiCond218) R7 load(1, XDATA, add(CFA_XSP16, literal(-6)))
          CFI (cfiCond218) ?RET_LOW load(1, XDATA, add(CFA_XSP16, literal(-5)))
          CFI (cfiCond218) ?RET_HIGH load(1, XDATA, add(CFA_XSP16, literal(-4)))
          CFI (cfiCond218) ?BRET_EXT load(1, XDATA, add(CFA_XSP16, literal(-3)))
          CFI (cfiCond218) DPL0 load(1, XDATA, add(CFA_XSP16, literal(-2)))
          CFI (cfiCond218) DPH0 load(1, XDATA, add(CFA_XSP16, literal(-1)))
          CFI (cfiCond218) CFA_SP SP+-2
          CFI (cfiCond218) CFA_XSP16 add(XSP16, 50)
          CFI Block cfiPicker219 Using cfiCommon1
          CFI (cfiPicker219) NoFunction
          CFI (cfiPicker219) Picker
        INC       DPTR
        INC       DPTR
          CFI EndBlock cfiCond213
          CFI EndBlock cfiCond214
          CFI EndBlock cfiCond215
          CFI EndBlock cfiCond216
          CFI EndBlock cfiCond217
          CFI EndBlock cfiCond218
          CFI EndBlock cfiPicker219
        REQUIRE ??Subroutine44_0
        ; // Fall through to label ??Subroutine44_0

        RSEG BANKED_CODE:HUGECODE:NOROOT(0)
??Subroutine44_0:
          CFI Block cfiCond220 Using cfiCommon0
          CFI Function afDelete
          CFI Conditional ??CrossCallReturnLabel_101
          CFI R6 load(1, XDATA, add(CFA_XSP16, literal(-9)))
          CFI VB load(1, XDATA, add(CFA_XSP16, literal(-8)))
          CFI V0 load(1, XDATA, add(CFA_XSP16, literal(-7)))
          CFI R7 load(1, XDATA, add(CFA_XSP16, literal(-6)))
          CFI ?RET_LOW load(1, XDATA, add(CFA_XSP16, literal(-5)))
          CFI ?RET_HIGH load(1, XDATA, add(CFA_XSP16, literal(-4)))
          CFI ?BRET_EXT load(1, XDATA, add(CFA_XSP16, literal(-3)))
          CFI DPL0 load(1, XDATA, add(CFA_XSP16, literal(-2)))
          CFI DPH0 load(1, XDATA, add(CFA_XSP16, literal(-1)))
          CFI CFA_SP SP+-2
          CFI CFA_XSP16 add(XSP16, 9)
          CFI Block cfiCond221 Using cfiCommon0
          CFI (cfiCond221) Function AF_DataRequest
          CFI (cfiCond221) Conditional ??CrossCallReturnLabel_102
          CFI (cfiCond221) R6 load(1, XDATA, add(CFA_XSP16, literal(-18)))
          CFI (cfiCond221) VB load(1, XDATA, add(CFA_XSP16, literal(-17)))
          CFI (cfiCond221) V0 load(1, XDATA, add(CFA_XSP16, literal(-16)))
          CFI (cfiCond221) V1 load(1, XDATA, add(CFA_XSP16, literal(-15)))
          CFI (cfiCond221) V2 load(1, XDATA, add(CFA_XSP16, literal(-14)))
          CFI (cfiCond221) V3 load(1, XDATA, add(CFA_XSP16, literal(-13)))
          CFI (cfiCond221) V4 load(1, XDATA, add(CFA_XSP16, literal(-12)))
          CFI (cfiCond221) V5 load(1, XDATA, add(CFA_XSP16, literal(-11)))
          CFI (cfiCond221) V6 load(1, XDATA, add(CFA_XSP16, literal(-10)))
          CFI (cfiCond221) V7 load(1, XDATA, add(CFA_XSP16, literal(-9)))
          CFI (cfiCond221) V8 load(1, XDATA, add(CFA_XSP16, literal(-8)))
          CFI (cfiCond221) V9 load(1, XDATA, add(CFA_XSP16, literal(-7)))
          CFI (cfiCond221) R7 load(1, XDATA, add(CFA_XSP16, literal(-6)))
          CFI (cfiCond221) ?RET_LOW load(1, XDATA, add(CFA_XSP16, literal(-5)))
          CFI (cfiCond221) ?RET_HIGH load(1, XDATA, add(CFA_XSP16, literal(-4)))
          CFI (cfiCond221) ?BRET_EXT load(1, XDATA, add(CFA_XSP16, literal(-3)))
          CFI (cfiCond221) DPL0 load(1, XDATA, add(CFA_XSP16, literal(-2)))
          CFI (cfiCond221) DPH0 load(1, XDATA, add(CFA_XSP16, literal(-1)))
          CFI (cfiCond221) CFA_SP SP+-2
          CFI (cfiCond221) CFA_XSP16 add(XSP16, 50)
          CFI Block cfiCond222 Using cfiCommon0
          CFI (cfiCond222) Function AF_DataRequest
          CFI (cfiCond222) Conditional ??CrossCallReturnLabel_103
          CFI (cfiCond222) R6 load(1, XDATA, add(CFA_XSP16, literal(-18)))
          CFI (cfiCond222) VB load(1, XDATA, add(CFA_XSP16, literal(-17)))
          CFI (cfiCond222) V0 load(1, XDATA, add(CFA_XSP16, literal(-16)))
          CFI (cfiCond222) V1 load(1, XDATA, add(CFA_XSP16, literal(-15)))
          CFI (cfiCond222) V2 load(1, XDATA, add(CFA_XSP16, literal(-14)))
          CFI (cfiCond222) V3 load(1, XDATA, add(CFA_XSP16, literal(-13)))
          CFI (cfiCond222) V4 load(1, XDATA, add(CFA_XSP16, literal(-12)))
          CFI (cfiCond222) V5 load(1, XDATA, add(CFA_XSP16, literal(-11)))
          CFI (cfiCond222) V6 load(1, XDATA, add(CFA_XSP16, literal(-10)))
          CFI (cfiCond222) V7 load(1, XDATA, add(CFA_XSP16, literal(-9)))
          CFI (cfiCond222) V8 load(1, XDATA, add(CFA_XSP16, literal(-8)))
          CFI (cfiCond222) V9 load(1, XDATA, add(CFA_XSP16, literal(-7)))
          CFI (cfiCond222) R7 load(1, XDATA, add(CFA_XSP16, literal(-6)))
          CFI (cfiCond222) ?RET_LOW load(1, XDATA, add(CFA_XSP16, literal(-5)))
          CFI (cfiCond222) ?RET_HIGH load(1, XDATA, add(CFA_XSP16, literal(-4)))
          CFI (cfiCond222) ?BRET_EXT load(1, XDATA, add(CFA_XSP16, literal(-3)))
          CFI (cfiCond222) DPL0 load(1, XDATA, add(CFA_XSP16, literal(-2)))
          CFI (cfiCond222) DPH0 load(1, XDATA, add(CFA_XSP16, literal(-1)))
          CFI (cfiCond222) CFA_SP SP+-2
          CFI (cfiCond222) CFA_XSP16 add(XSP16, 50)
          CFI Block cfiCond223 Using cfiCommon0
          CFI (cfiCond223) Function AF_DataRequestSrcRtg
          CFI (cfiCond223) Conditional ??CrossCallReturnLabel_104
          CFI (cfiCond223) R6 load(1, XDATA, add(CFA_XSP16, literal(-12)))
          CFI (cfiCond223) VB load(1, XDATA, add(CFA_XSP16, literal(-11)))
          CFI (cfiCond223) V0 load(1, XDATA, add(CFA_XSP16, literal(-10)))
          CFI (cfiCond223) V1 load(1, XDATA, add(CFA_XSP16, literal(-9)))
          CFI (cfiCond223) V2 load(1, XDATA, add(CFA_XSP16, literal(-8)))
          CFI (cfiCond223) V3 load(1, XDATA, add(CFA_XSP16, literal(-7)))
          CFI (cfiCond223) R7 load(1, XDATA, add(CFA_XSP16, literal(-6)))
          CFI (cfiCond223) ?RET_LOW load(1, XDATA, add(CFA_XSP16, literal(-5)))
          CFI (cfiCond223) ?RET_HIGH load(1, XDATA, add(CFA_XSP16, literal(-4)))
          CFI (cfiCond223) ?BRET_EXT load(1, XDATA, add(CFA_XSP16, literal(-3)))
          CFI (cfiCond223) DPL0 load(1, XDATA, add(CFA_XSP16, literal(-2)))
          CFI (cfiCond223) DPH0 load(1, XDATA, add(CFA_XSP16, literal(-1)))
          CFI (cfiCond223) CFA_SP SP+-2
          CFI (cfiCond223) CFA_XSP16 add(XSP16, 12)
          CFI Block cfiCond224 Using cfiCommon0
          CFI (cfiCond224) Function afNumEndPoints
          CFI (cfiCond224) Conditional ??CrossCallReturnLabel_105
          CFI (cfiCond224) DPL0 Frame(CFA_SP, 4)
          CFI (cfiCond224) DPH0 Frame(CFA_SP, 5)
          CFI (cfiCond224) CFA_SP SP+-7
          CFI Block cfiCond225 Using cfiCommon0
          CFI (cfiCond225) Function AF_DataRequest
          CFI (cfiCond225) Conditional ??CrossCallReturnLabel_106
          CFI (cfiCond225) R6 load(1, XDATA, add(CFA_XSP16, literal(-18)))
          CFI (cfiCond225) VB load(1, XDATA, add(CFA_XSP16, literal(-17)))
          CFI (cfiCond225) V0 load(1, XDATA, add(CFA_XSP16, literal(-16)))
          CFI (cfiCond225) V1 load(1, XDATA, add(CFA_XSP16, literal(-15)))
          CFI (cfiCond225) V2 load(1, XDATA, add(CFA_XSP16, literal(-14)))
          CFI (cfiCond225) V3 load(1, XDATA, add(CFA_XSP16, literal(-13)))
          CFI (cfiCond225) V4 load(1, XDATA, add(CFA_XSP16, literal(-12)))
          CFI (cfiCond225) V5 load(1, XDATA, add(CFA_XSP16, literal(-11)))
          CFI (cfiCond225) V6 load(1, XDATA, add(CFA_XSP16, literal(-10)))
          CFI (cfiCond225) V7 load(1, XDATA, add(CFA_XSP16, literal(-9)))
          CFI (cfiCond225) V8 load(1, XDATA, add(CFA_XSP16, literal(-8)))
          CFI (cfiCond225) V9 load(1, XDATA, add(CFA_XSP16, literal(-7)))
          CFI (cfiCond225) R7 load(1, XDATA, add(CFA_XSP16, literal(-6)))
          CFI (cfiCond225) ?RET_LOW load(1, XDATA, add(CFA_XSP16, literal(-5)))
          CFI (cfiCond225) ?RET_HIGH load(1, XDATA, add(CFA_XSP16, literal(-4)))
          CFI (cfiCond225) ?BRET_EXT load(1, XDATA, add(CFA_XSP16, literal(-3)))
          CFI (cfiCond225) DPL0 load(1, XDATA, add(CFA_XSP16, literal(-2)))
          CFI (cfiCond225) DPH0 load(1, XDATA, add(CFA_XSP16, literal(-1)))
          CFI (cfiCond225) CFA_SP SP+-2
          CFI (cfiCond225) CFA_XSP16 add(XSP16, 50)
          CFI Block cfiCond226 Using cfiCommon0
          CFI (cfiCond226) Function afFindEndPointDesc
          CFI (cfiCond226) Conditional ??CrossCallReturnLabel_107
          CFI (cfiCond226) R6 load(1, XDATA, add(CFA_XSP16, literal(-10)))
          CFI (cfiCond226) VB load(1, XDATA, add(CFA_XSP16, literal(-9)))
          CFI (cfiCond226) V0 load(1, XDATA, add(CFA_XSP16, literal(-8)))
          CFI (cfiCond226) V1 load(1, XDATA, add(CFA_XSP16, literal(-7)))
          CFI (cfiCond226) R7 load(1, XDATA, add(CFA_XSP16, literal(-6)))
          CFI (cfiCond226) ?RET_LOW load(1, XDATA, add(CFA_XSP16, literal(-5)))
          CFI (cfiCond226) ?RET_HIGH load(1, XDATA, add(CFA_XSP16, literal(-4)))
          CFI (cfiCond226) ?BRET_EXT load(1, XDATA, add(CFA_XSP16, literal(-3)))
          CFI (cfiCond226) DPL0 load(1, XDATA, add(CFA_XSP16, literal(-2)))
          CFI (cfiCond226) DPH0 load(1, XDATA, add(CFA_XSP16, literal(-1)))
          CFI (cfiCond226) CFA_SP SP+-2
          CFI (cfiCond226) CFA_XSP16 add(XSP16, 10)
          CFI Block cfiCond227 Using cfiCommon0
          CFI (cfiCond227) Function afFindSimpleDesc
          CFI (cfiCond227) Conditional ??CrossCallReturnLabel_108
          CFI (cfiCond227) R6 load(1, XDATA, add(CFA_XSP16, literal(-12)))
          CFI (cfiCond227) VB load(1, XDATA, add(CFA_XSP16, literal(-11)))
          CFI (cfiCond227) V0 load(1, XDATA, add(CFA_XSP16, literal(-10)))
          CFI (cfiCond227) V1 load(1, XDATA, add(CFA_XSP16, literal(-9)))
          CFI (cfiCond227) V2 load(1, XDATA, add(CFA_XSP16, literal(-8)))
          CFI (cfiCond227) V3 load(1, XDATA, add(CFA_XSP16, literal(-7)))
          CFI (cfiCond227) R7 load(1, XDATA, add(CFA_XSP16, literal(-6)))
          CFI (cfiCond227) ?RET_LOW load(1, XDATA, add(CFA_XSP16, literal(-5)))
          CFI (cfiCond227) ?RET_HIGH load(1, XDATA, add(CFA_XSP16, literal(-4)))
          CFI (cfiCond227) ?BRET_EXT load(1, XDATA, add(CFA_XSP16, literal(-3)))
          CFI (cfiCond227) DPL0 load(1, XDATA, add(CFA_XSP16, literal(-2)))
          CFI (cfiCond227) DPH0 load(1, XDATA, add(CFA_XSP16, literal(-1)))
          CFI (cfiCond227) CFA_SP SP+-2
          CFI (cfiCond227) CFA_XSP16 add(XSP16, 12)
          CFI Block cfiCond228 Using cfiCommon0
          CFI (cfiCond228) Function afIncomingData
          CFI (cfiCond228) Conditional ??CrossCallReturnLabel_109
          CFI (cfiCond228) R6 load(1, XDATA, add(CFA_XSP16, literal(-24)))
          CFI (cfiCond228) VB load(1, XDATA, add(CFA_XSP16, literal(-23)))
          CFI (cfiCond228) V0 load(1, XDATA, add(CFA_XSP16, literal(-22)))
          CFI (cfiCond228) V1 load(1, XDATA, add(CFA_XSP16, literal(-21)))
          CFI (cfiCond228) V2 load(1, XDATA, add(CFA_XSP16, literal(-20)))
          CFI (cfiCond228) V3 load(1, XDATA, add(CFA_XSP16, literal(-19)))
          CFI (cfiCond228) V4 load(1, XDATA, add(CFA_XSP16, literal(-18)))
          CFI (cfiCond228) V5 load(1, XDATA, add(CFA_XSP16, literal(-17)))
          CFI (cfiCond228) V6 load(1, XDATA, add(CFA_XSP16, literal(-16)))
          CFI (cfiCond228) V7 load(1, XDATA, add(CFA_XSP16, literal(-15)))
          CFI (cfiCond228) V8 load(1, XDATA, add(CFA_XSP16, literal(-14)))
          CFI (cfiCond228) V9 load(1, XDATA, add(CFA_XSP16, literal(-13)))
          CFI (cfiCond228) V10 load(1, XDATA, add(CFA_XSP16, literal(-12)))
          CFI (cfiCond228) V11 load(1, XDATA, add(CFA_XSP16, literal(-11)))
          CFI (cfiCond228) V12 load(1, XDATA, add(CFA_XSP16, literal(-10)))
          CFI (cfiCond228) V13 load(1, XDATA, add(CFA_XSP16, literal(-9)))
          CFI (cfiCond228) V14 load(1, XDATA, add(CFA_XSP16, literal(-8)))
          CFI (cfiCond228) V15 load(1, XDATA, add(CFA_XSP16, literal(-7)))
          CFI (cfiCond228) R7 load(1, XDATA, add(CFA_XSP16, literal(-6)))
          CFI (cfiCond228) ?RET_LOW load(1, XDATA, add(CFA_XSP16, literal(-5)))
          CFI (cfiCond228) ?RET_HIGH load(1, XDATA, add(CFA_XSP16, literal(-4)))
          CFI (cfiCond228) ?BRET_EXT load(1, XDATA, add(CFA_XSP16, literal(-3)))
          CFI (cfiCond228) DPL0 load(1, XDATA, add(CFA_XSP16, literal(-2)))
          CFI (cfiCond228) DPH0 load(1, XDATA, add(CFA_XSP16, literal(-1)))
          CFI (cfiCond228) CFA_SP SP+-2
          CFI (cfiCond228) CFA_XSP16 add(XSP16, 28)
          CFI Block cfiCond229 Using cfiCommon0
          CFI (cfiCond229) Function afIncomingData
          CFI (cfiCond229) Conditional ??CrossCallReturnLabel_110
          CFI (cfiCond229) R6 load(1, XDATA, add(CFA_XSP16, literal(-24)))
          CFI (cfiCond229) VB load(1, XDATA, add(CFA_XSP16, literal(-23)))
          CFI (cfiCond229) V0 load(1, XDATA, add(CFA_XSP16, literal(-22)))
          CFI (cfiCond229) V1 load(1, XDATA, add(CFA_XSP16, literal(-21)))
          CFI (cfiCond229) V2 load(1, XDATA, add(CFA_XSP16, literal(-20)))
          CFI (cfiCond229) V3 load(1, XDATA, add(CFA_XSP16, literal(-19)))
          CFI (cfiCond229) V4 load(1, XDATA, add(CFA_XSP16, literal(-18)))
          CFI (cfiCond229) V5 load(1, XDATA, add(CFA_XSP16, literal(-17)))
          CFI (cfiCond229) V6 load(1, XDATA, add(CFA_XSP16, literal(-16)))
          CFI (cfiCond229) V7 load(1, XDATA, add(CFA_XSP16, literal(-15)))
          CFI (cfiCond229) V8 load(1, XDATA, add(CFA_XSP16, literal(-14)))
          CFI (cfiCond229) V9 load(1, XDATA, add(CFA_XSP16, literal(-13)))
          CFI (cfiCond229) V10 load(1, XDATA, add(CFA_XSP16, literal(-12)))
          CFI (cfiCond229) V11 load(1, XDATA, add(CFA_XSP16, literal(-11)))
          CFI (cfiCond229) V12 load(1, XDATA, add(CFA_XSP16, literal(-10)))
          CFI (cfiCond229) V13 load(1, XDATA, add(CFA_XSP16, literal(-9)))
          CFI (cfiCond229) V14 load(1, XDATA, add(CFA_XSP16, literal(-8)))
          CFI (cfiCond229) V15 load(1, XDATA, add(CFA_XSP16, literal(-7)))
          CFI (cfiCond229) R7 load(1, XDATA, add(CFA_XSP16, literal(-6)))
          CFI (cfiCond229) ?RET_LOW load(1, XDATA, add(CFA_XSP16, literal(-5)))
          CFI (cfiCond229) ?RET_HIGH load(1, XDATA, add(CFA_XSP16, literal(-4)))
          CFI (cfiCond229) ?BRET_EXT load(1, XDATA, add(CFA_XSP16, literal(-3)))
          CFI (cfiCond229) DPL0 load(1, XDATA, add(CFA_XSP16, literal(-2)))
          CFI (cfiCond229) DPH0 load(1, XDATA, add(CFA_XSP16, literal(-1)))
          CFI (cfiCond229) CFA_SP SP+-2
          CFI (cfiCond229) CFA_XSP16 add(XSP16, 28)
          CFI Block cfiCond230 Using cfiCommon0
          CFI (cfiCond230) Function AF_DataRequest
          CFI (cfiCond230) Conditional ??CrossCallReturnLabel_111
          CFI (cfiCond230) R6 load(1, XDATA, add(CFA_XSP16, literal(-18)))
          CFI (cfiCond230) VB load(1, XDATA, add(CFA_XSP16, literal(-17)))
          CFI (cfiCond230) V0 load(1, XDATA, add(CFA_XSP16, literal(-16)))
          CFI (cfiCond230) V1 load(1, XDATA, add(CFA_XSP16, literal(-15)))
          CFI (cfiCond230) V2 load(1, XDATA, add(CFA_XSP16, literal(-14)))
          CFI (cfiCond230) V3 load(1, XDATA, add(CFA_XSP16, literal(-13)))
          CFI (cfiCond230) V4 load(1, XDATA, add(CFA_XSP16, literal(-12)))
          CFI (cfiCond230) V5 load(1, XDATA, add(CFA_XSP16, literal(-11)))
          CFI (cfiCond230) V6 load(1, XDATA, add(CFA_XSP16, literal(-10)))
          CFI (cfiCond230) V7 load(1, XDATA, add(CFA_XSP16, literal(-9)))
          CFI (cfiCond230) V8 load(1, XDATA, add(CFA_XSP16, literal(-8)))
          CFI (cfiCond230) V9 load(1, XDATA, add(CFA_XSP16, literal(-7)))
          CFI (cfiCond230) R7 load(1, XDATA, add(CFA_XSP16, literal(-6)))
          CFI (cfiCond230) ?RET_LOW load(1, XDATA, add(CFA_XSP16, literal(-5)))
          CFI (cfiCond230) ?RET_HIGH load(1, XDATA, add(CFA_XSP16, literal(-4)))
          CFI (cfiCond230) ?BRET_EXT load(1, XDATA, add(CFA_XSP16, literal(-3)))
          CFI (cfiCond230) DPL0 load(1, XDATA, add(CFA_XSP16, literal(-2)))
          CFI (cfiCond230) DPH0 load(1, XDATA, add(CFA_XSP16, literal(-1)))
          CFI (cfiCond230) CFA_SP SP+-2
          CFI (cfiCond230) CFA_XSP16 add(XSP16, 50)
          CFI Block cfiPicker231 Using cfiCommon1
          CFI (cfiPicker231) NoFunction
          CFI (cfiPicker231) Picker
        MOVX      A,@DPTR
        MOV       R2,A
        INC       DPTR
        MOVX      A,@DPTR
        MOV       R3,A
        RET
          CFI EndBlock cfiCond220
          CFI EndBlock cfiCond221
          CFI EndBlock cfiCond222
          CFI EndBlock cfiCond223
          CFI EndBlock cfiCond224
          CFI EndBlock cfiCond225
          CFI EndBlock cfiCond226
          CFI EndBlock cfiCond227
          CFI EndBlock cfiCond228
          CFI EndBlock cfiCond229
          CFI EndBlock cfiCond230
          CFI EndBlock cfiPicker231
// 1067 
// 1068 /*********************************************************************
// 1069  * @fn      afEndPoints
// 1070  *
// 1071  * @brief   Fills in the passed in buffer with the endpoint (numbers).
// 1072  *          Use afNumEndPoints to find out how big a buffer to supply.
// 1073  *
// 1074  * @param   epBuf - pointer to mem used
// 1075  *
// 1076  * @return  void
// 1077  */

        RSEG BANKED_CODE:HUGECODE:NOROOT(0)
// 1078 void afEndPoints( uint8 *epBuf, uint8 skipZDO )
afEndPoints:
          CFI Block cfiBlock232 Using cfiCommon0
          CFI Function afEndPoints
        CODE
// 1079 {
        PUSH      DPL
          CFI DPL0 Frame(CFA_SP, 4)
          CFI CFA_SP SP+-4
        PUSH      DPH
          CFI DPH0 Frame(CFA_SP, 5)
          CFI CFA_SP SP+-5
        ; Saved register size: 2
        ; Auto size: 0
// 1080   epList_t *epSearch;
// 1081   uint8 endPoint;
// 1082 
// 1083   // Start at the beginning
// 1084   epSearch = epList;
        MOV       DPTR,#epList
        SJMP      ??afEndPoints_0
// 1085 
// 1086   while ( epSearch )
// 1087   {
// 1088     endPoint = epSearch->epDesc->endPoint;
??afEndPoints_1:
        LCALL     ?Subroutine11 & 0xFFFF
??CrossCallReturnLabel_100:
        MOVX      A,@DPTR
        MOV       R0,A
// 1089 
// 1090     if ( !skipZDO || endPoint != 0 )
        MOV       A,R1
        JZ        ??afEndPoints_2
        MOV       A,R0
        JZ        ??afEndPoints_3
// 1091       *epBuf++ = endPoint;
??afEndPoints_2:
        MOV       A,R0
        MOV       DPL,R2
        MOV       DPH,R3
        MOVX      @DPTR,A
        INC       DPTR
        MOV       R2,DPL
        MOV       R3,DPH
// 1092 
// 1093     epSearch = epSearch->nextDesc;
??afEndPoints_3:
        MOV       DPL,R4
        MOV       DPH,R5
// 1094   }
??afEndPoints_0:
        LCALL     ?Subroutine8 & 0xFFFF
??CrossCallReturnLabel_12:
        MOV       A,R4
        ORL       A,R5
        JNZ       ??afEndPoints_1
// 1095 }
        LJMP      ?Subroutine3 & 0xFFFF
          CFI EndBlock cfiBlock232
// 1096 
// 1097 /*********************************************************************
// 1098  * @fn      afCopyAddress
// 1099  *
// 1100  * @brief   Fills in the passed in afAddrType_t parameter with the corresponding information
// 1101  *          from the zAddrType_t parameter.
// 1102  *
// 1103  * @param   epBuf - pointer to mem used
// 1104  *
// 1105  * @return  void
// 1106  */

        RSEG BANKED_CODE:HUGECODE:NOROOT(0)
// 1107 void afCopyAddress( afAddrType_t *afAddr, zAddrType_t *zAddr )
afCopyAddress:
          CFI Block cfiBlock233 Using cfiCommon0
          CFI Function afCopyAddress
        CODE
// 1108 {
        FUNCALL afCopyAddress, sAddrExtCpy
        LOCFRAME ISTACK, 0, STACK
        LOCFRAME PSTACK, 0, STACK
        LOCFRAME XSTACK, 9, STACK
        LOCFRAME IOVERLAY, 0, STATIC
        LOCFRAME DOVERLAY, 0, STATIC
        ARGFRAME ISTACK, 0, STACK
        ARGFRAME PSTACK, 0, STACK
        ARGFRAME XSTACK, 9, STACK
        ARGFRAME IOVERLAY, 0, STATIC
        ARGFRAME DOVERLAY, 0, STATIC
        MOV       A,#-0x9
        LCALL     ?BANKED_ENTER_XDATA
          CFI DPH0 load(1, XDATA, add(CFA_XSP16, literal(-1)))
          CFI DPL0 load(1, XDATA, add(CFA_XSP16, literal(-2)))
          CFI ?BRET_EXT load(1, XDATA, add(CFA_XSP16, literal(-3)))
          CFI ?RET_HIGH load(1, XDATA, add(CFA_XSP16, literal(-4)))
          CFI ?RET_LOW load(1, XDATA, add(CFA_XSP16, literal(-5)))
          CFI R7 load(1, XDATA, add(CFA_XSP16, literal(-6)))
          CFI V0 load(1, XDATA, add(CFA_XSP16, literal(-7)))
          CFI VB load(1, XDATA, add(CFA_XSP16, literal(-8)))
          CFI R6 load(1, XDATA, add(CFA_XSP16, literal(-9)))
          CFI CFA_SP SP+0
          CFI CFA_XSP16 add(XSP16, 9)
        ; Saved register size: 9
        ; Auto size: 0
        MOV       A,R2
        MOV       R6,A
        MOV       A,R3
        MOV       R7,A
// 1109   afAddr->addrMode = (afAddrMode_t)zAddr->addrMode;
        MOV       A,R4
        ADD       A,#0x8
        MOV       R0,A
        CLR       A
        ADDC      A,R5
        MOV       R1,A
        MOV       DPL,R0
        MOV       DPH,R1
        MOVX      A,@DPTR
        MOV       DPL,R6
        MOV       DPH,R7
        INC       DPTR
        INC       DPTR
        INC       DPTR
        INC       DPTR
        INC       DPTR
        INC       DPTR
        INC       DPTR
        INC       DPTR
        LCALL     ?Subroutine26 & 0xFFFF
// 1110   if ( zAddr->addrMode == Addr64Bit )
??CrossCallReturnLabel_42:
        JNZ       ??afCopyAddress_0
// 1111   {
// 1112     (void)osal_cpyExtAddr( afAddr->addr.extAddr, zAddr->addr.extAddr );
        ; Setup parameters for call to function sAddrExtCpy
        LCALL     `??sAddrExtCpy::?relay`; Banked call to: sAddrExtCpy
        SJMP      ??CrossCallReturnLabel_72
// 1113   }
// 1114   else
// 1115   {
// 1116     afAddr->addr.shortAddr = zAddr->addr.shortAddr;
??afCopyAddress_0:
        MOV       DPL,R4
        MOV       DPH,R5
        MOVX      A,@DPTR
        MOV       R0,A
        LCALL     ?Subroutine13 & 0xFFFF
// 1117   }
??CrossCallReturnLabel_91:
        LCALL     ??Subroutine35_0 & 0xFFFF
// 1118 
// 1119   // Since zAddrType_t has no INTER-PAN information, set the panId member to zero.
// 1120   afAddr->panId = 0;
??CrossCallReturnLabel_72:
        MOV       DPL,R6
        MOV       DPH,R7
        INC       DPTR
        INC       DPTR
        INC       DPTR
        INC       DPTR
        INC       DPTR
        INC       DPTR
        INC       DPTR
        INC       DPTR
        INC       DPTR
        INC       DPTR
        CLR       A
        MOVX      @DPTR,A
        INC       DPTR
        MOVX      @DPTR,A
// 1121 }
        LJMP      ?Subroutine2 & 0xFFFF
          CFI EndBlock cfiBlock233

        RSEG BANKED_CODE:HUGECODE:NOROOT(0)
?Subroutine26:
          CFI Block cfiCond234 Using cfiCommon0
          CFI Function AF_DataRequest
          CFI Conditional ??CrossCallReturnLabel_41
          CFI R6 load(1, XDATA, add(CFA_XSP16, literal(-18)))
          CFI VB load(1, XDATA, add(CFA_XSP16, literal(-17)))
          CFI V0 load(1, XDATA, add(CFA_XSP16, literal(-16)))
          CFI V1 load(1, XDATA, add(CFA_XSP16, literal(-15)))
          CFI V2 load(1, XDATA, add(CFA_XSP16, literal(-14)))
          CFI V3 load(1, XDATA, add(CFA_XSP16, literal(-13)))
          CFI V4 load(1, XDATA, add(CFA_XSP16, literal(-12)))
          CFI V5 load(1, XDATA, add(CFA_XSP16, literal(-11)))
          CFI V6 load(1, XDATA, add(CFA_XSP16, literal(-10)))
          CFI V7 load(1, XDATA, add(CFA_XSP16, literal(-9)))
          CFI V8 load(1, XDATA, add(CFA_XSP16, literal(-8)))
          CFI V9 load(1, XDATA, add(CFA_XSP16, literal(-7)))
          CFI R7 load(1, XDATA, add(CFA_XSP16, literal(-6)))
          CFI ?RET_LOW load(1, XDATA, add(CFA_XSP16, literal(-5)))
          CFI ?RET_HIGH load(1, XDATA, add(CFA_XSP16, literal(-4)))
          CFI ?BRET_EXT load(1, XDATA, add(CFA_XSP16, literal(-3)))
          CFI DPL0 load(1, XDATA, add(CFA_XSP16, literal(-2)))
          CFI DPH0 load(1, XDATA, add(CFA_XSP16, literal(-1)))
          CFI CFA_SP SP+-2
          CFI CFA_XSP16 add(XSP16, 50)
          CFI Block cfiCond235 Using cfiCommon0
          CFI (cfiCond235) Function afCopyAddress
          CFI (cfiCond235) Conditional ??CrossCallReturnLabel_42
          CFI (cfiCond235) R6 load(1, XDATA, add(CFA_XSP16, literal(-9)))
          CFI (cfiCond235) VB load(1, XDATA, add(CFA_XSP16, literal(-8)))
          CFI (cfiCond235) V0 load(1, XDATA, add(CFA_XSP16, literal(-7)))
          CFI (cfiCond235) R7 load(1, XDATA, add(CFA_XSP16, literal(-6)))
          CFI (cfiCond235) ?RET_LOW load(1, XDATA, add(CFA_XSP16, literal(-5)))
          CFI (cfiCond235) ?RET_HIGH load(1, XDATA, add(CFA_XSP16, literal(-4)))
          CFI (cfiCond235) ?BRET_EXT load(1, XDATA, add(CFA_XSP16, literal(-3)))
          CFI (cfiCond235) DPL0 load(1, XDATA, add(CFA_XSP16, literal(-2)))
          CFI (cfiCond235) DPH0 load(1, XDATA, add(CFA_XSP16, literal(-1)))
          CFI (cfiCond235) CFA_SP SP+-2
          CFI (cfiCond235) CFA_XSP16 add(XSP16, 9)
          CFI Block cfiPicker236 Using cfiCommon1
          CFI (cfiPicker236) NoFunction
          CFI (cfiPicker236) Picker
        LCALL     ?Subroutine30 & 0xFFFF
??CrossCallReturnLabel_52:
        MOVX      A,@DPTR
        XRL       A,#0x3
        RET
          CFI EndBlock cfiCond234
          CFI EndBlock cfiCond235
          CFI EndBlock cfiPicker236

        RSEG BANKED_CODE:HUGECODE:NOROOT(0)
?Subroutine30:
          CFI Block cfiCond237 Using cfiCommon0
          CFI Function afBuildMSGIncoming
          CFI Conditional ??CrossCallReturnLabel_49
          CFI R6 load(1, XDATA, add(CFA_XSP16, literal(-19)))
          CFI VB load(1, XDATA, add(CFA_XSP16, literal(-18)))
          CFI V0 load(1, XDATA, add(CFA_XSP16, literal(-17)))
          CFI V1 load(1, XDATA, add(CFA_XSP16, literal(-16)))
          CFI V2 load(1, XDATA, add(CFA_XSP16, literal(-15)))
          CFI V3 load(1, XDATA, add(CFA_XSP16, literal(-14)))
          CFI V4 load(1, XDATA, add(CFA_XSP16, literal(-13)))
          CFI V5 load(1, XDATA, add(CFA_XSP16, literal(-12)))
          CFI V6 load(1, XDATA, add(CFA_XSP16, literal(-11)))
          CFI V7 load(1, XDATA, add(CFA_XSP16, literal(-10)))
          CFI V8 load(1, XDATA, add(CFA_XSP16, literal(-9)))
          CFI V9 load(1, XDATA, add(CFA_XSP16, literal(-8)))
          CFI V10 load(1, XDATA, add(CFA_XSP16, literal(-7)))
          CFI R7 load(1, XDATA, add(CFA_XSP16, literal(-6)))
          CFI ?RET_LOW load(1, XDATA, add(CFA_XSP16, literal(-5)))
          CFI ?RET_HIGH load(1, XDATA, add(CFA_XSP16, literal(-4)))
          CFI ?BRET_EXT load(1, XDATA, add(CFA_XSP16, literal(-3)))
          CFI DPL0 load(1, XDATA, add(CFA_XSP16, literal(-2)))
          CFI DPH0 load(1, XDATA, add(CFA_XSP16, literal(-1)))
          CFI CFA_SP SP+-2
          CFI CFA_XSP16 add(XSP16, 19)
          CFI Block cfiCond238 Using cfiCommon0
          CFI (cfiCond238) Function afBuildMSGIncoming
          CFI (cfiCond238) Conditional ??CrossCallReturnLabel_50
          CFI (cfiCond238) R6 load(1, XDATA, add(CFA_XSP16, literal(-19)))
          CFI (cfiCond238) VB load(1, XDATA, add(CFA_XSP16, literal(-18)))
          CFI (cfiCond238) V0 load(1, XDATA, add(CFA_XSP16, literal(-17)))
          CFI (cfiCond238) V1 load(1, XDATA, add(CFA_XSP16, literal(-16)))
          CFI (cfiCond238) V2 load(1, XDATA, add(CFA_XSP16, literal(-15)))
          CFI (cfiCond238) V3 load(1, XDATA, add(CFA_XSP16, literal(-14)))
          CFI (cfiCond238) V4 load(1, XDATA, add(CFA_XSP16, literal(-13)))
          CFI (cfiCond238) V5 load(1, XDATA, add(CFA_XSP16, literal(-12)))
          CFI (cfiCond238) V6 load(1, XDATA, add(CFA_XSP16, literal(-11)))
          CFI (cfiCond238) V7 load(1, XDATA, add(CFA_XSP16, literal(-10)))
          CFI (cfiCond238) V8 load(1, XDATA, add(CFA_XSP16, literal(-9)))
          CFI (cfiCond238) V9 load(1, XDATA, add(CFA_XSP16, literal(-8)))
          CFI (cfiCond238) V10 load(1, XDATA, add(CFA_XSP16, literal(-7)))
          CFI (cfiCond238) R7 load(1, XDATA, add(CFA_XSP16, literal(-6)))
          CFI (cfiCond238) ?RET_LOW load(1, XDATA, add(CFA_XSP16, literal(-5)))
          CFI (cfiCond238) ?RET_HIGH load(1, XDATA, add(CFA_XSP16, literal(-4)))
          CFI (cfiCond238) ?BRET_EXT load(1, XDATA, add(CFA_XSP16, literal(-3)))
          CFI (cfiCond238) DPL0 load(1, XDATA, add(CFA_XSP16, literal(-2)))
          CFI (cfiCond238) DPH0 load(1, XDATA, add(CFA_XSP16, literal(-1)))
          CFI (cfiCond238) CFA_SP SP+-2
          CFI (cfiCond238) CFA_XSP16 add(XSP16, 19)
          CFI Block cfiCond239 Using cfiCommon0
          CFI (cfiCond239) Function afBuildMSGIncoming
          CFI (cfiCond239) Conditional ??CrossCallReturnLabel_51
          CFI (cfiCond239) R6 load(1, XDATA, add(CFA_XSP16, literal(-19)))
          CFI (cfiCond239) VB load(1, XDATA, add(CFA_XSP16, literal(-18)))
          CFI (cfiCond239) V0 load(1, XDATA, add(CFA_XSP16, literal(-17)))
          CFI (cfiCond239) V1 load(1, XDATA, add(CFA_XSP16, literal(-16)))
          CFI (cfiCond239) V2 load(1, XDATA, add(CFA_XSP16, literal(-15)))
          CFI (cfiCond239) V3 load(1, XDATA, add(CFA_XSP16, literal(-14)))
          CFI (cfiCond239) V4 load(1, XDATA, add(CFA_XSP16, literal(-13)))
          CFI (cfiCond239) V5 load(1, XDATA, add(CFA_XSP16, literal(-12)))
          CFI (cfiCond239) V6 load(1, XDATA, add(CFA_XSP16, literal(-11)))
          CFI (cfiCond239) V7 load(1, XDATA, add(CFA_XSP16, literal(-10)))
          CFI (cfiCond239) V8 load(1, XDATA, add(CFA_XSP16, literal(-9)))
          CFI (cfiCond239) V9 load(1, XDATA, add(CFA_XSP16, literal(-8)))
          CFI (cfiCond239) V10 load(1, XDATA, add(CFA_XSP16, literal(-7)))
          CFI (cfiCond239) R7 load(1, XDATA, add(CFA_XSP16, literal(-6)))
          CFI (cfiCond239) ?RET_LOW load(1, XDATA, add(CFA_XSP16, literal(-5)))
          CFI (cfiCond239) ?RET_HIGH load(1, XDATA, add(CFA_XSP16, literal(-4)))
          CFI (cfiCond239) ?BRET_EXT load(1, XDATA, add(CFA_XSP16, literal(-3)))
          CFI (cfiCond239) DPL0 load(1, XDATA, add(CFA_XSP16, literal(-2)))
          CFI (cfiCond239) DPH0 load(1, XDATA, add(CFA_XSP16, literal(-1)))
          CFI (cfiCond239) CFA_SP SP+-2
          CFI (cfiCond239) CFA_XSP16 add(XSP16, 19)
          CFI Block cfiCond240 Using cfiCommon0
          CFI (cfiCond240) Function AF_DataRequest
          CFI (cfiCond240) Conditional ??CrossCallReturnLabel_52, ??CrossCallReturnLabel_41
          CFI (cfiCond240) R6 load(1, XDATA, add(CFA_XSP16, literal(-18)))
          CFI (cfiCond240) VB load(1, XDATA, add(CFA_XSP16, literal(-17)))
          CFI (cfiCond240) V0 load(1, XDATA, add(CFA_XSP16, literal(-16)))
          CFI (cfiCond240) V1 load(1, XDATA, add(CFA_XSP16, literal(-15)))
          CFI (cfiCond240) V2 load(1, XDATA, add(CFA_XSP16, literal(-14)))
          CFI (cfiCond240) V3 load(1, XDATA, add(CFA_XSP16, literal(-13)))
          CFI (cfiCond240) V4 load(1, XDATA, add(CFA_XSP16, literal(-12)))
          CFI (cfiCond240) V5 load(1, XDATA, add(CFA_XSP16, literal(-11)))
          CFI (cfiCond240) V6 load(1, XDATA, add(CFA_XSP16, literal(-10)))
          CFI (cfiCond240) V7 load(1, XDATA, add(CFA_XSP16, literal(-9)))
          CFI (cfiCond240) V8 load(1, XDATA, add(CFA_XSP16, literal(-8)))
          CFI (cfiCond240) V9 load(1, XDATA, add(CFA_XSP16, literal(-7)))
          CFI (cfiCond240) R7 load(1, XDATA, add(CFA_XSP16, literal(-6)))
          CFI (cfiCond240) ?RET_LOW load(1, XDATA, add(CFA_XSP16, literal(-5)))
          CFI (cfiCond240) ?RET_HIGH load(1, XDATA, add(CFA_XSP16, literal(-4)))
          CFI (cfiCond240) ?BRET_EXT load(1, XDATA, add(CFA_XSP16, literal(-3)))
          CFI (cfiCond240) DPL0 load(1, XDATA, add(CFA_XSP16, literal(-2)))
          CFI (cfiCond240) DPH0 load(1, XDATA, add(CFA_XSP16, literal(-1)))
          CFI (cfiCond240) CFA_SP SP+-4
          CFI (cfiCond240) CFA_XSP16 add(XSP16, 50)
          CFI Block cfiCond241 Using cfiCommon0
          CFI (cfiCond241) Function afCopyAddress
          CFI (cfiCond241) Conditional ??CrossCallReturnLabel_52, ??CrossCallReturnLabel_42
          CFI (cfiCond241) R6 load(1, XDATA, add(CFA_XSP16, literal(-9)))
          CFI (cfiCond241) VB load(1, XDATA, add(CFA_XSP16, literal(-8)))
          CFI (cfiCond241) V0 load(1, XDATA, add(CFA_XSP16, literal(-7)))
          CFI (cfiCond241) R7 load(1, XDATA, add(CFA_XSP16, literal(-6)))
          CFI (cfiCond241) ?RET_LOW load(1, XDATA, add(CFA_XSP16, literal(-5)))
          CFI (cfiCond241) ?RET_HIGH load(1, XDATA, add(CFA_XSP16, literal(-4)))
          CFI (cfiCond241) ?BRET_EXT load(1, XDATA, add(CFA_XSP16, literal(-3)))
          CFI (cfiCond241) DPL0 load(1, XDATA, add(CFA_XSP16, literal(-2)))
          CFI (cfiCond241) DPH0 load(1, XDATA, add(CFA_XSP16, literal(-1)))
          CFI (cfiCond241) CFA_SP SP+-4
          CFI (cfiCond241) CFA_XSP16 add(XSP16, 9)
          CFI Block cfiPicker242 Using cfiCommon1
          CFI (cfiPicker242) NoFunction
          CFI (cfiPicker242) Picker
        MOVX      @DPTR,A
        MOV       DPL,R0
        MOV       DPH,R1
        RET
          CFI EndBlock cfiCond237
          CFI EndBlock cfiCond238
          CFI EndBlock cfiCond239
          CFI EndBlock cfiCond240
          CFI EndBlock cfiCond241
          CFI EndBlock cfiPicker242
// 1122 
// 1123 /**************************************************************************************************
// 1124  * @fn          afAPSF_ConfigGet
// 1125  *
// 1126  * @brief       This function ascertains the fragmentation configuration that corresponds to
// 1127  *              the specified EndPoint.
// 1128  *
// 1129  * input parameters
// 1130  *
// 1131  * @param       endPoint - The source EP of a Tx or destination EP of a Rx fragmented message.
// 1132  *
// 1133  * output parameters
// 1134  *
// 1135  * @param       pCfg - A pointer to an APSF configuration structure to fill with values.
// 1136  *
// 1137  * @return      None.
// 1138  */

        RSEG BANKED_CODE:HUGECODE:NOROOT(0)
// 1139 void afAPSF_ConfigGet(uint8 endPoint, afAPSF_Config_t *pCfg)
afAPSF_ConfigGet:
          CFI Block cfiBlock243 Using cfiCommon0
          CFI Function afAPSF_ConfigGet
        CODE
// 1140 {
        FUNCALL afAPSF_ConfigGet, afFindEndPointDescList
        LOCFRAME ISTACK, 0, STACK
        LOCFRAME PSTACK, 0, STACK
        LOCFRAME XSTACK, 12, STACK
        LOCFRAME IOVERLAY, 0, STATIC
        LOCFRAME DOVERLAY, 0, STATIC
        ARGFRAME ISTACK, 0, STACK
        ARGFRAME PSTACK, 0, STACK
        ARGFRAME XSTACK, 12, STACK
        ARGFRAME IOVERLAY, 0, STATIC
        ARGFRAME DOVERLAY, 0, STATIC
        FUNCALL afAPSF_ConfigGet, osal_memcpy
        LOCFRAME ISTACK, 0, STACK
        LOCFRAME PSTACK, 0, STACK
        LOCFRAME XSTACK, 15, STACK
        LOCFRAME IOVERLAY, 0, STATIC
        LOCFRAME DOVERLAY, 0, STATIC
        ARGFRAME ISTACK, 0, STACK
        ARGFRAME PSTACK, 0, STACK
        ARGFRAME XSTACK, 15, STACK
        ARGFRAME IOVERLAY, 0, STATIC
        ARGFRAME DOVERLAY, 0, STATIC
        REQUIRE ?V0
        REQUIRE ?V1
        REQUIRE ?V2
        REQUIRE ?V3
        MOV       A,#-0xc
        LCALL     ?BANKED_ENTER_XDATA
          CFI DPH0 load(1, XDATA, add(CFA_XSP16, literal(-1)))
          CFI DPL0 load(1, XDATA, add(CFA_XSP16, literal(-2)))
          CFI ?BRET_EXT load(1, XDATA, add(CFA_XSP16, literal(-3)))
          CFI ?RET_HIGH load(1, XDATA, add(CFA_XSP16, literal(-4)))
          CFI ?RET_LOW load(1, XDATA, add(CFA_XSP16, literal(-5)))
          CFI R7 load(1, XDATA, add(CFA_XSP16, literal(-6)))
          CFI V3 load(1, XDATA, add(CFA_XSP16, literal(-7)))
          CFI V2 load(1, XDATA, add(CFA_XSP16, literal(-8)))
          CFI V1 load(1, XDATA, add(CFA_XSP16, literal(-9)))
          CFI V0 load(1, XDATA, add(CFA_XSP16, literal(-10)))
          CFI VB load(1, XDATA, add(CFA_XSP16, literal(-11)))
          CFI R6 load(1, XDATA, add(CFA_XSP16, literal(-12)))
          CFI CFA_SP SP+0
          CFI CFA_XSP16 add(XSP16, 12)
        ; Saved register size: 12
        ; Auto size: 0
        MOV       A,R2
        MOV       R6,A
        MOV       A,R3
        MOV       R7,A
// 1141   epList_t *pList = afFindEndPointDescList(endPoint);
        ; Setup parameters for call to function afFindEndPointDescList
        LCALL     `??afFindEndPointDescList::?relay`; Banked call to: afFindEndPointDescList
        MOV       ?V0,R2
        MOV       ?V1,R3
        MOV       R0,?V0
        MOV       R1,?V1
// 1142 
// 1143   if (pList == NULL)
        MOV       A,R0
        ORL       A,R1
        JNZ       ??afAPSF_ConfigGet_0
// 1144   {
// 1145     pCfg->frameDelay = APSF_DEFAULT_INTERFRAME_DELAY;
        MOV       DPL,R6
        MOV       DPH,R7
        MOV       A,#0x32
        MOVX      @DPTR,A
// 1146     pCfg->windowSize = APSF_DEFAULT_WINDOW_SIZE;
        INC       DPTR
        MOV       A,#0x1
        MOVX      @DPTR,A
        SJMP      ??afAPSF_ConfigGet_1
// 1147   }
// 1148   else
// 1149   {
// 1150     (void)osal_memcpy(pCfg, &pList->apsfCfg, sizeof(afAPSF_Config_t));
??afAPSF_ConfigGet_0:
        ; Setup parameters for call to function osal_memcpy
        MOV       A,R0
        ADD       A,#0x6
        MOV       ?V0,A
        CLR       A
        ADDC      A,R1
        MOV       ?V1,A
        MOV       ?V2,#0x0
        MOV       R0,#?V0
        LCALL     ?PUSH_XSTACK_I_THREE
          CFI CFA_XSP16 add(XSP16, 15)
        MOV       R4,#0x2
        MOV       R5,#0x0
        MOV       A,R6
        MOV       R2,A
        MOV       A,R7
        MOV       R3,A
        LCALL     `??osal_memcpy::?relay`; Banked call to: osal_memcpy
        MOV       A,#0x3
        LCALL     ?DEALLOC_XSTACK8
          CFI CFA_XSP16 add(XSP16, 12)
// 1151   }
// 1152 }
??afAPSF_ConfigGet_1:
          CFI EndBlock cfiBlock243
        REQUIRE ?Subroutine0
        ; // Fall through to label ?Subroutine0

        RSEG BANKED_CODE:HUGECODE:NOROOT(0)
?Subroutine0:
          CFI Block cfiBlock244 Using cfiCommon0
          CFI NoFunction
          CFI CFA_SP SP+0
          CFI CFA_XSP16 add(XSP16, 12)
          CFI VB load(1, XDATA, add(CFA_XSP16, literal(-11)))
          CFI DPL0 load(1, XDATA, add(CFA_XSP16, literal(-2)))
          CFI DPH0 load(1, XDATA, add(CFA_XSP16, literal(-1)))
          CFI R6 load(1, XDATA, add(CFA_XSP16, literal(-12)))
          CFI R7 load(1, XDATA, add(CFA_XSP16, literal(-6)))
          CFI V0 load(1, XDATA, add(CFA_XSP16, literal(-10)))
          CFI V1 load(1, XDATA, add(CFA_XSP16, literal(-9)))
          CFI V2 load(1, XDATA, add(CFA_XSP16, literal(-8)))
          CFI V3 load(1, XDATA, add(CFA_XSP16, literal(-7)))
          CFI ?BRET_EXT load(1, XDATA, add(CFA_XSP16, literal(-3)))
          CFI ?RET_HIGH load(1, XDATA, add(CFA_XSP16, literal(-4)))
          CFI ?RET_LOW load(1, XDATA, add(CFA_XSP16, literal(-5)))
        MOV       R7,#0x4
        LJMP      ?BANKED_LEAVE_XDATA
          CFI EndBlock cfiBlock244
// 1153 
// 1154 /**************************************************************************************************
// 1155  * @fn          afAPSF_ConfigSet
// 1156  *
// 1157  * @brief       This function attempts to set the fragmentation configuration that corresponds to
// 1158  *              the specified EndPoint.
// 1159  *
// 1160  * input parameters
// 1161  *
// 1162  * @param       endPoint - The specific EndPoint for which to set the fragmentation configuration.
// 1163  * @param       pCfg - A pointer to an APSF configuration structure to fill with values.
// 1164  *
// 1165  * output parameters
// 1166  *
// 1167  * None.
// 1168  *
// 1169  * @return      afStatus_SUCCESS for success.
// 1170  *              afStatus_INVALID_PARAMETER if the specified EndPoint is not registered.
// 1171  */

        RSEG BANKED_CODE:HUGECODE:NOROOT(0)
// 1172 afStatus_t afAPSF_ConfigSet(uint8 endPoint, afAPSF_Config_t *pCfg)
afAPSF_ConfigSet:
          CFI Block cfiBlock245 Using cfiCommon0
          CFI Function afAPSF_ConfigSet
        CODE
// 1173 {
        FUNCALL afAPSF_ConfigSet, afFindEndPointDescList
        LOCFRAME ISTACK, 0, STACK
        LOCFRAME PSTACK, 0, STACK
        LOCFRAME XSTACK, 12, STACK
        LOCFRAME IOVERLAY, 0, STATIC
        LOCFRAME DOVERLAY, 0, STATIC
        ARGFRAME ISTACK, 0, STACK
        ARGFRAME PSTACK, 0, STACK
        ARGFRAME XSTACK, 12, STACK
        ARGFRAME IOVERLAY, 0, STATIC
        ARGFRAME DOVERLAY, 0, STATIC
        FUNCALL afAPSF_ConfigSet, osal_memcpy
        LOCFRAME ISTACK, 0, STACK
        LOCFRAME PSTACK, 0, STACK
        LOCFRAME XSTACK, 15, STACK
        LOCFRAME IOVERLAY, 0, STATIC
        LOCFRAME DOVERLAY, 0, STATIC
        ARGFRAME ISTACK, 0, STACK
        ARGFRAME PSTACK, 0, STACK
        ARGFRAME XSTACK, 15, STACK
        ARGFRAME IOVERLAY, 0, STATIC
        ARGFRAME DOVERLAY, 0, STATIC
        REQUIRE ?V0
        REQUIRE ?V1
        REQUIRE ?V2
        REQUIRE ?V3
        MOV       A,#-0xc
        LCALL     ?BANKED_ENTER_XDATA
          CFI DPH0 load(1, XDATA, add(CFA_XSP16, literal(-1)))
          CFI DPL0 load(1, XDATA, add(CFA_XSP16, literal(-2)))
          CFI ?BRET_EXT load(1, XDATA, add(CFA_XSP16, literal(-3)))
          CFI ?RET_HIGH load(1, XDATA, add(CFA_XSP16, literal(-4)))
          CFI ?RET_LOW load(1, XDATA, add(CFA_XSP16, literal(-5)))
          CFI R7 load(1, XDATA, add(CFA_XSP16, literal(-6)))
          CFI V3 load(1, XDATA, add(CFA_XSP16, literal(-7)))
          CFI V2 load(1, XDATA, add(CFA_XSP16, literal(-8)))
          CFI V1 load(1, XDATA, add(CFA_XSP16, literal(-9)))
          CFI V0 load(1, XDATA, add(CFA_XSP16, literal(-10)))
          CFI VB load(1, XDATA, add(CFA_XSP16, literal(-11)))
          CFI R6 load(1, XDATA, add(CFA_XSP16, literal(-12)))
          CFI CFA_SP SP+0
          CFI CFA_XSP16 add(XSP16, 12)
        ; Saved register size: 12
        ; Auto size: 0
        MOV       A,R2
        MOV       R6,A
        MOV       A,R3
        MOV       R7,A
// 1174   epList_t *pList = afFindEndPointDescList(endPoint);
        ; Setup parameters for call to function afFindEndPointDescList
        LCALL     `??afFindEndPointDescList::?relay`; Banked call to: afFindEndPointDescList
// 1175 
// 1176   if (pList == NULL)
        MOV       A,R2
        ORL       A,R3
        JNZ       ??afAPSF_ConfigSet_0
// 1177   {
// 1178     return afStatus_INVALID_PARAMETER;
        MOV       R1,#0x2
        SJMP      ??afAPSF_ConfigSet_1
// 1179   }
// 1180 
// 1181   (void)osal_memcpy(&pList->apsfCfg, pCfg, sizeof(afAPSF_Config_t));
??afAPSF_ConfigSet_0:
        ; Setup parameters for call to function osal_memcpy
        MOV       ?V0,R6
        MOV       ?V1,R7
        MOV       ?V2,#0x0
        MOV       R0,#?V0
        LCALL     ?PUSH_XSTACK_I_THREE
          CFI CFA_XSP16 add(XSP16, 15)
        MOV       R4,#0x2
        MOV       R5,#0x0
        MOV       A,R2
        ADD       A,#0x6
        MOV       R2,A
        JNC       ??afAPSF_ConfigSet_2
        INC       R3
??afAPSF_ConfigSet_2:
        LCALL     `??osal_memcpy::?relay`; Banked call to: osal_memcpy
        MOV       A,#0x3
        LCALL     ?DEALLOC_XSTACK8
          CFI CFA_XSP16 add(XSP16, 12)
// 1182   return afStatus_SUCCESS;
        MOV       R1,#0x0
??afAPSF_ConfigSet_1:
        SJMP      ?Subroutine0
// 1183 }
          CFI EndBlock cfiBlock245
// 1184 
// 1185 /**************************************************************************************************
// 1186  * @fn          afSetApplCB
// 1187  *
// 1188  * @brief       Sets the pointer to the Application Callback function for a
// 1189  *              specific EndPoint.
// 1190  *
// 1191  * input parameters
// 1192  *
// 1193  * @param       endPoint - The specific EndPoint for which to set Application Callback.
// 1194  * @param       pApplFn - A pointer to the Application Callback function.
// 1195  *
// 1196  * output parameters
// 1197  *
// 1198  * None.
// 1199  *
// 1200  * @return      TRUE if success, FALSE if endpoint not found
// 1201  */

        RSEG BANKED_CODE:HUGECODE:NOROOT(0)
// 1202 uint8 afSetApplCB( uint8 endPoint, pApplCB pApplFn )
afSetApplCB:
          CFI Block cfiBlock246 Using cfiCommon0
          CFI Function afSetApplCB
        CODE
// 1203 {
        FUNCALL afSetApplCB, afFindEndPointDescList
        LOCFRAME ISTACK, 0, STACK
        LOCFRAME PSTACK, 0, STACK
        LOCFRAME XSTACK, 12, STACK
        LOCFRAME IOVERLAY, 0, STATIC
        LOCFRAME DOVERLAY, 0, STATIC
        ARGFRAME ISTACK, 0, STACK
        ARGFRAME PSTACK, 0, STACK
        ARGFRAME XSTACK, 12, STACK
        ARGFRAME IOVERLAY, 0, STATIC
        ARGFRAME DOVERLAY, 0, STATIC
        REQUIRE ?V0
        REQUIRE ?V2
        REQUIRE ?V3
        MOV       A,#-0xc
        LCALL     ?BANKED_ENTER_XDATA
          CFI DPH0 load(1, XDATA, add(CFA_XSP16, literal(-1)))
          CFI DPL0 load(1, XDATA, add(CFA_XSP16, literal(-2)))
          CFI ?BRET_EXT load(1, XDATA, add(CFA_XSP16, literal(-3)))
          CFI ?RET_HIGH load(1, XDATA, add(CFA_XSP16, literal(-4)))
          CFI ?RET_LOW load(1, XDATA, add(CFA_XSP16, literal(-5)))
          CFI R7 load(1, XDATA, add(CFA_XSP16, literal(-6)))
          CFI V3 load(1, XDATA, add(CFA_XSP16, literal(-7)))
          CFI V2 load(1, XDATA, add(CFA_XSP16, literal(-8)))
          CFI V1 load(1, XDATA, add(CFA_XSP16, literal(-9)))
          CFI V0 load(1, XDATA, add(CFA_XSP16, literal(-10)))
          CFI VB load(1, XDATA, add(CFA_XSP16, literal(-11)))
          CFI R6 load(1, XDATA, add(CFA_XSP16, literal(-12)))
          CFI CFA_SP SP+0
          CFI CFA_XSP16 add(XSP16, 12)
        ; Saved register size: 12
        ; Auto size: 0
        MOV       A,R2
        MOV       R6,A
        MOV       A,R3
        MOV       R7,A
// 1204   if ( pApplFn != NULL )
        MOV       A,R6
        ORL       A,R7
        JZ        ??afSetApplCB_0
// 1205   {
// 1206     epList_t *epSearch;
// 1207 
// 1208     // Look for the endpoint
// 1209     epSearch = afFindEndPointDescList( endPoint );
        ; Setup parameters for call to function afFindEndPointDescList
        LCALL     `??afFindEndPointDescList::?relay`; Banked call to: afFindEndPointDescList
        MOV       DPL,R2
        MOV       DPH,R3
// 1210 
// 1211     if ( epSearch )
        MOV       A,DPL
        ORL       A,DPH
        JZ        ??afSetApplCB_0
// 1212     {
// 1213       epSearch->pfnApplCB = pApplFn;
        INC       DPTR
        INC       DPTR
        INC       DPTR
        INC       DPTR
        INC       DPTR
        INC       DPTR
        INC       DPTR
        INC       DPTR
        INC       DPTR
        MOV       A,R6
        MOVX      @DPTR,A
        INC       DPTR
        MOV       A,R7
        MOVX      @DPTR,A
// 1214 
// 1215       return ( TRUE );
        MOV       R1,#0x1
        SJMP      ??afSetApplCB_1
// 1216     }
// 1217   }
// 1218 
// 1219   return ( FALSE );
??afSetApplCB_0:
        MOV       R1,#0x0
??afSetApplCB_1:
        SJMP      ?Subroutine0
// 1220 }
          CFI EndBlock cfiBlock246

        RSEG XDATA_ID:CODE:NOROOT(0)
`?<Initializer for AF_DataRequestDiscoverRoute>`:
        DATA8
        DB 1

        RSEG BANK_RELAYS:CODE:REORDER:NOROOT(0)
`??afRegisterExtended::?relay`:
        CODE
        LCALL   ?BDISPATCH
        DATA24
        DC24    afRegisterExtended

        RSEG BANK_RELAYS:CODE:REORDER:NOROOT(0)
`??afRegister::?relay`:
        CODE
        LCALL   ?BDISPATCH
        DATA24
        DC24    afRegister

        RSEG BANK_RELAYS:CODE:REORDER:NOROOT(0)
`??afDelete::?relay`:
        CODE
        LCALL   ?BDISPATCH
        DATA24
        DC24    afDelete

        RSEG BANK_RELAYS:CODE:REORDER:NOROOT(0)
`??afDataConfirm::?relay`:
        CODE
        LCALL   ?BDISPATCH
        DATA24
        DC24    afDataConfirm

        RSEG BANK_RELAYS:CODE:REORDER:NOROOT(0)
`??afReflectError::?relay`:
        CODE
        LCALL   ?BDISPATCH
        DATA24
        DC24    afReflectError

        RSEG BANK_RELAYS:CODE:REORDER:NOROOT(0)
`??afIncomingData::?relay`:
        CODE
        LCALL   ?BDISPATCH
        DATA24
        DC24    afIncomingData

        RSEG BANK_RELAYS:CODE:REORDER:NOROOT(0)
`??afBuildMSGIncoming::?relay`:
        CODE
        LCALL   ?BDISPATCH
        DATA24
        DC24    afBuildMSGIncoming

        RSEG BANK_RELAYS:CODE:REORDER:NOROOT(0)
`??AF_DataRequest::?relay`:
        CODE
        LCALL   ?BDISPATCH
        DATA24
        DC24    AF_DataRequest

        RSEG BANK_RELAYS:CODE:REORDER:NOROOT(0)
`??AF_DataRequestSrcRtg::?relay`:
        CODE
        LCALL   ?BDISPATCH
        DATA24
        DC24    AF_DataRequestSrcRtg

        RSEG BANK_RELAYS:CODE:REORDER:NOROOT(0)
`??afFindEndPointDescList::?relay`:
        CODE
        LCALL   ?BDISPATCH
        DATA24
        DC24    afFindEndPointDescList

        RSEG BANK_RELAYS:CODE:REORDER:NOROOT(0)
`??afFindEndPointDesc::?relay`:
        CODE
        LCALL   ?BDISPATCH
        DATA24
        DC24    afFindEndPointDesc

        RSEG BANK_RELAYS:CODE:REORDER:NOROOT(0)
`??afFindSimpleDesc::?relay`:
        CODE
        LCALL   ?BDISPATCH
        DATA24
        DC24    afFindSimpleDesc

        RSEG BANK_RELAYS:CODE:REORDER:NOROOT(0)
`??afDataReqMTU::?relay`:
        CODE
        LCALL   ?BDISPATCH
        DATA24
        DC24    afDataReqMTU

        RSEG BANK_RELAYS:CODE:REORDER:NOROOT(0)
`??afGetMatch::?relay`:
        CODE
        LCALL   ?BDISPATCH
        DATA24
        DC24    afGetMatch

        RSEG BANK_RELAYS:CODE:REORDER:NOROOT(0)
`??afSetMatch::?relay`:
        CODE
        LCALL   ?BDISPATCH
        DATA24
        DC24    afSetMatch

        RSEG BANK_RELAYS:CODE:REORDER:NOROOT(0)
`??afNumEndPoints::?relay`:
        CODE
        LCALL   ?BDISPATCH
        DATA24
        DC24    afNumEndPoints

        RSEG BANK_RELAYS:CODE:REORDER:NOROOT(0)
`??afEndPoints::?relay`:
        CODE
        LCALL   ?BDISPATCH
        DATA24
        DC24    afEndPoints

        RSEG BANK_RELAYS:CODE:REORDER:NOROOT(0)
`??afCopyAddress::?relay`:
        CODE
        LCALL   ?BDISPATCH
        DATA24
        DC24    afCopyAddress

        RSEG BANK_RELAYS:CODE:REORDER:NOROOT(0)
`??afAPSF_ConfigGet::?relay`:
        CODE
        LCALL   ?BDISPATCH
        DATA24
        DC24    afAPSF_ConfigGet

        RSEG BANK_RELAYS:CODE:REORDER:NOROOT(0)
`??afAPSF_ConfigSet::?relay`:
        CODE
        LCALL   ?BDISPATCH
        DATA24
        DC24    afAPSF_ConfigSet

        RSEG BANK_RELAYS:CODE:REORDER:NOROOT(0)
`??afSetApplCB::?relay`:
        CODE
        LCALL   ?BDISPATCH
        DATA24
        DC24    afSetApplCB

        END
// 1221 
// 1222 /**************************************************************************************************
// 1223 */
// 
// 3 427 bytes in segment BANKED_CODE
//   126 bytes in segment BANK_RELAYS
//     1 byte  in segment XDATA_I
//     1 byte  in segment XDATA_ID
//     2 bytes in segment XDATA_Z
// 
//   127 bytes of CODE     memory
// 3 427 bytes of HUGECODE memory
//     3 bytes of XDATA    memory
//
//Errors: none
//Warnings: none
