###############################################################################
#
# IAR C/C++ Compiler V10.10.1.4655 for 8051               16/Feb/2018  22:13:39
# Copyright 2004-2017 IAR Systems AB.
# Evaluation license - IAR Embedded Workbench for 8051, Evaluation version 10.10
#
#    Core               =  plain
#    Code model         =  banked
#    Data model         =  large
#    Calling convention =  xdata reentrant
#    Constant location  =  data_rom
#    Dptr setup         =  1,16
#                          
#    Source file        =  
#        C:\Texas Instruments\Z-Stack Home
#        1.2.2a.44539\Components\stack\zdo\ZDObject.c
#    Command line       =  
#        -f C:\Users\Oskar\AppData\Local\Temp\EWC772.tmp ("C:\Texas
#        Instruments\Z-Stack Home 1.2.2a.44539\Components\stack\zdo\ZDObject.c"
#        -D FEATURE_SYSTEM_STATS -D CC2531ZNP -D POWER_SAVING -D ASSERT_RESET
#        -D FAKE_CRC_SHDW -D xTC_LINKKEY_JOIN -lC "C:\Texas Instruments\Z-Stack
#        Home 1.2.2a.44539\Projects\zstack\ZNP\CC253x\CC2531-ProdHex\List" -lA
#        "C:\Texas Instruments\Z-Stack Home
#        1.2.2a.44539\Projects\zstack\ZNP\CC253x\CC2531-ProdHex\List"
#        --diag_suppress Pe001,Pa010 -o "C:\Texas Instruments\Z-Stack Home
#        1.2.2a.44539\Projects\zstack\ZNP\CC253x\CC2531-ProdHex\Obj" -e --debug
#        --core=plain --dptr=16,1 --data_model=large --code_model=banked
#        --calling_convention=xdata_reentrant --place_constants=data_rom
#        --nr_virtual_regs 16 -f "C:\Texas Instruments\Z-Stack Home
#        1.2.2a.44539\Projects\zstack\ZNP\CC253x\..\Source\znp.cfg"
#        (-DMAC_CFG_APP_PENDING_QUEUE=TRUE
#        "-DZSTACK_DEVICE_BUILD=(DEVICE_BUILD_COORDINATOR | DEVICE_BUILD_ROUTER
#        | DEVICE_BUILD_ENDDEVICE)" -DNWK_AUTO_POLL -DZNP_RUN_WDOG=FALSE
#        -DZNP_UART_BAUD=HAL_UART_BR_115200 -DZIGBEEPRO -DZIGBEE_FRAGMENTATION
#        -DINTER_PAN -DOSAL_CLOCK -DOSAL_SAPI=FALSE -DSAPI_CB_FUNC=FALSE
#        -DHOLD_AUTO_START -DNV_RESTORE -DNV_INIT -DNUM_DISC_ATTEMPTS=0
#        -DTC_LINKKEY_JOIN -DMT_UTIL_FUNC -DMT_SYS_FUNC -DMT_AF_FUNC
#        -DMT_SAPI_FUNC -DMT_SAPI_CB_FUNC -DMT_ZDO_CB_FUNC -DMT_ZDO_FUNC
#        -DMT_ZDO_MGMT -DMT_ZDO_EXTENSIONS -DMT_APP_FUNC) -f "C:\Texas
#        Instruments\Z-Stack Home
#        1.2.2a.44539\Projects\zstack\ZNP\CC253x\..\..\Tools\CC2530DB\f8wConfig.cfg"
#        (-DZIGBEEPRO -DSECURE=1 -DZG_SECURE_DYNAMIC=0 -DREFLECTOR
#        -DDEFAULT_CHANLIST=0x00000800 -DZDAPP_CONFIG_PAN_ID=0xFFFF
#        -DNWK_START_DELAY=100 -DEXTENDED_JOINING_RANDOM_MASK=0x007F
#        -DBEACON_REQUEST_DELAY=100 -DBEACON_REQ_DELAY_MASK=0x00FF
#        -DLINK_STATUS_JITTER_MASK=0x007F -DROUTE_EXPIRY_TIME=30
#        -DAPSC_ACK_WAIT_DURATION_POLLED=3000 -DNWK_INDIRECT_MSG_TIMEOUT=7
#        -DMAX_RREQ_ENTRIES=8 -DAPSC_MAX_FRAME_RETRIES=3
#        -DNWK_MAX_DATA_RETRIES=2 -DMAX_POLL_FAILURE_RETRIES=2 -DMAX_BCAST=9
#        -DAPS_MAX_GROUPS=16 -DMAX_RTG_ENTRIES=40 -DNWK_MAX_BINDING_ENTRIES=4
#        -DMAX_BINDING_CLUSTER_IDS=4 "-DDEFAULT_KEY={0x01, 0x03, 0x05, 0x07,
#        0x09, 0x0B, 0x0D, 0x0F, 0x00, 0x02, 0x04, 0x06, 0x08, 0x0A, 0x0C,
#        0x0D}" -DMAC_MAX_FRAME_SIZE=116 -DZDNWKMGR_MIN_TRANSMISSIONS=20
#        "-DCONST=const __code" -DGENERIC=__generic -DRFD_RCVC_ALWAYS_ON=FALSE
#        -DPOLL_RATE=1000 -DQUEUED_POLL_RATE=100 -DRESPONSE_POLL_RATE=100
#        -DREJOIN_POLL_RATE=440 -DREJOIN_BACKOFF=900000 -DREJOIN_SCAN=900000)
#        -f "C:\Texas Instruments\Z-Stack Home
#        1.2.2a.44539\Projects\zstack\ZNP\CC253x\..\..\Tools\CC2530DB\f8wZCL.cfg"
#        -I "C:\Texas Instruments\Z-Stack Home
#        1.2.2a.44539\Projects\zstack\ZNP\CC253x\" -I "C:\Texas
#        Instruments\Z-Stack Home
#        1.2.2a.44539\Projects\zstack\ZNP\CC253x\Source\" -I "C:\Texas
#        Instruments\Z-Stack Home
#        1.2.2a.44539\Projects\zstack\ZNP\CC253x\..\Source\" -I "C:\Texas
#        Instruments\Z-Stack Home
#        1.2.2a.44539\Projects\zstack\ZNP\CC253x\..\..\SE\Source\" -I "C:\Texas
#        Instruments\Z-Stack Home
#        1.2.2a.44539\Projects\zstack\ZNP\CC253x\..\..\Utilities\BootLoad\Source\"
#        -I "C:\Texas Instruments\Z-Stack Home
#        1.2.2a.44539\Projects\zstack\ZNP\CC253x\..\..\ZMain\TI2530ZNP\" -I
#        "C:\Texas Instruments\Z-Stack Home
#        1.2.2a.44539\Projects\zstack\ZNP\CC253x\..\..\..\..\Components\hal\include\"
#        -I "C:\Texas Instruments\Z-Stack Home
#        1.2.2a.44539\Projects\zstack\ZNP\CC253x\..\..\..\..\Components\hal\target\CC2530USB\"
#        -I "C:\Texas Instruments\Z-Stack Home
#        1.2.2a.44539\Projects\zstack\ZNP\CC253x\..\..\..\..\Components\hal\target\CC2530USB\usb\library\"
#        -I "C:\Texas Instruments\Z-Stack Home
#        1.2.2a.44539\Projects\zstack\ZNP\CC253x\..\..\..\..\Components\hal\target\CC2530USB\usb\library\cc2531\"
#        -I "C:\Texas Instruments\Z-Stack Home
#        1.2.2a.44539\Projects\zstack\ZNP\CC253x\..\..\..\..\Components\hal\target\CC2530USB\usb\class_cdc\"
#        -I "C:\Texas Instruments\Z-Stack Home
#        1.2.2a.44539\Projects\zstack\ZNP\CC253x\..\..\..\..\Components\mac\include\"
#        -I "C:\Texas Instruments\Z-Stack Home
#        1.2.2a.44539\Projects\zstack\ZNP\CC253x\..\..\..\..\Components\mac\high_level\"
#        -I "C:\Texas Instruments\Z-Stack Home
#        1.2.2a.44539\Projects\zstack\ZNP\CC253x\..\..\..\..\Components\mac\low_level\srf04\"
#        -I "C:\Texas Instruments\Z-Stack Home
#        1.2.2a.44539\Projects\zstack\ZNP\CC253x\..\..\..\..\Components\mac\low_level\srf04\single_chip\"
#        -I "C:\Texas Instruments\Z-Stack Home
#        1.2.2a.44539\Projects\zstack\ZNP\CC253x\..\..\..\..\Components\mt\" -I
#        "C:\Texas Instruments\Z-Stack Home
#        1.2.2a.44539\Projects\zstack\ZNP\CC253x\..\..\..\..\Components\osal\include\"
#        -I "C:\Texas Instruments\Z-Stack Home
#        1.2.2a.44539\Projects\zstack\ZNP\CC253x\..\..\..\..\Components\services\ecc\binary163\"
#        -I "C:\Texas Instruments\Z-Stack Home
#        1.2.2a.44539\Projects\zstack\ZNP\CC253x\..\..\..\..\Components\services\ecc\binary283\"
#        -I "C:\Texas Instruments\Z-Stack Home
#        1.2.2a.44539\Projects\zstack\ZNP\CC253x\..\..\..\..\Components\services\saddr\"
#        -I "C:\Texas Instruments\Z-Stack Home
#        1.2.2a.44539\Projects\zstack\ZNP\CC253x\..\..\..\..\Components\services\sdata\"
#        -I "C:\Texas Instruments\Z-Stack Home
#        1.2.2a.44539\Projects\zstack\ZNP\CC253x\..\..\..\..\Components\stack\af\"
#        -I "C:\Texas Instruments\Z-Stack Home
#        1.2.2a.44539\Projects\zstack\ZNP\CC253x\..\..\..\..\Components\stack\nwk\"
#        -I "C:\Texas Instruments\Z-Stack Home
#        1.2.2a.44539\Projects\zstack\ZNP\CC253x\..\..\..\..\Components\stack\sapi\"
#        -I "C:\Texas Instruments\Z-Stack Home
#        1.2.2a.44539\Projects\zstack\ZNP\CC253x\..\..\..\..\Components\stack\sec\"
#        -I "C:\Texas Instruments\Z-Stack Home
#        1.2.2a.44539\Projects\zstack\ZNP\CC253x\..\..\..\..\Components\stack\sys\"
#        -I "C:\Texas Instruments\Z-Stack Home
#        1.2.2a.44539\Projects\zstack\ZNP\CC253x\..\..\..\..\Components\stack\zcl\"
#        -I "C:\Texas Instruments\Z-Stack Home
#        1.2.2a.44539\Projects\zstack\ZNP\CC253x\..\..\..\..\Components\stack\zdo\"
#        -I "C:\Texas Instruments\Z-Stack Home
#        1.2.2a.44539\Projects\zstack\ZNP\CC253x\..\..\..\..\Components\zmac\"
#        -I "C:\Texas Instruments\Z-Stack Home
#        1.2.2a.44539\Projects\zstack\ZNP\CC253x\..\..\..\..\Components\zmac\f8w\"
#        -Ohz --require_prototypes --no_code_motion)
#    Locale             =  German_Germany.1252
#    List file          =  
#        C:\Texas Instruments\Z-Stack Home
#        1.2.2a.44539\Projects\zstack\ZNP\CC253x\CC2531-ProdHex\List\ZDObject.lst
#    Object file        =  
#        C:\Texas Instruments\Z-Stack Home
#        1.2.2a.44539\Projects\zstack\ZNP\CC253x\CC2531-ProdHex\Obj\ZDObject.r51
#
###############################################################################

C:\Texas Instruments\Z-Stack Home 1.2.2a.44539\Components\stack\zdo\ZDObject.c
      1          /**************************************************************************************************
      2            Filename:       ZDObject.c
      3            Revised:        $Date: 2015-10-01 15:01:50 -0700 (Thu, 01 Oct 2015) $
      4            Revision:       $Revision: 44513 $
      5          
      6            Description:    This is the Zigbee Device Object.
      7          
      8          
      9            Copyright 2004-2015 Texas Instruments Incorporated. All rights reserved.
     10          
     11            IMPORTANT: Your use of this Software is limited to those specific rights
     12            granted under the terms of a software license agreement between the user
     13            who downloaded the software, his/her employer (which must be your employer)
     14            and Texas Instruments Incorporated (the "License"). You may not use this
     15            Software unless you agree to abide by the terms of the License. The License
     16            limits your use, and you acknowledge, that the Software may not be modified,
     17            copied or distributed unless embedded on a Texas Instruments microcontroller
     18            or used solely and exclusively in conjunction with a Texas Instruments radio
     19            frequency transceiver, which is integrated into your product. Other than for
     20            the foregoing purpose, you may not use, reproduce, copy, prepare derivative
     21            works of, modify, distribute, perform, display or sell this Software and/or
     22            its documentation for any purpose.
     23          
     24            YOU FURTHER ACKNOWLEDGE AND AGREE THAT THE SOFTWARE AND DOCUMENTATION ARE
     25            PROVIDED "AS IS" WITHOUT WARRANTY OF ANY KIND, EITHER EXPRESS OR IMPLIED,
     26            INCLUDING WITHOUT LIMITATION, ANY WARRANTY OF MERCHANTABILITY, TITLE,
     27            NON-INFRINGEMENT AND FITNESS FOR A PARTICULAR PURPOSE. IN NO EVENT SHALL
     28            TEXAS INSTRUMENTS OR ITS LICENSORS BE LIABLE OR OBLIGATED UNDER CONTRACT,
     29            NEGLIGENCE, STRICT LIABILITY, CONTRIBUTION, BREACH OF WARRANTY, OR OTHER
     30            LEGAL EQUITABLE THEORY ANY DIRECT OR INDIRECT DAMAGES OR EXPENSES
     31            INCLUDING BUT NOT LIMITED TO ANY INCIDENTAL, SPECIAL, INDIRECT, PUNITIVE
     32            OR CONSEQUENTIAL DAMAGES, LOST PROFITS OR LOST DATA, COST OF PROCUREMENT
     33            OF SUBSTITUTE GOODS, TECHNOLOGY, SERVICES, OR ANY CLAIMS BY THIRD PARTIES
     34            (INCLUDING BUT NOT LIMITED TO ANY DEFENSE THEREOF), OR OTHER SIMILAR COSTS.
     35          
     36            Should you have any questions regarding your right to use this Software,
     37            contact Texas Instruments Incorporated at www.TI.com.
     38          **************************************************************************************************/
     39          
     40          /*********************************************************************
     41           * INCLUDES
     42           */
     43          #include "ZComDef.h"
     44          #include "OSAL.h"
     45          #include "OSAL_Nv.h"
     46          #include "rtg.h"
     47          #include "NLMEDE.h"
     48          #include "nwk_globals.h"
     49          #include "APS.h"
     50          #include "APSMEDE.h"
     51          #include "AssocList.h"
     52          #include "BindingTable.h"
     53          #include "AddrMgr.h"
     54          #include "AF.h"
     55          #include "ZDObject.h"
     56          #include "ZDProfile.h"
     57          #include "ZDConfig.h"
     58          #include "ZDSecMgr.h"
     59          #include "ZDApp.h"
     60          #include "nwk_util.h"   // NLME_IsAddressBroadcast()
     61          #include "ZGlobals.h"
     62          #if defined MT_ZDO_CB_FUNC
     63          #include "MT.h"
     64          #endif
     65          
     66          #if defined( LCD_SUPPORTED )
     67            #include "OnBoard.h"
     68          #endif
     69          
     70          /* HAL */
     71          #include "hal_lcd.h"
     72          
     73          /*********************************************************************
     74           * MACROS
     75           */
     76          
     77          /*********************************************************************
     78           * CONSTANTS
     79           */
     80          // NLME Stub Implementations
     81          #define ZDO_ProcessMgmtPermitJoinTimeout NLME_PermitJoiningTimeout
     82          
     83          /*********************************************************************
     84           * TYPEDEFS
     85           */
     86          #if defined ( REFLECTOR )
     87          typedef struct
     88          {
     89            byte SrcTransSeq;
     90            zAddrType_t SrcAddr;
     91            uint16 LocalCoordinator;
     92            byte epIntf;
     93            uint16 ProfileID;
     94            byte numInClusters;
     95            uint16 *inClusters;
     96            byte numOutClusters;
     97            uint16 *outClusters;
     98            byte SecurityUse;
     99            byte status;
    100          } ZDO_EDBind_t;
    101          #endif // defined ( REFLECTOR )
    102          
    103          enum
    104          {
    105            ZDMATCH_INIT,           // Initialized
    106            ZDMATCH_WAIT_REQ,       // Received first request, waiting for second
    107            ZDMATCH_SENDING_BINDS   // Received both requests, sending unbind/binds
    108          };
    109          
    110          enum
    111          {
    112            ZDMATCH_SENDING_NOT,
    113            ZDMATCH_SENDING_UNBIND,
    114            ZDMATCH_SENDING_BIND
    115          };
    116          
    117          /*********************************************************************
    118           * GLOBAL VARIABLES
    119           */
    120          
    121          /*********************************************************************
    122           * EXTERNAL VARIABLES
    123           */
    124          
    125          /*********************************************************************
    126           * EXTERNAL FUNCTIONS
    127           */
    128          
    129          /*********************************************************************
    130           * LOCAL VARIABLES
    131           */

   \                                 In  segment XDATA_Z, align 1, keep-with-next
    132          static uint16 ZDOBuildBuf[26];  // temp area to build data without allocation
   \                     ZDOBuildBuf:
   \   000000                DS 52
   \   000034                REQUIRE __INIT_XDATA_Z
    133          
    134          #if defined ( REFLECTOR )

   \                                 In  segment XDATA_Z, align 1, keep-with-next
    135          static ZDO_EDBind_t *ZDO_EDBind;     // Null when not used
   \                     ZDO_EDBind:
   \   000000                DS 2
   \   000002                REQUIRE __INIT_XDATA_Z
    136          #endif
    137          
    138          #if defined ( MANAGED_SCAN )
    139            uint32 managedScanNextChannel = 0;
    140            uint32 managedScanChannelMask = 0;
    141            uint8  managedScanTimesPerChannel = 0;
    142          #endif
    143          

   \                                 In  segment XDATA_Z, align 1, keep-with-next
    144          ZDMatchEndDeviceBind_t *matchED = (ZDMatchEndDeviceBind_t *)NULL;
   \                     matchED:
   \   000000                DS 2
   \   000002                REQUIRE __INIT_XDATA_Z
    145          

   \                                 In  segment XDATA_Z, align 1, keep-with-next
    146          uint32 apsChannelMask = 0;
   \                     apsChannelMask:
   \   000000                DS 4
   \   000004                REQUIRE __INIT_XDATA_Z
    147          

   \                                 In  segment XDATA_I, align 1, keep-with-next
    148          int16 zdpExternalStateTaskID = -1;
   \                     zdpExternalStateTaskID:
   \   000000                DS 2
   \   000002                REQUIRE `?<Initializer for zdpExternalStateTaskID>`
   \   000002                REQUIRE __INIT_XDATA_I
    149          
    150          /*********************************************************************
    151           * LOCAL FUNCTIONS
    152           */
    153          static void ZDODeviceSetup( void );
    154          #if defined ( MANAGED_SCAN )
    155            static void ZDOManagedScan_Next( void );
    156          #endif
    157          #if defined ( REFLECTOR )
    158            static void ZDO_RemoveEndDeviceBind( void );
    159            static void ZDO_SendEDBindRsp( byte TransSeq, zAddrType_t *dstAddr, byte Status, byte secUse );
    160          #endif
    161          #if ( ZG_BUILD_COORDINATOR_TYPE )
    162            static byte ZDO_CompareClusterLists( byte numList1, uint16 *list1,
    163                                                 byte numList2, uint16 *list2, uint16 *pMatches );
    164            static void ZDO_RemoveMatchMemory( void );
    165            static uint8 ZDO_CopyMatchInfo( ZDEndDeviceBind_t *destReq, ZDEndDeviceBind_t *srcReq );
    166            static void ZDO_EndDeviceBindMatchTimeoutCB( void );
    167          #endif
    168          uint8 *ZDO_ConvertOTAClusters( uint8 cnt, uint8 *inBuf, uint16 *outList );
    169          static void zdoSendStateChangeMsg(uint8 state, uint8 taskId);
    170          
    171          /*********************************************************************
    172           * @fn          ZDO_Init
    173           *
    174           * @brief       ZDObject and ZDProfile initialization.
    175           *
    176           * @param       none
    177           *
    178           * @return      none
    179           */

   \                                 In  segment BANKED_CODE, align 1, keep-with-next
    180          void ZDO_Init( void )
   \                     ZDO_Init:
    181          {
   \   000000   C082         PUSH      DPL
   \   000002   C083         PUSH      DPH
   \   000004                ; Saved register size: 2
   \   000004                ; Auto size: 0
    182            // Initialize ZD items
    183            #if defined ( REFLECTOR )
    184            ZDO_EDBind = NULL;
   \   000004   90....       MOV       DPTR,#ZDO_EDBind
   \   000007   E4           CLR       A
   \   000008   F0           MOVX      @DPTR,A
   \   000009   A3           INC       DPTR
   \   00000A   F0           MOVX      @DPTR,A
    185            #endif
    186          
    187            // Initialize default ZDO_UseExtendedPANID to the APS one.
    188            osal_cpyExtAddr( ZDO_UseExtendedPANID, AIB_apsUseExtendedPANID );
   \   00000B                ; Setup parameters for call to function sAddrExtCpy
   \   00000B   7C..         MOV       R4,#AIB_apsUseExtendedPANID & 0xff
   \   00000D   7D..         MOV       R5,#(AIB_apsUseExtendedPANID >> 8) & 0xff
   \   00000F   7A..         MOV       R2,#ZDO_UseExtendedPANID & 0xff
   \   000011   7B..         MOV       R3,#(ZDO_UseExtendedPANID >> 8) & 0xff
   \   000013   12....       LCALL     `??sAddrExtCpy::?relay`; Banked call to: sAddrExtCpy
    189          
    190            // Setup the device - type of device to create.
    191            ZDODeviceSetup();
   \   000016                ; Setup parameters for call to function NLME_CoordinatorInit
   \   000016   12....       LCALL     `??NLME_CoordinatorInit::?relay`; Banked call to: NLME_CoordinatorInit
   \   000019                ; Setup parameters for call to function APS_ReflectorInit
   \   000019   12....       LCALL     `??APS_ReflectorInit::?relay`; Banked call to: APS_ReflectorInit
   \   00001C                ; Setup parameters for call to function NLME_DeviceJoiningInit
   \   00001C   12....       LCALL     `??NLME_DeviceJoiningInit::?relay`; Banked call to: NLME_DeviceJoiningInit
    192          }
   \   00001F   02....       LJMP      ?Subroutine0 & 0xFFFF

   \                                 In  segment BANKED_CODE, align 1, keep-with-next
   \                     ?Subroutine0:
   \   000000   D083         POP       DPH
   \   000002   D082         POP       DPL
   \   000004   02....       LJMP      ?BRET
    193          
    194          #if defined ( MANAGED_SCAN )
    195          /*********************************************************************
    196           * @fn      ZDOManagedScan_Next()
    197           *
    198           * @brief   Setup a managed scan.
    199           *
    200           * @param   none
    201           *
    202           * @return  none
    203           */
    204          static void ZDOManagedScan_Next( void )
    205          {
    206            // Is it the first time
    207            if ( managedScanNextChannel == 0 && managedScanTimesPerChannel == 0 )
    208            {
    209              // Setup the defaults
    210              managedScanNextChannel  = 1;
    211          
    212              while( managedScanNextChannel && (runtimeChannel & managedScanNextChannel) == 0 )
    213                managedScanNextChannel <<= 1;
    214          
    215              managedScanChannelMask = managedScanNextChannel;
    216              managedScanTimesPerChannel = MANAGEDSCAN_TIMES_PRE_CHANNEL;
    217            }
    218            else
    219            {
    220              // Do we need to go to the next channel
    221              if ( managedScanTimesPerChannel == 0 )
    222              {
    223                // Find next active channel
    224                managedScanChannelMask  = managedScanNextChannel;
    225                managedScanTimesPerChannel = MANAGEDSCAN_TIMES_PRE_CHANNEL;
    226              }
    227              else
    228              {
    229                managedScanTimesPerChannel--;
    230          
    231                if ( managedScanTimesPerChannel == 0 )
    232                {
    233                  managedScanNextChannel  <<= 1;
    234                  while( managedScanNextChannel && (runtimeChannel & managedScanNextChannel) == 0 )
    235                    managedScanNextChannel <<= 1;
    236          
    237                  if ( managedScanNextChannel == 0 )
    238                    zdoDiscCounter  = NUM_DISC_ATTEMPTS + 1; // Stop
    239                }
    240              }
    241            }
    242          }
    243          #endif // MANAGED_SCAN
    244          
    245          /*********************************************************************
    246           * @fn      ZDODeviceSetup()
    247           *
    248           * @brief   Call set functions depending on the type of device compiled.
    249           *
    250           * @param   none
    251           *
    252           * @return  none
    253           */
    254          static void ZDODeviceSetup( void )
    255          {
    256            if ( ZG_BUILD_COORDINATOR_TYPE )
    257            {
    258              NLME_CoordinatorInit();
    259            }
    260          
    261          #if defined ( REFLECTOR )
    262            APS_ReflectorInit();
    263          #endif
    264          
    265            if ( ZG_BUILD_JOINING_TYPE )
    266            {
    267              NLME_DeviceJoiningInit();
    268            }
    269          }
    270          
    271          /*********************************************************************
    272           * @fn          ZDO_StartDevice
    273           *
    274           * @brief       This function starts a device in a network.
    275           *
    276           * @param       logicalType     - Device type to start
    277           *              startMode       - indicates mode of device startup
    278           *              beaconOrder     - indicates time betwen beacons
    279           *              superframeOrder - indicates length of active superframe
    280           *
    281           * @return      none
    282           */

   \                                 In  segment BANKED_CODE, align 1, keep-with-next
    283          void ZDO_StartDevice( byte logicalType, devStartModes_t startMode, byte beaconOrder, byte superframeOrder )
   \                     ZDO_StartDevice:
    284          {
   \   000000                REQUIRE ?V0
   \   000000                REQUIRE ?V1
   \   000000                REQUIRE ?V2
   \   000000   74F5         MOV       A,#-0xb
   \   000002   12....       LCALL     ?BANKED_ENTER_XDATA
   \   000005                ; Saved register size: 11
   \   000005                ; Auto size: 11
   \   000005   74F5         MOV       A,#-0xb
   \   000007   12....       LCALL     ?ALLOC_XSTACK8
   \   00000A   E9           MOV       A,R1
   \   00000B   FF           MOV       R7,A
   \   00000C   8A..         MOV       ?V0,R2
   \   00000E   EB           MOV       A,R3
   \   00000F   FE           MOV       R6,A
   \   000010   8C..         MOV       ?V1,R4
    285            ZStatus_t ret;
    286          #if defined ( ZIGBEE_FREQ_AGILITY )
    287            static uint8 discRetries = 0;
    288          #endif
    289          #if defined ( ZIGBEE_COMMISSIONING )
    290            static uint8 scanCnt = 0;
    291          #endif
    292          
    293            ret = ZUnsupportedMode;
    294          
    295            if ( ZG_BUILD_COORDINATOR_TYPE && logicalType == NODETYPE_COORDINATOR )
   \   000012   EF           MOV       A,R7
   \   000013   705D         JNZ       ??ZDO_StartDevice_0
    296            {
    297              if ( startMode == MODE_HARD )
   \   000015   7402         MOV       A,#0x2
   \   000017   65..         XRL       A,?V0
   \   000019   703E         JNZ       ??ZDO_StartDevice_1
    298              {
    299                ZDApp_ChangeState( DEV_COORD_STARTING );
   \   00001B                ; Setup parameters for call to function ZDApp_ChangeState
   \   00001B   7908         MOV       R1,#0x8
   \   00001D   12....       LCALL     `??ZDApp_ChangeState::?relay`; Banked call to: ZDApp_ChangeState
    300                ret = NLME_NetworkFormationRequest( zgConfigPANID, zgApsUseExtendedPANID, runtimeChannel,
    301                                                    zgDefaultStartingScanDuration, beaconOrder,
    302                                                    superframeOrder, false );
   \   000020                ; Setup parameters for call to function NLME_NetworkFormationRequest
   \   000020   75..00       MOV       ?V2,#0x0
   \   000023   78..         MOV       R0,#?V2
   \   000025   12....       LCALL     ?PUSH_XSTACK_I_ONE
   \   000028   E5..         MOV       A,?V1
   \   00002A   F5..         MOV       ?V2,A
   \   00002C   78..         MOV       R0,#?V2
   \   00002E   12....       LCALL     ?PUSH_XSTACK_I_ONE
   \   000031   EE           MOV       A,R6
   \   000032   F5..         MOV       ?V2,A
   \   000034   78..         MOV       R0,#?V2
   \   000036   12....       LCALL     ?PUSH_XSTACK_I_ONE
   \   000039   90....       MOV       DPTR,#runtimeChannel
   \   00003C   12....       LCALL     ?PUSH_XSTACK8_X_FOUR
   \   00003F   90....       MOV       DPTR,#zgDefaultStartingScanDuration
   \   000042   E0           MOVX      A,@DPTR
   \   000043   F9           MOV       R1,A
   \   000044   7C..         MOV       R4,#zgApsUseExtendedPANID & 0xff
   \   000046   7D..         MOV       R5,#(zgApsUseExtendedPANID >> 8) & 0xff
   \   000048   90....       MOV       DPTR,#zgConfigPANID
   \   00004B   12....       LCALL     ??Subroutine243_0 & 0xFFFF
    303              }
   \                     ??CrossCallReturnLabel_490:
   \   00004E   12....       LCALL     `??NLME_NetworkFormationRequest::?relay`; Banked call to: NLME_NetworkFormationRequest
   \   000051   7407         MOV       A,#0x7
   \   000053   12....       LCALL     ?DEALLOC_XSTACK8
   \   000056   02....       LJMP      ??ZDO_StartDevice_2 & 0xFFFF
    304              else if ( startMode == MODE_RESUME )
   \                     ??ZDO_StartDevice_1:
   \   000059   7401         MOV       A,#0x1
   \   00005B   65..         XRL       A,?V0
   \   00005D   6003         JZ        $+5
   \   00005F   02....       LJMP      ??ZDO_StartDevice_3 & 0xFFFF
    305              {
    306                // Just start the coordinator
    307                ZDApp_ChangeState( DEV_COORD_STARTING );
   \   000062                ; Setup parameters for call to function ZDApp_ChangeState
   \   000062   7908         MOV       R1,#0x8
   \   000064   12....       LCALL     `??ZDApp_ChangeState::?relay`; Banked call to: ZDApp_ChangeState
    308                ret = NLME_StartRouterRequest( beaconOrder, beaconOrder, false );
   \   000067                ; Setup parameters for call to function NLME_StartRouterRequest
   \   000067   7B00         MOV       R3,#0x0
   \   000069   EE           MOV       A,R6
   \   00006A   FA           MOV       R2,A
   \   00006B   F9           MOV       R1,A
   \   00006C   12....       LCALL     `??NLME_StartRouterRequest::?relay`; Banked call to: NLME_StartRouterRequest
   \   00006F   02....       LJMP      ??ZDO_StartDevice_2 & 0xFFFF
    309              }
    310              else
    311              {
    312          #if defined( LCD_SUPPORTED )
    313                HalLcdWriteScreen( "StartDevice ERR", "MODE unknown" );
    314          #endif
    315              }
    316            }
    317          
    318            if ( ZG_BUILD_JOINING_TYPE && (logicalType == NODETYPE_ROUTER || logicalType == NODETYPE_DEVICE) )
   \                     ??ZDO_StartDevice_0:
   \   000072   7401         MOV       A,#0x1
   \   000074   6F           XRL       A,R7
   \   000075   6008         JZ        ??ZDO_StartDevice_4
   \   000077   7402         MOV       A,#0x2
   \   000079   6F           XRL       A,R7
   \   00007A   6003         JZ        $+5
   \   00007C   02....       LJMP      ??ZDO_StartDevice_3 & 0xFFFF
    319            {
    320              if ( (startMode == MODE_JOIN) || (startMode == MODE_REJOIN) )
   \                     ??ZDO_StartDevice_4:
   \   00007F   EA           MOV       A,R2
   \   000080   6006         JZ        ??ZDO_StartDevice_5
   \   000082   7403         MOV       A,#0x3
   \   000084   65..         XRL       A,?V0
   \   000086   7047         JNZ       ??ZDO_StartDevice_6
    321              {
    322                ZDApp_ChangeState( DEV_NWK_DISC );
   \                     ??ZDO_StartDevice_5:
   \   000088                ; Setup parameters for call to function ZDApp_ChangeState
   \   000088   7902         MOV       R1,#0x2
   \   00008A   12....       LCALL     `??ZDApp_ChangeState::?relay`; Banked call to: ZDApp_ChangeState
    323          
    324            #if defined( MANAGED_SCAN )
    325                ZDOManagedScan_Next();
    326                ret = NLME_NetworkDiscoveryRequest( managedScanChannelMask, BEACON_ORDER_15_MSEC );
    327          #else
    328                ret = NLME_NetworkDiscoveryRequest( runtimeChannel, zgDefaultStartingScanDuration );
   \   00008D                ; Setup parameters for call to function NLME_NetworkDiscoveryRequest
   \   00008D   90....       MOV       DPTR,#zgDefaultStartingScanDuration
   \   000090   E0           MOVX      A,@DPTR
   \   000091   F9           MOV       R1,A
   \   000092   90....       MOV       DPTR,#runtimeChannel
   \   000095   12....       LCALL     ?XLOAD_R2345
   \   000098   12....       LCALL     `??NLME_NetworkDiscoveryRequest::?relay`; Banked call to: NLME_NetworkDiscoveryRequest
   \   00009B   E9           MOV       A,R1
   \   00009C   F8           MOV       R0,A
    329          #if defined ( ZIGBEE_FREQ_AGILITY )
    330                if ( !( ZDO_Config_Node_Descriptor.CapabilityFlags & CAPINFO_RCVR_ON_IDLE ) &&
    331                    ( ret == ZSuccess ) && ( ++discRetries == 4 ) )
   \   00009D   90....       MOV       DPTR,#ZDO_Config_Node_Descriptor + 2
   \   0000A0   E0           MOVX      A,@DPTR
   \   0000A1   A2E3         MOV       C,0xE0 /* A   */.3
   \   0000A3   4010         JC        ??CrossCallReturnLabel_27
   \   0000A5   E8           MOV       A,R0
   \   0000A6   700D         JNZ       ??CrossCallReturnLabel_27
   \   0000A8   90....       MOV       DPTR,#??discRetries
   \   0000AB   E0           MOVX      A,@DPTR
   \   0000AC   04           INC       A
   \   0000AD   F0           MOVX      @DPTR,A
   \   0000AE   6404         XRL       A,#0x4
   \   0000B0   7003         JNZ       ??CrossCallReturnLabel_27
    332                {
    333                  // For devices with RxOnWhenIdle equals to FALSE, any network channel
    334                  // change will not be recieved. On these devices or routers that have
    335                  // lost the network, an active scan shall be conducted on the Default
    336                  // Channel list using the extended PANID to find the network. If the
    337                  // extended PANID isn't found using the Default Channel list, an scan
    338                  // should be completed using all channels.
    339                  runtimeChannel = MAX_CHANNELS_24GHZ;
   \   0000B2   12....       LCALL     ?Subroutine26 & 0xFFFF
    340                }
    341              #endif // ZIGBEE_FREQ_AGILITY
    342              #if defined ( ZIGBEE_COMMISSIONING )
    343                if (startMode == MODE_REJOIN && scanCnt++ >= 5 )
   \                     ??CrossCallReturnLabel_27:
   \   0000B5   7403         MOV       A,#0x3
   \   0000B7   65..         XRL       A,?V0
   \   0000B9   7079         JNZ       ??ZDO_StartDevice_7
   \   0000BB   90....       MOV       DPTR,#??scanCnt
   \   0000BE   E0           MOVX      A,@DPTR
   \   0000BF   F9           MOV       R1,A
   \   0000C0   7401         MOV       A,#0x1
   \   0000C2   29           ADD       A,R1
   \   0000C3   F0           MOVX      @DPTR,A
   \   0000C4   E9           MOV       A,R1
   \   0000C5   C3           CLR       C
   \   0000C6   9405         SUBB      A,#0x5
   \   0000C8   406A         JC        ??ZDO_StartDevice_7
    344                {
    345                  // When ApsUseExtendedPanID is commissioned to a non zero value via
    346                  // application specific means, the device shall conduct an active scan
    347                  // on the Default Channel list and join the PAN with the same
    348                  // ExtendedPanID. If the PAN is not found, an scan should be completed
    349                  // on all channels.
    350                  // When devices rejoin the network and the PAN is not found from
    351                  runtimeChannel = MAX_CHANNELS_24GHZ;
   \   0000CA   12....       LCALL     ?Subroutine26 & 0xFFFF
    352                }
    353              #endif // ZIGBEE_COMMISSIONING
    354            #endif
    355              }
   \                     ??CrossCallReturnLabel_28:
   \   0000CD   8065         SJMP      ??ZDO_StartDevice_7
    356              else if ( startMode == MODE_RESUME )
   \                     ??ZDO_StartDevice_6:
   \   0000CF   7401         MOV       A,#0x1
   \   0000D1   65..         XRL       A,?V0
   \   0000D3   7062         JNZ       ??ZDO_StartDevice_3
    357              {
    358                if ( logicalType == NODETYPE_ROUTER )
   \   0000D5   7401         MOV       A,#0x1
   \   0000D7   6F           XRL       A,R7
   \   0000D8   790A         MOV       R1,#0xa
   \   0000DA   702E         JNZ       ??ZDO_StartDevice_8
    359                {
    360                  ZMacScanCnf_t scanCnf;
    361                  ZDApp_ChangeState( DEV_NWK_ORPHAN );
   \   0000DC                ; Setup parameters for call to function ZDApp_ChangeState
   \   0000DC   12....       LCALL     `??ZDApp_ChangeState::?relay`; Banked call to: ZDApp_ChangeState
    362          
    363                  /* if router and nvram is available, fake successful orphan scan */
    364                  scanCnf.hdr.Status = ZSUCCESS;
   \   0000DF   7401         MOV       A,#0x1
   \   0000E1   12....       LCALL     ?XSTACK_DISP0_8
   \   0000E4   E4           CLR       A
   \   0000E5   F0           MOVX      @DPTR,A
    365                  scanCnf.ScanType = ZMAC_ORPHAN_SCAN;
   \   0000E6   7402         MOV       A,#0x2
   \   0000E8   12....       LCALL     ?XSTACK_DISP0_8
   \   0000EB   7403         MOV       A,#0x3
   \   0000ED   F0           MOVX      @DPTR,A
    366                  scanCnf.UnscannedChannels = 0;
   \   0000EE   04           INC       A
   \   0000EF   12....       LCALL     ?XSTACK_DISP0_8
   \   0000F2   E4           CLR       A
   \   0000F3   F0           MOVX      @DPTR,A
   \   0000F4   A3           INC       DPTR
   \   0000F5   F0           MOVX      @DPTR,A
   \   0000F6   A3           INC       DPTR
   \   0000F7   F0           MOVX      @DPTR,A
   \   0000F8   A3           INC       DPTR
   \   0000F9   F0           MOVX      @DPTR,A
    367                  scanCnf.ResultListSize = 0;
   \   0000FA   7408         MOV       A,#0x8
   \   0000FC   12....       LCALL     ?XSTACK_DISP0_8
   \   0000FF   E4           CLR       A
   \   000100   F0           MOVX      @DPTR,A
    368                  nwk_ScanJoiningOrphan(&scanCnf);
   \   000101                ; Setup parameters for call to function nwk_ScanJoiningOrphan
   \   000101   AA..         MOV       R2,?XSP + 0
   \   000103   AB..         MOV       R3,?XSP + 1
   \   000105   12....       LCALL     `??nwk_ScanJoiningOrphan::?relay`; Banked call to: nwk_ScanJoiningOrphan
    369          
    370                  ret = ZSuccess;
   \   000108   8044         SJMP      ??ZDO_StartDevice_9
    371                }
    372                else
    373                {
    374                  ZDApp_ChangeState( DEV_NWK_ORPHAN );
   \                     ??ZDO_StartDevice_8:
   \   00010A                ; Setup parameters for call to function ZDApp_ChangeState
   \   00010A   12....       LCALL     `??ZDApp_ChangeState::?relay`; Banked call to: ZDApp_ChangeState
    375                  //set timer for scan and rejoin
    376                  osal_start_timerEx( ZDAppTaskID, ZDO_REJOIN_BACKOFF, zgDefaultRejoinScan );
   \   00010D                ; Setup parameters for call to function osal_start_timerEx
   \   00010D   90....       MOV       DPTR,#zgDefaultRejoinScan
   \   000110   12....       LCALL     ?PUSH_XSTACK8_X_FOUR
   \   000113   7A00         MOV       R2,#0x0
   \   000115   7B20         MOV       R3,#0x20
   \   000117   90....       MOV       DPTR,#ZDAppTaskID
   \   00011A   E0           MOVX      A,@DPTR
   \   00011B   F9           MOV       R1,A
   \   00011C   12....       LCALL     `??osal_start_timerEx::?relay`; Banked call to: osal_start_timerEx
   \   00011F   7404         MOV       A,#0x4
   \   000121   12....       LCALL     ?DEALLOC_XSTACK8
    377                  ret = NLME_OrphanJoinRequest( runtimeChannel,
    378                                                zgDefaultStartingScanDuration );
   \   000124                ; Setup parameters for call to function NLME_OrphanJoinRequest
   \   000124   90....       MOV       DPTR,#zgDefaultStartingScanDuration
   \   000127   E0           MOVX      A,@DPTR
   \   000128   F9           MOV       R1,A
   \   000129   90....       MOV       DPTR,#runtimeChannel
   \   00012C   12....       LCALL     ?XLOAD_R2345
   \   00012F   12....       LCALL     `??NLME_OrphanJoinRequest::?relay`; Banked call to: NLME_OrphanJoinRequest
   \                     ??ZDO_StartDevice_2:
   \   000132   E9           MOV       A,R1
   \   000133   F8           MOV       R0,A
    379                }
    380              }
    381              else
    382              {
    383          #if defined( LCD_SUPPORTED )
    384                HalLcdWriteScreen( "StartDevice ERR", "MODE unknown" );
    385          #endif
    386              }
    387            }
    388          
    389            if ( ret != ZSuccess )
   \                     ??ZDO_StartDevice_7:
   \   000134   E8           MOV       A,R0
   \   000135   6017         JZ        ??ZDO_StartDevice_9
    390            {
    391              osal_start_timerEx(ZDAppTaskID, ZDO_NETWORK_INIT, NWK_RETRY_DELAY );
   \                     ??ZDO_StartDevice_3:
   \   000137                ; Setup parameters for call to function osal_start_timerEx
   \   000137   90....       MOV       DPTR,#__Constant_3e8
   \   00013A   12....       LCALL     ?PUSH_XSTACK8_X_FOUR
   \   00013D   7A01         MOV       R2,#0x1
   \   00013F   7B00         MOV       R3,#0x0
   \   000141   90....       MOV       DPTR,#ZDAppTaskID
   \   000144   E0           MOVX      A,@DPTR
   \   000145   F9           MOV       R1,A
   \   000146   12....       LCALL     `??osal_start_timerEx::?relay`; Banked call to: osal_start_timerEx
   \   000149   7404         MOV       A,#0x4
   \   00014B   12....       LCALL     ?DEALLOC_XSTACK8
    392            }
    393          }
   \                     ??ZDO_StartDevice_9:
   \   00014E   740B         MOV       A,#0xb
   \   000150   12....       LCALL     ?DEALLOC_XSTACK8
   \   000153   7F03         MOV       R7,#0x3
   \   000155   02....       LJMP      ?BANKED_LEAVE_XDATA

   \                                 In  segment BANKED_CODE, align 1, keep-with-next
   \                     ?Subroutine26:
   \   000000   90....       MOV       DPTR,#runtimeChannel
   \   000003   E4           CLR       A
   \   000004   F0           MOVX      @DPTR,A
   \   000005   A3           INC       DPTR
   \   000006   74F8         MOV       A,#-0x8
   \   000008   F0           MOVX      @DPTR,A
   \   000009   A3           INC       DPTR
   \   00000A   74FF         MOV       A,#-0x1
   \   00000C   F0           MOVX      @DPTR,A
   \   00000D   A3           INC       DPTR
   \   00000E   7407         MOV       A,#0x7
   \   000010   F0           MOVX      @DPTR,A
   \   000011   22           RET

   \                                 In  segment BANKED_CODE, align 1, keep-with-next
   \                     ??Subroutine243_0:
   \   000000   12....       LCALL     ??Subroutine245_0 & 0xFFFF
   \                     ??CrossCallReturnLabel_520:
   \   000003   22           RET

   \                                 In  segment BANKED_CODE, align 1, keep-with-next
   \                     ??Subroutine245_0:
   \   000000   12....       LCALL     ??Subroutine262_0 & 0xFFFF
   \                     ??CrossCallReturnLabel_697:
   \   000003   FB           MOV       R3,A
   \   000004   22           RET

   \                                 In  segment BANKED_CODE, align 1, keep-with-next
   \                     ??Subroutine262_0:
   \   000000   E0           MOVX      A,@DPTR
   \   000001   FA           MOV       R2,A
   \   000002   A3           INC       DPTR
   \   000003   E0           MOVX      A,@DPTR
   \   000004   22           RET

   \                                 In  segment XDATA_Z, align 1, keep-with-next
   \                     ??discRetries:
   \   000000                DS 1
   \   000001                REQUIRE __INIT_XDATA_Z

   \                                 In  segment XDATA_Z, align 1, keep-with-next
   \                     ??scanCnt:
   \   000000                DS 1
   \   000001                REQUIRE __INIT_XDATA_Z
    394          
    395          /**************************************************************************************************
    396           * @fn          zdoSendStateChangeMsg
    397           *
    398           * @brief       Helper function for ZDO_UpdateNwkStatus.
    399           *
    400           * input parameters
    401           *
    402           * @param       taskId - The OSAL task identifier to which to send the ZDO_STATE_CHANGE_EVT.
    403           * @param       state - The current device state.
    404           *
    405           * output parameters
    406           *
    407           * None.
    408           *
    409           * @return      None.
    410           **************************************************************************************************
    411           */

   \                                 In  segment BANKED_CODE, align 1, keep-with-next
    412          static void zdoSendStateChangeMsg(uint8 state, uint8 taskId)
   \                     zdoSendStateChangeMsg:
    413          {
   \   000000                REQUIRE ?V0
   \   000000                REQUIRE ?V1
   \   000000   74F6         MOV       A,#-0xa
   \   000002   12....       LCALL     ?BANKED_ENTER_XDATA
   \   000005                ; Saved register size: 10
   \   000005                ; Auto size: 0
   \   000005   E9           MOV       A,R1
   \   000006   FF           MOV       R7,A
   \   000007   EA           MOV       A,R2
   \   000008   FE           MOV       R6,A
    414            osal_event_hdr_t *pMsg = (osal_event_hdr_t *)osal_msg_find(taskId, ZDO_STATE_CHANGE);
   \   000009                ; Setup parameters for call to function osal_msg_find
   \   000009   7AD1         MOV       R2,#-0x2f
   \   00000B   F9           MOV       R1,A
   \   00000C   12....       LCALL     `??osal_msg_find::?relay`; Banked call to: osal_msg_find
   \   00000F   8A82         MOV       DPL,R2
   \   000011   8B83         MOV       DPH,R3
    415          
    416            if (NULL == pMsg)
   \   000013   E582         MOV       A,DPL
   \   000015   4583         ORL       A,DPH
   \   000017   702A         JNZ       ??zdoSendStateChangeMsg_0
    417            {
    418              if (NULL == (pMsg = (osal_event_hdr_t *)osal_msg_allocate(sizeof(osal_event_hdr_t))))
   \   000019                ; Setup parameters for call to function osal_msg_allocate
   \   000019   7A02         MOV       R2,#0x2
   \   00001B   7B00         MOV       R3,#0x0
   \   00001D   12....       LCALL     `??osal_msg_allocate::?relay`; Banked call to: osal_msg_allocate
   \   000020   EA           MOV       A,R2
   \   000021   4B           ORL       A,R3
   \   000022   700E         JNZ       ??zdoSendStateChangeMsg_1
    419              {
    420                // Upon failure to notify any EndPoint of the state change, re-set the ZDO event to
    421                // try again later when more Heap may be available.
    422                osal_set_event(ZDAppTaskID, ZDO_STATE_CHANGE_EVT);
   \   000024                ; Setup parameters for call to function osal_set_event
   \   000024   7A10         MOV       R2,#0x10
   \   000026   7B00         MOV       R3,#0x0
   \   000028   90....       MOV       DPTR,#ZDAppTaskID
   \   00002B   E0           MOVX      A,@DPTR
   \   00002C   F9           MOV       R1,A
   \   00002D   12....       LCALL     `??osal_set_event::?relay`; Banked call to: osal_set_event
   \   000030   8014         SJMP      ??zdoSendStateChangeMsg_2
    423              }
    424              else
    425              {
    426                pMsg->event = ZDO_STATE_CHANGE;
   \                     ??zdoSendStateChangeMsg_1:
   \   000032   8A82         MOV       DPL,R2
   \   000034   8B83         MOV       DPH,R3
   \   000036   74D1         MOV       A,#-0x2f
   \   000038   F0           MOVX      @DPTR,A
    427                pMsg->status = state;
   \   000039   EF           MOV       A,R7
   \   00003A   A3           INC       DPTR
   \   00003B   F0           MOVX      @DPTR,A
    428          
    429                (void)osal_msg_send(taskId, (uint8 *)pMsg);
   \   00003C                ; Setup parameters for call to function osal_msg_send
   \   00003C   EE           MOV       A,R6
   \   00003D   F9           MOV       R1,A
   \   00003E   12....       LCALL     `??osal_msg_send::?relay`; Banked call to: osal_msg_send
   \   000041   8003         SJMP      ??zdoSendStateChangeMsg_2
    430              }
    431            }
    432            else
    433            {
    434              // Modify in place the status of an existing ZDO_STATE_CHANGE message to the EndPoint.
    435              pMsg->status = state;
   \                     ??zdoSendStateChangeMsg_0:
   \   000043   EF           MOV       A,R7
   \   000044   A3           INC       DPTR
   \   000045   F0           MOVX      @DPTR,A
    436            }
    437          }
   \                     ??zdoSendStateChangeMsg_2:
   \   000046   02....       LJMP      ??Subroutine207_0 & 0xFFFF

   \                                 In  segment BANKED_CODE, align 1, keep-with-next
   \                     ??Subroutine207_0:
   \   000000   7F02         MOV       R7,#0x2
   \   000002   02....       LJMP      ?BANKED_LEAVE_XDATA
    438          
    439          /**************************************************************************************************
    440           * @fn          ZDO_UpdateNwkStatus
    441           *
    442           * @brief       This function sends a ZDO_STATE_CHANGE message to the task of every EndPoint
    443           *              registered with AF (except, of course, the ZDO_EP). Even if a single task has more
    444           *              than one registered EndPoint, it will only receive one notification per state
    445           *              change. Although the device may go through a sequence of state changes, the
    446           *              Application task may only receive notification of the final, steady-state state
    447           *              because it has the lowest priority and never even runs to receive the intermediate
    448           *              state change notifications.
    449           *
    450           * input parameters
    451           *
    452           * @param       state - The current device state.
    453           *
    454           * output parameters
    455           *
    456           * None.
    457           *
    458           * @return      None.
    459           **************************************************************************************************
    460           */

   \                                 In  segment BANKED_CODE, align 1, keep-with-next
    461          void ZDO_UpdateNwkStatus(devStates_t state)
   \                     ZDO_UpdateNwkStatus:
    462          {
   \   000000                REQUIRE ?V0
   \   000000   74F7         MOV       A,#-0x9
   \   000002   12....       LCALL     ?BANKED_ENTER_XDATA
   \   000005                ; Saved register size: 9
   \   000005                ; Auto size: 0
   \   000005   89..         MOV       ?V0,R1
    463            epList_t *pItem = epList;
   \   000007   90....       MOV       DPTR,#epList
   \   00000A   12....       LCALL     ?Subroutine181 & 0xFFFF
   \                     ??CrossCallReturnLabel_292:
   \   00000D   FF           MOV       R7,A
    464          
    465          #if defined MT_ZDO_CB_FUNC
    466            if ( zdpExternalStateTaskID == -1 )
   \   00000E   90....       MOV       DPTR,#zdpExternalStateTaskID
   \   000011   E0           MOVX      A,@DPTR
   \   000012   F4           CPL       A
   \   000013   7003         JNZ       ??ZDO_UpdateNwkStatus_0
   \   000015   A3           INC       DPTR
   \   000016   E0           MOVX      A,@DPTR
   \   000017   F4           CPL       A
   \                     ??ZDO_UpdateNwkStatus_0:
   \   000018   702D         JNZ       ??CrossCallReturnLabel_155
    467            {
    468              zdpExternalStateTaskID = MT_TaskID;
   \   00001A   90....       MOV       DPTR,#MT_TaskID
   \   00001D   E0           MOVX      A,@DPTR
   \   00001E   90....       MOV       DPTR,#zdpExternalStateTaskID
   \   000021   F0           MOVX      @DPTR,A
   \   000022   A3           INC       DPTR
   \   000023   E4           CLR       A
   \   000024   F0           MOVX      @DPTR,A
   \   000025   8020         SJMP      ??CrossCallReturnLabel_155
    469            }
    470          #endif
    471          
    472            while (pItem != NULL)
    473            {
    474              if (pItem->epDesc->endPoint != ZDO_EP)
   \                     ??ZDO_UpdateNwkStatus_1:
   \   000027   8E82         MOV       DPL,R6
   \   000029   8F83         MOV       DPH,R7
   \   00002B   A3           INC       DPTR
   \   00002C   12....       LCALL     ??Subroutine223_0 & 0xFFFF
   \                     ??CrossCallReturnLabel_392:
   \   00002F   600F         JZ        ??ZDO_UpdateNwkStatus_2
    475              {
    476                zdoSendStateChangeMsg(state, *(pItem->epDesc->task_id));
   \   000031                ; Setup parameters for call to function zdoSendStateChangeMsg
   \   000031   8E82         MOV       DPL,R6
   \   000033   8F83         MOV       DPH,R7
   \   000035   A3           INC       DPTR
   \   000036   A3           INC       DPTR
   \   000037   12....       LCALL     ?Subroutine62 & 0xFFFF
    477              }
   \                     ??CrossCallReturnLabel_394:
   \   00003A   FA           MOV       R2,A
   \   00003B   A9..         MOV       R1,?V0
   \   00003D   12....       LCALL     `??zdoSendStateChangeMsg::?relay`; Banked call to: zdoSendStateChangeMsg
    478          
    479              pItem = pItem->nextDesc;
   \                     ??ZDO_UpdateNwkStatus_2:
   \   000040   8E82         MOV       DPL,R6
   \   000042   8F83         MOV       DPH,R7
   \   000044   12....       LCALL     ?Subroutine103 & 0xFFFF
    480            }
   \                     ??CrossCallReturnLabel_155:
   \   000047   EE           MOV       A,R6
   \   000048   4F           ORL       A,R7
   \   000049   70DC         JNZ       ??ZDO_UpdateNwkStatus_1
    481          
    482            if ( zdpExternalStateTaskID != -1 )
   \   00004B   90....       MOV       DPTR,#zdpExternalStateTaskID
   \   00004E   E0           MOVX      A,@DPTR
   \   00004F   F4           CPL       A
   \   000050   7003         JNZ       ??ZDO_UpdateNwkStatus_3
   \   000052   A3           INC       DPTR
   \   000053   E0           MOVX      A,@DPTR
   \   000054   F4           CPL       A
   \                     ??ZDO_UpdateNwkStatus_3:
   \   000055   600A         JZ        ??ZDO_UpdateNwkStatus_4
    483            {
    484              zdoSendStateChangeMsg( state, zdpExternalStateTaskID );
   \   000057                ; Setup parameters for call to function zdoSendStateChangeMsg
   \   000057   90....       MOV       DPTR,#zdpExternalStateTaskID
   \   00005A   E0           MOVX      A,@DPTR
   \   00005B   FA           MOV       R2,A
   \   00005C   A9..         MOV       R1,?V0
   \   00005E   12....       LCALL     `??zdoSendStateChangeMsg::?relay`; Banked call to: zdoSendStateChangeMsg
    485            }
    486          
    487            ZDAppNwkAddr.addr.shortAddr = NLME_GetShortAddr();
   \                     ??ZDO_UpdateNwkStatus_4:
   \   000061                ; Setup parameters for call to function NLME_GetShortAddr
   \   000061   12....       LCALL     `??NLME_GetShortAddr::?relay`; Banked call to: NLME_GetShortAddr
   \   000064   90....       MOV       DPTR,#ZDAppNwkAddr
   \   000067   12....       LCALL     ??Subroutine213_0 & 0xFFFF
    488            (void)NLME_GetExtAddr();  // Load the saveExtAddr pointer.
   \                     ??CrossCallReturnLabel_340:
   \   00006A                ; Setup parameters for call to function NLME_GetExtAddr
   \   00006A   12....       LCALL     `??NLME_GetExtAddr::?relay`; Banked call to: NLME_GetExtAddr
    489          }
   \   00006D                REQUIRE ?Subroutine2
   \   00006D                ; // Fall through to label ?Subroutine2

   \                                 In  segment BANKED_CODE, align 1, keep-with-next
   \                     ?Subroutine2:
   \   000000   7F01         MOV       R7,#0x1
   \   000002   02....       LJMP      ?BANKED_LEAVE_XDATA

   \                                 In  segment BANKED_CODE, align 1, keep-with-next
   \                     ?Subroutine179:
   \   000000   E0           MOVX      A,@DPTR
   \   000001   F8           MOV       R0,A
   \   000002                REQUIRE ??Subroutine208_0
   \   000002                ; // Fall through to label ??Subroutine208_0

   \                                 In  segment BANKED_CODE, align 1, keep-with-next
   \                     ??Subroutine208_0:
   \   000000   A3           INC       DPTR
   \   000001                REQUIRE ??Subroutine209_0
   \   000001                ; // Fall through to label ??Subroutine209_0

   \                                 In  segment BANKED_CODE, align 1, keep-with-next
   \                     ??Subroutine209_0:
   \   000000   E0           MOVX      A,@DPTR
   \   000001   F583         MOV       DPH,A
   \   000003   8882         MOV       DPL,R0
   \   000005   22           RET

   \                                 In  segment BANKED_CODE, align 1, keep-with-next
   \                     ??Subroutine213_0:
   \   000000   EA           MOV       A,R2
   \   000001                REQUIRE ??Subroutine214_0
   \   000001                ; // Fall through to label ??Subroutine214_0

   \                                 In  segment BANKED_CODE, align 1, keep-with-next
   \                     ??Subroutine214_0:
   \   000000   F0           MOVX      @DPTR,A
   \   000001   A3           INC       DPTR
   \   000002   EB           MOV       A,R3
   \   000003   F0           MOVX      @DPTR,A
   \   000004   22           RET

   \                                 In  segment BANKED_CODE, align 1, keep-with-next
   \                     ?Subroutine62:
   \   000000   12....       LCALL     ??Subroutine208_0 & 0xFFFF
   \                     ??CrossCallReturnLabel_397:
   \   000003                REQUIRE ??Subroutine223_0
   \   000003                ; // Fall through to label ??Subroutine223_0

   \                                 In  segment BANKED_CODE, align 1, keep-with-next
   \                     ??Subroutine223_0:
   \   000000   A3           INC       DPTR
   \   000001                REQUIRE ??Subroutine224_0
   \   000001                ; // Fall through to label ??Subroutine224_0

   \                                 In  segment BANKED_CODE, align 1, keep-with-next
   \                     ??Subroutine224_0:
   \   000000   12....       LCALL     ?Subroutine179 & 0xFFFF
   \                     ??CrossCallReturnLabel_399:
   \   000003   E0           MOVX      A,@DPTR
   \   000004   22           RET

   \                                 In  segment BANKED_CODE, align 1, keep-with-next
   \                     ?Subroutine178:
   \   000000   E0           MOVX      A,@DPTR
   \   000001   F8           MOV       R0,A
   \   000002   A3           INC       DPTR
   \   000003   E0           MOVX      A,@DPTR
   \   000004   F9           MOV       R1,A
   \   000005   22           RET

   \                                 In  segment BANKED_CODE, align 1, keep-with-next
   \                     ?Subroutine181:
   \   000000   E0           MOVX      A,@DPTR
   \   000001   FE           MOV       R6,A
   \   000002   A3           INC       DPTR
   \   000003   E0           MOVX      A,@DPTR
   \   000004   22           RET

   \                                 In  segment BANKED_CODE, align 1, keep-with-next
   \                     ?Subroutine103:
   \   000000   12....       LCALL     ?Subroutine178 & 0xFFFF
   \                     ??CrossCallReturnLabel_477:
   \   000003   E8           MOV       A,R0
   \   000004   FE           MOV       R6,A
   \   000005   E9           MOV       A,R1
   \   000006   FF           MOV       R7,A
   \   000007   22           RET
    490          
    491          #if defined ( REFLECTOR )
    492          /*********************************************************************
    493           * @fn          ZDO_RemoveEndDeviceBind
    494           *
    495           * @brief       Remove the end device bind
    496           *
    497           * @param  none
    498           *
    499           * @return      none
    500           */
    501          static void ZDO_RemoveEndDeviceBind( void )
    502          {
    503            if ( ZDO_EDBind != NULL )
    504            {
    505              // Free the RAM
    506              if ( ZDO_EDBind->inClusters != NULL )
    507              {
    508                osal_mem_free( ZDO_EDBind->inClusters );
    509              }
    510              if ( ZDO_EDBind->outClusters != NULL )
    511              {
    512                osal_mem_free( ZDO_EDBind->outClusters );
    513              }
    514              osal_mem_free( ZDO_EDBind );
    515              ZDO_EDBind = NULL;
    516            }
    517          }
    518          #endif // REFLECTOR
    519          
    520          #if defined ( REFLECTOR )
    521          /*********************************************************************
    522           * @fn          ZDO_SendEDBindRsp
    523           *
    524           * @brief       Send the end device bind response
    525           *
    526           * @param  none
    527           *
    528           * @return      none
    529           */
    530          static void ZDO_SendEDBindRsp( byte TransSeq, zAddrType_t *dstAddr, byte Status, byte secUse )
    531          {
    532            ZDP_EndDeviceBindRsp( TransSeq, dstAddr, Status, secUse );
    533          
    534          #if defined( LCD_SUPPORTED )
    535            HalLcdWriteString( "End Device Bind", HAL_LCD_LINE_1 );
    536            if ( Status == ZDP_SUCCESS )
    537            {
    538              HalLcdWriteString( "Success Sent", HAL_LCD_LINE_2 );
    539            }
    540            else
    541            {
    542              HalLcdWriteString( "Timeout", HAL_LCD_LINE_2 );
    543            }
    544          #endif
    545          
    546          }
    547          #endif // REFLECTOR
    548          
    549          #if ( ZG_BUILD_COORDINATOR_TYPE )
    550          /*********************************************************************
    551           * @fn          ZDO_CompareClusterLists
    552           *
    553           * @brief       Compare one list to another list
    554           *
    555           * @param       numList1 - number of items in list 1
    556           * @param       list1 - first list of cluster IDs
    557           * @param       numList2 - number of items in list 2
    558           * @param       list2 - second list of cluster IDs
    559           * @param       pMatches - buffer to put matches
    560           *
    561           * @return      number of matches
    562           */

   \                                 In  segment BANKED_CODE, align 1, keep-with-next
    563          static byte ZDO_CompareClusterLists( byte numList1, uint16 *list1,
   \                     ZDO_CompareClusterLists:
    564                                    byte numList2, uint16 *list2, uint16 *pMatches )
    565          {
   \   000000                REQUIRE ?V0
   \   000000                REQUIRE ?V1
   \   000000                REQUIRE ?V2
   \   000000                REQUIRE ?V3
   \   000000                REQUIRE ?V4
   \   000000                REQUIRE ?V6
   \   000000                REQUIRE ?V7
   \   000000   74F0         MOV       A,#-0x10
   \   000002   12....       LCALL     ?BANKED_ENTER_XDATA
   \   000005                ; Saved register size: 16
   \   000005                ; Auto size: 0
   \   000005   89..         MOV       ?V3,R1
   \   000007   8C..         MOV       ?V4,R4
    566            byte x, y;
    567            uint16 z;
    568            byte numMatches = 0;
   \   000009   75..00       MOV       ?V1,#0x0
    569          
    570            // Check the first in against the seconds out
    571            for ( x = 0; x < numList1; x++ )
   \   00000C   75..00       MOV       ?V0,#0x0
   \   00000F   7410         MOV       A,#0x10
   \   000011   12....       LCALL     ?XSTACK_DISP0_8
   \   000014   12....       LCALL     ??Subroutine229_0 & 0xFFFF
   \                     ??CrossCallReturnLabel_415:
   \   000017   7412         MOV       A,#0x12
   \   000019   12....       LCALL     ?XSTACK_DISP0_8
   \   00001C   12....       LCALL     ??Subroutine228_0 & 0xFFFF
   \                     ??CrossCallReturnLabel_408:
   \   00001F   FD           MOV       R5,A
   \   000020   8047         SJMP      ??ZDO_CompareClusterLists_0
    572            {
    573              for ( y = 0; y < numList2; y++ )
    574              {
    575                z = list2[y];
   \                     ??ZDO_CompareClusterLists_1:
   \   000022   12....       LCALL     ?Subroutine115 & 0xFFFF
   \                     ??CrossCallReturnLabel_175:
   \   000025   F5..         MOV       ?V6,A
   \   000027   A3           INC       DPTR
   \   000028   E0           MOVX      A,@DPTR
   \   000029   F5..         MOV       ?V7,A
    576                if ( list1[x] == z )
   \   00002B   AE..         MOV       R6,?V0
   \   00002D   EE           MOV       A,R6
   \   00002E   2E           ADD       A,R6
   \   00002F   FE           MOV       R6,A
   \   000030   E4           CLR       A
   \   000031   33           RLC       A
   \   000032   FF           MOV       R7,A
   \   000033   EA           MOV       A,R2
   \   000034   2E           ADD       A,R6
   \   000035   F582         MOV       DPL,A
   \   000037   EB           MOV       A,R3
   \   000038   12....       LCALL     ??Subroutine256_0 & 0xFFFF
   \                     ??CrossCallReturnLabel_564:
   \   00003B   65..         XRL       A,?V6
   \   00003D   7004         JNZ       ??ZDO_CompareClusterLists_2
   \   00003F   A3           INC       DPTR
   \   000040   E0           MOVX      A,@DPTR
   \   000041   65..         XRL       A,?V7
   \                     ??ZDO_CompareClusterLists_2:
   \   000043   7019         JNZ       ??ZDO_CompareClusterLists_3
    577                {
    578                  pMatches[numMatches++] = z;
   \   000045   AE..         MOV       R6,?V1
   \   000047   EE           MOV       A,R6
   \   000048   2E           ADD       A,R6
   \   000049   FE           MOV       R6,A
   \   00004A   E4           CLR       A
   \   00004B   33           RLC       A
   \   00004C   FF           MOV       R7,A
   \   00004D   EC           MOV       A,R4
   \   00004E   2E           ADD       A,R6
   \   00004F   F582         MOV       DPL,A
   \   000051   ED           MOV       A,R5
   \   000052   3F           ADDC      A,R7
   \   000053   F583         MOV       DPH,A
   \   000055   E5..         MOV       A,?V6
   \   000057   F0           MOVX      @DPTR,A
   \   000058   A3           INC       DPTR
   \   000059   E5..         MOV       A,?V7
   \   00005B   F0           MOVX      @DPTR,A
   \   00005C   05..         INC       ?V1
    579                }
    580              }
   \                     ??ZDO_CompareClusterLists_3:
   \   00005E   05..         INC       ?V2
   \                     ??ZDO_CompareClusterLists_4:
   \   000060   E5..         MOV       A,?V2
   \   000062   C3           CLR       C
   \   000063   95..         SUBB      A,?V4
   \   000065   40BB         JC        ??ZDO_CompareClusterLists_1
   \   000067   05..         INC       ?V0
   \                     ??ZDO_CompareClusterLists_0:
   \   000069   E5..         MOV       A,?V0
   \   00006B   C3           CLR       C
   \   00006C   95..         SUBB      A,?V3
   \   00006E   5005         JNC       ??ZDO_CompareClusterLists_5
   \   000070   75..00       MOV       ?V2,#0x0
   \   000073   80EB         SJMP      ??ZDO_CompareClusterLists_4
    581            }
    582          
    583            return ( numMatches );
   \                     ??ZDO_CompareClusterLists_5:
   \   000075   A9..         MOV       R1,?V1
   \   000077   80..         SJMP      ??Subroutine204_0
    584          }

   \                                 In  segment BANKED_CODE, align 1, keep-with-next
   \                     ??Subroutine204_0:
   \   000000   7F08         MOV       R7,#0x8
   \   000002   02....       LJMP      ?BANKED_LEAVE_XDATA

   \                                 In  segment BANKED_CODE, align 1, keep-with-next
   \                     ?Subroutine115:
   \   000000   AE..         MOV       R6,?V2
   \   000002   EE           MOV       A,R6
   \   000003   2E           ADD       A,R6
   \   000004   FE           MOV       R6,A
   \   000005   E4           CLR       A
   \   000006   33           RLC       A
   \   000007   FF           MOV       R7,A
   \   000008   E8           MOV       A,R0
   \   000009   2E           ADD       A,R6
   \   00000A   F582         MOV       DPL,A
   \   00000C   E9           MOV       A,R1
   \   00000D   12....       LCALL     ??Subroutine212_0 & 0xFFFF
   \                     ??CrossCallReturnLabel_579:
   \   000010   22           RET

   \                                 In  segment BANKED_CODE, align 1, keep-with-next
   \                     ??Subroutine212_0:
   \   000000   3F           ADDC      A,R7
   \   000001   F583         MOV       DPH,A
   \   000003   E0           MOVX      A,@DPTR
   \   000004   22           RET

   \                                 In  segment BANKED_CODE, align 1, keep-with-next
   \                     ??Subroutine228_0:
   \   000000   E0           MOVX      A,@DPTR
   \   000001   FC           MOV       R4,A
   \   000002   A3           INC       DPTR
   \   000003   E0           MOVX      A,@DPTR
   \   000004   22           RET

   \                                 In  segment BANKED_CODE, align 1, keep-with-next
   \                     ??Subroutine229_0:
   \   000000   12....       LCALL     ?Subroutine178 & 0xFFFF
   \                     ??CrossCallReturnLabel_478:
   \   000003   22           RET

   \                                 In  segment BANKED_CODE, align 1, keep-with-next
   \                     ??Subroutine256_0:
   \   000000   12....       LCALL     ??Subroutine212_0 & 0xFFFF
   \                     ??CrossCallReturnLabel_584:
   \   000003   22           RET
    585          #endif // ZG_BUILD_COORDINATOR_TYPE
    586          
    587          /*********************************************************************
    588           * Utility functions
    589           */
    590          
    591          /*********************************************************************
    592           * @fn          ZDO_CompareByteLists
    593           *
    594           * @brief       Compares two lists for matches.
    595           *
    596           * @param       ACnt  - number of entries in list A
    597           * @param       AList  - List A
    598           * @param       BCnt  - number of entries in list B
    599           * @param       BList  - List B
    600           *
    601           * @return      true if a match is found
    602           */

   \                                 In  segment BANKED_CODE, align 1, keep-with-next
    603          byte ZDO_AnyClusterMatches( byte ACnt, uint16 *AList, byte BCnt, uint16 *BList )
   \                     ZDO_AnyClusterMatches:
    604          {
   \   000000                REQUIRE ?V0
   \   000000                REQUIRE ?V1
   \   000000                REQUIRE ?V2
   \   000000                REQUIRE ?V3
   \   000000   74F4         MOV       A,#-0xc
   \   000002   12....       LCALL     ?BANKED_ENTER_XDATA
   \   000005                ; Saved register size: 12
   \   000005                ; Auto size: 0
   \   000005   89..         MOV       ?V3,R1
    605            byte x, y;
    606          
    607            for ( x = 0; x < ACnt; x++ )
   \   000007   7D00         MOV       R5,#0x0
   \   000009   740C         MOV       A,#0xc
   \   00000B   12....       LCALL     ?XSTACK_DISP0_8
   \   00000E   12....       LCALL     ??Subroutine229_0 & 0xFFFF
   \                     ??CrossCallReturnLabel_416:
   \   000011   8001         SJMP      ??ZDO_AnyClusterMatches_0
   \                     ??ZDO_AnyClusterMatches_1:
   \   000013   0D           INC       R5
   \                     ??ZDO_AnyClusterMatches_0:
   \   000014   ED           MOV       A,R5
   \   000015   C3           CLR       C
   \   000016   95..         SUBB      A,?V3
   \   000018   502E         JNC       ??ZDO_AnyClusterMatches_2
    608            {
    609              for ( y = 0; y < BCnt; y++ )
   \   00001A   75..00       MOV       ?V2,#0x0
   \   00001D   8002         SJMP      ??ZDO_AnyClusterMatches_3
   \                     ??ZDO_AnyClusterMatches_4:
   \   00001F   05..         INC       ?V2
   \                     ??ZDO_AnyClusterMatches_3:
   \   000021   E5..         MOV       A,?V2
   \   000023   C3           CLR       C
   \   000024   9C           SUBB      A,R4
   \   000025   50EC         JNC       ??ZDO_AnyClusterMatches_1
    610              {
    611                if ( AList[x] == BList[y] )
   \   000027   ED           MOV       A,R5
   \   000028   25E0         ADD       A,0xE0 /* A   */
   \   00002A   FE           MOV       R6,A
   \   00002B   E4           CLR       A
   \   00002C   33           RLC       A
   \   00002D   FF           MOV       R7,A
   \   00002E   EA           MOV       A,R2
   \   00002F   2E           ADD       A,R6
   \   000030   F582         MOV       DPL,A
   \   000032   EB           MOV       A,R3
   \   000033   3F           ADDC      A,R7
   \   000034   12....       LCALL     ??Subroutine233_0 & 0xFFFF
   \                     ??CrossCallReturnLabel_459:
   \   000037   12....       LCALL     ?Subroutine115 & 0xFFFF
   \                     ??CrossCallReturnLabel_176:
   \   00003A   65..         XRL       A,?V0
   \   00003C   7004         JNZ       ??ZDO_AnyClusterMatches_5
   \   00003E   A3           INC       DPTR
   \   00003F   E0           MOVX      A,@DPTR
   \   000040   65..         XRL       A,?V1
   \                     ??ZDO_AnyClusterMatches_5:
   \   000042   70DB         JNZ       ??ZDO_AnyClusterMatches_4
    612                {
    613                  return true;
   \   000044   7901         MOV       R1,#0x1
   \   000046   8002         SJMP      ??ZDO_AnyClusterMatches_6
    614                }
    615              }
    616            }
    617          
    618            return false;
   \                     ??ZDO_AnyClusterMatches_2:
   \   000048   7900         MOV       R1,#0x0
   \                     ??ZDO_AnyClusterMatches_6:
   \   00004A   80..         SJMP      ??Subroutine205_0
    619          }

   \                                 In  segment BANKED_CODE, align 1, keep-with-next
   \                     ??Subroutine205_0:
   \   000000   7F04         MOV       R7,#0x4
   \   000002   02....       LJMP      ?BANKED_LEAVE_XDATA

   \                                 In  segment BANKED_CODE, align 1, keep-with-next
   \                     ??Subroutine233_0:
   \   000000   F583         MOV       DPH,A
   \   000002                REQUIRE ??Subroutine234_0
   \   000002                ; // Fall through to label ??Subroutine234_0

   \                                 In  segment BANKED_CODE, align 1, keep-with-next
   \                     ??Subroutine234_0:
   \   000000   E0           MOVX      A,@DPTR
   \   000001   F5..         MOV       ?V0,A
   \   000003   A3           INC       DPTR
   \   000004   E0           MOVX      A,@DPTR
   \   000005   F5..         MOV       ?V1,A
   \   000007   22           RET
    620          
    621          /*********************************************************************
    622           * Callback functions from ZDProfile
    623           */
    624          
    625          /*********************************************************************
    626           * @fn          ZDO_ProcessNodeDescReq
    627           *
    628           * @brief       This function processes and responds to the
    629           *              Node_Desc_req message.
    630           *
    631           * @param       inMsg - incoming message
    632           *
    633           * @return      none
    634           */

   \                                 In  segment BANKED_CODE, align 1, keep-with-next
    635          void ZDO_ProcessNodeDescReq( zdoIncomingMsg_t *inMsg )
   \                     ZDO_ProcessNodeDescReq:
    636          {
   \   000000                REQUIRE ?V0
   \   000000                REQUIRE ?V1
   \   000000   74F6         MOV       A,#-0xa
   \   000002   12....       LCALL     ?BANKED_ENTER_XDATA
   \   000005                ; Saved register size: 10
   \   000005                ; Auto size: 0
   \   000005   12....       LCALL     ?Subroutine58 & 0xFFFF
    637            uint16 aoi = BUILD_UINT16( inMsg->asdu[0], inMsg->asdu[1] );
    638            NodeDescriptorFormat_t *desc = NULL;
    639          
    640            if ( aoi == ZDAppNwkAddr.addr.shortAddr )
   \                     ??CrossCallReturnLabel_89:
   \   000008   7003         JNZ       ??ZDO_ProcessNodeDescReq_0
   \   00000A   A3           INC       DPTR
   \   00000B   E0           MOVX      A,@DPTR
   \   00000C   6D           XRL       A,R5
   \                     ??ZDO_ProcessNodeDescReq_0:
   \   00000D   7017         JNZ       ??ZDO_ProcessNodeDescReq_1
    641            {
    642              desc = &ZDO_Config_Node_Descriptor;
    643            }
    644          
    645            if ( desc != NULL )
    646            {
    647              ZDP_NodeDescMsg( inMsg, aoi, desc );
   \   00000F                ; Setup parameters for call to function ZDP_NodeDescMsg
   \   00000F   75....       MOV       ?V0,#ZDO_Config_Node_Descriptor & 0xff
   \   000012   75....       MOV       ?V1,#(ZDO_Config_Node_Descriptor >> 8) & 0xff
   \   000015   78..         MOV       R0,#?V0
   \   000017   12....       LCALL     ?PUSH_XSTACK_I_TWO
   \   00001A   EE           MOV       A,R6
   \   00001B   FA           MOV       R2,A
   \   00001C   12....       LCALL     `??ZDP_NodeDescMsg::?relay`; Banked call to: ZDP_NodeDescMsg
   \   00001F   7402         MOV       A,#0x2
   \   000021   12....       LCALL     ?DEALLOC_XSTACK8
   \   000024   801F         SJMP      ??ZDO_ProcessNodeDescReq_2
    648            }
    649            else
    650            {
    651              ZDP_GenericRsp( inMsg->TransSeq, &(inMsg->srcAddr),
    652                        ZDP_INVALID_REQTYPE, aoi, Node_Desc_rsp, inMsg->SecurityUse );
   \                     ??ZDO_ProcessNodeDescReq_1:
   \   000026                ; Setup parameters for call to function ZDP_GenericRsp
   \   000026   75..02       MOV       ?V0,#0x2
   \   000029   75..80       MOV       ?V1,#-0x80
   \   00002C   78..         MOV       R0,#?V0
   \   00002E   12....       LCALL     ?PUSH_XSTACK_I_TWO
   \   000031   8C..         MOV       ?V0,R4
   \   000033   8D..         MOV       ?V1,R5
   \   000035   78..         MOV       R0,#?V0
   \   000037   12....       LCALL     ?PUSH_XSTACK_I_TWO
   \   00003A   12....       LCALL     ?Subroutine63 & 0xFFFF
    653            }
   \                     ??CrossCallReturnLabel_98:
   \   00003D   12....       LCALL     `??ZDP_GenericRsp::?relay`; Banked call to: ZDP_GenericRsp
   \   000040   7404         MOV       A,#0x4
   \   000042   12....       LCALL     ?DEALLOC_XSTACK8
    654          }
   \                     ??ZDO_ProcessNodeDescReq_2:
   \   000045   80..         SJMP      ??Subroutine207_0

   \                                 In  segment BANKED_CODE, align 1, keep-with-next
   \                     ?Subroutine63:
   \   000000   EE           MOV       A,R6
   \   000001   240E         ADD       A,#0xe
   \   000003   12....       LCALL     ?Subroutine183 & 0xFFFF
   \                     ??CrossCallReturnLabel_581:
   \   000006   FD           MOV       R5,A
   \   000007   7C80         MOV       R4,#-0x80
   \   000009   12....       LCALL     ?Subroutine182 & 0xFFFF
   \                     ??CrossCallReturnLabel_298:
   \   00000C   22           RET

   \                                 In  segment BANKED_CODE, align 1, keep-with-next
   \                     ?Subroutine58:
   \   000000   EA           MOV       A,R2
   \   000001   FE           MOV       R6,A
   \   000002   EB           MOV       A,R3
   \   000003   FF           MOV       R7,A
   \   000004   12....       LCALL     ?Subroutine167 & 0xFFFF
   \                     ??CrossCallReturnLabel_274:
   \   000007   FC           MOV       R4,A
   \   000008   E4           CLR       A
   \   000009   39           ADDC      A,R1
   \   00000A   FD           MOV       R5,A
   \   00000B   90....       MOV       DPTR,#ZDAppNwkAddr
   \   00000E   E0           MOVX      A,@DPTR
   \   00000F   6C           XRL       A,R4
   \   000010   22           RET

   \                                 In  segment BANKED_CODE, align 1, keep-with-next
   \                     ?Subroutine183:
   \   000000   F582         MOV       DPL,A
   \   000002   E4           CLR       A
   \   000003                REQUIRE ??Subroutine212_0
   \   000003                ; // Fall through to label ??Subroutine212_0

   \                                 In  segment BANKED_CODE, align 1, keep-with-next
   \                     ?Subroutine196:
   \   000000   F583         MOV       DPH,A
   \   000002   E0           MOVX      A,@DPTR
   \   000003                REQUIRE ??Subroutine227_0
   \   000003                ; // Fall through to label ??Subroutine227_0

   \                                 In  segment BANKED_CODE, align 1, keep-with-next
   \                     ??Subroutine227_0:
   \   000000   F8           MOV       R0,A
   \   000001   A3           INC       DPTR
   \   000002   E0           MOVX      A,@DPTR
   \   000003   F9           MOV       R1,A
   \   000004   8882         MOV       DPL,R0
   \   000006   8983         MOV       DPH,R1
   \   000008   22           RET

   \                                 In  segment BANKED_CODE, align 1, keep-with-next
   \                     ?Subroutine182:
   \   000000   EE           MOV       A,R6
   \   000001   2402         ADD       A,#0x2
   \   000003   FA           MOV       R2,A
   \   000004   E4           CLR       A
   \   000005   3F           ADDC      A,R7
   \   000006   FB           MOV       R3,A
   \   000007   EE           MOV       A,R6
   \   000008   240F         ADD       A,#0xf
   \   00000A   F582         MOV       DPL,A
   \   00000C   E4           CLR       A
   \   00000D   3F           ADDC      A,R7
   \   00000E   F583         MOV       DPH,A
   \   000010   E0           MOVX      A,@DPTR
   \   000011   F9           MOV       R1,A
   \   000012   22           RET

   \                                 In  segment BANKED_CODE, align 1, keep-with-next
   \                     ?Subroutine167:
   \   000000   12....       LCALL     ?Subroutine198 & 0xFFFF
   \                     ??CrossCallReturnLabel_319:
   \   000003   12....       LCALL     ?Subroutine196 & 0xFFFF
   \                     ??CrossCallReturnLabel_407:
   \   000006   12....       LCALL     ?Subroutine195 & 0xFFFF
   \                     ??CrossCallReturnLabel_692:
   \   000009   22           RET

   \                                 In  segment BANKED_CODE, align 1, keep-with-next
   \                     ?Subroutine198:
   \   000000   EE           MOV       A,R6
   \   000001   12....       LCALL     ??Subroutine267_0 & 0xFFFF
   \                     ??CrossCallReturnLabel_664:
   \   000004   3F           ADDC      A,R7
   \   000005   22           RET

   \                                 In  segment BANKED_CODE, align 1, keep-with-next
   \                     ??Subroutine267_0:
   \   000000   2413         ADD       A,#0x13
   \   000002   F582         MOV       DPL,A
   \   000004   E4           CLR       A
   \   000005   22           RET

   \                                 In  segment BANKED_CODE, align 1, keep-with-next
   \                     ?Subroutine195:
   \   000000   12....       LCALL     ??Subroutine262_0 & 0xFFFF
   \                     ??CrossCallReturnLabel_699:
   \   000003   F8           MOV       R0,A
   \   000004   E4           CLR       A
   \   000005   C8           XCH       A,R0
   \   000006   F9           MOV       R1,A
   \   000007   EA           MOV       A,R2
   \   000008   28           ADD       A,R0
   \   000009   22           RET
    655          
    656          /*********************************************************************
    657           * @fn          ZDO_ProcessPowerDescReq
    658           *
    659           * @brief       This function processes and responds to the
    660           *              Node_Power_req message.
    661           *
    662           * @param       inMsg  - incoming request
    663           *
    664           * @return      none
    665           */

   \                                 In  segment BANKED_CODE, align 1, keep-with-next
    666          void ZDO_ProcessPowerDescReq( zdoIncomingMsg_t *inMsg )
   \                     ZDO_ProcessPowerDescReq:
    667          {
   \   000000                REQUIRE ?V0
   \   000000                REQUIRE ?V1
   \   000000   74F6         MOV       A,#-0xa
   \   000002   12....       LCALL     ?BANKED_ENTER_XDATA
   \   000005                ; Saved register size: 10
   \   000005                ; Auto size: 0
   \   000005   12....       LCALL     ?Subroutine58 & 0xFFFF
    668            uint16 aoi = BUILD_UINT16( inMsg->asdu[0], inMsg->asdu[1] );
    669            NodePowerDescriptorFormat_t *desc = NULL;
    670          
    671            if ( aoi == ZDAppNwkAddr.addr.shortAddr )
   \                     ??CrossCallReturnLabel_90:
   \   000008   7003         JNZ       ??ZDO_ProcessPowerDescReq_0
   \   00000A   A3           INC       DPTR
   \   00000B   E0           MOVX      A,@DPTR
   \   00000C   6D           XRL       A,R5
   \                     ??ZDO_ProcessPowerDescReq_0:
   \   00000D   7017         JNZ       ??ZDO_ProcessPowerDescReq_1
    672            {
    673              desc = &ZDO_Config_Power_Descriptor;
    674            }
    675          
    676            if ( desc != NULL )
    677            {
    678              ZDP_PowerDescMsg( inMsg, aoi, desc );
   \   00000F                ; Setup parameters for call to function ZDP_PowerDescMsg
   \   00000F   75....       MOV       ?V0,#ZDO_Config_Power_Descriptor & 0xff
   \   000012   75....       MOV       ?V1,#(ZDO_Config_Power_Descriptor >> 8) & 0xff
   \   000015   78..         MOV       R0,#?V0
   \   000017   12....       LCALL     ?PUSH_XSTACK_I_TWO
   \   00001A   EE           MOV       A,R6
   \   00001B   FA           MOV       R2,A
   \   00001C   12....       LCALL     `??ZDP_PowerDescMsg::?relay`; Banked call to: ZDP_PowerDescMsg
   \   00001F   7402         MOV       A,#0x2
   \   000021   12....       LCALL     ?DEALLOC_XSTACK8
   \   000024   801F         SJMP      ??ZDO_ProcessPowerDescReq_2
    679            }
    680            else
    681            {
    682              ZDP_GenericRsp( inMsg->TransSeq, &(inMsg->srcAddr),
    683                        ZDP_INVALID_REQTYPE, aoi, Power_Desc_rsp, inMsg->SecurityUse );
   \                     ??ZDO_ProcessPowerDescReq_1:
   \   000026                ; Setup parameters for call to function ZDP_GenericRsp
   \   000026   75..03       MOV       ?V0,#0x3
   \   000029   75..80       MOV       ?V1,#-0x80
   \   00002C   78..         MOV       R0,#?V0
   \   00002E   12....       LCALL     ?PUSH_XSTACK_I_TWO
   \   000031   8C..         MOV       ?V0,R4
   \   000033   8D..         MOV       ?V1,R5
   \   000035   78..         MOV       R0,#?V0
   \   000037   12....       LCALL     ?PUSH_XSTACK_I_TWO
   \   00003A   12....       LCALL     ?Subroutine63 & 0xFFFF
    684            }
   \                     ??CrossCallReturnLabel_99:
   \   00003D   12....       LCALL     `??ZDP_GenericRsp::?relay`; Banked call to: ZDP_GenericRsp
   \   000040   7404         MOV       A,#0x4
   \   000042   12....       LCALL     ?DEALLOC_XSTACK8
    685          }
   \                     ??ZDO_ProcessPowerDescReq_2:
   \   000045   80..         SJMP      ??Subroutine207_0
    686          
    687          /*********************************************************************
    688           * @fn          ZDO_ProcessSimpleDescReq
    689           *
    690           * @brief       This function processes and responds to the
    691           *              Simple_Desc_req message.
    692           *
    693           * @param       inMsg - incoming message (request)
    694           *
    695           * @return      none
    696           */

   \                                 In  segment BANKED_CODE, align 1, keep-with-next
   \                     ?Subroutine1:
   \   000000   7402         MOV       A,#0x2
   \   000002                REQUIRE ??Subroutine206_0
   \   000002                ; // Fall through to label ??Subroutine206_0

   \                                 In  segment BANKED_CODE, align 1, keep-with-next
   \                     ??Subroutine206_0:
   \   000000   12....       LCALL     ?DEALLOC_XSTACK8
   \   000003                REQUIRE ??Subroutine207_0
   \   000003                ; // Fall through to label ??Subroutine207_0

   \                                 In  segment BANKED_CODE, align 1, keep-with-next
    697          void ZDO_ProcessSimpleDescReq( zdoIncomingMsg_t *inMsg )
   \                     ZDO_ProcessSimpleDescReq:
    698          {
   \   000000                REQUIRE ?V0
   \   000000                REQUIRE ?V1
   \   000000   74F6         MOV       A,#-0xa
   \   000002   12....       LCALL     ?BANKED_ENTER_XDATA
   \   000005                ; Saved register size: 10
   \   000005                ; Auto size: 2
   \   000005   74FE         MOV       A,#-0x2
   \   000007   12....       LCALL     ?ALLOC_XSTACK8
   \   00000A   EA           MOV       A,R2
   \   00000B   FE           MOV       R6,A
   \   00000C   EB           MOV       A,R3
   \   00000D   FF           MOV       R7,A
    699            SimpleDescriptionFormat_t *sDesc = NULL;
   \   00000E   85..82       MOV       DPL,?XSP + 0
   \   000011   85..83       MOV       DPH,?XSP + 1
   \   000014   E4           CLR       A
   \   000015   F0           MOVX      @DPTR,A
   \   000016   A3           INC       DPTR
   \   000017   12....       LCALL     ?Subroutine34 & 0xFFFF
    700            uint16 aoi = BUILD_UINT16( inMsg->asdu[0], inMsg->asdu[1] );
   \                     ??CrossCallReturnLabel_42:
   \   00001A   12....       LCALL     ??Subroutine227_0 & 0xFFFF
   \                     ??CrossCallReturnLabel_406:
   \   00001D   12....       LCALL     ??Subroutine228_0 & 0xFFFF
   \                     ??CrossCallReturnLabel_409:
   \   000020   FB           MOV       R3,A
   \   000021   EC           MOV       A,R4
   \   000022   FA           MOV       R2,A
    701            byte endPoint = inMsg->asdu[2];
   \   000023   8882         MOV       DPL,R0
   \   000025   8983         MOV       DPH,R1
   \   000027   A3           INC       DPTR
   \   000028   A3           INC       DPTR
   \   000029   E0           MOVX      A,@DPTR
   \   00002A   F9           MOV       R1,A
    702            byte free = false;
   \   00002B   75..00       MOV       ?V1,#0x0
    703            byte stat = ZDP_SUCCESS;
   \   00002E   75..00       MOV       ?V0,#0x0
    704          
    705            if ( (endPoint == ZDO_EP) || (endPoint > MAX_ENDPOINTS) )
   \   000031   6005         JZ        ??ZDO_ProcessSimpleDescReq_0
   \   000033   74FF         MOV       A,#-0x1
   \   000035   69           XRL       A,R1
   \   000036   7005         JNZ       ??ZDO_ProcessSimpleDescReq_1
    706            {
    707              stat = ZDP_INVALID_EP;
   \                     ??ZDO_ProcessSimpleDescReq_0:
   \   000038   75..82       MOV       ?V0,#-0x7e
   \   00003B   803E         SJMP      ??ZDO_ProcessSimpleDescReq_2
    708            }
    709            else if ( aoi == ZDAppNwkAddr.addr.shortAddr )
   \                     ??ZDO_ProcessSimpleDescReq_1:
   \   00003D   90....       MOV       DPTR,#ZDAppNwkAddr
   \   000040   E0           MOVX      A,@DPTR
   \   000041   6A           XRL       A,R2
   \   000042   7003         JNZ       ??ZDO_ProcessSimpleDescReq_3
   \   000044   A3           INC       DPTR
   \   000045   E0           MOVX      A,@DPTR
   \   000046   6B           XRL       A,R3
   \                     ??ZDO_ProcessSimpleDescReq_3:
   \   000047   701B         JNZ       ??ZDO_ProcessSimpleDescReq_4
    710            {
    711              free = afFindSimpleDesc( &sDesc, endPoint );
   \   000049                ; Setup parameters for call to function afFindSimpleDesc
   \   000049   AA..         MOV       R2,?XSP + 0
   \   00004B   AB..         MOV       R3,?XSP + 1
   \   00004D   12....       LCALL     `??afFindSimpleDesc::?relay`; Banked call to: afFindSimpleDesc
   \   000050   E9           MOV       A,R1
   \   000051   FA           MOV       R2,A
    712              if ( sDesc == NULL )
   \   000052   85..82       MOV       DPL,?XSP + 0
   \   000055   85..83       MOV       DPH,?XSP + 1
   \   000058   12....       LCALL     ??Subroutine231_0 & 0xFFFF
   \                     ??CrossCallReturnLabel_430:
   \   00005B   7003         JNZ       ??ZDO_ProcessSimpleDescReq_5
    713              {
    714                stat = ZDP_NOT_ACTIVE;
   \   00005D   75..83       MOV       ?V0,#-0x7d
   \                     ??ZDO_ProcessSimpleDescReq_5:
   \   000060   8A..         MOV       ?V1,R2
   \   000062   8017         SJMP      ??ZDO_ProcessSimpleDescReq_2
    715              }
    716            }
    717            else
    718            {
    719              if ( ZSTACK_ROUTER_BUILD )
   \                     ??ZDO_ProcessSimpleDescReq_4:
   \   000064   90....       MOV       DPTR,#zgDeviceLogicalType
   \   000067   E0           MOVX      A,@DPTR
   \   000068   6004         JZ        ??ZDO_ProcessSimpleDescReq_6
   \   00006A   6401         XRL       A,#0x1
   \   00006C   7005         JNZ       ??ZDO_ProcessSimpleDescReq_7
    720              {
    721                stat = ZDP_DEVICE_NOT_FOUND;
   \                     ??ZDO_ProcessSimpleDescReq_6:
   \   00006E   75..81       MOV       ?V0,#-0x7f
   \   000071   8008         SJMP      ??ZDO_ProcessSimpleDescReq_2
    722              }
    723              else if ( ZSTACK_END_DEVICE_BUILD )
   \                     ??ZDO_ProcessSimpleDescReq_7:
   \   000073   E0           MOVX      A,@DPTR
   \   000074   6402         XRL       A,#0x2
   \   000076   7003         JNZ       ??ZDO_ProcessSimpleDescReq_2
    724              {
    725                stat = ZDP_INVALID_REQTYPE;
   \   000078   75..80       MOV       ?V0,#-0x80
    726              }
    727            }
    728          
    729            ZDP_SimpleDescMsg( inMsg, stat, sDesc );
   \                     ??ZDO_ProcessSimpleDescReq_2:
   \   00007B                ; Setup parameters for call to function ZDP_SimpleDescMsg
   \   00007B   85..82       MOV       DPL,?XSP + 0
   \   00007E   85..83       MOV       DPH,?XSP + 1
   \   000081   12....       LCALL     ??Subroutine228_0 & 0xFFFF
   \                     ??CrossCallReturnLabel_410:
   \   000084   FD           MOV       R5,A
   \   000085   A9..         MOV       R1,?V0
   \   000087   EE           MOV       A,R6
   \   000088   FA           MOV       R2,A
   \   000089   EF           MOV       A,R7
   \   00008A   FB           MOV       R3,A
   \   00008B   12....       LCALL     `??ZDP_SimpleDescMsg::?relay`; Banked call to: ZDP_SimpleDescMsg
    730          
    731            if ( free && sDesc )
   \   00008E   E5..         MOV       A,?V1
   \   000090   6011         JZ        ??ZDO_ProcessSimpleDescReq_8
   \   000092   85..82       MOV       DPL,?XSP + 0
   \   000095   85..83       MOV       DPH,?XSP + 1
   \   000098   12....       LCALL     ??Subroutine231_0 & 0xFFFF
   \                     ??CrossCallReturnLabel_431:
   \   00009B   6006         JZ        ??ZDO_ProcessSimpleDescReq_8
    732            {
    733              osal_mem_free( sDesc );
   \   00009D                ; Setup parameters for call to function osal_mem_free
   \   00009D   12....       LCALL     ?Subroutine102 & 0xFFFF
    734            }
   \                     ??CrossCallReturnLabel_513:
   \   0000A0   12....       LCALL     `??osal_mem_free::?relay`; Banked call to: osal_mem_free
    735          }
   \                     ??ZDO_ProcessSimpleDescReq_8:
   \   0000A3   02....       LJMP      ?Subroutine1 & 0xFFFF

   \                                 In  segment BANKED_CODE, align 1, keep-with-next
   \                     ?Subroutine34:
   \   000000   F0           MOVX      @DPTR,A
   \   000001   EE           MOV       A,R6
   \   000002   2413         ADD       A,#0x13
   \   000004   12....       LCALL     ?Subroutine183 & 0xFFFF
   \                     ??CrossCallReturnLabel_580:
   \   000007   22           RET

   \                                 In  segment BANKED_CODE, align 1, keep-with-next
   \                     ??Subroutine231_0:
   \   000000   12....       LCALL     ?Subroutine178 & 0xFFFF
   \                     ??CrossCallReturnLabel_479:
   \   000003   E8           MOV       A,R0
   \   000004   49           ORL       A,R1
   \   000005   22           RET

   \                                 In  segment BANKED_CODE, align 1, keep-with-next
   \                     ?Subroutine102:
   \   000000   85..82       MOV       DPL,?XSP + 0
   \   000003   85..83       MOV       DPH,?XSP + 1
   \   000006                REQUIRE ??Subroutine243_0
   \   000006                ; // Fall through to label ??Subroutine243_0
    736          
    737          /*********************************************************************
    738           * @fn          ZDO_ProcessActiveEPReq
    739           *
    740           * @brief       This function processes and responds to the
    741           *              Active_EP_req message.
    742           *
    743           * @param       inMsg  - incoming message (request)
    744           *
    745           * @return      none
    746           */

   \                                 In  segment BANKED_CODE, align 1, keep-with-next
    747          void ZDO_ProcessActiveEPReq( zdoIncomingMsg_t *inMsg )
   \                     ZDO_ProcessActiveEPReq:
    748          {
   \   000000                REQUIRE ?V0
   \   000000                REQUIRE ?V1
   \   000000                REQUIRE ?V2
   \   000000                REQUIRE ?V3
   \   000000                REQUIRE ?V4
   \   000000                REQUIRE ?V5
   \   000000   74F2         MOV       A,#-0xe
   \   000002   12....       LCALL     ?BANKED_ENTER_XDATA
   \   000005                ; Saved register size: 14
   \   000005                ; Auto size: 0
   \   000005   EA           MOV       A,R2
   \   000006   FE           MOV       R6,A
   \   000007   EB           MOV       A,R3
   \   000008   FF           MOV       R7,A
    749            byte cnt = 0;
   \   000009   75..00       MOV       ?V0,#0x0
    750            uint16 aoi;
    751            byte stat = ZDP_SUCCESS;
   \   00000C   75..00       MOV       ?V1,#0x0
    752          
    753            aoi = BUILD_UINT16( inMsg->asdu[0], inMsg->asdu[1] );
   \   00000F   12....       LCALL     ?Subroutine67 & 0xFFFF
   \                     ??CrossCallReturnLabel_106:
   \   000012   F5..         MOV       ?V2,A
   \   000014   E4           CLR       A
   \   000015   39           ADDC      A,R1
   \   000016   F5..         MOV       ?V3,A
    754          
    755            if ( aoi == NLME_GetShortAddr() )
   \   000018                ; Setup parameters for call to function NLME_GetShortAddr
   \   000018   12....       LCALL     `??NLME_GetShortAddr::?relay`; Banked call to: NLME_GetShortAddr
   \   00001B   EA           MOV       A,R2
   \   00001C   65..         XRL       A,?V2
   \   00001E   7003         JNZ       ??ZDO_ProcessActiveEPReq_0
   \   000020   EB           MOV       A,R3
   \   000021   65..         XRL       A,?V3
   \                     ??ZDO_ProcessActiveEPReq_0:
   \   000023   7012         JNZ       ??ZDO_ProcessActiveEPReq_1
    756            {
    757              cnt = afNumEndPoints() - 1;  // -1 for ZDO endpoint descriptor
   \   000025                ; Setup parameters for call to function afNumEndPoints
   \   000025   12....       LCALL     `??afNumEndPoints::?relay`; Banked call to: afNumEndPoints
   \   000028   E9           MOV       A,R1
   \   000029   14           DEC       A
   \   00002A   F5..         MOV       ?V0,A
    758              afEndPoints( (uint8 *)ZDOBuildBuf, true );
   \   00002C                ; Setup parameters for call to function afEndPoints
   \   00002C   7901         MOV       R1,#0x1
   \   00002E   7A..         MOV       R2,#ZDOBuildBuf & 0xff
   \   000030   7B..         MOV       R3,#(ZDOBuildBuf >> 8) & 0xff
   \   000032   12....       LCALL     `??afEndPoints::?relay`; Banked call to: afEndPoints
   \   000035   8003         SJMP      ??ZDO_ProcessActiveEPReq_2
    759            }
    760            else
    761            {
    762              stat = ZDP_INVALID_REQTYPE;
   \                     ??ZDO_ProcessActiveEPReq_1:
   \   000037   75..80       MOV       ?V1,#-0x80
    763            }
    764          
    765            ZDP_ActiveEPRsp( inMsg->TransSeq, &(inMsg->srcAddr), stat,
    766                            aoi, cnt, (uint8 *)ZDOBuildBuf, inMsg->SecurityUse );
   \                     ??ZDO_ProcessActiveEPReq_2:
   \   00003A                ; Setup parameters for call to function ZDP_EPRsp
   \   00003A   12....       LCALL     ?Subroutine122 & 0xFFFF
   \                     ??CrossCallReturnLabel_576:
   \   00003D   F5..         MOV       ?V4,A
   \   00003F   78..         MOV       R0,#?V4
   \   000041   12....       LCALL     ?PUSH_XSTACK_I_ONE
   \   000044   75....       MOV       ?V4,#ZDOBuildBuf & 0xff
   \   000047   75....       MOV       ?V5,#(ZDOBuildBuf >> 8) & 0xff
   \   00004A   78..         MOV       R0,#?V4
   \   00004C   12....       LCALL     ?PUSH_XSTACK_I_TWO
   \   00004F   78..         MOV       R0,#?V0
   \   000051   12....       LCALL     ?PUSH_XSTACK_I_ONE
   \   000054   78..         MOV       R0,#?V2
   \   000056   12....       LCALL     ?PUSH_XSTACK_I_TWO
   \   000059   E5..         MOV       A,?V1
   \   00005B   F5..         MOV       ?V0,A
   \   00005D   78..         MOV       R0,#?V0
   \   00005F   12....       LCALL     ?PUSH_XSTACK_I_ONE
   \   000062   12....       LCALL     ?Subroutine184 & 0xFFFF
   \                     ??CrossCallReturnLabel_403:
   \   000065   12....       LCALL     ??Subroutine255_0 & 0xFFFF
   \                     ??CrossCallReturnLabel_565:
   \   000068   F9           MOV       R1,A
   \   000069   7A05         MOV       R2,#0x5
   \   00006B   7B80         MOV       R3,#-0x80
   \   00006D   12....       LCALL     `??ZDP_EPRsp::?relay`; Banked call to: ZDP_EPRsp
   \   000070   7407         MOV       A,#0x7
   \   000072   02....       LJMP      ?Subroutine5 & 0xFFFF
    767          }

   \                                 In  segment BANKED_CODE, align 1, keep-with-next
   \                     ?Subroutine184:
   \   000000   EE           MOV       A,R6
   \   000001   2402         ADD       A,#0x2
   \   000003   FC           MOV       R4,A
   \   000004   E4           CLR       A
   \   000005   3F           ADDC      A,R7
   \   000006   FD           MOV       R5,A
   \   000007   EE           MOV       A,R6
   \   000008   240F         ADD       A,#0xf
   \   00000A   22           RET

   \                                 In  segment BANKED_CODE, align 1, keep-with-next
   \                     ?Subroutine67:
   \   000000   12....       LCALL     ?Subroutine167 & 0xFFFF
   \                     ??CrossCallReturnLabel_275:
   \   000003   22           RET

   \                                 In  segment BANKED_CODE, align 1, keep-with-next
   \                     ?Subroutine122:
   \   000000   EE           MOV       A,R6
   \   000001   240E         ADD       A,#0xe
   \   000003                REQUIRE ??Subroutine255_0
   \   000003                ; // Fall through to label ??Subroutine255_0

   \                                 In  segment BANKED_CODE, align 1, keep-with-next
   \                     ??Subroutine255_0:
   \   000000   F582         MOV       DPL,A
   \   000002   E4           CLR       A
   \   000003                REQUIRE ??Subroutine256_0
   \   000003                ; // Fall through to label ??Subroutine256_0

   \                                 In  segment BANKED_CODE, align 1, keep-with-next
   \                     ?Subroutine5:
   \   000000   12....       LCALL     ?DEALLOC_XSTACK8
   \   000003                REQUIRE ??Subroutine266_0
   \   000003                ; // Fall through to label ??Subroutine266_0

   \                                 In  segment BANKED_CODE, align 1, keep-with-next
   \                     ??Subroutine266_0:
   \   000000   7F06         MOV       R7,#0x6
   \   000002   02....       LJMP      ?BANKED_LEAVE_XDATA
    768          
    769          /*********************************************************************
    770           * @fn          ZDO_ConvertOTAClusters
    771           *
    772           * @brief       This function will convert the over-the-air cluster list
    773           *              format to an internal format.
    774           *
    775           * @param       inMsg  - incoming message (request)
    776           *
    777           * @return      pointer to incremented inBuf
    778           */

   \                                 In  segment BANKED_CODE, align 1, keep-with-next
    779          uint8 *ZDO_ConvertOTAClusters( uint8 cnt, uint8 *inBuf, uint16 *outList )
   \                     ZDO_ConvertOTAClusters:
    780          {
   \   000000                REQUIRE ?V0
   \   000000                REQUIRE ?V1
   \   000000   74F6         MOV       A,#-0xa
   \   000002   12....       LCALL     ?BANKED_ENTER_XDATA
   \   000005                ; Saved register size: 10
   \   000005                ; Auto size: 0
   \   000005   E9           MOV       A,R1
   \   000006   FF           MOV       R7,A
    781            uint8 x;
    782          
    783            for ( x = 0; x < cnt; x++ )
   \   000007   7E00         MOV       R6,#0x0
   \   000009   8032         SJMP      ??ZDO_ConvertOTAClusters_0
    784            {
    785              // convert ota format to internal
    786              outList[x] = BUILD_UINT16( inBuf[0], inBuf[1] );
   \                     ??ZDO_ConvertOTAClusters_1:
   \   00000B   8A82         MOV       DPL,R2
   \   00000D   8B83         MOV       DPH,R3
   \   00000F   E0           MOVX      A,@DPTR
   \   000010   F5..         MOV       ?V0,A
   \   000012   A3           INC       DPTR
   \   000013   E0           MOVX      A,@DPTR
   \   000014   F8           MOV       R0,A
   \   000015   E4           CLR       A
   \   000016   C8           XCH       A,R0
   \   000017   F9           MOV       R1,A
   \   000018   E5..         MOV       A,?V0
   \   00001A   28           ADD       A,R0
   \   00001B   E4           CLR       A
   \   00001C   39           ADDC      A,R1
   \   00001D   F5..         MOV       ?V1,A
   \   00001F   EE           MOV       A,R6
   \   000020   25E0         ADD       A,0xE0 /* A   */
   \   000022   F8           MOV       R0,A
   \   000023   E4           CLR       A
   \   000024   33           RLC       A
   \   000025   F9           MOV       R1,A
   \   000026   EC           MOV       A,R4
   \   000027   28           ADD       A,R0
   \   000028   F582         MOV       DPL,A
   \   00002A   ED           MOV       A,R5
   \   00002B   39           ADDC      A,R1
   \   00002C   F583         MOV       DPH,A
   \   00002E   E5..         MOV       A,?V0
   \   000030   F0           MOVX      @DPTR,A
   \   000031   A3           INC       DPTR
   \   000032   E5..         MOV       A,?V1
   \   000034   F0           MOVX      @DPTR,A
    787              inBuf += sizeof( uint16 );
   \   000035   EA           MOV       A,R2
   \   000036   2402         ADD       A,#0x2
   \   000038   FA           MOV       R2,A
   \   000039   5001         JNC       ??ZDO_ConvertOTAClusters_2
   \   00003B   0B           INC       R3
    788            }
   \                     ??ZDO_ConvertOTAClusters_2:
   \   00003C   0E           INC       R6
   \                     ??ZDO_ConvertOTAClusters_0:
   \   00003D   EE           MOV       A,R6
   \   00003E   C3           CLR       C
   \   00003F   9F           SUBB      A,R7
   \   000040   40C9         JC        ??ZDO_ConvertOTAClusters_1
    789            return ( inBuf );
   \   000042   02....       LJMP      ??Subroutine207_0 & 0xFFFF
    790          }
    791          
    792          /*********************************************************************
    793           * @fn          ZDO_ProcessMatchDescReq
    794           *
    795           * @brief       This function processes and responds to the
    796           *              Match_Desc_req message.
    797           *
    798           * @param       inMsg  - incoming message (request)
    799           *
    800           * @return      none
    801           */

   \                                 In  segment BANKED_CODE, align 1, keep-with-next
    802          void ZDO_ProcessMatchDescReq( zdoIncomingMsg_t *inMsg )
   \                     ZDO_ProcessMatchDescReq:
    803          {
   \   000000                REQUIRE ?V0
   \   000000                REQUIRE ?V1
   \   000000                REQUIRE ?V2
   \   000000                REQUIRE ?V3
   \   000000                REQUIRE ?V4
   \   000000                REQUIRE ?V5
   \   000000                REQUIRE ?V6
   \   000000                REQUIRE ?V7
   \   000000                REQUIRE ?V8
   \   000000                REQUIRE ?V9
   \   000000                REQUIRE ?V10
   \   000000                REQUIRE ?V11
   \   000000                REQUIRE ?V12
   \   000000                REQUIRE ?V13
   \   000000                REQUIRE ?V14
   \   000000                REQUIRE ?V15
   \   000000   74E8         MOV       A,#-0x18
   \   000002   12....       LCALL     ?BANKED_ENTER_XDATA
   \   000005                ; Saved register size: 24
   \   000005                ; Auto size: 4
   \   000005   74FC         MOV       A,#-0x4
   \   000007   12....       LCALL     ?ALLOC_XSTACK8
   \   00000A   8A..         MOV       ?V14,R2
   \   00000C   8B..         MOV       ?V15,R3
    804            uint8 epCnt = 0;
   \   00000E   75..00       MOV       ?V9,#0x0
    805            uint8 numInClusters;
    806            uint16 *inClusters = NULL;
   \   000011   7402         MOV       A,#0x2
   \   000013   12....       LCALL     ?XSTACK_DISP0_8
   \   000016   E4           CLR       A
   \   000017   F0           MOVX      @DPTR,A
   \   000018   A3           INC       DPTR
   \   000019   12....       LCALL     ?Subroutine36 & 0xFFFF
    807            uint8 numOutClusters;
    808            uint16 *outClusters = NULL;
   \                     ??CrossCallReturnLabel_44:
   \   00001C   F0           MOVX      @DPTR,A
   \   00001D   A3           INC       DPTR
   \   00001E   F0           MOVX      @DPTR,A
    809            epList_t *epDesc;
    810            SimpleDescriptionFormat_t *sDesc = NULL;
    811            uint8 allocated;
    812            uint8 *msg;
    813            uint16 aoi;
    814            uint16 profileID;
    815          
    816            // Parse the incoming message
    817            msg = inMsg->asdu;
   \   00001F   12....       LCALL     ??Subroutine217_0 & 0xFFFF
   \                     ??CrossCallReturnLabel_361:
   \   000022   35..         ADDC      A,?V15
   \   000024   12....       LCALL     ?Subroutine95 & 0xFFFF
   \                     ??CrossCallReturnLabel_335:
   \   000027   F5..         MOV       ?V3,A
    818            aoi = BUILD_UINT16( msg[0], msg[1] );
   \   000029   85..82       MOV       DPL,?V2
   \   00002C   F583         MOV       DPH,A
   \   00002E   12....       LCALL     ??Subroutine272_0 & 0xFFFF
   \                     ??CrossCallReturnLabel_689:
   \   000031   FE           MOV       R6,A
   \   000032   E4           CLR       A
   \   000033   39           ADDC      A,R1
   \   000034   FF           MOV       R7,A
    819            profileID = BUILD_UINT16( msg[2], msg[3] );
   \   000035   85..82       MOV       DPL,?V2
   \   000038   85..83       MOV       DPH,?V3
   \   00003B   A3           INC       DPTR
   \   00003C   A3           INC       DPTR
   \   00003D   E0           MOVX      A,@DPTR
   \   00003E   FA           MOV       R2,A
   \   00003F   85..82       MOV       DPL,?V2
   \   000042   85..83       MOV       DPH,?V3
   \   000045   A3           INC       DPTR
   \   000046   A3           INC       DPTR
   \   000047   A3           INC       DPTR
   \   000048   E0           MOVX      A,@DPTR
   \   000049   F9           MOV       R1,A
   \   00004A   EA           MOV       A,R2
   \   00004B   F5..         MOV       ?V0,A
   \   00004D   E4           CLR       A
   \   00004E   39           ADDC      A,R1
   \   00004F   F5..         MOV       ?V1,A
    820            msg += 4;
    821          
    822            if ( ADDR_BCAST_NOT_ME == NLME_IsAddressBroadcast(aoi) )
   \   000051                ; Setup parameters for call to function NLME_IsAddressBroadcast
   \   000051   EE           MOV       A,R6
   \   000052   FA           MOV       R2,A
   \   000053   EF           MOV       A,R7
   \   000054   FB           MOV       R3,A
   \   000055   12....       LCALL     `??NLME_IsAddressBroadcast::?relay`; Banked call to: NLME_IsAddressBroadcast
   \   000058   E9           MOV       A,R1
   \   000059   6401         XRL       A,#0x1
   \   00005B   6016         JZ        ??ZDO_ProcessMatchDescReq_0
    823            {
    824              ZDP_MatchDescRsp( inMsg->TransSeq, &(inMsg->srcAddr), ZDP_INVALID_REQTYPE,
    825                                    ZDAppNwkAddr.addr.shortAddr, 0, NULL, inMsg->SecurityUse );
    826              return;
    827            }
    828            else if ( (ADDR_NOT_BCAST == NLME_IsAddressBroadcast(aoi)) && (aoi != ZDAppNwkAddr.addr.shortAddr) )
   \   00005D                ; Setup parameters for call to function NLME_IsAddressBroadcast
   \   00005D   EE           MOV       A,R6
   \   00005E   FA           MOV       R2,A
   \   00005F   EF           MOV       A,R7
   \   000060   FB           MOV       R3,A
   \   000061   12....       LCALL     `??NLME_IsAddressBroadcast::?relay`; Banked call to: NLME_IsAddressBroadcast
   \   000064   E9           MOV       A,R1
   \   000065   703D         JNZ       ??ZDO_ProcessMatchDescReq_1
   \   000067   90....       MOV       DPTR,#ZDAppNwkAddr
   \   00006A   E0           MOVX      A,@DPTR
   \   00006B   6E           XRL       A,R6
   \   00006C   7003         JNZ       ??ZDO_ProcessMatchDescReq_2
   \   00006E   A3           INC       DPTR
   \   00006F   E0           MOVX      A,@DPTR
   \   000070   6F           XRL       A,R7
   \                     ??ZDO_ProcessMatchDescReq_2:
   \   000071   6031         JZ        ??ZDO_ProcessMatchDescReq_1
    829            {
    830              ZDP_MatchDescRsp( inMsg->TransSeq, &(inMsg->srcAddr), ZDP_INVALID_REQTYPE,
    831                                       ZDAppNwkAddr.addr.shortAddr, 0, NULL, inMsg->SecurityUse );
   \                     ??ZDO_ProcessMatchDescReq_0:
   \   000073                ; Setup parameters for call to function ZDP_EPRsp
   \   000073   12....       LCALL     ?Subroutine88 & 0xFFFF
   \                     ??CrossCallReturnLabel_550:
   \   000076   12....       LCALL     ?PUSH_XSTACK_I_ONE
   \   000079   E4           CLR       A
   \   00007A   F5..         MOV       ?V0,A
   \   00007C   F5..         MOV       ?V1,A
   \   00007E   78..         MOV       R0,#?V0
   \   000080   12....       LCALL     ?PUSH_XSTACK_I_TWO
   \   000083   78..         MOV       R0,#?V0
   \   000085   12....       LCALL     ?PUSH_XSTACK_I_ONE
   \   000088   90....       MOV       DPTR,#ZDAppNwkAddr
   \   00008B   12....       LCALL     ?PUSH_XSTACK8_X_TWO
   \   00008E   75..80       MOV       ?V0,#-0x80
   \   000091   78..         MOV       R0,#?V0
   \   000093   12....       LCALL     ?PUSH_XSTACK_I_ONE
   \   000096   12....       LCALL     ?Subroutine134 & 0xFFFF
   \                     ??CrossCallReturnLabel_201:
   \   000099   12....       LCALL     `??ZDP_EPRsp::?relay`; Banked call to: ZDP_EPRsp
   \   00009C   7407         MOV       A,#0x7
   \   00009E   12....       LCALL     ?DEALLOC_XSTACK8
    832              return;
   \   0000A1   02....       LJMP      ??ZDO_ProcessMatchDescReq_3 & 0xFFFF
    833            }
    834          
    835            if ((numInClusters = *msg++) &&
    836                (inClusters = (uint16*)osal_mem_alloc( numInClusters * sizeof( uint16 ) )))
   \                     ??ZDO_ProcessMatchDescReq_1:
   \   0000A4   85..82       MOV       DPL,?V2
   \   0000A7   85..83       MOV       DPH,?V3
   \   0000AA   A3           INC       DPTR
   \   0000AB   A3           INC       DPTR
   \   0000AC   A3           INC       DPTR
   \   0000AD   A3           INC       DPTR
   \   0000AE   E0           MOVX      A,@DPTR
   \   0000AF   F5..         MOV       ?V8,A
   \   0000B1   E5..         MOV       A,?V2
   \   0000B3   2405         ADD       A,#0x5
   \   0000B5   F5..         MOV       ?V2,A
   \   0000B7   5002         JNC       ??ZDO_ProcessMatchDescReq_4
   \   0000B9   05..         INC       ?V3
   \                     ??ZDO_ProcessMatchDescReq_4:
   \   0000BB   E5..         MOV       A,?V8
   \   0000BD   602B         JZ        ??ZDO_ProcessMatchDescReq_5
   \   0000BF                ; Setup parameters for call to function osal_mem_alloc
   \   0000BF   12....       LCALL     ??Subroutine268_0 & 0xFFFF
   \                     ??CrossCallReturnLabel_668:
   \   0000C2   12....       LCALL     `??osal_mem_alloc::?relay`; Banked call to: osal_mem_alloc
   \   0000C5   7402         MOV       A,#0x2
   \   0000C7   12....       LCALL     ?XSTACK_DISP0_8
   \   0000CA   12....       LCALL     ??Subroutine213_0 & 0xFFFF
   \                     ??CrossCallReturnLabel_341:
   \   0000CD   7402         MOV       A,#0x2
   \   0000CF   12....       LCALL     ?XSTACK_DISP0_8
   \   0000D2   12....       LCALL     ??Subroutine231_0 & 0xFFFF
   \                     ??CrossCallReturnLabel_432:
   \   0000D5   6013         JZ        ??ZDO_ProcessMatchDescReq_5
    837            {
    838              msg = ZDO_ConvertOTAClusters( numInClusters, msg, inClusters );
   \   0000D7                ; Setup parameters for call to function ZDO_ConvertOTAClusters
   \   0000D7   7402         MOV       A,#0x2
   \   0000D9   12....       LCALL     ?XSTACK_DISP0_8
   \   0000DC   12....       LCALL     ?Subroutine106 & 0xFFFF
    839            }
   \                     ??CrossCallReturnLabel_159:
   \   0000DF   A9..         MOV       R1,?V8
   \   0000E1   12....       LCALL     `??ZDO_ConvertOTAClusters::?relay`; Banked call to: ZDO_ConvertOTAClusters
   \   0000E4   8A..         MOV       ?V2,R2
   \   0000E6   8B..         MOV       ?V3,R3
   \   0000E8   8003         SJMP      ??ZDO_ProcessMatchDescReq_6
    840            else
    841            {
    842              numInClusters = 0;
   \                     ??ZDO_ProcessMatchDescReq_5:
   \   0000EA   75..00       MOV       ?V8,#0x0
    843            }
    844          
    845            if ((numOutClusters = *msg++) &&
    846                (outClusters = (uint16 *)osal_mem_alloc( numOutClusters * sizeof( uint16 ) )))
   \                     ??ZDO_ProcessMatchDescReq_6:
   \   0000ED   85..82       MOV       DPL,?V2
   \   0000F0   85..83       MOV       DPH,?V3
   \   0000F3   12....       LCALL     ?Subroutine100 & 0xFFFF
   \                     ??CrossCallReturnLabel_151:
   \   0000F6   6027         JZ        ??ZDO_ProcessMatchDescReq_7
   \   0000F8                ; Setup parameters for call to function osal_mem_alloc
   \   0000F8   12....       LCALL     ??Subroutine268_0 & 0xFFFF
   \                     ??CrossCallReturnLabel_669:
   \   0000FB   12....       LCALL     `??osal_mem_alloc::?relay`; Banked call to: osal_mem_alloc
   \   0000FE   85..82       MOV       DPL,?XSP + 0
   \   000101   85..83       MOV       DPH,?XSP + 1
   \   000104   EA           MOV       A,R2
   \   000105   F0           MOVX      @DPTR,A
   \   000106   A3           INC       DPTR
   \   000107   EB           MOV       A,R3
   \   000108   12....       LCALL     ?Subroutine30 & 0xFFFF
   \                     ??CrossCallReturnLabel_37:
   \   00010B   E8           MOV       A,R0
   \   00010C   49           ORL       A,R1
   \   00010D   6010         JZ        ??ZDO_ProcessMatchDescReq_7
    847            {
    848              msg = ZDO_ConvertOTAClusters( numOutClusters, msg, outClusters );
   \   00010F                ; Setup parameters for call to function ZDO_ConvertOTAClusters
   \   00010F   85..82       MOV       DPL,?XSP + 0
   \   000112   85..83       MOV       DPH,?XSP + 1
   \   000115   12....       LCALL     ?Subroutine106 & 0xFFFF
    849            }
   \                     ??CrossCallReturnLabel_160:
   \   000118   A9..         MOV       R1,?V7
   \   00011A   12....       LCALL     `??ZDO_ConvertOTAClusters::?relay`; Banked call to: ZDO_ConvertOTAClusters
   \   00011D   8003         SJMP      ??ZDO_ProcessMatchDescReq_8
    850            else
    851            {
    852              numOutClusters = 0;
   \                     ??ZDO_ProcessMatchDescReq_7:
   \   00011F   75..00       MOV       ?V7,#0x0
    853            }
    854          
    855            // First count the number of endpoints that match.
    856            epDesc = epList;
   \                     ??ZDO_ProcessMatchDescReq_8:
   \   000122   90....       MOV       DPTR,#epList
   \   000125   8052         SJMP      ??ZDO_ProcessMatchDescReq_9
    857            while ( epDesc )
    858            {
    859              // Don't search endpoint 0 and check if response is allowed
    860              if ( epDesc->epDesc->endPoint != ZDO_EP && (epDesc->flags&eEP_AllowMatch) )
    861              {
    862                if ( epDesc->pfnDescCB )
    863                {
    864                  sDesc = (SimpleDescriptionFormat_t *)epDesc->pfnDescCB( AF_DESCRIPTOR_SIMPLE, epDesc->epDesc->endPoint );
    865                  allocated = TRUE;
    866                }
    867                else
    868                {
    869                  sDesc = epDesc->epDesc->simpleDesc;
    870                  allocated = FALSE;
    871                }
    872          
    873                // Allow specific ProfileId or Wildcard ProfileID
    874                if ( sDesc && ( ( sDesc->AppProfId == profileID ) || ( profileID == ZDO_WILDCARD_PROFILE_ID ) ) )
    875                {
    876                  uint8 *uint8Buf = (uint8 *)ZDOBuildBuf;
    877          
    878                  // Are there matching input clusters?
    879                  if ((ZDO_AnyClusterMatches( numInClusters, inClusters,
    880                             sDesc->AppNumInClusters, sDesc->pAppInClusterList )) ||
    881                      // Are there matching output clusters?
    882                      (ZDO_AnyClusterMatches( numOutClusters, outClusters,
    883                             sDesc->AppNumOutClusters, sDesc->pAppOutClusterList )))
    884                  {
    885                    // Notify the endpoint of the match.
    886                    uint8 bufLen = sizeof( ZDO_MatchDescRspSent_t ) + (numOutClusters + numInClusters) * sizeof(uint16);
    887                    ZDO_MatchDescRspSent_t *pRspSent = (ZDO_MatchDescRspSent_t *) osal_msg_allocate( bufLen );
    888          
    889                    if (pRspSent)
    890                    {
    891                      pRspSent->hdr.event = ZDO_MATCH_DESC_RSP_SENT;
    892                      pRspSent->nwkAddr = inMsg->srcAddr.addr.shortAddr;
    893                      pRspSent->numInClusters = numInClusters;
    894                      pRspSent->numOutClusters = numOutClusters;
    895          
    896                      if (numInClusters)
    897                      {
    898                        pRspSent->pInClusters = (uint16*) (pRspSent + 1);
    899                        osal_memcpy(pRspSent->pInClusters, inClusters, numInClusters * sizeof(uint16));
    900                      }
    901                      else
    902                      {
    903                        pRspSent->pInClusters = NULL;
    904                      }
    905          
    906                      if (numOutClusters)
    907                      {
    908                        pRspSent->pOutClusters = (uint16*)(pRspSent + 1) + numInClusters;
    909                        osal_memcpy(pRspSent->pOutClusters, outClusters, numOutClusters * sizeof(uint16));
    910                      }
    911                      else
    912                      {
    913                        pRspSent->pOutClusters = NULL;
   \                     ??ZDO_ProcessMatchDescReq_10:
   \   000127   85..82       MOV       DPL,?V2
   \   00012A   85..83       MOV       DPH,?V3
   \   00012D   A3           INC       DPTR
   \   00012E   A3           INC       DPTR
   \   00012F   A3           INC       DPTR
   \   000130   A3           INC       DPTR
   \   000131   A3           INC       DPTR
   \   000132   A3           INC       DPTR
   \   000133   A3           INC       DPTR
   \   000134   A3           INC       DPTR
   \   000135   E4           CLR       A
   \   000136   F0           MOVX      @DPTR,A
   \   000137   A3           INC       DPTR
   \   000138   F0           MOVX      @DPTR,A
    914                      }
    915          
    916                      osal_msg_send( *epDesc->epDesc->task_id, (uint8 *)pRspSent );
   \                     ??ZDO_ProcessMatchDescReq_11:
   \   000139                ; Setup parameters for call to function osal_msg_send
   \   000139   AA..         MOV       R2,?V2
   \   00013B   AB..         MOV       R3,?V3
   \   00013D   85..82       MOV       DPL,?V12
   \   000140   85..83       MOV       DPH,?V13
   \   000143   A3           INC       DPTR
   \   000144   A3           INC       DPTR
   \   000145   E0           MOVX      A,@DPTR
   \   000146   F8           MOV       R0,A
   \   000147   12....       LCALL     ?Subroutine62 & 0xFFFF
   \                     ??CrossCallReturnLabel_395:
   \   00014A   F9           MOV       R1,A
   \   00014B   12....       LCALL     `??osal_msg_send::?relay`; Banked call to: osal_msg_send
    917                    }
    918          
    919                    uint8Buf[epCnt++] = sDesc->EndPoint;
   \                     ??ZDO_ProcessMatchDescReq_12:
   \   00014E   85..82       MOV       DPL,?V10
   \   000151   85..83       MOV       DPH,?V11
   \   000154   E0           MOVX      A,@DPTR
   \   000155   C0E0         PUSH      A
   \   000157   A8..         MOV       R0,?V9
   \   000159   74..         MOV       A,#ZDOBuildBuf & 0xff
   \   00015B   28           ADD       A,R0
   \   00015C   F582         MOV       DPL,A
   \   00015E   E4           CLR       A
   \   00015F   34..         ADDC      A,#(ZDOBuildBuf >> 8) & 0xff
   \   000161   F583         MOV       DPH,A
   \   000163   D0E0         POP       A
   \   000165   F0           MOVX      @DPTR,A
   \   000166   05..         INC       ?V9
    920                  }
    921                }
    922          
    923                if ( allocated )
   \                     ??ZDO_ProcessMatchDescReq_13:
   \   000168   A2..         MOV       C,?VB.0
   \   00016A   5007         JNC       ??ZDO_ProcessMatchDescReq_14
    924                {
    925                  osal_mem_free( sDesc );
   \   00016C                ; Setup parameters for call to function osal_mem_free
   \   00016C   AA..         MOV       R2,?V10
   \   00016E   AB..         MOV       R3,?V11
   \   000170   12....       LCALL     `??osal_mem_free::?relay`; Banked call to: osal_mem_free
    926                }
    927              }
    928              epDesc = epDesc->nextDesc;
   \                     ??ZDO_ProcessMatchDescReq_14:
   \   000173   85..82       MOV       DPL,?V12
   \   000176   85..83       MOV       DPH,?V13
   \                     ??ZDO_ProcessMatchDescReq_9:
   \   000179   E0           MOVX      A,@DPTR
   \   00017A   F5..         MOV       ?V12,A
   \   00017C   A3           INC       DPTR
   \   00017D   E0           MOVX      A,@DPTR
   \   00017E   F5..         MOV       ?V13,A
   \   000180   E5..         MOV       A,?V12
   \   000182   45..         ORL       A,?V13
   \   000184   7003         JNZ       $+5
   \   000186   02....       LJMP      ??ZDO_ProcessMatchDescReq_15 & 0xFFFF
   \   000189   85..82       MOV       DPL,?V12
   \   00018C   85..83       MOV       DPH,?V13
   \   00018F   A3           INC       DPTR
   \   000190   12....       LCALL     ??Subroutine223_0 & 0xFFFF
   \                     ??CrossCallReturnLabel_393:
   \   000193   60DE         JZ        ??ZDO_ProcessMatchDescReq_14
   \   000195   85..82       MOV       DPL,?V12
   \   000198   85..83       MOV       DPH,?V13
   \   00019B   A3           INC       DPTR
   \   00019C   A3           INC       DPTR
   \   00019D   A3           INC       DPTR
   \   00019E   A3           INC       DPTR
   \   00019F   A3           INC       DPTR
   \   0001A0   A3           INC       DPTR
   \   0001A1   A3           INC       DPTR
   \   0001A2   A3           INC       DPTR
   \   0001A3   E0           MOVX      A,@DPTR
   \   0001A4   A2E0         MOV       C,0xE0 /* A   */.0
   \   0001A6   50CB         JNC       ??ZDO_ProcessMatchDescReq_14
   \   0001A8   85..82       MOV       DPL,?V12
   \   0001AB   85..83       MOV       DPH,?V13
   \   0001AE   A3           INC       DPTR
   \   0001AF   A3           INC       DPTR
   \   0001B0   A3           INC       DPTR
   \   0001B1   A3           INC       DPTR
   \   0001B2   12....       LCALL     ??Subroutine231_0 & 0xFFFF
   \                     ??CrossCallReturnLabel_433:
   \   0001B5   85..82       MOV       DPL,?V12
   \   0001B8   85..83       MOV       DPH,?V13
   \   0001BB   A3           INC       DPTR
   \   0001BC   A3           INC       DPTR
   \   0001BD   601E         JZ        ??ZDO_ProcessMatchDescReq_16
   \   0001BF                ; Setup parameters for indirect call
   \   0001BF   12....       LCALL     ??Subroutine224_0 & 0xFFFF
   \                     ??CrossCallReturnLabel_388:
   \   0001C2   FA           MOV       R2,A
   \   0001C3   7901         MOV       R1,#0x1
   \   0001C5   85..82       MOV       DPL,?V12
   \   0001C8   85..83       MOV       DPH,?V13
   \   0001CB   A3           INC       DPTR
   \   0001CC   A3           INC       DPTR
   \   0001CD   A3           INC       DPTR
   \   0001CE   A3           INC       DPTR
   \   0001CF   12....       LCALL     ?Subroutine113 & 0xFFFF
   \                     ??CrossCallReturnLabel_171:
   \   0001D2   12....       LCALL     ?CALL_IND
   \   0001D5   8A..         MOV       ?V10,R2
   \   0001D7   8B..         MOV       ?V11,R3
   \   0001D9   D2..         SETB      ?VB.0
   \   0001DB   800F         SJMP      ??ZDO_ProcessMatchDescReq_17
   \                     ??ZDO_ProcessMatchDescReq_16:
   \   0001DD   12....       LCALL     ?Subroutine113 & 0xFFFF
   \                     ??CrossCallReturnLabel_172:
   \   0001E0   A3           INC       DPTR
   \   0001E1   A3           INC       DPTR
   \   0001E2   A3           INC       DPTR
   \   0001E3   E0           MOVX      A,@DPTR
   \   0001E4   F5..         MOV       ?V10,A
   \   0001E6   A3           INC       DPTR
   \   0001E7   E0           MOVX      A,@DPTR
   \   0001E8   F5..         MOV       ?V11,A
   \   0001EA   C2..         CLR       ?VB.0
   \                     ??ZDO_ProcessMatchDescReq_17:
   \   0001EC   E5..         MOV       A,?V10
   \   0001EE   45..         ORL       A,?V11
   \   0001F0   7003         JNZ       $+5
   \   0001F2   02....       LJMP      ??ZDO_ProcessMatchDescReq_13 & 0xFFFF
   \   0001F5   85..82       MOV       DPL,?V10
   \   0001F8   85..83       MOV       DPH,?V11
   \   0001FB   A3           INC       DPTR
   \   0001FC   E0           MOVX      A,@DPTR
   \   0001FD   65..         XRL       A,?V0
   \   0001FF   7004         JNZ       ??ZDO_ProcessMatchDescReq_18
   \   000201   A3           INC       DPTR
   \   000202   E0           MOVX      A,@DPTR
   \   000203   65..         XRL       A,?V1
   \                     ??ZDO_ProcessMatchDescReq_18:
   \   000205   600F         JZ        ??ZDO_ProcessMatchDescReq_19
   \   000207   74FF         MOV       A,#-0x1
   \   000209   65..         XRL       A,?V0
   \   00020B   7004         JNZ       ??ZDO_ProcessMatchDescReq_20
   \   00020D   74FF         MOV       A,#-0x1
   \   00020F   65..         XRL       A,?V1
   \                     ??ZDO_ProcessMatchDescReq_20:
   \   000211   6003         JZ        $+5
   \   000213   02....       LJMP      ??ZDO_ProcessMatchDescReq_13 & 0xFFFF
   \                     ??ZDO_ProcessMatchDescReq_19:
   \   000216                ; Setup parameters for call to function ZDO_AnyClusterMatches
   \   000216   85..82       MOV       DPL,?V10
   \   000219   85..83       MOV       DPH,?V11
   \   00021C   A3           INC       DPTR
   \   00021D   A3           INC       DPTR
   \   00021E   A3           INC       DPTR
   \   00021F   A3           INC       DPTR
   \   000220   A3           INC       DPTR
   \   000221   A3           INC       DPTR
   \   000222   A3           INC       DPTR
   \   000223   12....       LCALL     ?PUSH_XSTACK8_X_TWO
   \   000226   85..82       MOV       DPL,?V10
   \   000229   85..83       MOV       DPH,?V11
   \   00022C   A3           INC       DPTR
   \   00022D   A3           INC       DPTR
   \   00022E   A3           INC       DPTR
   \   00022F   A3           INC       DPTR
   \   000230   A3           INC       DPTR
   \   000231   A3           INC       DPTR
   \   000232   E0           MOVX      A,@DPTR
   \   000233   FC           MOV       R4,A
   \   000234   7404         MOV       A,#0x4
   \   000236   12....       LCALL     ?XSTACK_DISP0_8
   \   000239   12....       LCALL     ??Subroutine243_0 & 0xFFFF
   \                     ??CrossCallReturnLabel_491:
   \   00023C   A9..         MOV       R1,?V8
   \   00023E   12....       LCALL     `??ZDO_AnyClusterMatches::?relay`; Banked call to: ZDO_AnyClusterMatches
   \   000241   7402         MOV       A,#0x2
   \   000243   12....       LCALL     ?DEALLOC_XSTACK8
   \   000246   E9           MOV       A,R1
   \   000247   703C         JNZ       ??ZDO_ProcessMatchDescReq_21
   \   000249                ; Setup parameters for call to function ZDO_AnyClusterMatches
   \   000249   85..82       MOV       DPL,?V10
   \   00024C   85..83       MOV       DPH,?V11
   \   00024F   A3           INC       DPTR
   \   000250   A3           INC       DPTR
   \   000251   A3           INC       DPTR
   \   000252   A3           INC       DPTR
   \   000253   A3           INC       DPTR
   \   000254   A3           INC       DPTR
   \   000255   A3           INC       DPTR
   \   000256   A3           INC       DPTR
   \   000257   A3           INC       DPTR
   \   000258   A3           INC       DPTR
   \   000259   12....       LCALL     ?PUSH_XSTACK8_X_TWO
   \   00025C   85..82       MOV       DPL,?V10
   \   00025F   85..83       MOV       DPH,?V11
   \   000262   A3           INC       DPTR
   \   000263   A3           INC       DPTR
   \   000264   A3           INC       DPTR
   \   000265   A3           INC       DPTR
   \   000266   A3           INC       DPTR
   \   000267   A3           INC       DPTR
   \   000268   A3           INC       DPTR
   \   000269   A3           INC       DPTR
   \   00026A   A3           INC       DPTR
   \   00026B   E0           MOVX      A,@DPTR
   \   00026C   FC           MOV       R4,A
   \   00026D   7402         MOV       A,#0x2
   \   00026F   12....       LCALL     ?XSTACK_DISP0_8
   \   000272   12....       LCALL     ??Subroutine243_0 & 0xFFFF
   \                     ??CrossCallReturnLabel_492:
   \   000275   A9..         MOV       R1,?V7
   \   000277   12....       LCALL     `??ZDO_AnyClusterMatches::?relay`; Banked call to: ZDO_AnyClusterMatches
   \   00027A   7402         MOV       A,#0x2
   \   00027C   12....       LCALL     ?DEALLOC_XSTACK8
   \   00027F   E9           MOV       A,R1
   \   000280   7003         JNZ       $+5
   \   000282   02....       LJMP      ??ZDO_ProcessMatchDescReq_13 & 0xFFFF
   \                     ??ZDO_ProcessMatchDescReq_21:
   \   000285                ; Setup parameters for call to function osal_msg_allocate
   \   000285   E5..         MOV       A,?V7
   \   000287   25..         ADD       A,?V8
   \   000289   C3           CLR       C
   \   00028A   33           RLC       A
   \   00028B   240A         ADD       A,#0xa
   \   00028D   FA           MOV       R2,A
   \   00028E   7B00         MOV       R3,#0x0
   \   000290   12....       LCALL     `??osal_msg_allocate::?relay`; Banked call to: osal_msg_allocate
   \   000293   8A..         MOV       ?V2,R2
   \   000295   8B..         MOV       ?V3,R3
   \   000297   EA           MOV       A,R2
   \   000298   45..         ORL       A,?V3
   \   00029A   7003         JNZ       $+5
   \   00029C   02....       LJMP      ??ZDO_ProcessMatchDescReq_12 & 0xFFFF
   \   00029F   8A82         MOV       DPL,R2
   \   0002A1   8B83         MOV       DPH,R3
   \   0002A3   74D2         MOV       A,#-0x2e
   \   0002A5   12....       LCALL     ?Subroutine25 & 0xFFFF
   \                     ??CrossCallReturnLabel_25:
   \   0002A8   8A82         MOV       DPL,R2
   \   0002AA   8B83         MOV       DPH,R3
   \   0002AC   A3           INC       DPTR
   \   0002AD   A3           INC       DPTR
   \   0002AE   E8           MOV       A,R0
   \   0002AF   F0           MOVX      @DPTR,A
   \   0002B0   A3           INC       DPTR
   \   0002B1   E9           MOV       A,R1
   \   0002B2   12....       LCALL     ?Subroutine27 & 0xFFFF
   \                     ??CrossCallReturnLabel_29:
   \   0002B5   A3           INC       DPTR
   \   0002B6   E5..         MOV       A,?V8
   \   0002B8   12....       LCALL     ?Subroutine16 & 0xFFFF
   \                     ??CrossCallReturnLabel_10:
   \   0002BB   E5..         MOV       A,?V7
   \   0002BD   F0           MOVX      @DPTR,A
   \   0002BE   E5..         MOV       A,?V8
   \   0002C0   602C         JZ        ??ZDO_ProcessMatchDescReq_22
   \   0002C2   12....       LCALL     ?Subroutine187 & 0xFFFF
   \                     ??CrossCallReturnLabel_635:
   \   0002C5   35..         ADDC      A,?V3
   \   0002C7   FB           MOV       R3,A
   \   0002C8   85..82       MOV       DPL,?V2
   \   0002CB   85..83       MOV       DPH,?V3
   \   0002CE   12....       LCALL     ?Subroutine32 & 0xFFFF
   \                     ??CrossCallReturnLabel_346:
   \   0002D1                ; Setup parameters for call to function osal_memcpy
   \   0002D1   7402         MOV       A,#0x2
   \   0002D3   12....       LCALL     ?XSTACK_DISP0_8
   \   0002D6   12....       LCALL     ?Subroutine90 & 0xFFFF
   \                     ??CrossCallReturnLabel_141:
   \   0002D9   12....       LCALL     ?PUSH_XSTACK_I_THREE
   \   0002DC   AC..         MOV       R4,?V8
   \   0002DE   EC           MOV       A,R4
   \   0002DF   2C           ADD       A,R4
   \   0002E0   FC           MOV       R4,A
   \   0002E1   E4           CLR       A
   \   0002E2   33           RLC       A
   \   0002E3   FD           MOV       R5,A
   \   0002E4   12....       LCALL     `??osal_memcpy::?relay`; Banked call to: osal_memcpy
   \   0002E7   7403         MOV       A,#0x3
   \   0002E9   12....       LCALL     ?DEALLOC_XSTACK8
   \   0002EC   800D         SJMP      ??ZDO_ProcessMatchDescReq_23
   \                     ??ZDO_ProcessMatchDescReq_22:
   \   0002EE   8A82         MOV       DPL,R2
   \   0002F0   8B83         MOV       DPH,R3
   \   0002F2   A3           INC       DPTR
   \   0002F3   A3           INC       DPTR
   \   0002F4   A3           INC       DPTR
   \   0002F5   A3           INC       DPTR
   \   0002F6   A3           INC       DPTR
   \   0002F7   E4           CLR       A
   \   0002F8   F0           MOVX      @DPTR,A
   \   0002F9   A3           INC       DPTR
   \   0002FA   F0           MOVX      @DPTR,A
   \                     ??ZDO_ProcessMatchDescReq_23:
   \   0002FB   E5..         MOV       A,?V7
   \   0002FD   7003         JNZ       $+5
   \   0002FF   02....       LJMP      ??ZDO_ProcessMatchDescReq_10 & 0xFFFF
   \   000302   A8..         MOV       R0,?V8
   \   000304   E8           MOV       A,R0
   \   000305   28           ADD       A,R0
   \   000306   F8           MOV       R0,A
   \   000307   E4           CLR       A
   \   000308   33           RLC       A
   \   000309   F9           MOV       R1,A
   \   00030A   E5..         MOV       A,?V2
   \   00030C   28           ADD       A,R0
   \   00030D   F8           MOV       R0,A
   \   00030E   E5..         MOV       A,?V3
   \   000310   39           ADDC      A,R1
   \   000311   F9           MOV       R1,A
   \   000312   E8           MOV       A,R0
   \   000313   12....       LCALL     ??Subroutine260_0 & 0xFFFF
   \                     ??CrossCallReturnLabel_632:
   \   000316   39           ADDC      A,R1
   \   000317   FB           MOV       R3,A
   \   000318   85..82       MOV       DPL,?V2
   \   00031B   85..83       MOV       DPH,?V3
   \   00031E   A3           INC       DPTR
   \   00031F   A3           INC       DPTR
   \   000320   A3           INC       DPTR
   \   000321   12....       LCALL     ?Subroutine32 & 0xFFFF
   \                     ??CrossCallReturnLabel_347:
   \   000324                ; Setup parameters for call to function osal_memcpy
   \   000324   85..82       MOV       DPL,?XSP + 0
   \   000327   85..83       MOV       DPH,?XSP + 1
   \   00032A   12....       LCALL     ?Subroutine90 & 0xFFFF
    929            }
   \                     ??CrossCallReturnLabel_142:
   \   00032D   12....       LCALL     ?PUSH_XSTACK_I_THREE
   \   000330   AC..         MOV       R4,?V7
   \   000332   EC           MOV       A,R4
   \   000333   2C           ADD       A,R4
   \   000334   FC           MOV       R4,A
   \   000335   E4           CLR       A
   \   000336   33           RLC       A
   \   000337   FD           MOV       R5,A
   \   000338   12....       LCALL     `??osal_memcpy::?relay`; Banked call to: osal_memcpy
   \   00033B   7403         MOV       A,#0x3
   \   00033D   12....       LCALL     ?DEALLOC_XSTACK8
   \   000340   02....       LJMP      ??ZDO_ProcessMatchDescReq_11 & 0xFFFF
    930          
    931            if ( epCnt )
   \                     ??ZDO_ProcessMatchDescReq_15:
   \   000343   E5..         MOV       A,?V9
   \   000345   6025         JZ        ??ZDO_ProcessMatchDescReq_24
    932            {
    933              // Send the message if at least one match found.
    934              if ( ZSuccess == ZDP_MatchDescRsp( inMsg->TransSeq, &(inMsg->srcAddr), ZDP_SUCCESS,
    935                        ZDAppNwkAddr.addr.shortAddr, epCnt, (uint8 *)ZDOBuildBuf, inMsg->SecurityUse ) )
   \   000347                ; Setup parameters for call to function ZDP_EPRsp
   \   000347   12....       LCALL     ?Subroutine88 & 0xFFFF
    936              {
    937          #if defined( LCD_SUPPORTED )
    938                HalLcdWriteScreen( "Match Desc Req", "Rsp Sent" );
    939          #endif
    940              }
    941            }
   \                     ??CrossCallReturnLabel_551:
   \   00034A   12....       LCALL     ?PUSH_XSTACK_I_ONE
   \   00034D   75....       MOV       ?V0,#ZDOBuildBuf & 0xff
   \   000350   75....       MOV       ?V1,#(ZDOBuildBuf >> 8) & 0xff
   \   000353   78..         MOV       R0,#?V0
   \   000355   12....       LCALL     ?PUSH_XSTACK_I_TWO
   \   000358   E5..         MOV       A,?V9
   \   00035A   F5..         MOV       ?V0,A
   \   00035C   78..         MOV       R0,#?V0
   \   00035E   12....       LCALL     ?PUSH_XSTACK_I_ONE
   \   000361   90....       MOV       DPTR,#ZDAppNwkAddr
   \   000364   12....       LCALL     ?PUSH_XSTACK8_X_TWO
   \   000367   75..00       MOV       ?V0,#0x0
   \   00036A   8029         SJMP      ??ZDO_ProcessMatchDescReq_25
    942            else
    943            {
    944              // No match found
    945              if (ADDR_NOT_BCAST == NLME_IsAddressBroadcast(aoi))
   \                     ??ZDO_ProcessMatchDescReq_24:
   \   00036C                ; Setup parameters for call to function NLME_IsAddressBroadcast
   \   00036C   EE           MOV       A,R6
   \   00036D   FA           MOV       R2,A
   \   00036E   EF           MOV       A,R7
   \   00036F   FB           MOV       R3,A
   \   000370   12....       LCALL     `??NLME_IsAddressBroadcast::?relay`; Banked call to: NLME_IsAddressBroadcast
   \   000373   E9           MOV       A,R1
   \   000374   702F         JNZ       ??ZDO_ProcessMatchDescReq_26
    946              {
    947                // send response message with match length = 0
    948                ZDP_MatchDescRsp( inMsg->TransSeq, &(inMsg->srcAddr), ZDP_SUCCESS,
    949                                  ZDAppNwkAddr.addr.shortAddr, 0, (uint8 *)ZDOBuildBuf, inMsg->SecurityUse );
   \   000376                ; Setup parameters for call to function ZDP_EPRsp
   \   000376   12....       LCALL     ?Subroutine88 & 0xFFFF
    950          #if defined( LCD_SUPPORTED )
    951                HalLcdWriteScreen( "Match Desc Req", "Rsp Non Matched" );
    952          #endif
    953              }
    954              else
    955              {
    956                // no response mesage for broadcast message
    957          #if defined( LCD_SUPPORTED )
    958                HalLcdWriteScreen( "Match Desc Req", "Non Matched" );
    959          #endif
    960              }
    961            }
   \                     ??CrossCallReturnLabel_552:
   \   000379   12....       LCALL     ?PUSH_XSTACK_I_ONE
   \   00037C   75....       MOV       ?V0,#ZDOBuildBuf & 0xff
   \   00037F   75....       MOV       ?V1,#(ZDOBuildBuf >> 8) & 0xff
   \   000382   78..         MOV       R0,#?V0
   \   000384   12....       LCALL     ?PUSH_XSTACK_I_TWO
   \   000387   75..00       MOV       ?V0,#0x0
   \   00038A   78..         MOV       R0,#?V0
   \   00038C   12....       LCALL     ?PUSH_XSTACK_I_ONE
   \   00038F   90....       MOV       DPTR,#ZDAppNwkAddr
   \   000392   12....       LCALL     ?PUSH_XSTACK8_X_TWO
   \                     ??ZDO_ProcessMatchDescReq_25:
   \   000395   78..         MOV       R0,#?V0
   \   000397   12....       LCALL     ?PUSH_XSTACK_I_ONE
   \   00039A   12....       LCALL     ?Subroutine134 & 0xFFFF
   \                     ??CrossCallReturnLabel_202:
   \   00039D   12....       LCALL     `??ZDP_EPRsp::?relay`; Banked call to: ZDP_EPRsp
   \   0003A0   7407         MOV       A,#0x7
   \   0003A2   12....       LCALL     ?DEALLOC_XSTACK8
    962          
    963            if ( inClusters != NULL )
   \                     ??ZDO_ProcessMatchDescReq_26:
   \   0003A5   7402         MOV       A,#0x2
   \   0003A7   12....       LCALL     ?XSTACK_DISP0_8
   \   0003AA   12....       LCALL     ??Subroutine231_0 & 0xFFFF
   \                     ??CrossCallReturnLabel_434:
   \   0003AD   600B         JZ        ??ZDO_ProcessMatchDescReq_27
    964            {
    965              osal_mem_free( inClusters );
   \   0003AF                ; Setup parameters for call to function osal_mem_free
   \   0003AF   7402         MOV       A,#0x2
   \   0003B1   12....       LCALL     ?XSTACK_DISP0_8
   \   0003B4   12....       LCALL     ??Subroutine243_0 & 0xFFFF
    966            }
   \                     ??CrossCallReturnLabel_493:
   \   0003B7   12....       LCALL     `??osal_mem_free::?relay`; Banked call to: osal_mem_free
    967          
    968            if ( outClusters != NULL )
   \                     ??ZDO_ProcessMatchDescReq_27:
   \   0003BA   85..82       MOV       DPL,?XSP + 0
   \   0003BD   85..83       MOV       DPH,?XSP + 1
   \   0003C0   12....       LCALL     ??Subroutine231_0 & 0xFFFF
   \                     ??CrossCallReturnLabel_435:
   \   0003C3   6006         JZ        ??ZDO_ProcessMatchDescReq_3
    969            {
    970              osal_mem_free( outClusters );
   \   0003C5                ; Setup parameters for call to function osal_mem_free
   \   0003C5   12....       LCALL     ?Subroutine102 & 0xFFFF
    971            }
   \                     ??CrossCallReturnLabel_514:
   \   0003C8   12....       LCALL     `??osal_mem_free::?relay`; Banked call to: osal_mem_free
    972          }
   \                     ??ZDO_ProcessMatchDescReq_3:
   \   0003CB   7404         MOV       A,#0x4
   \   0003CD                REQUIRE ?Subroutine6
   \   0003CD                ; // Fall through to label ?Subroutine6

   \                                 In  segment BANKED_CODE, align 1, keep-with-next
   \                     ?Subroutine6:
   \   000000   12....       LCALL     ?DEALLOC_XSTACK8
   \   000003   7F10         MOV       R7,#0x10
   \   000005   02....       LJMP      ?BANKED_LEAVE_XDATA

   \                                 In  segment BANKED_CODE, align 1, keep-with-next
   \                     ?Subroutine134:
   \   000000   E5..         MOV       A,?V14
   \   000002   2402         ADD       A,#0x2
   \   000004   FC           MOV       R4,A
   \   000005   E4           CLR       A
   \   000006   35..         ADDC      A,?V15
   \   000008   FD           MOV       R5,A
   \   000009   E5..         MOV       A,?V14
   \   00000B   240F         ADD       A,#0xf
   \   00000D   F582         MOV       DPL,A
   \   00000F   E4           CLR       A
   \   000010   35..         ADDC      A,?V15
   \   000012   F583         MOV       DPH,A
   \   000014   E0           MOVX      A,@DPTR
   \   000015   F9           MOV       R1,A
   \   000016   7A06         MOV       R2,#0x6
   \   000018   7B80         MOV       R3,#-0x80
   \   00001A   22           RET

   \                                 In  segment BANKED_CODE, align 1, keep-with-next
   \                     ?Subroutine113:
   \   000000   12....       LCALL     ?Subroutine179 & 0xFFFF
   \                     ??CrossCallReturnLabel_398:
   \   000003   22           RET

   \                                 In  segment BANKED_CODE, align 1, keep-with-next
   \                     ?Subroutine106:
   \   000000   E0           MOVX      A,@DPTR
   \   000001   FC           MOV       R4,A
   \   000002   A3           INC       DPTR
   \   000003   E0           MOVX      A,@DPTR
   \   000004   FD           MOV       R5,A
   \   000005   AA..         MOV       R2,?V2
   \   000007   AB..         MOV       R3,?V3
   \   000009   22           RET

   \                                 In  segment BANKED_CODE, align 1, keep-with-next
   \                     ?Subroutine90:
   \   000000   E0           MOVX      A,@DPTR
   \   000001   F5..         MOV       ?V4,A
   \   000003   A3           INC       DPTR
   \   000004   E0           MOVX      A,@DPTR
   \   000005   F5..         MOV       ?V5,A
   \   000007   75..00       MOV       ?V6,#0x0
   \   00000A   78..         MOV       R0,#?V4
   \   00000C   22           RET

   \                                 In  segment BANKED_CODE, align 1, keep-with-next
   \                     ?Subroutine95:
   \   000000   F583         MOV       DPH,A
   \   000002                REQUIRE ??Subroutine211_0
   \   000002                ; // Fall through to label ??Subroutine211_0

   \                                 In  segment BANKED_CODE, align 1, keep-with-next
   \                     ??Subroutine211_0:
   \   000000   E0           MOVX      A,@DPTR
   \   000001   F5..         MOV       ?V2,A
   \   000003   A3           INC       DPTR
   \   000004   E0           MOVX      A,@DPTR
   \   000005   22           RET

   \                                 In  segment BANKED_CODE, align 1, keep-with-next
   \                     ?Subroutine32:
   \   000000   A3           INC       DPTR
   \   000001   A3           INC       DPTR
   \   000002   A3           INC       DPTR
   \   000003   A3           INC       DPTR
   \   000004   A3           INC       DPTR
   \   000005                REQUIRE ??Subroutine213_0
   \   000005                ; // Fall through to label ??Subroutine213_0

   \                                 In  segment BANKED_CODE, align 1, keep-with-next
   \                     ??Subroutine217_0:
   \   000000   EA           MOV       A,R2
   \   000001                REQUIRE ??Subroutine218_0
   \   000001                ; // Fall through to label ??Subroutine218_0

   \                                 In  segment BANKED_CODE, align 1, keep-with-next
   \                     ??Subroutine218_0:
   \   000000   12....       LCALL     ??Subroutine267_0 & 0xFFFF
   \                     ??CrossCallReturnLabel_667:
   \   000003   22           RET

   \                                 In  segment BANKED_CODE, align 1, keep-with-next
   \                     ?Subroutine36:
   \   000000   F0           MOVX      @DPTR,A
   \   000001   85..82       MOV       DPL,?XSP + 0
   \   000004   85..83       MOV       DPH,?XSP + 1
   \   000007   22           RET

   \                                 In  segment BANKED_CODE, align 1, keep-with-next
   \                     ?Subroutine30:
   \   000000   F0           MOVX      @DPTR,A
   \   000001   85..82       MOV       DPL,?XSP + 0
   \   000004   85..83       MOV       DPH,?XSP + 1
   \   000007   12....       LCALL     ?Subroutine178 & 0xFFFF
   \                     ??CrossCallReturnLabel_476:
   \   00000A   22           RET

   \                                 In  segment BANKED_CODE, align 1, keep-with-next
   \                     ?Subroutine25:
   \   000000   F0           MOVX      @DPTR,A
   \   000001   85..82       MOV       DPL,?V14
   \   000004   85..83       MOV       DPH,?V15
   \   000007   A3           INC       DPTR
   \   000008   A3           INC       DPTR
   \   000009   12....       LCALL     ?Subroutine178 & 0xFFFF
   \                     ??CrossCallReturnLabel_475:
   \   00000C   22           RET

   \                                 In  segment BANKED_CODE, align 1, keep-with-next
   \                     ?Subroutine88:
   \   000000   E5..         MOV       A,?V14
   \   000002   240E         ADD       A,#0xe
   \   000004   F582         MOV       DPL,A
   \   000006   E4           CLR       A
   \   000007   35..         ADDC      A,?V15
   \   000009                REQUIRE ??Subroutine251_0
   \   000009                ; // Fall through to label ??Subroutine251_0

   \                                 In  segment BANKED_CODE, align 1, keep-with-next
   \                     ??Subroutine251_0:
   \   000000   F583         MOV       DPH,A
   \   000002                REQUIRE ??Subroutine252_0
   \   000002                ; // Fall through to label ??Subroutine252_0

   \                                 In  segment BANKED_CODE, align 1, keep-with-next
   \                     ??Subroutine252_0:
   \   000000   E0           MOVX      A,@DPTR
   \   000001   F5..         MOV       ?V0,A
   \   000003   78..         MOV       R0,#?V0
   \   000005   22           RET

   \                                 In  segment BANKED_CODE, align 1, keep-with-next
   \                     ?Subroutine187:
   \   000000   EA           MOV       A,R2
   \   000001                REQUIRE ??Subroutine260_0
   \   000001                ; // Fall through to label ??Subroutine260_0

   \                                 In  segment BANKED_CODE, align 1, keep-with-next
   \                     ??Subroutine260_0:
   \   000000   240A         ADD       A,#0xa
   \   000002   FA           MOV       R2,A
   \   000003   E4           CLR       A
   \   000004   22           RET

   \                                 In  segment BANKED_CODE, align 1, keep-with-next
   \                     ?Subroutine27:
   \   000000   12....       LCALL     ?Subroutine156 & 0xFFFF
   \                     ??CrossCallReturnLabel_250:
   \   000003   22           RET

   \                                 In  segment BANKED_CODE, align 1, keep-with-next
   \                     ?Subroutine156:
   \   000000   F0           MOVX      @DPTR,A
   \   000001   8A82         MOV       DPL,R2
   \   000003   8B83         MOV       DPH,R3
   \   000005   A3           INC       DPTR
   \   000006   A3           INC       DPTR
   \   000007   A3           INC       DPTR
   \   000008   22           RET

   \                                 In  segment BANKED_CODE, align 1, keep-with-next
   \                     ?Subroutine100:
   \   000000   E0           MOVX      A,@DPTR
   \   000001   F5..         MOV       ?V7,A
   \   000003   A3           INC       DPTR
   \   000004   8582..       MOV       ?V2,DPL
   \   000007   8583..       MOV       ?V3,DPH
   \   00000A   22           RET

   \                                 In  segment BANKED_CODE, align 1, keep-with-next
   \                     ??Subroutine268_0:
   \   000000   25E0         ADD       A,0xE0 /* A   */
   \   000002   FA           MOV       R2,A
   \   000003   E4           CLR       A
   \   000004   33           RLC       A
   \   000005   FB           MOV       R3,A
   \   000006   22           RET

   \                                 In  segment BANKED_CODE, align 1, keep-with-next
   \                     ??Subroutine272_0:
   \   000000   12....       LCALL     ?Subroutine195 & 0xFFFF
   \                     ??CrossCallReturnLabel_693:
   \   000003   22           RET

   \                                 In  segment BANKED_CODE, align 1, keep-with-next
   \                     ?Subroutine16:
   \   000000   12....       LCALL     ?Subroutine156 & 0xFFFF
   \                     ??CrossCallReturnLabel_252:
   \   000003   A3           INC       DPTR
   \   000004   A3           INC       DPTR
   \   000005   A3           INC       DPTR
   \   000006   A3           INC       DPTR
   \   000007   22           RET
    973          
    974          #if defined ( REFLECTOR )
    975          /*********************************************************************
    976           * @fn      ZDO_ProcessBindUnbindReq()
    977           *
    978           * @brief   Called to process a Bind or Unbind Request message.
    979           *
    980           * @param   inMsg  - incoming message (request)
    981           * @param   pReq - place to put parsed information
    982           *
    983           * @return  none
    984           */

   \                                 In  segment BANKED_CODE, align 1, keep-with-next
    985          void ZDO_ProcessBindUnbindReq( zdoIncomingMsg_t *inMsg, ZDO_BindUnbindReq_t *pReq )
   \                     ZDO_ProcessBindUnbindReq:
    986          {
   \   000000                REQUIRE ?V0
   \   000000                REQUIRE ?V1
   \   000000                REQUIRE ?V2
   \   000000                REQUIRE ?V3
   \   000000                REQUIRE ?V4
   \   000000                REQUIRE ?V5
   \   000000                REQUIRE ?V6
   \   000000   74F1         MOV       A,#-0xf
   \   000002   12....       LCALL     ?BANKED_ENTER_XDATA
   \   000005                ; Saved register size: 15
   \   000005                ; Auto size: 12
   \   000005   74F4         MOV       A,#-0xc
   \   000007   12....       LCALL     ?ALLOC_XSTACK8
   \   00000A   8A..         MOV       ?V0,R2
   \   00000C   8B..         MOV       ?V1,R3
   \   00000E   EC           MOV       A,R4
   \   00000F   FE           MOV       R6,A
   \   000010   ED           MOV       A,R5
   \   000011   FF           MOV       R7,A
    987            zAddrType_t SourceAddr;       // Binding Source addres
    988            byte bindStat;
    989          
    990            SourceAddr.addrMode = Addr64Bit;
   \   000012   740B         MOV       A,#0xb
   \   000014   12....       LCALL     ?XSTACK_DISP0_8
   \   000017   7403         MOV       A,#0x3
   \   000019   F0           MOVX      @DPTR,A
    991            osal_cpyExtAddr( SourceAddr.addr.extAddr, pReq->srcAddress );
   \   00001A                ; Setup parameters for call to function sAddrExtCpy
   \   00001A   12....       LCALL     ?XSTACK_DISP101_8
   \   00001D   12....       LCALL     `??sAddrExtCpy::?relay`; Banked call to: sAddrExtCpy
    992          
    993            // If the local device is not the primary binding cache
    994            // check the src address of the bind request.
    995            // If it is not the local device's extended address
    996            // discard the request.
    997            if ( !osal_ExtAddrEqual( SourceAddr.addr.extAddr, NLME_GetExtAddr()) ||
    998                  (pReq->dstAddress.addrMode != Addr64Bit &&
    999                   pReq->dstAddress.addrMode != AddrGroup) )
   \   000020                ; Setup parameters for call to function NLME_GetExtAddr
   \   000020   12....       LCALL     `??NLME_GetExtAddr::?relay`; Banked call to: NLME_GetExtAddr
   \   000023   8A..         MOV       ?V2,R2
   \   000025   8B..         MOV       ?V3,R3
   \   000027   AC..         MOV       R4,?V2
   \   000029   AD..         MOV       R5,?V3
   \   00002B                ; Setup parameters for call to function sAddrExtCmp
   \   00002B   7403         MOV       A,#0x3
   \   00002D   12....       LCALL     ?XSTACK_DISP101_8
   \   000030   12....       LCALL     `??sAddrExtCmp::?relay`; Banked call to: sAddrExtCmp
   \   000033   E9           MOV       A,R1
   \   000034   600F         JZ        ??ZDO_ProcessBindUnbindReq_0
   \   000036   EE           MOV       A,R6
   \   000037   2413         ADD       A,#0x13
   \   000039   12....       LCALL     ??Subroutine255_0 & 0xFFFF
   \                     ??CrossCallReturnLabel_566:
   \   00003C   6403         XRL       A,#0x3
   \   00003E   6010         JZ        ??ZDO_ProcessBindUnbindReq_1
   \   000040   E0           MOVX      A,@DPTR
   \   000041   6401         XRL       A,#0x1
   \   000043   600B         JZ        ??ZDO_ProcessBindUnbindReq_1
   1000            {
   1001              bindStat = ZDP_NOT_SUPPORTED;
   \                     ??ZDO_ProcessBindUnbindReq_0:
   \   000045   85..82       MOV       DPL,?XSP + 0
   \   000048   85..83       MOV       DPH,?XSP + 1
   \   00004B   7484         MOV       A,#-0x7c
   \   00004D   02....       LJMP      ??ZDO_ProcessBindUnbindReq_2 & 0xFFFF
   1002            }
   1003            else
   1004            {
   1005              // Check source & destination endpoints
   1006              if ( (pReq->srcEndpoint == 0 || pReq->srcEndpoint > MAX_ENDPOINTS)
   1007                  || (( pReq->dstAddress.addrMode == Addr64Bit ) &&
   1008                      (pReq->dstEndpoint == 0 || pReq->dstEndpoint > MAX_ENDPOINTS)) )
   \                     ??ZDO_ProcessBindUnbindReq_1:
   \   000050   8E82         MOV       DPL,R6
   \   000052   8F83         MOV       DPH,R7
   \   000054   A3           INC       DPTR
   \   000055   A3           INC       DPTR
   \   000056   A3           INC       DPTR
   \   000057   A3           INC       DPTR
   \   000058   A3           INC       DPTR
   \   000059   A3           INC       DPTR
   \   00005A   A3           INC       DPTR
   \   00005B   A3           INC       DPTR
   \   00005C   E0           MOVX      A,@DPTR
   \   00005D   6018         JZ        ??ZDO_ProcessBindUnbindReq_3
   \   00005F   F4           CPL       A
   \   000060   6015         JZ        ??ZDO_ProcessBindUnbindReq_3
   \   000062   EE           MOV       A,R6
   \   000063   2413         ADD       A,#0x13
   \   000065   12....       LCALL     ??Subroutine255_0 & 0xFFFF
   \                     ??CrossCallReturnLabel_567:
   \   000068   6403         XRL       A,#0x3
   \   00006A   7016         JNZ       ??ZDO_ProcessBindUnbindReq_4
   \   00006C   EE           MOV       A,R6
   \   00006D   2414         ADD       A,#0x14
   \   00006F   12....       LCALL     ??Subroutine255_0 & 0xFFFF
   \                     ??CrossCallReturnLabel_568:
   \   000072   6003         JZ        ??ZDO_ProcessBindUnbindReq_3
   \   000074   F4           CPL       A
   \   000075   700B         JNZ       ??ZDO_ProcessBindUnbindReq_4
   1009              {
   1010                bindStat = ZDP_INVALID_EP;
   \                     ??ZDO_ProcessBindUnbindReq_3:
   \   000077   85..82       MOV       DPL,?XSP + 0
   \   00007A   85..83       MOV       DPH,?XSP + 1
   \   00007D   7482         MOV       A,#-0x7e
   \   00007F   02....       LJMP      ??ZDO_ProcessBindUnbindReq_2 & 0xFFFF
   1011              }
   1012              else
   1013              {
   1014                if ( inMsg->clusterID == Bind_req )
   \                     ??ZDO_ProcessBindUnbindReq_4:
   \   000082   12....       LCALL     ?Subroutine140 & 0xFFFF
   \                     ??CrossCallReturnLabel_211:
   \   000085   E0           MOVX      A,@DPTR
   \   000086   6421         XRL       A,#0x21
   \   000088   7002         JNZ       ??ZDO_ProcessBindUnbindReq_5
   \   00008A   A3           INC       DPTR
   \   00008B   E0           MOVX      A,@DPTR
   \                     ??ZDO_ProcessBindUnbindReq_5:
   \   00008C   6003         JZ        $+5
   \   00008E   02....       LJMP      ??ZDO_ProcessBindUnbindReq_6 & 0xFFFF
   1015                {
   1016                  // Assume the table is full
   1017                  bindStat = ZDP_TABLE_FULL;
   \   000091   85..82       MOV       DPL,?XSP + 0
   \   000094   85..83       MOV       DPH,?XSP + 1
   \   000097   748C         MOV       A,#-0x74
   \   000099   12....       LCALL     ?Subroutine34 & 0xFFFF
   1018          
   1019          #if defined( APP_TP ) || defined( APP_TP2 )
   1020                  // For ZigBee Conformance Testing
   1021                  if ( bindNumOfEntries() < gNWK_MAX_BINDING_ENTRIES )
   1022          #endif
   1023                  {
   1024          #if !defined ( ZDP_BIND_SKIP_VALIDATION )
   1025                    uint16 nwkAddr;
   1026          
   1027                    // Verifies that a valid NWK address exists for the device
   1028                    // before creating a Binding entry. If NWK address does not
   1029                    // exist the request is sent out and the BindReq is saved, to
   1030                    // create the Bind Entry once the NwkAddrRsp is received
   1031                    if ( ( pReq->dstAddress.addrMode == Addr64Bit ) &&
   1032                         ( APSME_LookupNwkAddr( pReq->dstAddress.addr.extAddr, &nwkAddr ) == FALSE ) )
   \                     ??CrossCallReturnLabel_43:
   \   00009C   6403         XRL       A,#0x3
   \   00009E   6003         JZ        $+5
   \   0000A0   02....       LJMP      ??ZDO_ProcessBindUnbindReq_7 & 0xFFFF
   \   0000A3                ; Setup parameters for call to function APSME_LookupNwkAddr
   \   0000A3   7401         MOV       A,#0x1
   \   0000A5   12....       LCALL     ?XSTACK_DISP102_8
   \   0000A8   12....       LCALL     ?Subroutine144 & 0xFFFF
   \                     ??CrossCallReturnLabel_217:
   \   0000AB   12....       LCALL     `??APSME_LookupNwkAddr::?relay`; Banked call to: APSME_LookupNwkAddr
   \   0000AE   E9           MOV       A,R1
   \   0000AF   6003         JZ        $+5
   \   0000B1   02....       LJMP      ??ZDO_ProcessBindUnbindReq_7 & 0xFFFF
   1033                    {
   1034                      // find an empty bind slot in the pending Bind Req list
   1035                      ZDO_PendingBindReq_t *pPendingBind;
   1036          
   1037                      if ( ( pPendingBind = ZDApp_GetEmptyPendingBindReq() ) != NULL )
   \   0000B4                ; Setup parameters for call to function ZDApp_GetEmptyPendingBindReq
   \   0000B4   12....       LCALL     `??ZDApp_GetEmptyPendingBindReq::?relay`; Banked call to: ZDApp_GetEmptyPendingBindReq
   \   0000B7   8A..         MOV       ?V2,R2
   \   0000B9   8B..         MOV       ?V3,R3
   \   0000BB   EA           MOV       A,R2
   \   0000BC   45..         ORL       A,?V3
   \   0000BE   7003         JNZ       $+5
   \   0000C0   02....       LJMP      ??ZDO_ProcessBindUnbindReq_8 & 0xFFFF
   1038                      {
   1039                        // copy the received request into the empty slot and all required info
   1040                        osal_memcpy( &(pPendingBind->bindReq), pReq, sizeof( ZDO_BindUnbindReq_t ) );
   \   0000C3                ; Setup parameters for call to function osal_memcpy
   \   0000C3   8E..         MOV       ?V4,R6
   \   0000C5   8F..         MOV       ?V5,R7
   \   0000C7   75..00       MOV       ?V6,#0x0
   \   0000CA   78..         MOV       R0,#?V4
   \   0000CC   12....       LCALL     ?PUSH_XSTACK_I_THREE
   \   0000CF   7C15         MOV       R4,#0x15
   \   0000D1   7D00         MOV       R5,#0x0
   \   0000D3   12....       LCALL     `??osal_memcpy::?relay`; Banked call to: osal_memcpy
   \   0000D6   7403         MOV       A,#0x3
   \   0000D8   12....       LCALL     ?DEALLOC_XSTACK8
   1041          
   1042                        pPendingBind->srcAddr = inMsg->srcAddr;
   \   0000DB   85..82       MOV       DPL,?V0
   \   0000DE   85..83       MOV       DPH,?V1
   \   0000E1   A3           INC       DPTR
   \   0000E2   A3           INC       DPTR
   \   0000E3   E5..         MOV       A,?V2
   \   0000E5   2415         ADD       A,#0x15
   \   0000E7   FC           MOV       R4,A
   \   0000E8   E4           CLR       A
   \   0000E9   35..         ADDC      A,?V3
   \   0000EB   FD           MOV       R5,A
   \   0000EC   7409         MOV       A,#0x9
   \   0000EE   12....       LCALL     ?MOVE_LONG8_XDATA_XDATA
   1043                        pPendingBind->securityUse = inMsg->SecurityUse;
   \   0000F1   12....       LCALL     ?Subroutine131 & 0xFFFF
   \                     ??CrossCallReturnLabel_196:
   \   0000F4   C0E0         PUSH      A
   \   0000F6   E5..         MOV       A,?V2
   \   0000F8   241E         ADD       A,#0x1e
   \   0000FA   12....       LCALL     ?Subroutine143 & 0xFFFF
   \                     ??CrossCallReturnLabel_330:
   \   0000FD   D0E0         POP       A
   \   0000FF   12....       LCALL     ?Subroutine28 & 0xFFFF
   1044                        pPendingBind->transSeq = inMsg->TransSeq;
   \                     ??CrossCallReturnLabel_32:
   \   000102   C0E0         PUSH      A
   \   000104   E5..         MOV       A,?V2
   \   000106   241F         ADD       A,#0x1f
   \   000108   12....       LCALL     ?Subroutine143 & 0xFFFF
   \                     ??CrossCallReturnLabel_331:
   \   00010B   D0E0         POP       A
   \   00010D   F0           MOVX      @DPTR,A
   1045                        pPendingBind->age = MAX_TIME_ADDR_REQ;
   \   00010E   E5..         MOV       A,?V2
   \   000110   2420         ADD       A,#0x20
   \   000112   12....       LCALL     ?Subroutine143 & 0xFFFF
   \                     ??CrossCallReturnLabel_332:
   \   000115   7405         MOV       A,#0x5
   \   000117   F0           MOVX      @DPTR,A
   1046          
   1047                        // create an entry in Address Manager
   1048                        ( void )bindAddrIndexGet( &(pReq->dstAddress) );
   \   000118   EE           MOV       A,R6
   \   000119   240B         ADD       A,#0xb
   \   00011B   FE           MOV       R6,A
   \   00011C   5001         JNC       ??ZDO_ProcessBindUnbindReq_9
   \   00011E   0F           INC       R7
   \                     ??ZDO_ProcessBindUnbindReq_9:
   \   00011F                ; Setup parameters for call to function bindAddrIndexGet
   \   00011F   FA           MOV       R2,A
   \   000120   EF           MOV       A,R7
   \   000121   FB           MOV       R3,A
   \   000122   12....       LCALL     `??bindAddrIndexGet::?relay`; Banked call to: bindAddrIndexGet
   1049          
   1050                        ZDP_NwkAddrReq( pReq->dstAddress.addr.extAddr, ZDP_ADDR_REQTYPE_SINGLE, 0, 0 );
   \   000125                ; Setup parameters for call to function ZDP_NwkAddrReq
   \   000125   7D00         MOV       R5,#0x0
   \   000127   7C00         MOV       R4,#0x0
   \   000129   7900         MOV       R1,#0x0
   \   00012B   EE           MOV       A,R6
   \   00012C   FA           MOV       R2,A
   \   00012D   EF           MOV       A,R7
   \   00012E   FB           MOV       R3,A
   \   00012F   12....       LCALL     `??ZDP_NwkAddrReq::?relay`; Banked call to: ZDP_NwkAddrReq
   1051          
   1052                        osal_start_timerEx( ZDAppTaskID, ZDO_PENDING_BIND_REQ_EVT,
   1053                                            AGE_OUT_PEND_BIND_REQ_DELAY );
   \   000132                ; Setup parameters for call to function osal_start_timerEx
   \   000132   90....       MOV       DPTR,#__Constant_3e8
   \   000135   12....       LCALL     ?PUSH_XSTACK8_X_FOUR
   \   000138   7A00         MOV       R2,#0x0
   \   00013A   7B10         MOV       R3,#0x10
   \   00013C   90....       MOV       DPTR,#ZDAppTaskID
   \   00013F   E0           MOVX      A,@DPTR
   \   000140   F9           MOV       R1,A
   \   000141   12....       LCALL     `??osal_start_timerEx::?relay`; Banked call to: osal_start_timerEx
   \   000144   7404         MOV       A,#0x4
   \   000146   12....       LCALL     ?DEALLOC_XSTACK8
   1054                        return;
   \   000149   8078         SJMP      ??ZDO_ProcessBindUnbindReq_10
   1055                      }
   1056                    }
   1057                    // Add Bind entry
   1058                    else if ( APSME_BindRequest( pReq->srcEndpoint, pReq->clusterID,
   1059                                                 &(pReq->dstAddress), pReq->dstEndpoint ) == ZSuccess )
   \                     ??ZDO_ProcessBindUnbindReq_7:
   \   00014B                ; Setup parameters for call to function APSME_BindRequest
   \   00014B   12....       LCALL     ?Subroutine121 & 0xFFFF
   1060                    {
   1061                      // valid entry
   1062                      bindStat = ZDP_SUCCESS;
   1063          
   1064                      // Notify to save info into NV
   1065                      ZDApp_NVUpdate();
   1066                    }
   1067          #else // ZDP_BIND_SKIP_VALIDATION  is defined
   1068                    // Create binding entry first independently of existance of  valid NWK addres
   1069                    // if NWK address does not exist a request is sent out
   1070                    if ( APSME_BindRequest( pReq->srcEndpoint, pReq->clusterID,
   1071                                   &(pReq->dstAddress), pReq->dstEndpoint ) == ZSuccess )
   1072                    {
   1073                      uint16 nwkAddr;
   1074          
   1075                      // valid entry
   1076                      bindStat = ZDP_SUCCESS;
   1077          
   1078                      // Notify to save info into NV
   1079                      ZDApp_NVUpdate();
   1080          
   1081                      // Check for the destination address
   1082                      if ( pReq->dstAddress.addrMode == Addr64Bit )
   1083                      {
   1084                        if ( APSME_LookupNwkAddr( pReq->dstAddress.addr.extAddr, &nwkAddr ) == FALSE )
   1085                        {
   1086                          ZDP_NwkAddrReq( pReq->dstAddress.addr.extAddr, ZDP_ADDR_REQTYPE_SINGLE, 0, 0 );
   1087                        }
   1088                      }
   1089                    }
   1090          #endif
   1091                  }
   1092                }
   \                     ??CrossCallReturnLabel_184:
   \   00014E   12....       LCALL     ?PUSH_XSTACK_I_ONE
   \   000151   12....       LCALL     ?Subroutine64 & 0xFFFF
   \                     ??CrossCallReturnLabel_100:
   \   000154   12....       LCALL     `??APSME_BindRequest::?relay`; Banked call to: APSME_BindRequest
   \   000157   7401         MOV       A,#0x1
   \   000159   12....       LCALL     ?DEALLOC_XSTACK8
   \   00015C   E9           MOV       A,R1
   \   00015D   702C         JNZ       ??ZDO_ProcessBindUnbindReq_8
   \   00015F   8014         SJMP      ??ZDO_ProcessBindUnbindReq_11
   1093                else // Unbind_req
   1094                {
   1095                  if ( APSME_UnBindRequest( pReq->srcEndpoint, pReq->clusterID,
   1096                                 &(pReq->dstAddress), pReq->dstEndpoint ) == ZSuccess )
   \                     ??ZDO_ProcessBindUnbindReq_6:
   \   000161                ; Setup parameters for call to function APSME_UnBindRequest
   \   000161   12....       LCALL     ?Subroutine121 & 0xFFFF
   \                     ??CrossCallReturnLabel_185:
   \   000164   12....       LCALL     ?PUSH_XSTACK_I_ONE
   \   000167   12....       LCALL     ?Subroutine64 & 0xFFFF
   \                     ??CrossCallReturnLabel_101:
   \   00016A   12....       LCALL     `??APSME_UnBindRequest::?relay`; Banked call to: APSME_UnBindRequest
   \   00016D   7401         MOV       A,#0x1
   \   00016F   12....       LCALL     ?DEALLOC_XSTACK8
   \   000172   E9           MOV       A,R1
   \   000173   700D         JNZ       ??ZDO_ProcessBindUnbindReq_12
   1097                  {
   1098                    bindStat = ZDP_SUCCESS;
   \                     ??ZDO_ProcessBindUnbindReq_11:
   \   000175   85..82       MOV       DPL,?XSP + 0
   \   000178   85..83       MOV       DPH,?XSP + 1
   \   00017B   E4           CLR       A
   \   00017C   F0           MOVX      @DPTR,A
   1099          
   1100                    // Notify to save info into NV
   1101                    ZDApp_NVUpdate();
   \   00017D                ; Setup parameters for call to function ZDApp_NVUpdate
   \   00017D   12....       LCALL     `??ZDApp_NVUpdate::?relay`; Banked call to: ZDApp_NVUpdate
   \   000180   8009         SJMP      ??ZDO_ProcessBindUnbindReq_8
   1102                  }
   1103                  else
   1104                    bindStat = ZDP_NO_ENTRY;
   \                     ??ZDO_ProcessBindUnbindReq_12:
   \   000182   85..82       MOV       DPL,?XSP + 0
   \   000185   85..83       MOV       DPH,?XSP + 1
   \   000188   7488         MOV       A,#-0x78
   \                     ??ZDO_ProcessBindUnbindReq_2:
   \   00018A   F0           MOVX      @DPTR,A
   1105                }
   1106              }
   1107            }
   1108          
   1109            // Send back a response message
   1110            ZDP_SendData( &(inMsg->TransSeq), &(inMsg->srcAddr),
   1111                         (inMsg->clusterID | ZDO_RESPONSE_BIT), 1, &bindStat,
   1112                         inMsg->SecurityUse );
   \                     ??ZDO_ProcessBindUnbindReq_8:
   \   00018B                ; Setup parameters for call to function ZDP_SendData
   \   00018B   12....       LCALL     ?Subroutine131 & 0xFFFF
   \                     ??CrossCallReturnLabel_197:
   \   00018E   F5..         MOV       ?V2,A
   \   000190   78..         MOV       R0,#?V2
   \   000192   12....       LCALL     ?PUSH_XSTACK_I_ONE
   \   000195   7401         MOV       A,#0x1
   \   000197   12....       LCALL     ?XSTACK_DISP100_8
   \   00019A   88..         MOV       ?V2,R0
   \   00019C   89..         MOV       ?V3,R1
   \   00019E   78..         MOV       R0,#?V2
   \   0001A0   12....       LCALL     ?PUSH_XSTACK_I_TWO
   \   0001A3   E5..         MOV       A,?V0
   \   0001A5   240C         ADD       A,#0xc
   \   0001A7   F582         MOV       DPL,A
   \   0001A9   E4           CLR       A
   \   0001AA   35..         ADDC      A,?V1
   \   0001AC   12....       LCALL     ?Subroutine95 & 0xFFFF
   \                     ??CrossCallReturnLabel_336:
   \   0001AF   4480         ORL       A,#0x80
   \   0001B1   F5..         MOV       ?V3,A
   \   0001B3   78..         MOV       R0,#?V2
   \   0001B5   12....       LCALL     ?PUSH_XSTACK_I_TWO
   \   0001B8   12....       LCALL     ?Subroutine135 & 0xFFFF
   \                     ??CrossCallReturnLabel_203:
   \   0001BB   12....       LCALL     `??ZDP_SendData::?relay`; Banked call to: ZDP_SendData
   \   0001BE   7405         MOV       A,#0x5
   \   0001C0   12....       LCALL     ?DEALLOC_XSTACK8
   1113          }
   \                     ??ZDO_ProcessBindUnbindReq_10:
   \   0001C3   740C         MOV       A,#0xc
   \   0001C5   02....       LJMP      ?Subroutine7 & 0xFFFF

   \                                 In  segment BANKED_CODE, align 1, keep-with-next
   \                     ?Subroutine143:
   \   000000   F582         MOV       DPL,A
   \   000002   E4           CLR       A
   \   000003                REQUIRE ??Subroutine210_0
   \   000003                ; // Fall through to label ??Subroutine210_0

   \                                 In  segment BANKED_CODE, align 1, keep-with-next
   \                     ??Subroutine210_0:
   \   000000   35..         ADDC      A,?V3
   \   000002   F583         MOV       DPH,A
   \   000004   22           RET

   \                                 In  segment BANKED_CODE, align 1, keep-with-next
   \                     ?Subroutine121:
   \   000000   EE           MOV       A,R6
   \   000001   2414         ADD       A,#0x14
   \   000003   12....       LCALL     ?Subroutine183 & 0xFFFF
   \                     ??CrossCallReturnLabel_583:
   \   000006   F5..         MOV       ?V2,A
   \   000008   78..         MOV       R0,#?V2
   \   00000A   22           RET

   \                                 In  segment BANKED_CODE, align 1, keep-with-next
   \                     ?Subroutine64:
   \   000000   EE           MOV       A,R6
   \   000001   240B         ADD       A,#0xb
   \   000003   FC           MOV       R4,A
   \   000004   E4           CLR       A
   \   000005   3F           ADDC      A,R7
   \   000006   FD           MOV       R5,A
   \   000007   8E82         MOV       DPL,R6
   \   000009   8F83         MOV       DPH,R7
   \   00000B   A3           INC       DPTR
   \   00000C   A3           INC       DPTR
   \   00000D   A3           INC       DPTR
   \   00000E   A3           INC       DPTR
   \   00000F   A3           INC       DPTR
   \   000010   A3           INC       DPTR
   \   000011   A3           INC       DPTR
   \   000012   A3           INC       DPTR
   \   000013   A3           INC       DPTR
   \   000014   12....       LCALL     ??Subroutine245_0 & 0xFFFF
   \                     ??CrossCallReturnLabel_519:
   \   000017   8E82         MOV       DPL,R6
   \   000019   8F83         MOV       DPH,R7
   \   00001B   A3           INC       DPTR
   \   00001C   A3           INC       DPTR
   \   00001D   A3           INC       DPTR
   \   00001E   A3           INC       DPTR
   \   00001F   A3           INC       DPTR
   \   000020   A3           INC       DPTR
   \   000021   A3           INC       DPTR
   \   000022   A3           INC       DPTR
   \   000023   E0           MOVX      A,@DPTR
   \   000024   F9           MOV       R1,A
   \   000025   22           RET

   \                                 In  segment BANKED_CODE, align 1, keep-with-next
   \                     ?Subroutine28:
   \   000000   F0           MOVX      @DPTR,A
   \   000001   E5..         MOV       A,?V0
   \   000003   240F         ADD       A,#0xf
   \   000005   12....       LCALL     ?Subroutine188 & 0xFFFF
   \                     ??CrossCallReturnLabel_307:
   \   000008   22           RET

   \                                 In  segment BANKED_CODE, align 1, keep-with-next
   \                     ?Subroutine135:
   \   000000   7901         MOV       R1,#0x1
   \   000002   E5..         MOV       A,?V0
   \   000004   2402         ADD       A,#0x2
   \   000006   FC           MOV       R4,A
   \   000007   E4           CLR       A
   \   000008   35..         ADDC      A,?V1
   \   00000A   FD           MOV       R5,A
   \   00000B   E5..         MOV       A,?V0
   \   00000D   240F         ADD       A,#0xf
   \   00000F   FA           MOV       R2,A
   \   000010   E4           CLR       A
   \   000011   35..         ADDC      A,?V1
   \   000013   FB           MOV       R3,A
   \   000014   22           RET

   \                                 In  segment BANKED_CODE, align 1, keep-with-next
   \                     ?Subroutine7:
   \   000000   12....       LCALL     ?DEALLOC_XSTACK8
   \   000003                REQUIRE ??Subroutine236_0
   \   000003                ; // Fall through to label ??Subroutine236_0

   \                                 In  segment BANKED_CODE, align 1, keep-with-next
   \                     ??Subroutine236_0:
   \   000000   7F07         MOV       R7,#0x7
   \   000002   02....       LJMP      ?BANKED_LEAVE_XDATA

   \                                 In  segment BANKED_CODE, align 1, keep-with-next
   \                     ?Subroutine131:
   \   000000   E5..         MOV       A,?V0
   \   000002   240E         ADD       A,#0xe
   \   000004   12....       LCALL     ?Subroutine188 & 0xFFFF
   \                     ??CrossCallReturnLabel_310:
   \   000007   22           RET

   \                                 In  segment BANKED_CODE, align 1, keep-with-next
   \                     ?Subroutine188:
   \   000000   F582         MOV       DPL,A
   \   000002   E4           CLR       A
   \   000003   35..         ADDC      A,?V1
   \   000005   F583         MOV       DPH,A
   \   000007   E0           MOVX      A,@DPTR
   \   000008   22           RET

   \                                 In  segment BANKED_CODE, align 1, keep-with-next
   \                     ?Subroutine144:
   \   000000   EE           MOV       A,R6
   \   000001   240B         ADD       A,#0xb
   \   000003   FA           MOV       R2,A
   \   000004   E4           CLR       A
   \   000005   3F           ADDC      A,R7
   \   000006   FB           MOV       R3,A
   \   000007   22           RET

   \                                 In  segment BANKED_CODE, align 1, keep-with-next
   \                     ?Subroutine140:
   \   000000   E5..         MOV       A,?V0
   \   000002   240C         ADD       A,#0xc
   \   000004   F582         MOV       DPL,A
   \   000006   E4           CLR       A
   \   000007   35..         ADDC      A,?V1
   \   000009   F583         MOV       DPH,A
   \   00000B   22           RET
   1114          #endif // REFLECTOR
   1115          
   1116          /*********************************************************************
   1117           * @fn      ZDO_UpdateAddrManager
   1118           *
   1119           * @brief   Update the Address Manager.
   1120           *
   1121           * @param   nwkAddr - network address
   1122           * @param   extAddr - extended address
   1123           *
   1124           * @return  none
   1125           */

   \                                 In  segment BANKED_CODE, align 1, keep-with-next
   1126          void ZDO_UpdateAddrManager( uint16 nwkAddr, uint8 *extAddr )
   \                     ZDO_UpdateAddrManager:
   1127          {
   \   000000   C082         PUSH      DPL
   \   000002   C083         PUSH      DPH
   \   000004                ; Saved register size: 2
   \   000004                ; Auto size: 13
   \   000004   74F3         MOV       A,#-0xd
   \   000006   12....       LCALL     ?ALLOC_XSTACK8
   1128            AddrMgrEntry_t addrEntry;
   1129          
   1130            // Update the address manager
   1131            addrEntry.user = ADDRMGR_USER_DEFAULT;
   \   000009   85..82       MOV       DPL,?XSP + 0
   \   00000C   85..83       MOV       DPH,?XSP + 1
   \   00000F   E4           CLR       A
   \   000010   F0           MOVX      @DPTR,A
   1132            addrEntry.nwkAddr = nwkAddr;
   \   000011   04           INC       A
   \   000012   12....       LCALL     ?XSTACK_DISP0_8
   \   000015   12....       LCALL     ??Subroutine213_0 & 0xFFFF
   1133            AddrMgrExtAddrSet( addrEntry.extAddr, extAddr );
   \                     ??CrossCallReturnLabel_342:
   \   000018                ; Setup parameters for call to function AddrMgrExtAddrSet
   \   000018   7403         MOV       A,#0x3
   \   00001A   12....       LCALL     ?XSTACK_DISP0_8
   \   00001D   AA82         MOV       R2,DPL
   \   00001F   AB83         MOV       R3,DPH
   \   000021   12....       LCALL     `??AddrMgrExtAddrSet::?relay`; Banked call to: AddrMgrExtAddrSet
   1134            AddrMgrEntryUpdate( &addrEntry );
   \   000024                ; Setup parameters for call to function AddrMgrEntryUpdate
   \   000024   AA..         MOV       R2,?XSP + 0
   \   000026   AB..         MOV       R3,?XSP + 1
   \   000028   12....       LCALL     `??AddrMgrEntryUpdate::?relay`; Banked call to: AddrMgrEntryUpdate
   1135          }
   \   00002B   740D         MOV       A,#0xd
   \   00002D   12....       LCALL     ?DEALLOC_XSTACK8
   \   000030   02....       LJMP      ?Subroutine0 & 0xFFFF
   1136          
   1137          /*********************************************************************
   1138           * @fn      ZDO_ProcessServerDiscReq
   1139           *
   1140           * @brief   Process the Server_Discovery_req message.
   1141           *
   1142           * @param   inMsg  - incoming message (request)
   1143           *
   1144           * @return  none
   1145           */

   \                                 In  segment BANKED_CODE, align 1, keep-with-next
   1146          void ZDO_ProcessServerDiscReq( zdoIncomingMsg_t *inMsg )
   \                     ZDO_ProcessServerDiscReq:
   1147          {
   \   000000                REQUIRE ?V0
   \   000000                REQUIRE ?V1
   \   000000   74F6         MOV       A,#-0xa
   \   000002   12....       LCALL     ?BANKED_ENTER_XDATA
   \   000005                ; Saved register size: 10
   \   000005                ; Auto size: 0
   \   000005   12....       LCALL     ?Subroutine77 & 0xFFFF
   1148            uint16 serverMask = BUILD_UINT16( inMsg->asdu[0], inMsg->asdu[1] );
   1149            uint16 matchMask = serverMask & ZDO_Config_Node_Descriptor.ServerMask;
   \                     ??CrossCallReturnLabel_120:
   \   000008   FA           MOV       R2,A
   \   000009   A3           INC       DPTR
   \   00000A   E0           MOVX      A,@DPTR
   \   00000B   F9           MOV       R1,A
   \   00000C   EA           MOV       A,R2
   \   00000D   F8           MOV       R0,A
   \   00000E   90....       MOV       DPTR,#ZDO_Config_Node_Descriptor + 8
   \   000011   E0           MOVX      A,@DPTR
   \   000012   58           ANL       A,R0
   \   000013   F5..         MOV       ?V0,A
   \   000015   A3           INC       DPTR
   \   000016   E0           MOVX      A,@DPTR
   \   000017   59           ANL       A,R1
   \   000018   F5..         MOV       ?V1,A
   1150          
   1151            if ( matchMask )
   \   00001A   E5..         MOV       A,?V0
   \   00001C   45..         ORL       A,?V1
   \   00001E   601C         JZ        ??ZDO_ProcessServerDiscReq_0
   1152            {
   1153              ZDP_ServerDiscRsp( inMsg->TransSeq, &(inMsg->srcAddr), ZSUCCESS,
   1154                          ZDAppNwkAddr.addr.shortAddr, matchMask, inMsg->SecurityUse );
   \   000020                ; Setup parameters for call to function ZDP_ServerDiscRsp
   \   000020   78..         MOV       R0,#?V0
   \   000022   12....       LCALL     ?PUSH_XSTACK_I_TWO
   \   000025   90....       MOV       DPTR,#ZDAppNwkAddr
   \   000028   12....       LCALL     ?PUSH_XSTACK8_X_TWO
   \   00002B   12....       LCALL     ?Subroutine122 & 0xFFFF
   1155            }
   \                     ??CrossCallReturnLabel_577:
   \   00002E   FD           MOV       R5,A
   \   00002F   7C00         MOV       R4,#0x0
   \   000031   12....       LCALL     ?Subroutine116 & 0xFFFF
   \                     ??CrossCallReturnLabel_177:
   \   000034   12....       LCALL     `??ZDP_ServerDiscRsp::?relay`; Banked call to: ZDP_ServerDiscRsp
   \   000037   7404         MOV       A,#0x4
   \   000039   12....       LCALL     ?DEALLOC_XSTACK8
   1156          }
   \                     ??ZDO_ProcessServerDiscReq_0:
   \   00003C   02....       LJMP      ??Subroutine207_0 & 0xFFFF

   \                                 In  segment BANKED_CODE, align 1, keep-with-next
   \                     ?Subroutine77:
   \   000000   EA           MOV       A,R2
   \   000001   FE           MOV       R6,A
   \   000002   EB           MOV       A,R3
   \   000003   FF           MOV       R7,A
   \   000004   12....       LCALL     ?Subroutine198 & 0xFFFF
   \                     ??CrossCallReturnLabel_317:
   \   000007   12....       LCALL     ?Subroutine176 & 0xFFFF
   \                     ??CrossCallReturnLabel_284:
   \   00000A   22           RET

   \                                 In  segment BANKED_CODE, align 1, keep-with-next
   \                     ?Subroutine176:
   \   000000   12....       LCALL     ?Subroutine196 & 0xFFFF
   \                     ??CrossCallReturnLabel_405:
   \   000003   E0           MOVX      A,@DPTR
   \   000004   22           RET

   \                                 In  segment BANKED_CODE, align 1, keep-with-next
   \                     ?Subroutine116:
   \   000000   12....       LCALL     ?Subroutine182 & 0xFFFF
   \                     ??CrossCallReturnLabel_299:
   \   000003   22           RET
   1157          
   1158          /*********************************************************************
   1159           * Call Back Functions from APS  - API
   1160           */
   1161          
   1162          /*********************************************************************
   1163           * @fn          ZDO_EndDeviceTimeoutCB
   1164           *
   1165           * @brief       This function handles the binding timer for the End
   1166           *              Device Bind command.
   1167           *
   1168           * @param       none
   1169           *
   1170           * @return      none
   1171           */

   \                                 In  segment BANKED_CODE, align 1, keep-with-next
   1172          void ZDO_EndDeviceTimeoutCB( void )
   \                     ZDO_EndDeviceTimeoutCB:
   1173          {
   \   000000                REQUIRE ?V0
   \   000000                REQUIRE ?V1
   \   000000   74F6         MOV       A,#-0xa
   \   000002   12....       LCALL     ?BANKED_ENTER_XDATA
   \   000005                ; Saved register size: 10
   \   000005                ; Auto size: 2
   \   000005   74FE         MOV       A,#-0x2
   \   000007   12....       LCALL     ?ALLOC_XSTACK8
   1174          #if defined ( REFLECTOR )
   1175            byte stat;
   1176            if ( ZDO_EDBind )
   \   00000A   90....       MOV       DPTR,#ZDO_EDBind
   \   00000D   12....       LCALL     ??Subroutine231_0 & 0xFFFF
   \                     ??CrossCallReturnLabel_436:
   \   000010   7003         JNZ       $+5
   \   000012   02....       LJMP      ??ZDO_EndDeviceTimeoutCB_0 & 0xFFFF
   1177            {
   1178              stat = ZDO_EDBind->status;
   1179          
   1180              // Send the response message to the first sent
   1181              ZDO_SendEDBindRsp( ZDO_EDBind->SrcTransSeq, &(ZDO_EDBind->SrcAddr),
   1182                                  stat, ZDO_EDBind->SecurityUse );
   \   000015   E0           MOVX      A,@DPTR
   \   000016   C8           XCH       A,R0
   \   000017   2415         ADD       A,#0x15
   \   000019   12....       LCALL     ?Subroutine146 & 0xFFFF
   \                     ??CrossCallReturnLabel_223:
   \   00001C   F8           MOV       R0,A
   \   00001D   90....       MOV       DPTR,#ZDO_EDBind
   \   000020   E0           MOVX      A,@DPTR
   \   000021   F9           MOV       R1,A
   \   000022   A3           INC       DPTR
   \   000023   E0           MOVX      A,@DPTR
   \   000024   C9           XCH       A,R1
   \   000025   2416         ADD       A,#0x16
   \   000027   F582         MOV       DPL,A
   \   000029   E4           CLR       A
   \   00002A   39           ADDC      A,R1
   \   00002B   F583         MOV       DPH,A
   \   00002D   E0           MOVX      A,@DPTR
   \   00002E   C0E0         PUSH      A
   \   000030   7401         MOV       A,#0x1
   \   000032   12....       LCALL     ?XSTACK_DISP0_8
   \   000035   D0E0         POP       A
   \   000037   F0           MOVX      @DPTR,A
   \   000038   90....       MOV       DPTR,#ZDO_EDBind
   \   00003B   E0           MOVX      A,@DPTR
   \   00003C   F9           MOV       R1,A
   \   00003D   A3           INC       DPTR
   \   00003E   E0           MOVX      A,@DPTR
   \   00003F   F583         MOV       DPH,A
   \   000041   8982         MOV       DPL,R1
   \   000043   E0           MOVX      A,@DPTR
   \   000044   85..82       MOV       DPL,?XSP + 0
   \   000047   85..83       MOV       DPH,?XSP + 1
   \   00004A   F0           MOVX      @DPTR,A
   \   00004B                ; Setup parameters for call to function ZDP_SendData
   \   00004B   E8           MOV       A,R0
   \   00004C   F5..         MOV       ?V0,A
   \   00004E   78..         MOV       R0,#?V0
   \   000050   12....       LCALL     ?PUSH_XSTACK_I_ONE
   \   000053   7402         MOV       A,#0x2
   \   000055   12....       LCALL     ?XSTACK_DISP100_8
   \   000058   88..         MOV       ?V0,R0
   \   00005A   89..         MOV       ?V1,R1
   \   00005C   78..         MOV       R0,#?V0
   \   00005E   12....       LCALL     ?PUSH_XSTACK_I_TWO
   \   000061   75..20       MOV       ?V0,#0x20
   \   000064   75..80       MOV       ?V1,#-0x80
   \   000067   78..         MOV       R0,#?V0
   \   000069   12....       LCALL     ?PUSH_XSTACK_I_TWO
   \   00006C   7901         MOV       R1,#0x1
   \   00006E   90....       MOV       DPTR,#ZDO_EDBind
   \   000071   E0           MOVX      A,@DPTR
   \   000072   29           ADD       A,R1
   \   000073   FC           MOV       R4,A
   \   000074   A3           INC       DPTR
   \   000075   E0           MOVX      A,@DPTR
   \   000076   3400         ADDC      A,#0x0
   \   000078   FD           MOV       R5,A
   \   000079   7405         MOV       A,#0x5
   \   00007B   12....       LCALL     ?XSTACK_DISP101_8
   \   00007E   12....       LCALL     `??ZDP_SendData::?relay`; Banked call to: ZDP_SendData
   \   000081   7405         MOV       A,#0x5
   \   000083   12....       LCALL     ?DEALLOC_XSTACK8
   1183          
   1184              ZDO_RemoveEndDeviceBind();
   \   000086   90....       MOV       DPTR,#ZDO_EDBind
   \   000089   12....       LCALL     ??Subroutine231_0 & 0xFFFF
   1185            }
   \                     ??CrossCallReturnLabel_437:
   \   00008C   604C         JZ        ??ZDO_EndDeviceTimeoutCB_0
   \   00008E   E0           MOVX      A,@DPTR
   \   00008F   C8           XCH       A,R0
   \   000090   2410         ADD       A,#0x10
   \   000092   12....       LCALL     ?Subroutine55 & 0xFFFF
   \                     ??CrossCallReturnLabel_446:
   \   000095   6014         JZ        ??ZDO_EndDeviceTimeoutCB_1
   \   000097                ; Setup parameters for call to function osal_mem_free
   \   000097   90....       MOV       DPTR,#ZDO_EDBind
   \   00009A   12....       LCALL     ??Subroutine257_0 & 0xFFFF
   \                     ??CrossCallReturnLabel_585:
   \   00009D   2410         ADD       A,#0x10
   \   00009F   F582         MOV       DPL,A
   \   0000A1   E4           CLR       A
   \   0000A2   38           ADDC      A,R0
   \   0000A3   F583         MOV       DPH,A
   \   0000A5   12....       LCALL     ??Subroutine243_0 & 0xFFFF
   \                     ??CrossCallReturnLabel_494:
   \   0000A8   12....       LCALL     `??osal_mem_free::?relay`; Banked call to: osal_mem_free
   \                     ??ZDO_EndDeviceTimeoutCB_1:
   \   0000AB   90....       MOV       DPTR,#ZDO_EDBind
   \   0000AE   12....       LCALL     ??Subroutine257_0 & 0xFFFF
   \                     ??CrossCallReturnLabel_586:
   \   0000B1   2413         ADD       A,#0x13
   \   0000B3   12....       LCALL     ?Subroutine55 & 0xFFFF
   \                     ??CrossCallReturnLabel_447:
   \   0000B6   6012         JZ        ??ZDO_EndDeviceTimeoutCB_2
   \   0000B8                ; Setup parameters for call to function osal_mem_free
   \   0000B8   90....       MOV       DPTR,#ZDO_EDBind
   \   0000BB   12....       LCALL     ??Subroutine257_0 & 0xFFFF
   \                     ??CrossCallReturnLabel_587:
   \   0000BE   12....       LCALL     ??Subroutine218_0 & 0xFFFF
   \                     ??CrossCallReturnLabel_358:
   \   0000C1   38           ADDC      A,R0
   \   0000C2   F583         MOV       DPH,A
   \   0000C4   12....       LCALL     ??Subroutine243_0 & 0xFFFF
   \                     ??CrossCallReturnLabel_495:
   \   0000C7   12....       LCALL     `??osal_mem_free::?relay`; Banked call to: osal_mem_free
   \                     ??ZDO_EndDeviceTimeoutCB_2:
   \   0000CA                ; Setup parameters for call to function osal_mem_free
   \   0000CA   90....       MOV       DPTR,#ZDO_EDBind
   \   0000CD   12....       LCALL     ??Subroutine243_0 & 0xFFFF
   \                     ??CrossCallReturnLabel_496:
   \   0000D0   12....       LCALL     `??osal_mem_free::?relay`; Banked call to: osal_mem_free
   \   0000D3   90....       MOV       DPTR,#ZDO_EDBind
   \   0000D6   E4           CLR       A
   \   0000D7   F0           MOVX      @DPTR,A
   \   0000D8   A3           INC       DPTR
   \   0000D9   F0           MOVX      @DPTR,A
   1186          #endif  // REFLECTOR
   1187          }
   \                     ??ZDO_EndDeviceTimeoutCB_0:
   \   0000DA   02....       LJMP      ?Subroutine1 & 0xFFFF

   \                                 In  segment BANKED_CODE, align 1, keep-with-next
   \                     ?Subroutine55:
   \   000000   F582         MOV       DPL,A
   \   000002   E4           CLR       A
   \   000003   38           ADDC      A,R0
   \   000004                REQUIRE ??Subroutine230_0
   \   000004                ; // Fall through to label ??Subroutine230_0

   \                                 In  segment BANKED_CODE, align 1, keep-with-next
   \                     ??Subroutine230_0:
   \   000000   F583         MOV       DPH,A
   \   000002                REQUIRE ??Subroutine231_0
   \   000002                ; // Fall through to label ??Subroutine231_0

   \                                 In  segment BANKED_CODE, align 1, keep-with-next
   \                     ?Subroutine146:
   \   000000   F582         MOV       DPL,A
   \   000002   E4           CLR       A
   \   000003   38           ADDC      A,R0
   \   000004   F583         MOV       DPH,A
   \   000006   E0           MOVX      A,@DPTR
   \   000007   22           RET

   \                                 In  segment BANKED_CODE, align 1, keep-with-next
   \                     ??Subroutine250_0:
   \   000000   12....       LCALL     ?Subroutine197 & 0xFFFF
   \                     ??CrossCallReturnLabel_617:
   \   000003   22           RET

   \                                 In  segment BANKED_CODE, align 1, keep-with-next
   \                     ?Subroutine197:
   \   000000   E0           MOVX      A,@DPTR
   \   000001   F8           MOV       R0,A
   \   000002   A3           INC       DPTR
   \   000003   E0           MOVX      A,@DPTR
   \   000004   C8           XCH       A,R0
   \   000005   22           RET

   \                                 In  segment BANKED_CODE, align 1, keep-with-next
   \                     ??Subroutine257_0:
   \   000000   12....       LCALL     ??Subroutine250_0 & 0xFFFF
   \                     ??CrossCallReturnLabel_613:
   \   000003   22           RET
   1188          
   1189          /*********************************************************************
   1190           * Optional Management Messages
   1191           */
   1192          
   1193          /*********************************************************************
   1194           * @fn          ZDO_ProcessMgmtLqiReq
   1195           *
   1196           * @brief       This function handles parsing the incoming Management
   1197           *              LQI request and generate the response.
   1198           *
   1199           *   Note:      This function will limit the number of items returned
   1200           *              to ZDO_MAX_LQI_ITEMS items.
   1201           *
   1202           * @param       inMsg - incoming message (request)
   1203           *
   1204           * @return      none
   1205           */

   \                                 In  segment BANKED_CODE, align 1, keep-with-next
   1206          void ZDO_ProcessMgmtLqiReq( zdoIncomingMsg_t *inMsg )
   \                     ZDO_ProcessMgmtLqiReq:
   1207          {
   \   000000                REQUIRE ?V0
   \   000000                REQUIRE ?V1
   \   000000                REQUIRE ?V2
   \   000000                REQUIRE ?V3
   \   000000                REQUIRE ?V4
   \   000000                REQUIRE ?V5
   \   000000                REQUIRE ?V6
   \   000000                REQUIRE ?V8
   \   000000                REQUIRE ?V9
   \   000000                REQUIRE ?V10
   \   000000                REQUIRE ?V11
   \   000000                REQUIRE ?V12
   \   000000                REQUIRE ?V13
   \   000000   74EA         MOV       A,#-0x16
   \   000002   12....       LCALL     ?BANKED_ENTER_XDATA
   \   000005                ; Saved register size: 22
   \   000005                ; Auto size: 37
   \   000005   74DB         MOV       A,#-0x25
   \   000007   12....       LCALL     ?ALLOC_XSTACK8
   \   00000A   8A..         MOV       ?V12,R2
   \   00000C   8B..         MOV       ?V13,R3
   1208            byte x;
   1209            byte index;
   1210            byte numItems;
   1211            byte maxItems;
   1212            ZDP_MgmtLqiItem_t* table = NULL;
   \   00000E   75..00       MOV       ?V10,#0x0
   \   000011   75..00       MOV       ?V11,#0x0
   1213            ZDP_MgmtLqiItem_t* item;
   1214            neighborEntry_t    entry;
   1215            byte aItems;
   1216            associated_devices_t *aDevice;
   1217            AddrMgrEntry_t  nwkEntry;
   1218            uint8 StartIndex = inMsg->asdu[0];
   \   000014   12....       LCALL     ??Subroutine217_0 & 0xFFFF
   \                     ??CrossCallReturnLabel_362:
   \   000017   35..         ADDC      A,?V13
   \   000019   F583         MOV       DPH,A
   \   00001B   12....       LCALL     ??Subroutine224_0 & 0xFFFF
   \                     ??CrossCallReturnLabel_389:
   \   00001E   F5..         MOV       ?V6,A
   1219          
   1220            // Get the number of neighbor items
   1221            NLME_GetRequest( nwkNumNeighborTableEntries, 0, &maxItems );
   \   000020                ; Setup parameters for call to function NLME_GetRequest
   \   000020   AC..         MOV       R4,?XSP + 0
   \   000022   AD..         MOV       R5,?XSP + 1
   \   000024   7A00         MOV       R2,#0x0
   \   000026   7B00         MOV       R3,#0x0
   \   000028   799C         MOV       R1,#-0x64
   \   00002A   12....       LCALL     `??NLME_GetRequest::?relay`; Banked call to: NLME_GetRequest
   1222          
   1223            // Get the number of associated items
   1224            aItems = (uint8)AssocCount( PARENT, CHILD_FFD_RX_IDLE );
   \   00002D                ; Setup parameters for call to function AssocCount
   \   00002D   7A04         MOV       R2,#0x4
   \   00002F   7900         MOV       R1,#0x0
   \   000031   12....       LCALL     `??AssocCount::?relay`; Banked call to: AssocCount
   \   000034   EA           MOV       A,R2
   \   000035   F5..         MOV       ?V4,A
   1225          
   1226            // Total number of items
   1227            maxItems += aItems;
   \   000037   85..82       MOV       DPL,?XSP + 0
   \   00003A   85..83       MOV       DPH,?XSP + 1
   \   00003D   E0           MOVX      A,@DPTR
   \   00003E   2A           ADD       A,R2
   \   00003F   F0           MOVX      @DPTR,A
   1228          
   1229            // Start with the supplied index
   1230            if ( maxItems > StartIndex )
   \   000040   F8           MOV       R0,A
   \   000041   E5..         MOV       A,?V6
   \   000043   C3           CLR       C
   \   000044   98           SUBB      A,R0
   \   000045   4003         JC        $+5
   \   000047   02....       LJMP      ??ZDO_ProcessMgmtLqiReq_0 & 0xFFFF
   1231            {
   1232              numItems = maxItems - StartIndex;
   \   00004A   E0           MOVX      A,@DPTR
   \   00004B   C3           CLR       C
   \   00004C   95..         SUBB      A,?V6
   \   00004E   F5..         MOV       ?V1,A
   1233          
   1234              // limit the size of the list
   1235              if ( numItems > ZDO_MAX_LQI_ITEMS )
   \   000050   C3           CLR       C
   \   000051   9404         SUBB      A,#0x4
   \   000053   4003         JC        ??ZDO_ProcessMgmtLqiReq_1
   1236                numItems = ZDO_MAX_LQI_ITEMS;
   \   000055   75..03       MOV       ?V1,#0x3
   1237          
   1238              // Allocate the memory to build the table
   1239              table = (ZDP_MgmtLqiItem_t*)osal_mem_alloc( (short)
   1240                        ( numItems * sizeof( ZDP_MgmtLqiItem_t ) ) );
   \                     ??ZDO_ProcessMgmtLqiReq_1:
   \   000058                ; Setup parameters for call to function osal_mem_alloc
   \   000058   E5..         MOV       A,?V1
   \   00005A   75F01A       MOV       B,#0x1a
   \   00005D   A4           MUL       AB
   \   00005E   FA           MOV       R2,A
   \   00005F   ABF0         MOV       R3,B
   \   000061   12....       LCALL     `??osal_mem_alloc::?relay`; Banked call to: osal_mem_alloc
   \   000064   8A..         MOV       ?V10,R2
   \   000066   8B..         MOV       ?V11,R3
   1241          
   1242              if ( table != NULL )
   \   000068   EA           MOV       A,R2
   \   000069   45..         ORL       A,?V11
   \   00006B   7003         JNZ       $+5
   \   00006D   02....       LJMP      ??ZDO_ProcessMgmtLqiReq_2 & 0xFFFF
   1243              {
   1244                x = 0;
   \   000070   75..00       MOV       ?V5,#0x0
   1245                item = table;
   \   000073   AE..         MOV       R6,?V10
   \   000075   AF..         MOV       R7,?V11
   1246                index = StartIndex;
   \   000077   85....       MOV       ?V0,?V6
   \   00007A   02....       LJMP      ??ZDO_ProcessMgmtLqiReq_3 & 0xFFFF
   1247          
   1248                // Loop through associated items and build list
   1249                for ( ; x < numItems; x++ )
   1250                {
   1251                  if ( index < aItems )
   1252                  {
   1253                    // get next associated device
   1254                    aDevice = AssocFindDevice( index++ );
   1255          
   1256                    // set basic fields
   1257                    item->panID   = _NIB.nwkPanId;
   1258                    osal_cpyExtAddr( item->extPanID, _NIB.extendedPANID );
   1259                    item->nwkAddr = aDevice->shortAddr;
   1260                    item->permit  = ZDP_MGMT_BOOL_UNKNOWN;
   1261                    item->depth   = 0xFF;
   1262                    item->lqi     = aDevice->linkInfo.rxLqi;
   1263          
   1264                    // set extented address
   1265                    nwkEntry.user    = ADDRMGR_USER_DEFAULT;
   1266                    nwkEntry.nwkAddr = aDevice->shortAddr;
   1267          
   1268                    if ( AddrMgrEntryLookupNwk( &nwkEntry ) == TRUE )
   1269                    {
   1270                      osal_cpyExtAddr( item->extAddr, nwkEntry.extAddr );
   1271                    }
   1272                    else
   1273                    {
   1274                      osal_memset( item->extAddr, 0xFF, Z_EXTADDR_LEN );
   \                     ??ZDO_ProcessMgmtLqiReq_4:
   \   00007D                ; Setup parameters for call to function osal_memset
   \   00007D   7C08         MOV       R4,#0x8
   \   00007F   7D00         MOV       R5,#0x0
   \   000081   79FF         MOV       R1,#-0x1
   \   000083   12....       LCALL     ??Subroutine216_0 & 0xFFFF
   1275                    }
   \                     ??CrossCallReturnLabel_353:
   \   000086   12....       LCALL     `??osal_memset::?relay`; Banked call to: osal_memset
   1276          
   1277                    // use association info to set other fields
   1278                    if ( aDevice->nodeRelation == PARENT )
   \                     ??ZDO_ProcessMgmtLqiReq_5:
   \   000089   85..82       MOV       DPL,?V2
   \   00008C   85..83       MOV       DPH,?V3
   \   00008F   A3           INC       DPTR
   \   000090   A3           INC       DPTR
   \   000091   A3           INC       DPTR
   \   000092   A3           INC       DPTR
   \   000093   E0           MOVX      A,@DPTR
   \   000094   702D         JNZ       ??ZDO_ProcessMgmtLqiReq_6
   1279                    {
   1280                      if (  aDevice->shortAddr == 0 )
   \   000096   85..82       MOV       DPL,?V2
   \   000099   85..83       MOV       DPH,?V3
   \   00009C   12....       LCALL     ??Subroutine231_0 & 0xFFFF
   \                     ??CrossCallReturnLabel_438:
   \   00009F   700C         JNZ       ??ZDO_ProcessMgmtLqiReq_7
   1281                      {
   1282                        item->devType = ZDP_MGMT_DT_COORD;
   \   0000A1   12....       LCALL     ?Subroutine123 & 0xFFFF
   \                     ??CrossCallReturnLabel_561:
   \   0000A4   F0           MOVX      @DPTR,A
   1283                        item->depth = 0;
   \   0000A5   EE           MOV       A,R6
   \   0000A6   2418         ADD       A,#0x18
   \   0000A8   12....       LCALL     ??Subroutine254_0 & 0xFFFF
   1284                      }
   \                     ??CrossCallReturnLabel_558:
   \   0000AB   8010         SJMP      ??ZDO_ProcessMgmtLqiReq_8
   1285                      else
   1286                      {
   1287                        item->devType = ZDP_MGMT_DT_ROUTER;
   \                     ??ZDO_ProcessMgmtLqiReq_7:
   \   0000AD   12....       LCALL     ?Subroutine118 & 0xFFFF
   \                     ??CrossCallReturnLabel_368:
   \   0000B0   F0           MOVX      @DPTR,A
   1288                        item->depth = _NIB.nodeDepth - 1;
   \   0000B1   90....       MOV       DPTR,#_NIB + 52
   \   0000B4   E0           MOVX      A,@DPTR
   \   0000B5   14           DEC       A
   \   0000B6   C0E0         PUSH      A
   \   0000B8   12....       LCALL     ?Subroutine149 & 0xFFFF
   1289                      }
   1290          
   1291                      item->rxOnIdle = ZDP_MGMT_BOOL_UNKNOWN;
   1292                      item->relation = ZDP_MGMT_REL_PARENT;
   1293                    }
   \                     ??CrossCallReturnLabel_237:
   \   0000BB   D0E0         POP       A
   \                     ??ZDO_ProcessMgmtLqiReq_8:
   \   0000BD   12....       LCALL     ?Subroutine14 & 0xFFFF
   \                     ??CrossCallReturnLabel_6:
   \   0000C0   E4           CLR       A
   \   0000C1   8034         SJMP      ??CrossCallReturnLabel_366
   1294                    else
   1295                    {
   1296                      // If not parent, then it's a child
   1297                      item->depth = _NIB.nodeDepth + 1;
   \                     ??ZDO_ProcessMgmtLqiReq_6:
   \   0000C3   90....       MOV       DPTR,#_NIB + 52
   \   0000C6   E0           MOVX      A,@DPTR
   \   0000C7   04           INC       A
   \   0000C8   C0E0         PUSH      A
   \   0000CA   12....       LCALL     ?Subroutine149 & 0xFFFF
   \                     ??CrossCallReturnLabel_238:
   \   0000CD   D0E0         POP       A
   \   0000CF   12....       LCALL     ?Subroutine17 & 0xFFFF
   1298          
   1299                      if ( aDevice->nodeRelation < CHILD_FFD )
   \                     ??CrossCallReturnLabel_13:
   \   0000D2   C3           CLR       C
   \   0000D3   9403         SUBB      A,#0x3
   \   0000D5   EE           MOV       A,R6
   \   0000D6   4003         JC        $+5
   \   0000D8   02....       LJMP      ??ZDO_ProcessMgmtLqiReq_9 & 0xFFFF
   1300                      {
   1301                        item->devType = ZDP_MGMT_DT_ENDDEV;
   \   0000DB   12....       LCALL     ??Subroutine253_0 & 0xFFFF
   1302          
   1303                        if ( aDevice->nodeRelation == CHILD_RFD )
   1304                        {
   1305                          item->rxOnIdle = FALSE;
   1306                        }
   1307                        else
   1308                        {
   1309                          item->rxOnIdle = TRUE;
   1310                        }
   1311                      }
   \                     ??CrossCallReturnLabel_553:
   \   0000DE   7402         MOV       A,#0x2
   \   0000E0   12....       LCALL     ?Subroutine17 & 0xFFFF
   \                     ??CrossCallReturnLabel_14:
   \   0000E3   6401         XRL       A,#0x1
   \   0000E5   7003         JNZ       $+5
   \   0000E7   02....       LJMP      ??ZDO_ProcessMgmtLqiReq_10 & 0xFFFF
   1312                      else
   1313                      {
   1314                        item->devType = ZDP_MGMT_DT_ROUTER;
   1315          
   1316                        if ( aDevice->nodeRelation == CHILD_FFD )
   1317                        {
   1318                          item->rxOnIdle = FALSE;
   1319                        }
   1320                        else
   1321                        {
   1322                          item->rxOnIdle = TRUE;
   \                     ??ZDO_ProcessMgmtLqiReq_11:
   \   0000EA   EE           MOV       A,R6
   \   0000EB   2415         ADD       A,#0x15
   \   0000ED   12....       LCALL     ??Subroutine220_0 & 0xFFFF
   1323                        }
   \                     ??CrossCallReturnLabel_365:
   \   0000F0   F0           MOVX      @DPTR,A
   1324                      }
   1325          
   1326                      item->relation = ZDP_MGMT_REL_CHILD;
   \   0000F1   EE           MOV       A,R6
   \   0000F2   2416         ADD       A,#0x16
   \   0000F4   12....       LCALL     ??Subroutine220_0 & 0xFFFF
   \                     ??CrossCallReturnLabel_366:
   \   0000F7   F0           MOVX      @DPTR,A
   1327                    }
   1328          
   1329                    item++;
   \   0000F8   EE           MOV       A,R6
   \   0000F9   241A         ADD       A,#0x1a
   \   0000FB   FE           MOV       R6,A
   \   0000FC   5001         JNC       ??ZDO_ProcessMgmtLqiReq_12
   \   0000FE   0F           INC       R7
   \                     ??ZDO_ProcessMgmtLqiReq_12:
   \   0000FF   05..         INC       ?V5
   \                     ??ZDO_ProcessMgmtLqiReq_3:
   \   000101   E5..         MOV       A,?V5
   \   000103   C3           CLR       C
   \   000104   95..         SUBB      A,?V1
   \   000106   4003         JC        $+5
   \   000108   02....       LJMP      ??ZDO_ProcessMgmtLqiReq_13 & 0xFFFF
   \   00010B   E5..         MOV       A,?V0
   \   00010D   C3           CLR       C
   \   00010E   95..         SUBB      A,?V4
   \   000110   4003         JC        $+5
   \   000112   02....       LJMP      ??ZDO_ProcessMgmtLqiReq_14 & 0xFFFF
   \   000115                ; Setup parameters for call to function AssocFindDevice
   \   000115   AA..         MOV       R2,?V0
   \   000117   7B00         MOV       R3,#0x0
   \   000119   12....       LCALL     `??AssocFindDevice::?relay`; Banked call to: AssocFindDevice
   \   00011C   8A..         MOV       ?V2,R2
   \   00011E   8B..         MOV       ?V3,R3
   \   000120   05..         INC       ?V0
   \   000122   90....       MOV       DPTR,#_NIB + 33
   \   000125   12....       LCALL     ?Subroutine21 & 0xFFFF
   \                     ??CrossCallReturnLabel_20:
   \   000128   12....       LCALL     `??sAddrExtCpy::?relay`; Banked call to: sAddrExtCpy
   \   00012B   85..82       MOV       DPL,?V2
   \   00012E   85..83       MOV       DPH,?V3
   \   000131   12....       LCALL     ??Subroutine229_0 & 0xFFFF
   \                     ??CrossCallReturnLabel_417:
   \   000134   12....       LCALL     ?Subroutine147 & 0xFFFF
   \                     ??CrossCallReturnLabel_349:
   \   000137   E8           MOV       A,R0
   \   000138   F0           MOVX      @DPTR,A
   \   000139   A3           INC       DPTR
   \   00013A   E9           MOV       A,R1
   \   00013B   12....       LCALL     ?Subroutine13 & 0xFFFF
   \                     ??CrossCallReturnLabel_4:
   \   00013E   85..82       MOV       DPL,?V2
   \   000141   85..83       MOV       DPH,?V3
   \   000144   A3           INC       DPTR
   \   000145   A3           INC       DPTR
   \   000146   A3           INC       DPTR
   \   000147   A3           INC       DPTR
   \   000148   A3           INC       DPTR
   \   000149   A3           INC       DPTR
   \   00014A   A3           INC       DPTR
   \   00014B   A3           INC       DPTR
   \   00014C   A3           INC       DPTR
   \   00014D   A3           INC       DPTR
   \   00014E   E0           MOVX      A,@DPTR
   \   00014F   C0E0         PUSH      A
   \   000151   12....       LCALL     ?Subroutine150 & 0xFFFF
   \                     ??CrossCallReturnLabel_239:
   \   000154   D0E0         POP       A
   \   000156   F0           MOVX      @DPTR,A
   \   000157   7401         MOV       A,#0x1
   \   000159   12....       LCALL     ?XSTACK_DISP0_8
   \   00015C   E4           CLR       A
   \   00015D   F0           MOVX      @DPTR,A
   \   00015E   85..82       MOV       DPL,?V2
   \   000161   85..83       MOV       DPH,?V3
   \   000164   12....       LCALL     ??Subroutine229_0 & 0xFFFF
   \                     ??CrossCallReturnLabel_418:
   \   000167   7402         MOV       A,#0x2
   \   000169   12....       LCALL     ?XSTACK_DISP0_8
   \   00016C   12....       LCALL     ??Subroutine221_0 & 0xFFFF
   \                     ??CrossCallReturnLabel_377:
   \   00016F                ; Setup parameters for call to function AddrMgrEntryLookupNwk
   \   00016F   7401         MOV       A,#0x1
   \   000171   12....       LCALL     ?XSTACK_DISP101_8
   \   000174   12....       LCALL     `??AddrMgrEntryLookupNwk::?relay`; Banked call to: AddrMgrEntryLookupNwk
   \   000177   E9           MOV       A,R1
   \   000178   6401         XRL       A,#0x1
   \   00017A   6003         JZ        $+5
   \   00017C   02....       LJMP      ??ZDO_ProcessMgmtLqiReq_4 & 0xFFFF
   \   00017F                ; Setup parameters for call to function sAddrExtCpy
   \   00017F   7404         MOV       A,#0x4
   \   000181   12....       LCALL     ?XSTACK_DISP0_8
   \   000184   12....       LCALL     ?Subroutine138 & 0xFFFF
   \                     ??CrossCallReturnLabel_354:
   \   000187   12....       LCALL     `??sAddrExtCpy::?relay`; Banked call to: sAddrExtCpy
   \   00018A   02....       LJMP      ??ZDO_ProcessMgmtLqiReq_5 & 0xFFFF
   \                     ??ZDO_ProcessMgmtLqiReq_9:
   \   00018D   12....       LCALL     ??Subroutine219_0 & 0xFFFF
   \                     ??CrossCallReturnLabel_367:
   \   000190   12....       LCALL     ?Subroutine17 & 0xFFFF
   \                     ??CrossCallReturnLabel_15:
   \   000193   6403         XRL       A,#0x3
   \   000195   6003         JZ        $+5
   \   000197   02....       LJMP      ??ZDO_ProcessMgmtLqiReq_11 & 0xFFFF
   \                     ??ZDO_ProcessMgmtLqiReq_10:
   \   00019A   EE           MOV       A,R6
   \   00019B   2415         ADD       A,#0x15
   \   00019D   12....       LCALL     ??Subroutine254_0 & 0xFFFF
   1330                  }
   \                     ??CrossCallReturnLabel_559:
   \   0001A0   02....       LJMP      ??CrossCallReturnLabel_365 & 0xFFFF
   1331                  else
   1332                  {
   1333                    if ( StartIndex <= aItems )
   \                     ??ZDO_ProcessMgmtLqiReq_14:
   \   0001A3   E5..         MOV       A,?V4
   \   0001A5   C3           CLR       C
   \   0001A6   95..         SUBB      A,?V6
   \   0001A8   4005         JC        ??ZDO_ProcessMgmtLqiReq_15
   1334                      // Start with 1st neighbor
   1335                      index = 0;
   \   0001AA   75..00       MOV       ?V0,#0x0
   \   0001AD   801D         SJMP      ??ZDO_ProcessMgmtLqiReq_16
   1336                    else
   1337                      // Start with >1st neighbor
   1338                      index = StartIndex - aItems;
   \                     ??ZDO_ProcessMgmtLqiReq_15:
   \   0001AF   E5..         MOV       A,?V6
   \   0001B1   C3           CLR       C
   \   0001B2   95..         SUBB      A,?V4
   \   0001B4   F5..         MOV       ?V0,A
   \   0001B6   8014         SJMP      ??ZDO_ProcessMgmtLqiReq_16
   1339                    break;
   1340                  }
   1341                }
   1342          
   1343                // Loop through neighbor items and finish list
   1344                for ( ; x < numItems; x++ )
   1345                {
   1346                  // Add next neighbor table item
   1347                  NLME_GetRequest( nwkNeighborTable, index++, &entry );
   1348          
   1349                  // set ZDP_MgmtLqiItem_t fields
   1350                  item->panID    = entry.panId;
   1351                  osal_cpyExtAddr( item->extPanID, _NIB.extendedPANID );
   1352                  osal_cpyExtAddr( item->extAddr, entry.neighborExtAddr);
   1353                  item->nwkAddr  = entry.neighborAddress;
   1354                  item->rxOnIdle = ZDP_MGMT_BOOL_UNKNOWN;
   1355                  item->relation = ZDP_MGMT_REL_UNKNOWN;
   1356                  item->permit   = ZDP_MGMT_BOOL_UNKNOWN;
   1357                  item->depth    = 0xFF;
   1358                  item->lqi      = entry.linkInfo.rxLqi;
   1359          
   1360                  if ( item->nwkAddr == 0 )
   1361                  {
   1362                    item->devType = ZDP_MGMT_DT_COORD;
   1363                  }
   1364                  else
   1365                  {
   1366                    item->devType = ZDP_MGMT_DT_ROUTER;
   \                     ??ZDO_ProcessMgmtLqiReq_17:
   \   0001B8   12....       LCALL     ?Subroutine118 & 0xFFFF
   1367                  }
   \                     ??CrossCallReturnLabel_369:
   \   0001BB   F0           MOVX      @DPTR,A
   1368          
   1369                  item++;
   \   0001BC   EE           MOV       A,R6
   \   0001BD   241A         ADD       A,#0x1a
   \   0001BF   FE           MOV       R6,A
   \   0001C0   5001         JNC       ??ZDO_ProcessMgmtLqiReq_18
   \   0001C2   0F           INC       R7
   \                     ??ZDO_ProcessMgmtLqiReq_18:
   \   0001C3   05..         INC       ?V5
   \                     ??ZDO_ProcessMgmtLqiReq_13:
   \   0001C5   E5..         MOV       A,?V5
   \   0001C7   C3           CLR       C
   \   0001C8   95..         SUBB      A,?V1
   \   0001CA   5061         JNC       ??ZDO_ProcessMgmtLqiReq_2
   \                     ??ZDO_ProcessMgmtLqiReq_16:
   \   0001CC                ; Setup parameters for call to function NLME_GetRequest
   \   0001CC   740E         MOV       A,#0xe
   \   0001CE   12....       LCALL     ?XSTACK_DISP102_8
   \   0001D1   AA..         MOV       R2,?V0
   \   0001D3   7B00         MOV       R3,#0x0
   \   0001D5   7987         MOV       R1,#-0x79
   \   0001D7   12....       LCALL     `??NLME_GetRequest::?relay`; Banked call to: NLME_GetRequest
   \   0001DA   05..         INC       ?V0
   \   0001DC   7418         MOV       A,#0x18
   \   0001DE   12....       LCALL     ?XSTACK_DISP0_8
   \   0001E1   12....       LCALL     ?Subroutine21 & 0xFFFF
   \                     ??CrossCallReturnLabel_21:
   \   0001E4   12....       LCALL     `??sAddrExtCpy::?relay`; Banked call to: sAddrExtCpy
   \   0001E7                ; Setup parameters for call to function sAddrExtCpy
   \   0001E7   7410         MOV       A,#0x10
   \   0001E9   12....       LCALL     ?XSTACK_DISP0_8
   \   0001EC   12....       LCALL     ?Subroutine138 & 0xFFFF
   \                     ??CrossCallReturnLabel_355:
   \   0001EF   12....       LCALL     `??sAddrExtCpy::?relay`; Banked call to: sAddrExtCpy
   \   0001F2   EE           MOV       A,R6
   \   0001F3   2412         ADD       A,#0x12
   \   0001F5   F8           MOV       R0,A
   \   0001F6   E4           CLR       A
   \   0001F7   3F           ADDC      A,R7
   \   0001F8   F9           MOV       R1,A
   \   0001F9   740E         MOV       A,#0xe
   \   0001FB   12....       LCALL     ?XSTACK_DISP0_8
   \   0001FE   12....       LCALL     ??Subroutine243_0 & 0xFFFF
   \                     ??CrossCallReturnLabel_497:
   \   000201   8882         MOV       DPL,R0
   \   000203   8983         MOV       DPH,R1
   \   000205   EA           MOV       A,R2
   \   000206   F0           MOVX      @DPTR,A
   \   000207   A3           INC       DPTR
   \   000208   EB           MOV       A,R3
   \   000209   12....       LCALL     ?Subroutine14 & 0xFFFF
   \                     ??CrossCallReturnLabel_7:
   \   00020C   7403         MOV       A,#0x3
   \   00020E   12....       LCALL     ?Subroutine13 & 0xFFFF
   \                     ??CrossCallReturnLabel_5:
   \   000211   741D         MOV       A,#0x1d
   \   000213   12....       LCALL     ?XSTACK_DISP0_8
   \   000216   E0           MOVX      A,@DPTR
   \   000217   C0E0         PUSH      A
   \   000219   12....       LCALL     ?Subroutine150 & 0xFFFF
   \                     ??CrossCallReturnLabel_240:
   \   00021C   D0E0         POP       A
   \   00021E   12....       LCALL     ?Subroutine40 & 0xFFFF
   \                     ??CrossCallReturnLabel_54:
   \   000221   E8           MOV       A,R0
   \   000222   49           ORL       A,R1
   \   000223   7093         JNZ       ??ZDO_ProcessMgmtLqiReq_17
   \   000225   12....       LCALL     ?Subroutine123 & 0xFFFF
   1370                }
   1371              }
   1372            }
   \                     ??CrossCallReturnLabel_562:
   \   000228   8091         SJMP      ??CrossCallReturnLabel_369
   1373            else
   1374            {
   1375              numItems = 0;
   \                     ??ZDO_ProcessMgmtLqiReq_0:
   \   00022A   75..00       MOV       ?V1,#0x0
   1376            }
   1377          
   1378            // Send response
   1379            ZDP_MgmtLqiRsp( inMsg->TransSeq, &(inMsg->srcAddr), ZSuccess, maxItems,
   1380                            StartIndex, numItems, table, false );
   \                     ??ZDO_ProcessMgmtLqiReq_2:
   \   00022D                ; Setup parameters for call to function ZDP_MgmtLqiRsp
   \   00022D   75..00       MOV       ?V2,#0x0
   \   000230   78..         MOV       R0,#?V2
   \   000232   12....       LCALL     ?PUSH_XSTACK_I_ONE
   \   000235   78..         MOV       R0,#?V10
   \   000237   12....       LCALL     ?PUSH_XSTACK_I_TWO
   \   00023A   78..         MOV       R0,#?V1
   \   00023C   12....       LCALL     ?PUSH_XSTACK_I_ONE
   \   00023F   E5..         MOV       A,?V6
   \   000241   F5..         MOV       ?V1,A
   \   000243   78..         MOV       R0,#?V1
   \   000245   12....       LCALL     ?PUSH_XSTACK_I_ONE
   \   000248   7405         MOV       A,#0x5
   \   00024A   12....       LCALL     ?XSTACK_DISP0_8
   \   00024D   E0           MOVX      A,@DPTR
   \   00024E   FD           MOV       R5,A
   \   00024F   7C00         MOV       R4,#0x0
   \   000251   E5..         MOV       A,?V12
   \   000253   12....       LCALL     ??Subroutine258_0 & 0xFFFF
   \                     ??CrossCallReturnLabel_618:
   \   000256   35..         ADDC      A,?V13
   \   000258   FB           MOV       R3,A
   \   000259   E5..         MOV       A,?V12
   \   00025B   12....       LCALL     ?Subroutine136 & 0xFFFF
   \                     ??CrossCallReturnLabel_205:
   \   00025E   35..         ADDC      A,?V13
   \   000260   F583         MOV       DPH,A
   \   000262   E0           MOVX      A,@DPTR
   \   000263   F9           MOV       R1,A
   \   000264   12....       LCALL     `??ZDP_MgmtLqiRsp::?relay`; Banked call to: ZDP_MgmtLqiRsp
   \   000267   7405         MOV       A,#0x5
   \   000269   12....       LCALL     ?DEALLOC_XSTACK8
   1381          
   1382            if ( table )
   \   00026C   E5..         MOV       A,?V10
   \   00026E   45..         ORL       A,?V11
   \   000270   6007         JZ        ??ZDO_ProcessMgmtLqiReq_19
   1383            {
   1384              osal_mem_free( table );
   \   000272                ; Setup parameters for call to function osal_mem_free
   \   000272   AA..         MOV       R2,?V10
   \   000274   AB..         MOV       R3,?V11
   \   000276   12....       LCALL     `??osal_mem_free::?relay`; Banked call to: osal_mem_free
   1385            }
   1386          }
   \                     ??ZDO_ProcessMgmtLqiReq_19:
   \   000279   7425         MOV       A,#0x25
   \   00027B   12....       LCALL     ?DEALLOC_XSTACK8
   \   00027E                REQUIRE ?Subroutine8
   \   00027E                ; // Fall through to label ?Subroutine8

   \                                 In  segment BANKED_CODE, align 1, keep-with-next
   \                     ?Subroutine8:
   \   000000   7F0E         MOV       R7,#0xe
   \   000002   02....       LJMP      ?BANKED_LEAVE_XDATA

   \                                 In  segment BANKED_CODE, align 1, keep-with-next
   \                     ?Subroutine150:
   \   000000   EE           MOV       A,R6
   \   000001   2419         ADD       A,#0x19
   \   000003   F582         MOV       DPL,A
   \   000005   E4           CLR       A
   \   000006   3F           ADDC      A,R7
   \   000007   F583         MOV       DPH,A
   \   000009   22           RET

   \                                 In  segment BANKED_CODE, align 1, keep-with-next
   \                     ?Subroutine149:
   \   000000   12....       LCALL     ?Subroutine189 & 0xFFFF
   \                     ??CrossCallReturnLabel_312:
   \   000003   22           RET

   \                                 In  segment BANKED_CODE, align 1, keep-with-next
   \                     ?Subroutine189:
   \   000000   EE           MOV       A,R6
   \   000001   2418         ADD       A,#0x18
   \   000003   F582         MOV       DPL,A
   \   000005   E4           CLR       A
   \   000006   3F           ADDC      A,R7
   \   000007   F583         MOV       DPH,A
   \   000009   22           RET

   \                                 In  segment BANKED_CODE, align 1, keep-with-next
   \                     ?Subroutine147:
   \   000000   EE           MOV       A,R6
   \   000001                REQUIRE ??Subroutine215_0
   \   000001                ; // Fall through to label ??Subroutine215_0

   \                                 In  segment BANKED_CODE, align 1, keep-with-next
   \                     ??Subroutine215_0:
   \   000000   12....       LCALL     ?Subroutine190 & 0xFFFF
   \                     ??CrossCallReturnLabel_352:
   \   000003   22           RET

   \                                 In  segment BANKED_CODE, align 1, keep-with-next
   \                     ?Subroutine190:
   \   000000   2412         ADD       A,#0x12
   \   000002   F582         MOV       DPL,A
   \   000004   E4           CLR       A
   \   000005   3F           ADDC      A,R7
   \   000006   F583         MOV       DPH,A
   \   000008   22           RET

   \                                 In  segment BANKED_CODE, align 1, keep-with-next
   \                     ?Subroutine138:
   \   000000   AC82         MOV       R4,DPL
   \   000002   AD83         MOV       R5,DPH
   \   000004                REQUIRE ??Subroutine216_0
   \   000004                ; // Fall through to label ??Subroutine216_0

   \                                 In  segment BANKED_CODE, align 1, keep-with-next
   \                     ??Subroutine216_0:
   \   000000   EE           MOV       A,R6
   \   000001   12....       LCALL     ??Subroutine260_0 & 0xFFFF
   \                     ??CrossCallReturnLabel_637:
   \   000004   3F           ADDC      A,R7
   \   000005   FB           MOV       R3,A
   \   000006   22           RET

   \                                 In  segment BANKED_CODE, align 1, keep-with-next
   \                     ?Subroutine118:
   \   000000   EE           MOV       A,R6
   \   000001                REQUIRE ??Subroutine219_0
   \   000001                ; // Fall through to label ??Subroutine219_0

   \                                 In  segment BANKED_CODE, align 1, keep-with-next
   \                     ??Subroutine219_0:
   \   000000   2414         ADD       A,#0x14
   \   000002                REQUIRE ??Subroutine220_0
   \   000002                ; // Fall through to label ??Subroutine220_0

   \                                 In  segment BANKED_CODE, align 1, keep-with-next
   \                     ??Subroutine220_0:
   \   000000   F582         MOV       DPL,A
   \   000002   E4           CLR       A
   \   000003   3F           ADDC      A,R7
   \   000004   F583         MOV       DPH,A
   \   000006   7401         MOV       A,#0x1
   \   000008   22           RET

   \                                 In  segment BANKED_CODE, align 1, keep-with-next
   \                     ??Subroutine221_0:
   \   000000   E8           MOV       A,R0
   \   000001                REQUIRE ??Subroutine222_0
   \   000001                ; // Fall through to label ??Subroutine222_0

   \                                 In  segment BANKED_CODE, align 1, keep-with-next
   \                     ??Subroutine222_0:
   \   000000   F0           MOVX      @DPTR,A
   \   000001   A3           INC       DPTR
   \   000002   E9           MOV       A,R1
   \   000003   F0           MOVX      @DPTR,A
   \   000004   22           RET

   \                                 In  segment BANKED_CODE, align 1, keep-with-next
   \                     ?Subroutine21:
   \   000000   12....       LCALL     ?Subroutine177 & 0xFFFF
   \                     ??CrossCallReturnLabel_286:
   \   000003   E8           MOV       A,R0
   \   000004   F0           MOVX      @DPTR,A
   \   000005   A3           INC       DPTR
   \   000006   E9           MOV       A,R1
   \   000007   F0           MOVX      @DPTR,A
   \   000008                ; Setup parameters for call to function sAddrExtCpy
   \   000008                ; Setup parameters for call to function sAddrExtCpy
   \   000008   7C..         MOV       R4,#(_NIB + 53) & 0xff
   \   00000A   7D..         MOV       R5,#((_NIB + 53) >> 8) & 0xff
   \   00000C   EE           MOV       A,R6
   \   00000D   2402         ADD       A,#0x2
   \   00000F   FA           MOV       R2,A
   \   000010   E4           CLR       A
   \   000011   3F           ADDC      A,R7
   \   000012   FB           MOV       R3,A
   \   000013   22           RET

   \                                 In  segment BANKED_CODE, align 1, keep-with-next
   \                     ?Subroutine17:
   \   000000   F0           MOVX      @DPTR,A
   \   000001   85..82       MOV       DPL,?V2
   \   000004   85..83       MOV       DPH,?V3
   \   000007   A3           INC       DPTR
   \   000008   A3           INC       DPTR
   \   000009   A3           INC       DPTR
   \   00000A   A3           INC       DPTR
   \   00000B   E0           MOVX      A,@DPTR
   \   00000C   22           RET

   \                                 In  segment BANKED_CODE, align 1, keep-with-next
   \                     ?Subroutine14:
   \   000000   12....       LCALL     ?Subroutine160 & 0xFFFF
   \                     ??CrossCallReturnLabel_257:
   \   000003   7402         MOV       A,#0x2
   \   000005   F0           MOVX      @DPTR,A
   \   000006   EE           MOV       A,R6
   \   000007   2416         ADD       A,#0x16
   \   000009   F582         MOV       DPL,A
   \   00000B   E4           CLR       A
   \   00000C   3F           ADDC      A,R7
   \   00000D   F583         MOV       DPH,A
   \   00000F   22           RET

   \                                 In  segment BANKED_CODE, align 1, keep-with-next
   \                     ?Subroutine13:
   \   000000   F0           MOVX      @DPTR,A
   \   000001   EE           MOV       A,R6
   \   000002   2417         ADD       A,#0x17
   \   000004   F582         MOV       DPL,A
   \   000006   E4           CLR       A
   \   000007   3F           ADDC      A,R7
   \   000008   F583         MOV       DPH,A
   \   00000A   7402         MOV       A,#0x2
   \   00000C   F0           MOVX      @DPTR,A
   \   00000D   12....       LCALL     ?Subroutine189 & 0xFFFF
   \                     ??CrossCallReturnLabel_311:
   \   000010   74FF         MOV       A,#-0x1
   \   000012   F0           MOVX      @DPTR,A
   \   000013   22           RET

   \                                 In  segment BANKED_CODE, align 1, keep-with-next
   \                     ??Subroutine253_0:
   \   000000   2414         ADD       A,#0x14
   \   000002   F582         MOV       DPL,A
   \   000004   E4           CLR       A
   \   000005   3F           ADDC      A,R7
   \   000006   F583         MOV       DPH,A
   \   000008   22           RET

   \                                 In  segment BANKED_CODE, align 1, keep-with-next
   \                     ?Subroutine136:
   \   000000   240F         ADD       A,#0xf
   \   000002   F582         MOV       DPL,A
   \   000004   E4           CLR       A
   \   000005   22           RET

   \                                 In  segment BANKED_CODE, align 1, keep-with-next
   \                     ?Subroutine123:
   \   000000   EE           MOV       A,R6
   \   000001   2414         ADD       A,#0x14
   \   000003                REQUIRE ??Subroutine254_0
   \   000003                ; // Fall through to label ??Subroutine254_0

   \                                 In  segment BANKED_CODE, align 1, keep-with-next
   \                     ??Subroutine254_0:
   \   000000   F582         MOV       DPL,A
   \   000002   E4           CLR       A
   \   000003   3F           ADDC      A,R7
   \   000004   F583         MOV       DPH,A
   \   000006   E4           CLR       A
   \   000007   22           RET

   \                                 In  segment BANKED_CODE, align 1, keep-with-next
   \                     ?Subroutine177:
   \   000000   E0           MOVX      A,@DPTR
   \   000001   F8           MOV       R0,A
   \   000002   A3           INC       DPTR
   \   000003   E0           MOVX      A,@DPTR
   \   000004   F9           MOV       R1,A
   \   000005   8E82         MOV       DPL,R6
   \   000007   8F83         MOV       DPH,R7
   \   000009   22           RET

   \                                 In  segment BANKED_CODE, align 1, keep-with-next
   \                     ?Subroutine160:
   \   000000   F0           MOVX      @DPTR,A
   \   000001   EE           MOV       A,R6
   \   000002   12....       LCALL     ?Subroutine199 & 0xFFFF
   \                     ??CrossCallReturnLabel_321:
   \   000005   22           RET

   \                                 In  segment BANKED_CODE, align 1, keep-with-next
   \                     ?Subroutine199:
   \   000000   2415         ADD       A,#0x15
   \   000002   F582         MOV       DPL,A
   \   000004   E4           CLR       A
   \   000005   3F           ADDC      A,R7
   \   000006   F583         MOV       DPH,A
   \   000008   22           RET

   \                                 In  segment BANKED_CODE, align 1, keep-with-next
   \                     ??Subroutine258_0:
   \   000000   2402         ADD       A,#0x2
   \   000002   FA           MOV       R2,A
   \   000003   E4           CLR       A
   \   000004   22           RET

   \                                 In  segment BANKED_CODE, align 1, keep-with-next
   \                     ?Subroutine201:
   \   000000   F0           MOVX      @DPTR,A
   \   000001                ; Setup parameters for call to function osal_memcpy
   \   000001   8882         MOV       DPL,R0
   \   000003   8983         MOV       DPH,R1
   \   000005   22           RET

   \                                 In  segment BANKED_CODE, align 1, keep-with-next
   \                     ?Subroutine40:
   \   000000   12....       LCALL     ?Subroutine161 & 0xFFFF
   \                     ??CrossCallReturnLabel_260:
   \   000003   F8           MOV       R0,A
   \   000004   A3           INC       DPTR
   \   000005   E0           MOVX      A,@DPTR
   \   000006   F9           MOV       R1,A
   \   000007   22           RET

   \                                 In  segment BANKED_CODE, align 1, keep-with-next
   \                     ?Subroutine161:
   \   000000   12....       LCALL     ?Subroutine201 & 0xFFFF
   \                     ??CrossCallReturnLabel_326:
   \   000003   E0           MOVX      A,@DPTR
   \   000004   22           RET
   1387          
   1388          /*********************************************************************
   1389           * @fn          ZDO_ProcessMgmtNwkDiscReq
   1390           *
   1391           * @brief       This function handles parsing the incoming Management
   1392           *              Network Discover request and starts the request.
   1393           *
   1394           * @param       inMsg - incoming message (request)
   1395           *
   1396           * @return      none
   1397           */

   \                                 In  segment BANKED_CODE, align 1, keep-with-next
   \                     ?Subroutine129:
   \   000000   8A..         MOV       ?V0,R2
   \   000002   8B..         MOV       ?V1,R3
   \   000004                REQUIRE ??Subroutine217_0
   \   000004                ; // Fall through to label ??Subroutine217_0

   \                                 In  segment BANKED_CODE, align 1, keep-with-next
   1398          void ZDO_ProcessMgmtNwkDiscReq( zdoIncomingMsg_t *inMsg )
   \                     ZDO_ProcessMgmtNwkDiscReq:
   1399          {
   \   000000                REQUIRE ?V0
   \   000000                REQUIRE ?V1
   \   000000   74F6         MOV       A,#-0xa
   \   000002   12....       LCALL     ?BANKED_ENTER_XDATA
   \   000005                ; Saved register size: 10
   \   000005                ; Auto size: 7
   \   000005   74F9         MOV       A,#-0x7
   \   000007   12....       LCALL     ?ALLOC_XSTACK8
   \   00000A   12....       LCALL     ?Subroutine129 & 0xFFFF
   1400            NLME_ScanFields_t scan;
   1401            uint8             index;
   1402            uint8             *msg;
   1403          
   1404            msg = inMsg->asdu;
   \                     ??CrossCallReturnLabel_356:
   \   00000D   35..         ADDC      A,?V1
   \   00000F   12....       LCALL     ?Subroutine92 & 0xFFFF
   1405            scan.channels = osal_build_uint32( msg, 4 );
   \                     ??CrossCallReturnLabel_145:
   \   000012   12....       LCALL     `??osal_build_uint32::?relay`; Banked call to: osal_build_uint32
   \   000015   EA           MOV       A,R2
   \   000016   F8           MOV       R0,A
   \   000017   EB           MOV       A,R3
   \   000018   F9           MOV       R1,A
   \   000019   EC           MOV       A,R4
   \   00001A   FA           MOV       R2,A
   \   00001B   ED           MOV       A,R5
   \   00001C   FB           MOV       R3,A
   \   00001D   85..82       MOV       DPL,?XSP + 0
   \   000020   85..83       MOV       DPH,?XSP + 1
   \   000023   12....       LCALL     ?XSTORE_R0123
   1406            msg += 4;
   1407            scan.duration = *msg++;
   \   000026   8E82         MOV       DPL,R6
   \   000028   8F83         MOV       DPH,R7
   \   00002A   A3           INC       DPTR
   \   00002B   A3           INC       DPTR
   \   00002C   A3           INC       DPTR
   \   00002D   A3           INC       DPTR
   \   00002E   E0           MOVX      A,@DPTR
   \   00002F   C0E0         PUSH      A
   \   000031   7404         MOV       A,#0x4
   \   000033   12....       LCALL     ?XSTACK_DISP0_8
   \   000036   D0E0         POP       A
   \   000038   12....       LCALL     ?Subroutine38 & 0xFFFF
   1408            index         = *msg;
   \                     ??CrossCallReturnLabel_49:
   \   00003B   F8           MOV       R0,A
   1409            scan.scanType = ZMAC_ACTIVE_SCAN;
   \   00003C   7405         MOV       A,#0x5
   \   00003E   12....       LCALL     ?XSTACK_DISP0_8
   \   000041   7401         MOV       A,#0x1
   \   000043   F0           MOVX      @DPTR,A
   1410            scan.scanApp  = NLME_DISC_SCAN;
   \   000044   7406         MOV       A,#0x6
   \   000046   12....       LCALL     ?XSTACK_DISP0_8
   \   000049   7401         MOV       A,#0x1
   \   00004B   F0           MOVX      @DPTR,A
   1411          
   1412            // Save off the information to be used for the response
   1413            zdappMgmtNwkDiscReqInProgress          = true;
   \   00004C   90....       MOV       DPTR,#zdappMgmtNwkDiscReqInProgress
   \   00004F   F0           MOVX      @DPTR,A
   1414            zdappMgmtNwkDiscRspAddr.addrMode       = Addr16Bit;
   \   000050   90....       MOV       DPTR,#zdappMgmtNwkDiscRspAddr + 8
   \   000053   04           INC       A
   \   000054   12....       LCALL     ?Subroutine41 & 0xFFFF
   1415            zdappMgmtNwkDiscRspAddr.addr.shortAddr = inMsg->srcAddr.addr.shortAddr;
   \                     ??CrossCallReturnLabel_56:
   \   000057   FA           MOV       R2,A
   \   000058   A3           INC       DPTR
   \   000059   E0           MOVX      A,@DPTR
   \   00005A   FB           MOV       R3,A
   \   00005B   90....       MOV       DPTR,#zdappMgmtNwkDiscRspAddr
   \   00005E   12....       LCALL     ??Subroutine213_0 & 0xFFFF
   1416            zdappMgmtNwkDiscStartIndex             = index;
   \                     ??CrossCallReturnLabel_343:
   \   000061   E8           MOV       A,R0
   \   000062   90....       MOV       DPTR,#zdappMgmtNwkDiscStartIndex
   \   000065   12....       LCALL     ?Subroutine28 & 0xFFFF
   1417            zdappMgmtNwkDiscRspTransSeq            = inMsg->TransSeq;
   \                     ??CrossCallReturnLabel_33:
   \   000068   90....       MOV       DPTR,#zdappMgmtNwkDiscRspTransSeq
   \   00006B   F0           MOVX      @DPTR,A
   1418          
   1419            if ( NLME_NwkDiscReq2( &scan ) != ZSuccess )
   \   00006C                ; Setup parameters for call to function NLME_NwkDiscReq2
   \   00006C   AA..         MOV       R2,?XSP + 0
   \   00006E   AB..         MOV       R3,?XSP + 1
   \   000070   12....       LCALL     `??NLME_NwkDiscReq2::?relay`; Banked call to: NLME_NwkDiscReq2
   \   000073   E9           MOV       A,R1
   \   000074   6003         JZ        ??ZDO_ProcessMgmtNwkDiscReq_0
   1420            {
   1421              NLME_NwkDiscTerm();
   \   000076                ; Setup parameters for call to function NLME_NwkDiscTerm
   \   000076   12....       LCALL     `??NLME_NwkDiscTerm::?relay`; Banked call to: NLME_NwkDiscTerm
   1422          
   1423              // zdappMgmtNwkDiscReqInProgress will be reset in the confirm callback
   1424            }
   1425          }
   \                     ??ZDO_ProcessMgmtNwkDiscReq_0:
   \   000079   7407         MOV       A,#0x7
   \   00007B   02....       LJMP      ??Subroutine206_0 & 0xFFFF

   \                                 In  segment BANKED_CODE, align 1, keep-with-next
   \                     ?Subroutine41:
   \   000000   12....       LCALL     ?Subroutine165 & 0xFFFF
   \                     ??CrossCallReturnLabel_270:
   \   000003   A3           INC       DPTR
   \   000004   E0           MOVX      A,@DPTR
   \   000005   22           RET

   \                                 In  segment BANKED_CODE, align 1, keep-with-next
   \                     ?Subroutine165:
   \   000000   F0           MOVX      @DPTR,A
   \   000001                ; Setup parameters for call to function osal_memcpy
   \   000001   85..82       MOV       DPL,?V0
   \   000004   85..83       MOV       DPH,?V1
   \   000007   A3           INC       DPTR
   \   000008   22           RET

   \                                 In  segment BANKED_CODE, align 1, keep-with-next
   \                     ?Subroutine163:
   \   000000   12....       LCALL     ?Subroutine193 & 0xFFFF
   \                     ??CrossCallReturnLabel_629:
   \   000003   A3           INC       DPTR
   \   000004   A3           INC       DPTR
   \   000005   A3           INC       DPTR
   \   000006   22           RET

   \                                 In  segment BANKED_CODE, align 1, keep-with-next
   \                     ?Subroutine38:
   \   000000   12....       LCALL     ?Subroutine163 & 0xFFFF
   \                     ??CrossCallReturnLabel_266:
   \   000003   A3           INC       DPTR
   \   000004   E0           MOVX      A,@DPTR
   \   000005   22           RET

   \                                 In  segment BANKED_CODE, align 1, keep-with-next
   \                     ?Subroutine193:
   \   000000   F0           MOVX      @DPTR,A
   \   000001   8E82         MOV       DPL,R6
   \   000003   8F83         MOV       DPH,R7
   \   000005   A3           INC       DPTR
   \   000006   22           RET

   \                                 In  segment BANKED_CODE, align 1, keep-with-next
   \                     ?Subroutine92:
   \   000000   F583         MOV       DPH,A
   \   000002   12....       LCALL     ?Subroutine181 & 0xFFFF
   \                     ??CrossCallReturnLabel_297:
   \   000005   FF           MOV       R7,A
   \   000006                ; Setup parameters for call to function osal_build_uint32
   \   000006                ; Setup parameters for call to function osal_build_uint32
   \   000006   7904         MOV       R1,#0x4
   \   000008   EE           MOV       A,R6
   \   000009   FA           MOV       R2,A
   \   00000A   EF           MOV       A,R7
   \   00000B   FB           MOV       R3,A
   \   00000C   22           RET
   1426          
   1427          #if defined ( ZDO_MGMT_NWKDISC_RESPONSE )
   1428          /*********************************************************************
   1429           * @fn          ZDO_FinishProcessingMgmtNwkDiscReq
   1430           *
   1431           * @brief       This function finishes the processing of the Management
   1432           *              Network Discover Request and generates the response.
   1433           *
   1434           *   Note:      This function will limit the number of items returned
   1435           *              to ZDO_MAX_NWKDISC_ITEMS items.
   1436           *
   1437           * @param       ResultCountSrcAddr - source of the request
   1438           * @param       msg - pointer to incoming message
   1439           * @param       SecurityUse -
   1440           *
   1441           * @return      none
   1442           */

   \                                 In  segment BANKED_CODE, align 1, keep-with-next
   1443          void ZDO_FinishProcessingMgmtNwkDiscReq( void )
   \                     ZDO_FinishProcessingMgmtNwkDiscReq:
   1444          {
   \   000000                REQUIRE ?V0
   \   000000                REQUIRE ?V1
   \   000000                REQUIRE ?V2
   \   000000                REQUIRE ?V3
   \   000000                REQUIRE ?V4
   \   000000                REQUIRE ?V5
   \   000000   74F2         MOV       A,#-0xe
   \   000002   12....       LCALL     ?BANKED_ENTER_XDATA
   \   000005                ; Saved register size: 14
   \   000005                ; Auto size: 1
   \   000005   74FF         MOV       A,#-0x1
   \   000007   12....       LCALL     ?ALLOC_XSTACK8
   1445            byte count, i, ResultCount = 0;
   \   00000A   75..00       MOV       ?V0,#0x0
   1446            networkDesc_t *newDesc = NULL, *pList, *NetworkList;
   \   00000D   7E00         MOV       R6,#0x0
   \   00000F   7F00         MOV       R7,#0x0
   1447          
   1448            NetworkList = nwk_getNwkDescList();
   \   000011                ; Setup parameters for call to function nwk_getNwkDescList
   \   000011   12....       LCALL     `??nwk_getNwkDescList::?relay`; Banked call to: nwk_getNwkDescList
   \   000014   8A..         MOV       ?V2,R2
   \   000016   8B..         MOV       ?V3,R3
   1449          
   1450            // Count the number of nwk descriptors in the list
   1451            pList = nwk_getNwkDescList();
   \   000018                ; Setup parameters for call to function nwk_getNwkDescList
   \   000018   12....       LCALL     `??nwk_getNwkDescList::?relay`; Banked call to: nwk_getNwkDescList
   \   00001B   8A..         MOV       ?V4,R2
   \   00001D   8B..         MOV       ?V5,R3
   \   00001F   A8..         MOV       R0,?V4
   \   000021   A9..         MOV       R1,?V5
   \   000023   8008         SJMP      ??CrossCallReturnLabel_419
   1452            while (pList)
   1453            {
   1454              ResultCount++;
   \                     ??ZDO_FinishProcessingMgmtNwkDiscReq_0:
   \   000025   05..         INC       ?V0
   1455              pList = pList->nextDesc;
   \   000027   12....       LCALL     ?Subroutine142 & 0xFFFF
   1456            }
   \                     ??CrossCallReturnLabel_214:
   \   00002A   12....       LCALL     ??Subroutine229_0 & 0xFFFF
   \                     ??CrossCallReturnLabel_419:
   \   00002D   E8           MOV       A,R0
   \   00002E   49           ORL       A,R1
   \   00002F   70F4         JNZ       ??ZDO_FinishProcessingMgmtNwkDiscReq_0
   1457          
   1458            if ( ZSTACK_ROUTER_BUILD )
   \   000031   90....       MOV       DPTR,#zgDeviceLogicalType
   \   000034   E0           MOVX      A,@DPTR
   \   000035   6007         JZ        ??ZDO_FinishProcessingMgmtNwkDiscReq_1
   \   000037   6401         XRL       A,#0x1
   \   000039   6003         JZ        $+5
   \   00003B   02....       LJMP      ??ZDO_FinishProcessingMgmtNwkDiscReq_2 & 0xFFFF
   1459            {
   1460              // Look for my PanID.
   1461              pList = nwk_getNwkDescList();
   \                     ??ZDO_FinishProcessingMgmtNwkDiscReq_1:
   \   00003E                ; Setup parameters for call to function nwk_getNwkDescList
   \   00003E   12....       LCALL     `??nwk_getNwkDescList::?relay`; Banked call to: nwk_getNwkDescList
   \   000041   8A..         MOV       ?V4,R2
   \   000043   8B..         MOV       ?V5,R3
   \   000045   A8..         MOV       R0,?V4
   \   000047   A9..         MOV       R1,?V5
   \   000049   8006         SJMP      ??CrossCallReturnLabel_420
   1462              while ( pList )
   1463              {
   1464                if ( pList->panId == _NIB.nwkPanId )
   1465                {
   1466                  break;
   1467                }
   1468          
   1469          
   1470                if ( !pList->nextDesc )
   1471                {
   1472                  break;
   1473                }
   1474                pList = pList->nextDesc;
   \                     ??ZDO_FinishProcessingMgmtNwkDiscReq_3:
   \   00004B   12....       LCALL     ?Subroutine142 & 0xFFFF
   \                     ??CrossCallReturnLabel_215:
   \   00004E   12....       LCALL     ??Subroutine229_0 & 0xFFFF
   \                     ??CrossCallReturnLabel_420:
   \   000051   E8           MOV       A,R0
   \   000052   49           ORL       A,R1
   \   000053   6033         JZ        ??ZDO_FinishProcessingMgmtNwkDiscReq_4
   \   000055   8882         MOV       DPL,R0
   \   000057   8983         MOV       DPH,R1
   \   000059   12....       LCALL     ??Subroutine243_0 & 0xFFFF
   \                     ??CrossCallReturnLabel_498:
   \   00005C   90....       MOV       DPTR,#_NIB + 33
   \   00005F   E0           MOVX      A,@DPTR
   \   000060   6A           XRL       A,R2
   \   000061   7003         JNZ       ??ZDO_FinishProcessingMgmtNwkDiscReq_5
   \   000063   A3           INC       DPTR
   \   000064   E0           MOVX      A,@DPTR
   \   000065   6B           XRL       A,R3
   \                     ??ZDO_FinishProcessingMgmtNwkDiscReq_5:
   \   000066   600A         JZ        ??ZDO_FinishProcessingMgmtNwkDiscReq_6
   \   000068   12....       LCALL     ?Subroutine142 & 0xFFFF
   1475              }
   \                     ??CrossCallReturnLabel_216:
   \   00006B   12....       LCALL     ??Subroutine243_0 & 0xFFFF
   \                     ??CrossCallReturnLabel_499:
   \   00006E   EA           MOV       A,R2
   \   00006F   4B           ORL       A,R3
   \   000070   70D9         JNZ       ??ZDO_FinishProcessingMgmtNwkDiscReq_3
   \                     ??ZDO_FinishProcessingMgmtNwkDiscReq_6:
   \   000072   8882         MOV       DPL,R0
   \   000074   8983         MOV       DPH,R1
   \   000076   12....       LCALL     ??Subroutine229_0 & 0xFFFF
   \                     ??CrossCallReturnLabel_421:
   \   000079   90....       MOV       DPTR,#_NIB + 33
   \   00007C   E0           MOVX      A,@DPTR
   \   00007D   68           XRL       A,R0
   \   00007E   7003         JNZ       ??ZDO_FinishProcessingMgmtNwkDiscReq_7
   \   000080   A3           INC       DPTR
   \   000081   E0           MOVX      A,@DPTR
   \   000082   69           XRL       A,R1
   \                     ??ZDO_FinishProcessingMgmtNwkDiscReq_7:
   \   000083   7003         JNZ       $+5
   \   000085   02....       LJMP      ??ZDO_FinishProcessingMgmtNwkDiscReq_2 & 0xFFFF
   1476          
   1477          
   1478              // If my Pan not present (query to a star network ZC or an isolated ZR?),
   1479              // prepend it.
   1480              if ( !pList || (pList->panId != _NIB.nwkPanId) )
   1481              {
   1482                newDesc = (networkDesc_t *)osal_mem_alloc( sizeof( networkDesc_t ) );
   \                     ??ZDO_FinishProcessingMgmtNwkDiscReq_4:
   \   000088                ; Setup parameters for call to function osal_mem_alloc
   \   000088   7A16         MOV       R2,#0x16
   \   00008A   7B00         MOV       R3,#0x0
   \   00008C   12....       LCALL     `??osal_mem_alloc::?relay`; Banked call to: osal_mem_alloc
   \   00008F   8A..         MOV       ?V4,R2
   \   000091   8B..         MOV       ?V5,R3
   \   000093   AE..         MOV       R6,?V4
   \   000095   AF..         MOV       R7,?V5
   1483                if ( newDesc )
   \   000097   EE           MOV       A,R6
   \   000098   4F           ORL       A,R7
   \   000099   6071         JZ        ??ZDO_FinishProcessingMgmtNwkDiscReq_2
   1484                {
   1485                  byte pJoin;
   1486          
   1487                  newDesc->panId = _NIB.nwkPanId;
   \   00009B   90....       MOV       DPTR,#_NIB + 33
   \   00009E   12....       LCALL     ?Subroutine104 & 0xFFFF
   \                     ??CrossCallReturnLabel_157:
   \   0000A1   12....       LCALL     ??Subroutine221_0 & 0xFFFF
   1488                  newDesc->logicalChannel = _NIB.nwkLogicalChannel;
   \                     ??CrossCallReturnLabel_378:
   \   0000A4   90....       MOV       DPTR,#_NIB + 22
   \   0000A7   12....       LCALL     ?Subroutine109 & 0xFFFF
   \                     ??CrossCallReturnLabel_163:
   \   0000AA   A3           INC       DPTR
   \   0000AB   F0           MOVX      @DPTR,A
   1489                  newDesc->version = NLME_GetProtocolVersion();
   \   0000AC                ; Setup parameters for call to function NLME_GetProtocolVersion
   \   0000AC   12....       LCALL     `??NLME_GetProtocolVersion::?relay`; Banked call to: NLME_GetProtocolVersion
   \   0000AF   E9           MOV       A,R1
   \   0000B0   8E82         MOV       DPL,R6
   \   0000B2   8F83         MOV       DPH,R7
   \   0000B4   A3           INC       DPTR
   \   0000B5   A3           INC       DPTR
   \   0000B6   A3           INC       DPTR
   \   0000B7   A3           INC       DPTR
   \   0000B8   A3           INC       DPTR
   \   0000B9   F0           MOVX      @DPTR,A
   1490                  newDesc->stackProfile = zgStackProfile;
   \   0000BA   90....       MOV       DPTR,#zgStackProfile
   \   0000BD   12....       LCALL     ?Subroutine109 & 0xFFFF
   \                     ??CrossCallReturnLabel_164:
   \   0000C0   A3           INC       DPTR
   \   0000C1   A3           INC       DPTR
   \   0000C2   A3           INC       DPTR
   \   0000C3   A3           INC       DPTR
   \   0000C4   A3           INC       DPTR
   \   0000C5   F0           MOVX      @DPTR,A
   1491          
   1492                  //Extended PanID
   1493                  osal_cpyExtAddr( newDesc->extendedPANID, _NIB.extendedPANID);
   \   0000C6                ; Setup parameters for call to function sAddrExtCpy
   \   0000C6   7C..         MOV       R4,#(_NIB + 53) & 0xff
   \   0000C8   7D..         MOV       R5,#((_NIB + 53) >> 8) & 0xff
   \   0000CA   12....       LCALL     ?Subroutine144 & 0xFFFF
   \                     ??CrossCallReturnLabel_218:
   \   0000CD   12....       LCALL     `??sAddrExtCpy::?relay`; Banked call to: sAddrExtCpy
   1494          
   1495                  ZMacGetReq( ZMacAssociationPermit, &pJoin );
   \   0000D0                ; Setup parameters for call to function ZMacGetReq
   \   0000D0   AA..         MOV       R2,?XSP + 0
   \   0000D2   AB..         MOV       R3,?XSP + 1
   \   0000D4   7941         MOV       R1,#0x41
   \   0000D6   12....       LCALL     `??ZMacGetReq::?relay`; Banked call to: ZMacGetReq
   1496                  newDesc->chosenRouter = ((pJoin) ? ZDAppNwkAddr.addr.shortAddr :
   1497                                                     INVALID_NODE_ADDR);
   \   0000D9   85..82       MOV       DPL,?XSP + 0
   \   0000DC   85..83       MOV       DPH,?XSP + 1
   \   0000DF   E0           MOVX      A,@DPTR
   \   0000E0   6008         JZ        ??ZDO_FinishProcessingMgmtNwkDiscReq_8
   \   0000E2   90....       MOV       DPTR,#ZDAppNwkAddr
   \   0000E5   12....       LCALL     ??Subroutine229_0 & 0xFFFF
   \                     ??CrossCallReturnLabel_422:
   \   0000E8   8004         SJMP      ??ZDO_FinishProcessingMgmtNwkDiscReq_9
   \                     ??ZDO_FinishProcessingMgmtNwkDiscReq_8:
   \   0000EA   78FE         MOV       R0,#-0x2
   \   0000EC   79FF         MOV       R1,#-0x1
   \                     ??ZDO_FinishProcessingMgmtNwkDiscReq_9:
   \   0000EE   8E82         MOV       DPL,R6
   \   0000F0   8F83         MOV       DPH,R7
   \   0000F2   A3           INC       DPTR
   \   0000F3   A3           INC       DPTR
   \   0000F4   A3           INC       DPTR
   \   0000F5   A3           INC       DPTR
   \   0000F6   A3           INC       DPTR
   \   0000F7   A3           INC       DPTR
   \   0000F8   A3           INC       DPTR
   \   0000F9   12....       LCALL     ??Subroutine221_0 & 0xFFFF
   1498          
   1499                  newDesc->nextDesc = NetworkList;
   \                     ??CrossCallReturnLabel_379:
   \   0000FC   12....       LCALL     ?Subroutine139 & 0xFFFF
   \                     ??CrossCallReturnLabel_554:
   \   0000FF   E5..         MOV       A,?V2
   \   000101   F0           MOVX      @DPTR,A
   \   000102   A3           INC       DPTR
   \   000103   E5..         MOV       A,?V3
   \   000105   F0           MOVX      @DPTR,A
   1500                  NetworkList = newDesc;
   \   000106   8E..         MOV       ?V2,R6
   \   000108   8F..         MOV       ?V3,R7
   1501                  ResultCount++;
   \   00010A   05..         INC       ?V0
   1502                }
   1503              }
   1504            }
   1505          
   1506            // Calc the count and apply a max count.
   1507            if ( zdappMgmtNwkDiscStartIndex > ResultCount )
   \                     ??ZDO_FinishProcessingMgmtNwkDiscReq_2:
   \   00010C   90....       MOV       DPTR,#zdappMgmtNwkDiscStartIndex
   \   00010F   E0           MOVX      A,@DPTR
   \   000110   F8           MOV       R0,A
   \   000111   E5..         MOV       A,?V0
   \   000113   C3           CLR       C
   \   000114   98           SUBB      A,R0
   \   000115   5004         JNC       ??ZDO_FinishProcessingMgmtNwkDiscReq_10
   1508            {
   1509              count = 0;
   \   000117   7900         MOV       R1,#0x0
   \   000119   8029         SJMP      ??ZDO_FinishProcessingMgmtNwkDiscReq_11
   1510            }
   1511            else
   1512            {
   1513              count = ResultCount - zdappMgmtNwkDiscStartIndex;
   \                     ??ZDO_FinishProcessingMgmtNwkDiscReq_10:
   \   00011B   E5..         MOV       A,?V0
   \   00011D   C3           CLR       C
   \   00011E   98           SUBB      A,R0
   \   00011F   F9           MOV       R1,A
   1514              if ( count > ZDO_MAX_NWKDISC_ITEMS )
   \   000120   C3           CLR       C
   \   000121   9406         SUBB      A,#0x6
   \   000123   4002         JC        ??ZDO_FinishProcessingMgmtNwkDiscReq_12
   1515              {
   1516                count = ZDO_MAX_NWKDISC_ITEMS;
   \   000125   7905         MOV       R1,#0x5
   1517              }
   1518          
   1519              // Move the list pointer up to the start index.
   1520              for ( i = 0; i < zdappMgmtNwkDiscStartIndex; i++ )
   \                     ??ZDO_FinishProcessingMgmtNwkDiscReq_12:
   \   000127   7800         MOV       R0,#0x0
   \   000129   800F         SJMP      ??ZDO_FinishProcessingMgmtNwkDiscReq_13
   1521              {
   1522                NetworkList = NetworkList->nextDesc;
   \                     ??ZDO_FinishProcessingMgmtNwkDiscReq_14:
   \   00012B   E5..         MOV       A,?V2
   \   00012D   2414         ADD       A,#0x14
   \   00012F   F582         MOV       DPL,A
   \   000131   E4           CLR       A
   \   000132   35..         ADDC      A,?V3
   \   000134   12....       LCALL     ?Subroutine95 & 0xFFFF
   1523              }
   \                     ??CrossCallReturnLabel_337:
   \   000137   F5..         MOV       ?V3,A
   \   000139   08           INC       R0
   \                     ??ZDO_FinishProcessingMgmtNwkDiscReq_13:
   \   00013A   90....       MOV       DPTR,#zdappMgmtNwkDiscStartIndex
   \   00013D   E0           MOVX      A,@DPTR
   \   00013E   FA           MOV       R2,A
   \   00013F   E8           MOV       A,R0
   \   000140   C3           CLR       C
   \   000141   9A           SUBB      A,R2
   \   000142   40E7         JC        ??ZDO_FinishProcessingMgmtNwkDiscReq_14
   1524            }
   1525          
   1526            ZDP_MgmtNwkDiscRsp( zdappMgmtNwkDiscRspTransSeq,
   1527                               &zdappMgmtNwkDiscRspAddr, ZSuccess, ResultCount,
   1528                                zdappMgmtNwkDiscStartIndex,
   1529                                count,
   1530                                NetworkList,
   1531                                false );
   \                     ??ZDO_FinishProcessingMgmtNwkDiscReq_11:
   \   000144                ; Setup parameters for call to function ZDP_MgmtNwkDiscRsp
   \   000144   75..00       MOV       ?V1,#0x0
   \   000147   78..         MOV       R0,#?V1
   \   000149   12....       LCALL     ?PUSH_XSTACK_I_ONE
   \   00014C   78..         MOV       R0,#?V2
   \   00014E   12....       LCALL     ?PUSH_XSTACK_I_TWO
   \   000151   E9           MOV       A,R1
   \   000152   F5..         MOV       ?V1,A
   \   000154   78..         MOV       R0,#?V1
   \   000156   12....       LCALL     ?PUSH_XSTACK_I_ONE
   \   000159   90....       MOV       DPTR,#zdappMgmtNwkDiscStartIndex
   \   00015C   E0           MOVX      A,@DPTR
   \   00015D   F5..         MOV       ?V1,A
   \   00015F   78..         MOV       R0,#?V1
   \   000161   12....       LCALL     ?PUSH_XSTACK_I_ONE
   \   000164   AD..         MOV       R5,?V0
   \   000166   7C00         MOV       R4,#0x0
   \   000168   7A..         MOV       R2,#zdappMgmtNwkDiscRspAddr & 0xff
   \   00016A   7B..         MOV       R3,#(zdappMgmtNwkDiscRspAddr >> 8) & 0xff
   \   00016C   90....       MOV       DPTR,#zdappMgmtNwkDiscRspTransSeq
   \   00016F   E0           MOVX      A,@DPTR
   \   000170   F9           MOV       R1,A
   \   000171   12....       LCALL     `??ZDP_MgmtNwkDiscRsp::?relay`; Banked call to: ZDP_MgmtNwkDiscRsp
   \   000174   7405         MOV       A,#0x5
   \   000176   12....       LCALL     ?DEALLOC_XSTACK8
   1532          
   1533            if ( ZSTACK_ROUTER_BUILD )
   \   000179   90....       MOV       DPTR,#zgDeviceLogicalType
   \   00017C   E0           MOVX      A,@DPTR
   \   00017D   6004         JZ        ??ZDO_FinishProcessingMgmtNwkDiscReq_15
   \   00017F   6401         XRL       A,#0x1
   \   000181   700B         JNZ       ??ZDO_FinishProcessingMgmtNwkDiscReq_16
   1534            {
   1535              if ( newDesc != NULL )
   \                     ??ZDO_FinishProcessingMgmtNwkDiscReq_15:
   \   000183   EE           MOV       A,R6
   \   000184   4F           ORL       A,R7
   \   000185   6007         JZ        ??ZDO_FinishProcessingMgmtNwkDiscReq_16
   1536              {
   1537                osal_mem_free( newDesc );
   \   000187                ; Setup parameters for call to function osal_mem_free
   \   000187   EE           MOV       A,R6
   \   000188   FA           MOV       R2,A
   \   000189   EF           MOV       A,R7
   \   00018A   FB           MOV       R3,A
   \   00018B   12....       LCALL     `??osal_mem_free::?relay`; Banked call to: osal_mem_free
   1538              }
   1539            }
   1540          
   1541            NLME_NwkDiscTerm();
   \                     ??ZDO_FinishProcessingMgmtNwkDiscReq_16:
   \   00018E                ; Setup parameters for call to function NLME_NwkDiscTerm
   \   00018E   12....       LCALL     `??NLME_NwkDiscTerm::?relay`; Banked call to: NLME_NwkDiscTerm
   1542          }
   \   000191   7401         MOV       A,#0x1
   \   000193   02....       LJMP      ?Subroutine5 & 0xFFFF

   \                                 In  segment BANKED_CODE, align 1, keep-with-next
   \                     ?Subroutine142:
   \   000000   E8           MOV       A,R0
   \   000001   2414         ADD       A,#0x14
   \   000003   F582         MOV       DPL,A
   \   000005   E4           CLR       A
   \   000006   39           ADDC      A,R1
   \   000007   F583         MOV       DPH,A
   \   000009   22           RET

   \                                 In  segment BANKED_CODE, align 1, keep-with-next
   \                     ?Subroutine139:
   \   000000   EE           MOV       A,R6
   \   000001                REQUIRE ??Subroutine253_0
   \   000001                ; // Fall through to label ??Subroutine253_0

   \                                 In  segment BANKED_CODE, align 1, keep-with-next
   \                     ?Subroutine109:
   \   000000   12....       LCALL     ?Subroutine180 & 0xFFFF
   \                     ??CrossCallReturnLabel_291:
   \   000003   A3           INC       DPTR
   \   000004   22           RET

   \                                 In  segment BANKED_CODE, align 1, keep-with-next
   \                     ?Subroutine104:
   \   000000   12....       LCALL     ?Subroutine177 & 0xFFFF
   \                     ??CrossCallReturnLabel_287:
   \   000003   22           RET

   \                                 In  segment BANKED_CODE, align 1, keep-with-next
   \                     ?Subroutine180:
   \   000000   E0           MOVX      A,@DPTR
   \   000001   8E82         MOV       DPL,R6
   \   000003   8F83         MOV       DPH,R7
   \   000005   22           RET
   1543          #endif
   1544          
   1545          /*********************************************************************
   1546           * @fn          ZDO_ProcessMgmtRtgReq
   1547           *
   1548           * @brief       This function finishes the processing of the Management
   1549           *              Routing Request and generates the response.
   1550           *
   1551           *   Note:      This function will limit the number of items returned
   1552           *              to ZDO_MAX_RTG_ITEMS items.
   1553           *
   1554           * @param       inMsg - incoming message (request)
   1555           *
   1556           * @return      none
   1557           */

   \                                 In  segment BANKED_CODE, align 1, keep-with-next
   1558          void ZDO_ProcessMgmtRtgReq( zdoIncomingMsg_t *inMsg )
   \                     ZDO_ProcessMgmtRtgReq:
   1559          {
   \   000000                REQUIRE ?V0
   \   000000                REQUIRE ?V1
   \   000000                REQUIRE ?V2
   \   000000                REQUIRE ?V3
   \   000000                REQUIRE ?V4
   \   000000                REQUIRE ?V6
   \   000000                REQUIRE ?V7
   \   000000   74F0         MOV       A,#-0x10
   \   000002   12....       LCALL     ?BANKED_ENTER_XDATA
   \   000005                ; Saved register size: 16
   \   000005                ; Auto size: 1
   \   000005   74FF         MOV       A,#-0x1
   \   000007   12....       LCALL     ?ALLOC_XSTACK8
   \   00000A   8A..         MOV       ?V2,R2
   \   00000C   8B..         MOV       ?V3,R3
   1560            byte x;
   1561            byte maxNumItems;
   1562            byte numItems = 0;
   \   00000E   7E00         MOV       R6,#0x0
   1563            uint8 *pBuf = NULL;
   \   000010   8E..         MOV       ?V6,R6
   \   000012   8E..         MOV       ?V7,R6
   1564            rtgItem_t *pList;
   1565            uint8 StartIndex = inMsg->asdu[0];
   \   000014   12....       LCALL     ??Subroutine217_0 & 0xFFFF
   \                     ??CrossCallReturnLabel_363:
   \   000017   12....       LCALL     ??Subroutine210_0 & 0xFFFF
   \                     ??CrossCallReturnLabel_328:
   \   00001A   12....       LCALL     ??Subroutine224_0 & 0xFFFF
   \                     ??CrossCallReturnLabel_390:
   \   00001D   FF           MOV       R7,A
   1566          
   1567            // Get the number of table items
   1568            NLME_GetRequest( nwkNumRoutingTableEntries, 0, &maxNumItems );
   \   00001E                ; Setup parameters for call to function NLME_GetRequest
   \   00001E   AC..         MOV       R4,?XSP + 0
   \   000020   AD..         MOV       R5,?XSP + 1
   \   000022   7A00         MOV       R2,#0x0
   \   000024   7B00         MOV       R3,#0x0
   \   000026   799D         MOV       R1,#-0x63
   \   000028   12....       LCALL     `??NLME_GetRequest::?relay`; Banked call to: NLME_GetRequest
   1569          
   1570            if ( maxNumItems > StartIndex )
   \   00002B   85..82       MOV       DPL,?XSP + 0
   \   00002E   85..83       MOV       DPH,?XSP + 1
   \   000031   E0           MOVX      A,@DPTR
   \   000032   F8           MOV       R0,A
   \   000033   EF           MOV       A,R7
   \   000034   C3           CLR       C
   \   000035   98           SUBB      A,R0
   \   000036   4003         JC        $+5
   \   000038   02....       LJMP      ??ZDO_ProcessMgmtRtgReq_0 & 0xFFFF
   1571            {
   1572              numItems = maxNumItems - StartIndex;    // Start at the passed in index
   \   00003B   E0           MOVX      A,@DPTR
   \   00003C   C3           CLR       C
   \   00003D   9F           SUBB      A,R7
   \   00003E   FE           MOV       R6,A
   1573          
   1574              // limit the size of the list
   1575              if ( numItems > ZDO_MAX_RTG_ITEMS )
   \   00003F   C3           CLR       C
   \   000040   940B         SUBB      A,#0xb
   \   000042   4002         JC        ??ZDO_ProcessMgmtRtgReq_1
   1576              {
   1577                numItems = ZDO_MAX_RTG_ITEMS;
   \   000044   7E0A         MOV       R6,#0xa
   1578              }
   1579          
   1580              // Allocate the memory to build the table
   1581              pBuf = osal_mem_alloc( (short)(sizeof( rtgItem_t ) * numItems) );
   \                     ??ZDO_ProcessMgmtRtgReq_1:
   \   000046                ; Setup parameters for call to function osal_mem_alloc
   \   000046   EE           MOV       A,R6
   \   000047   75F007       MOV       B,#0x7
   \   00004A   A4           MUL       AB
   \   00004B   FA           MOV       R2,A
   \   00004C   ABF0         MOV       R3,B
   \   00004E   12....       LCALL     `??osal_mem_alloc::?relay`; Banked call to: osal_mem_alloc
   \   000051   8A..         MOV       ?V0,R2
   \   000053   8B..         MOV       ?V1,R3
   \   000055   8A..         MOV       ?V6,R2
   \   000057   8B..         MOV       ?V7,R3
   1582          
   1583              if ( pBuf != NULL )
   \   000059   EA           MOV       A,R2
   \   00005A   45..         ORL       A,?V7
   \   00005C   6079         JZ        ??ZDO_ProcessMgmtRtgReq_2
   1584              {
   1585                // Convert buffer to list
   1586                pList = (rtgItem_t *)pBuf;
   1587          
   1588                // Loop through items and build list
   1589                for ( x = 0; x < numItems; x++ )
   \   00005E   75..00       MOV       ?V4,#0x0
   \   000061   801A         SJMP      ??ZDO_ProcessMgmtRtgReq_3
   1590                {
   1591                  NLME_GetRequest( nwkRoutingTable, (uint16)(x + StartIndex), (void*)pList );
   1592          
   1593                  // Remap the status to the RoutingTableList Record Format defined in the ZigBee spec
   1594                  switch( pList->status )
   1595                  {
   1596                    case RT_ACTIVE:
   1597                      pList->status = ZDO_MGMT_RTG_ENTRY_ACTIVE;
   1598                      break;
   1599          
   1600                    case RT_DISC:
   1601                      pList->status = ZDO_MGMT_RTG_ENTRY_DISCOVERY_UNDERWAY;
   1602                      break;
   1603          
   1604                    case RT_LINK_FAIL:
   1605                      pList->status = ZDO_MGMT_RTG_ENTRY_DISCOVERY_FAILED;
   1606                      break;
   1607          
   1608                    case RT_INIT:
   1609                    case RT_REPAIR:
   1610                    default:
   1611                      pList->status = ZDO_MGMT_RTG_ENTRY_INACTIVE;
   \                     ??ZDO_ProcessMgmtRtgReq_4:
   \   000063   85..82       MOV       DPL,?V0
   \   000066   85..83       MOV       DPH,?V1
   \   000069   A3           INC       DPTR
   \   00006A   A3           INC       DPTR
   \   00006B   A3           INC       DPTR
   \   00006C   A3           INC       DPTR
   \   00006D   A3           INC       DPTR
   \   00006E   7403         MOV       A,#0x3
   \                     ??ZDO_ProcessMgmtRtgReq_5:
   \   000070   F0           MOVX      @DPTR,A
   1612                      break;
   1613                  }
   1614          
   1615                  // Increment pointer to next record
   1616                  pList++;
   \   000071   E5..         MOV       A,?V0
   \   000073   2407         ADD       A,#0x7
   \   000075   F5..         MOV       ?V0,A
   \   000077   5002         JNC       ??ZDO_ProcessMgmtRtgReq_6
   \   000079   05..         INC       ?V1
   \                     ??ZDO_ProcessMgmtRtgReq_6:
   \   00007B   05..         INC       ?V4
   \                     ??ZDO_ProcessMgmtRtgReq_3:
   \   00007D   E5..         MOV       A,?V4
   \   00007F   C3           CLR       C
   \   000080   9E           SUBB      A,R6
   \   000081   5056         JNC       ??ZDO_ProcessMgmtRtgReq_0
   \   000083                ; Setup parameters for call to function NLME_GetRequest
   \   000083   AC..         MOV       R4,?V0
   \   000085   AD..         MOV       R5,?V1
   \   000087   E5..         MOV       A,?V4
   \   000089   2F           ADD       A,R7
   \   00008A   FA           MOV       R2,A
   \   00008B   E4           CLR       A
   \   00008C   3400         ADDC      A,#0x0
   \   00008E   FB           MOV       R3,A
   \   00008F   798B         MOV       R1,#-0x75
   \   000091   12....       LCALL     `??NLME_GetRequest::?relay`; Banked call to: NLME_GetRequest
   \   000094   85..82       MOV       DPL,?V0
   \   000097   85..83       MOV       DPH,?V1
   \   00009A   A3           INC       DPTR
   \   00009B   A3           INC       DPTR
   \   00009C   A3           INC       DPTR
   \   00009D   A3           INC       DPTR
   \   00009E   A3           INC       DPTR
   \   00009F   E0           MOVX      A,@DPTR
   \   0000A0   14           DEC       A
   \   0000A1   6008         JZ        ??ZDO_ProcessMgmtRtgReq_7
   \   0000A3   14           DEC       A
   \   0000A4   6013         JZ        ??ZDO_ProcessMgmtRtgReq_8
   \   0000A6   14           DEC       A
   \   0000A7   601F         JZ        ??ZDO_ProcessMgmtRtgReq_9
   \   0000A9   80B8         SJMP      ??ZDO_ProcessMgmtRtgReq_4
   \                     ??ZDO_ProcessMgmtRtgReq_7:
   \   0000AB   85..82       MOV       DPL,?V0
   \   0000AE   85..83       MOV       DPH,?V1
   \   0000B1   A3           INC       DPTR
   \   0000B2   A3           INC       DPTR
   \   0000B3   A3           INC       DPTR
   \   0000B4   A3           INC       DPTR
   \   0000B5   A3           INC       DPTR
   \   0000B6   E4           CLR       A
   \   0000B7   80B7         SJMP      ??ZDO_ProcessMgmtRtgReq_5
   \                     ??ZDO_ProcessMgmtRtgReq_8:
   \   0000B9   85..82       MOV       DPL,?V0
   \   0000BC   85..83       MOV       DPH,?V1
   \   0000BF   A3           INC       DPTR
   \   0000C0   A3           INC       DPTR
   \   0000C1   A3           INC       DPTR
   \   0000C2   A3           INC       DPTR
   \   0000C3   A3           INC       DPTR
   \   0000C4   7401         MOV       A,#0x1
   \   0000C6   80A8         SJMP      ??ZDO_ProcessMgmtRtgReq_5
   \                     ??ZDO_ProcessMgmtRtgReq_9:
   \   0000C8   85..82       MOV       DPL,?V0
   \   0000CB   85..83       MOV       DPH,?V1
   \   0000CE   A3           INC       DPTR
   \   0000CF   A3           INC       DPTR
   \   0000D0   A3           INC       DPTR
   \   0000D1   A3           INC       DPTR
   \   0000D2   A3           INC       DPTR
   \   0000D3   7402         MOV       A,#0x2
   \   0000D5   8099         SJMP      ??ZDO_ProcessMgmtRtgReq_5
   1617                }
   1618              }
   1619              else
   1620              {
   1621                numItems = 0;
   \                     ??ZDO_ProcessMgmtRtgReq_2:
   \   0000D7   7E00         MOV       R6,#0x0
   1622              }
   1623            }
   1624          
   1625            // Send response
   1626            ZDP_MgmtRtgRsp( inMsg->TransSeq, &(inMsg->srcAddr), ZSuccess, maxNumItems, StartIndex, numItems,
   1627                                  (rtgItem_t *)pBuf, false );
   \                     ??ZDO_ProcessMgmtRtgReq_0:
   \   0000D9                ; Setup parameters for call to function ZDP_MgmtRtgRsp
   \   0000D9   75..00       MOV       ?V0,#0x0
   \   0000DC   78..         MOV       R0,#?V0
   \   0000DE   12....       LCALL     ?PUSH_XSTACK_I_ONE
   \   0000E1   78..         MOV       R0,#?V6
   \   0000E3   12....       LCALL     ?PUSH_XSTACK_I_TWO
   \   0000E6   EE           MOV       A,R6
   \   0000E7   F5..         MOV       ?V0,A
   \   0000E9   78..         MOV       R0,#?V0
   \   0000EB   12....       LCALL     ?PUSH_XSTACK_I_ONE
   \   0000EE   EF           MOV       A,R7
   \   0000EF   F5..         MOV       ?V0,A
   \   0000F1   78..         MOV       R0,#?V0
   \   0000F3   12....       LCALL     ?PUSH_XSTACK_I_ONE
   \   0000F6   7405         MOV       A,#0x5
   \   0000F8   12....       LCALL     ?XSTACK_DISP0_8
   \   0000FB   E0           MOVX      A,@DPTR
   \   0000FC   FD           MOV       R5,A
   \   0000FD   7C00         MOV       R4,#0x0
   \   0000FF   E5..         MOV       A,?V2
   \   000101   12....       LCALL     ??Subroutine258_0 & 0xFFFF
   \                     ??CrossCallReturnLabel_619:
   \   000104   35..         ADDC      A,?V3
   \   000106   FB           MOV       R3,A
   \   000107   E5..         MOV       A,?V2
   \   000109   12....       LCALL     ?Subroutine136 & 0xFFFF
   \                     ??CrossCallReturnLabel_206:
   \   00010C   12....       LCALL     ??Subroutine210_0 & 0xFFFF
   \                     ??CrossCallReturnLabel_329:
   \   00010F   E0           MOVX      A,@DPTR
   \   000110   F9           MOV       R1,A
   \   000111   12....       LCALL     `??ZDP_MgmtRtgRsp::?relay`; Banked call to: ZDP_MgmtRtgRsp
   \   000114   7405         MOV       A,#0x5
   \   000116   12....       LCALL     ?DEALLOC_XSTACK8
   1628          
   1629            if ( pBuf != NULL )
   \   000119   E5..         MOV       A,?V6
   \   00011B   45..         ORL       A,?V7
   \   00011D   6007         JZ        ??ZDO_ProcessMgmtRtgReq_10
   1630            {
   1631              osal_mem_free( pBuf );
   \   00011F                ; Setup parameters for call to function osal_mem_free
   \   00011F   AA..         MOV       R2,?V6
   \   000121   AB..         MOV       R3,?V7
   \   000123   12....       LCALL     `??osal_mem_free::?relay`; Banked call to: osal_mem_free
   1632            }
   1633          }
   \                     ??ZDO_ProcessMgmtRtgReq_10:
   \   000126   7401         MOV       A,#0x1
   \   000128   12....       LCALL     ?DEALLOC_XSTACK8
   \   00012B   02....       LJMP      ??Subroutine204_0 & 0xFFFF
   1634          
   1635          /*********************************************************************
   1636           * @fn          ZDO_ProcessMgmtBindReq
   1637           *
   1638           * @brief       This function finishes the processing of the Management
   1639           *              Bind Request and generates the response.
   1640           *
   1641           *   Note:      This function will limit the number of items returned
   1642           *              to ZDO_MAX_BIND_ITEMS items.
   1643           *
   1644           * @param       inMsg - incoming message (request)
   1645           *
   1646           * @return      none
   1647           */

   \                                 In  segment BANKED_CODE, align 1, keep-with-next
   1648          void ZDO_ProcessMgmtBindReq( zdoIncomingMsg_t *inMsg )
   \                     ZDO_ProcessMgmtBindReq:
   1649          {
   \   000000                REQUIRE ?V0
   \   000000                REQUIRE ?V1
   \   000000                REQUIRE ?V2
   \   000000                REQUIRE ?V3
   \   000000                REQUIRE ?V4
   \   000000                REQUIRE ?V5
   \   000000                REQUIRE ?V6
   \   000000                REQUIRE ?V8
   \   000000                REQUIRE ?V9
   \   000000   74EE         MOV       A,#-0x12
   \   000002   12....       LCALL     ?BANKED_ENTER_XDATA
   \   000005                ; Saved register size: 18
   \   000005                ; Auto size: 2
   \   000005   74FE         MOV       A,#-0x2
   \   000007   12....       LCALL     ?ALLOC_XSTACK8
   \   00000A   8A..         MOV       ?V4,R2
   \   00000C   8B..         MOV       ?V5,R3
   1650          #if defined ( REFLECTOR )
   1651            byte x;
   1652            uint16 maxNumItems;
   1653            uint16 numItems;
   1654            uint8 *pBuf = NULL;
   \   00000E   75..00       MOV       ?V8,#0x0
   \   000011   75..00       MOV       ?V9,#0x0
   1655            apsBindingItem_t *pList;
   1656            uint8 StartIndex = inMsg->asdu[0];
   \   000014   12....       LCALL     ??Subroutine217_0 & 0xFFFF
   \                     ??CrossCallReturnLabel_364:
   \   000017   35..         ADDC      A,?V5
   \   000019   F583         MOV       DPH,A
   \   00001B   12....       LCALL     ??Subroutine224_0 & 0xFFFF
   \                     ??CrossCallReturnLabel_391:
   \   00001E   F5..         MOV       ?V2,A
   1657            uint8 status;
   1658          
   1659            // Get the number of table items
   1660            APSME_GetRequest( apsNumBindingTableEntries, 0, (byte*)(&maxNumItems) );
   \   000020                ; Setup parameters for call to function APSME_GetRequest
   \   000020   AC..         MOV       R4,?XSP + 0
   \   000022   AD..         MOV       R5,?XSP + 1
   \   000024   7A00         MOV       R2,#0x0
   \   000026   7B00         MOV       R3,#0x0
   \   000028   79A3         MOV       R1,#-0x5d
   \   00002A   12....       LCALL     `??APSME_GetRequest::?relay`; Banked call to: APSME_GetRequest
   1661          
   1662            if ( maxNumItems > StartIndex )
   \   00002D   12....       LCALL     ?Subroutine105 & 0xFFFF
   \                     ??CrossCallReturnLabel_427:
   \   000030   C3           CLR       C
   \   000031   E5..         MOV       A,?V2
   \   000033   98           SUBB      A,R0
   \   000034   E4           CLR       A
   \   000035   99           SUBB      A,R1
   \   000036   507A         JNC       ??ZDO_ProcessMgmtBindReq_0
   1663            {
   1664              numItems = maxNumItems - StartIndex;    // Start at the passed in index
   \   000038   85..82       MOV       DPL,?XSP + 0
   \   00003B   85..83       MOV       DPH,?XSP + 1
   \   00003E   A8..         MOV       R0,?V2
   \   000040   E0           MOVX      A,@DPTR
   \   000041   C3           CLR       C
   \   000042   98           SUBB      A,R0
   \   000043   FE           MOV       R6,A
   \   000044   A3           INC       DPTR
   \   000045   E0           MOVX      A,@DPTR
   \   000046   9400         SUBB      A,#0x0
   \   000048   FF           MOV       R7,A
   1665            }
   1666            else
   1667            {
   1668              numItems = 0;
   1669            }
   1670          
   1671            // limit the size of the list
   1672            if ( numItems > ZDO_MAX_BIND_ITEMS )
   \   000049   C3           CLR       C
   \   00004A   EE           MOV       A,R6
   \   00004B   9404         SUBB      A,#0x4
   \   00004D   EF           MOV       A,R7
   \   00004E   9400         SUBB      A,#0x0
   \   000050   4006         JC        ??ZDO_ProcessMgmtBindReq_1
   1673            {
   1674              numItems = ZDO_MAX_BIND_ITEMS;
   \   000052   7E03         MOV       R6,#0x3
   \   000054   7F00         MOV       R7,#0x0
   \   000056   8004         SJMP      ??ZDO_ProcessMgmtBindReq_2
   1675            }
   1676          
   1677            // Allocate the memory to build the table
   1678            if ( numItems && (pBuf = osal_mem_alloc( sizeof( apsBindingItem_t ) * numItems )) )
   \                     ??ZDO_ProcessMgmtBindReq_1:
   \   000058   EE           MOV       A,R6
   \   000059   4F           ORL       A,R7
   \   00005A   6056         JZ        ??ZDO_ProcessMgmtBindReq_0
   \                     ??ZDO_ProcessMgmtBindReq_2:
   \   00005C                ; Setup parameters for call to function osal_mem_alloc
   \   00005C   EE           MOV       A,R6
   \   00005D   FA           MOV       R2,A
   \   00005E   EF           MOV       A,R7
   \   00005F   FB           MOV       R3,A
   \   000060   EA           MOV       A,R2
   \   000061   75F015       MOV       B,#0x15
   \   000064   A4           MUL       AB
   \   000065   FA           MOV       R2,A
   \   000066   A8F0         MOV       R0,B
   \   000068   75F015       MOV       B,#0x15
   \   00006B   EB           MOV       A,R3
   \   00006C   A4           MUL       AB
   \   00006D   28           ADD       A,R0
   \   00006E   FB           MOV       R3,A
   \   00006F   12....       LCALL     `??osal_mem_alloc::?relay`; Banked call to: osal_mem_alloc
   \   000072   8A..         MOV       ?V0,R2
   \   000074   8B..         MOV       ?V1,R3
   \   000076   8A..         MOV       ?V8,R2
   \   000078   8B..         MOV       ?V9,R3
   \   00007A   EA           MOV       A,R2
   \   00007B   45..         ORL       A,?V9
   \   00007D   6033         JZ        ??ZDO_ProcessMgmtBindReq_0
   1679            {
   1680              status = ZSuccess;
   \   00007F   75..00       MOV       ?V3,#0x0
   1681          
   1682              // Convert buffer to list
   1683              pList = (apsBindingItem_t *)pBuf;
   1684          
   1685              // Loop through items and build list
   1686              for ( x = 0; x < numItems; x++ )
   \   000082   75..00       MOV       ?V6,#0x0
   \   000085   801F         SJMP      ??ZDO_ProcessMgmtBindReq_3
   1687              {
   1688                APSME_GetRequest( apsBindingTable, (x + StartIndex), (void*)pList );
   \                     ??ZDO_ProcessMgmtBindReq_4:
   \   000087                ; Setup parameters for call to function APSME_GetRequest
   \   000087   AC..         MOV       R4,?V0
   \   000089   AD..         MOV       R5,?V1
   \   00008B   A8..         MOV       R0,?V2
   \   00008D   E5..         MOV       A,?V6
   \   00008F   28           ADD       A,R0
   \   000090   FA           MOV       R2,A
   \   000091   E4           CLR       A
   \   000092   3400         ADDC      A,#0x0
   \   000094   FB           MOV       R3,A
   \   000095   79A2         MOV       R1,#-0x5e
   \   000097   12....       LCALL     `??APSME_GetRequest::?relay`; Banked call to: APSME_GetRequest
   1689                pList++;
   \   00009A   E5..         MOV       A,?V0
   \   00009C   2415         ADD       A,#0x15
   \   00009E   F5..         MOV       ?V0,A
   \   0000A0   5002         JNC       ??ZDO_ProcessMgmtBindReq_5
   \   0000A2   05..         INC       ?V1
   1690              }
   \                     ??ZDO_ProcessMgmtBindReq_5:
   \   0000A4   05..         INC       ?V6
   \                     ??ZDO_ProcessMgmtBindReq_3:
   \   0000A6   C3           CLR       C
   \   0000A7   E5..         MOV       A,?V6
   \   0000A9   9E           SUBB      A,R6
   \   0000AA   E4           CLR       A
   \   0000AB   9F           SUBB      A,R7
   \   0000AC   40D9         JC        ??ZDO_ProcessMgmtBindReq_4
   \   0000AE   EE           MOV       A,R6
   \   0000AF   F9           MOV       R1,A
   \   0000B0   8005         SJMP      ??ZDO_ProcessMgmtBindReq_6
   1691          
   1692            }
   1693            else
   1694            {
   1695              status = ZDP_NOT_PERMITTED;
   \                     ??ZDO_ProcessMgmtBindReq_0:
   \   0000B2   75..8B       MOV       ?V3,#-0x75
   1696              numItems = 0;
   \   0000B5   7900         MOV       R1,#0x0
   1697            }
   1698          
   1699            // Send response
   1700            ZDP_MgmtBindRsp( inMsg->TransSeq, &(inMsg->srcAddr), status, (byte)maxNumItems, StartIndex,
   1701                             (byte)numItems, (apsBindingItem_t *)pBuf, false );
   \                     ??ZDO_ProcessMgmtBindReq_6:
   \   0000B7                ; Setup parameters for call to function ZDP_MgmtBindRsp
   \   0000B7   75..00       MOV       ?V0,#0x0
   \   0000BA   78..         MOV       R0,#?V0
   \   0000BC   12....       LCALL     ?PUSH_XSTACK_I_ONE
   \   0000BF   78..         MOV       R0,#?V8
   \   0000C1   12....       LCALL     ?PUSH_XSTACK_I_TWO
   \   0000C4   E9           MOV       A,R1
   \   0000C5   F5..         MOV       ?V0,A
   \   0000C7   78..         MOV       R0,#?V0
   \   0000C9   12....       LCALL     ?PUSH_XSTACK_I_ONE
   \   0000CC   E5..         MOV       A,?V2
   \   0000CE   F5..         MOV       ?V0,A
   \   0000D0   78..         MOV       R0,#?V0
   \   0000D2   12....       LCALL     ?PUSH_XSTACK_I_ONE
   \   0000D5   7405         MOV       A,#0x5
   \   0000D7   12....       LCALL     ?XSTACK_DISP0_8
   \   0000DA   E0           MOVX      A,@DPTR
   \   0000DB   FD           MOV       R5,A
   \   0000DC   AC..         MOV       R4,?V3
   \   0000DE   E5..         MOV       A,?V4
   \   0000E0   12....       LCALL     ??Subroutine258_0 & 0xFFFF
   \                     ??CrossCallReturnLabel_620:
   \   0000E3   35..         ADDC      A,?V5
   \   0000E5   FB           MOV       R3,A
   \   0000E6   E5..         MOV       A,?V4
   \   0000E8   12....       LCALL     ?Subroutine136 & 0xFFFF
   \                     ??CrossCallReturnLabel_207:
   \   0000EB   35..         ADDC      A,?V5
   \   0000ED   F583         MOV       DPH,A
   \   0000EF   E0           MOVX      A,@DPTR
   \   0000F0   F9           MOV       R1,A
   \   0000F1   12....       LCALL     `??ZDP_MgmtBindRsp::?relay`; Banked call to: ZDP_MgmtBindRsp
   \   0000F4   7405         MOV       A,#0x5
   \   0000F6   12....       LCALL     ?DEALLOC_XSTACK8
   1702          
   1703            if ( pBuf )
   \   0000F9   E5..         MOV       A,?V8
   \   0000FB   45..         ORL       A,?V9
   \   0000FD   6007         JZ        ??ZDO_ProcessMgmtBindReq_7
   1704            {
   1705              osal_mem_free( pBuf );
   \   0000FF                ; Setup parameters for call to function osal_mem_free
   \   0000FF   AA..         MOV       R2,?V8
   \   000101   AB..         MOV       R3,?V9
   \   000103   12....       LCALL     `??osal_mem_free::?relay`; Banked call to: osal_mem_free
   1706            }
   1707          #else
   1708            (void)inMsg;
   1709          #endif
   1710          }
   \                     ??ZDO_ProcessMgmtBindReq_7:
   \   000106   7402         MOV       A,#0x2
   \   000108                REQUIRE ?Subroutine9
   \   000108                ; // Fall through to label ?Subroutine9

   \                                 In  segment BANKED_CODE, align 1, keep-with-next
   \                     ?Subroutine9:
   \   000000   12....       LCALL     ?DEALLOC_XSTACK8
   \   000003                REQUIRE ??Subroutine225_0
   \   000003                ; // Fall through to label ??Subroutine225_0

   \                                 In  segment BANKED_CODE, align 1, keep-with-next
   \                     ??Subroutine225_0:
   \   000000   7F0A         MOV       R7,#0xa
   \   000002   02....       LJMP      ?BANKED_LEAVE_XDATA

   \                                 In  segment BANKED_CODE, align 1, keep-with-next
   \                     ?Subroutine105:
   \   000000   85..82       MOV       DPL,?XSP + 0
   \   000003   85..83       MOV       DPH,?XSP + 1
   \   000006                REQUIRE ??Subroutine229_0
   \   000006                ; // Fall through to label ??Subroutine229_0
   1711          
   1712          /*********************************************************************
   1713           * @fn          ZDO_ProcessMgmtDirectJoinReq
   1714           *
   1715           * @brief       This function finishes the processing of the Management
   1716           *              Direct Join Request and generates the response.
   1717           *
   1718           * @param       inMsg - incoming message (request)
   1719           *
   1720           * @return      none
   1721           */

   \                                 In  segment BANKED_CODE, align 1, keep-with-next
   1722          void ZDO_ProcessMgmtDirectJoinReq( zdoIncomingMsg_t *inMsg )
   \                     ZDO_ProcessMgmtDirectJoinReq:
   1723          {
   \   000000                REQUIRE ?V0
   \   000000                REQUIRE ?V1
   \   000000   74F6         MOV       A,#-0xa
   \   000002   12....       LCALL     ?BANKED_ENTER_XDATA
   \   000005                ; Saved register size: 10
   \   000005                ; Auto size: 1
   \   000005   74FF         MOV       A,#-0x1
   \   000007   12....       LCALL     ?ALLOC_XSTACK8
   \   00000A   EA           MOV       A,R2
   \   00000B   FE           MOV       R6,A
   \   00000C   EB           MOV       A,R3
   \   00000D   FF           MOV       R7,A
   1724            uint8 *deviceAddr;
   1725            uint8 capInfo;
   1726            uint8 stat;
   1727          
   1728            // Parse the message
   1729            deviceAddr = inMsg->asdu;
   1730            capInfo = inMsg->asdu[Z_EXTADDR_LEN];
   1731          
   1732            stat = (byte) NLME_DirectJoinRequest( deviceAddr, capInfo );
   \   00000E   EE           MOV       A,R6
   \   00000F   12....       LCALL     ??Subroutine218_0 & 0xFFFF
   \                     ??CrossCallReturnLabel_359:
   \   000012   3F           ADDC      A,R7
   \   000013   12....       LCALL     ?Subroutine101 & 0xFFFF
   \                     ??CrossCallReturnLabel_154:
   \   000016   A3           INC       DPTR
   \   000017   A3           INC       DPTR
   \   000018   A3           INC       DPTR
   \   000019   A3           INC       DPTR
   \   00001A   A3           INC       DPTR
   \   00001B   A3           INC       DPTR
   \   00001C   A3           INC       DPTR
   \   00001D   A3           INC       DPTR
   \   00001E   E0           MOVX      A,@DPTR
   \   00001F   F9           MOV       R1,A
   \   000020   12....       LCALL     `??NLME_DirectJoinRequest::?relay`; Banked call to: NLME_DirectJoinRequest
   \   000023   E9           MOV       A,R1
   \   000024   85..82       MOV       DPL,?XSP + 0
   \   000027   85..83       MOV       DPH,?XSP + 1
   \   00002A   F0           MOVX      @DPTR,A
   1733          
   1734            ZDP_MgmtDirectJoinRsp( inMsg->TransSeq, &(inMsg->srcAddr), stat, false );
   \   00002B                ; Setup parameters for call to function ZDP_SendData
   \   00002B   75..00       MOV       ?V0,#0x0
   \   00002E   78..         MOV       R0,#?V0
   \   000030   12....       LCALL     ?PUSH_XSTACK_I_ONE
   \   000033   7401         MOV       A,#0x1
   \   000035   12....       LCALL     ?XSTACK_DISP100_8
   \   000038   88..         MOV       ?V0,R0
   \   00003A   89..         MOV       ?V1,R1
   \   00003C   78..         MOV       R0,#?V0
   \   00003E   12....       LCALL     ?PUSH_XSTACK_I_TWO
   \   000041   75..35       MOV       ?V0,#0x35
   \   000044   75..80       MOV       ?V1,#-0x80
   \   000047   78..         MOV       R0,#?V0
   \   000049   12....       LCALL     ?PUSH_XSTACK_I_TWO
   \   00004C   12....       LCALL     ?Subroutine117 & 0xFFFF
   \                     ??CrossCallReturnLabel_401:
   \   00004F   12....       LCALL     `??ZDP_SendData::?relay`; Banked call to: ZDP_SendData
   \   000052   7405         MOV       A,#0x5
   \   000054   12....       LCALL     ?DEALLOC_XSTACK8
   1735          }
   \   000057                REQUIRE ?Subroutine10
   \   000057                ; // Fall through to label ?Subroutine10

   \                                 In  segment BANKED_CODE, align 1, keep-with-next
   \                     ?Subroutine10:
   \   000000   7401         MOV       A,#0x1
   \   000002   02....       LJMP      ??Subroutine206_0 & 0xFFFF

   \                                 In  segment BANKED_CODE, align 1, keep-with-next
   \                     ?Subroutine117:
   \   000000   7901         MOV       R1,#0x1
   \   000002                REQUIRE ??Subroutine226_0
   \   000002                ; // Fall through to label ??Subroutine226_0

   \                                 In  segment BANKED_CODE, align 1, keep-with-next
   \                     ??Subroutine226_0:
   \   000000   12....       LCALL     ?Subroutine184 & 0xFFFF
   \                     ??CrossCallReturnLabel_404:
   \   000003   FA           MOV       R2,A
   \   000004   E4           CLR       A
   \   000005   3F           ADDC      A,R7
   \   000006   FB           MOV       R3,A
   \   000007   22           RET

   \                                 In  segment BANKED_CODE, align 1, keep-with-next
   \                     ??Subroutine244_0:
   \   000000   F583         MOV       DPH,A
   \   000002                REQUIRE ??Subroutine245_0
   \   000002                ; // Fall through to label ??Subroutine245_0

   \                                 In  segment BANKED_CODE, align 1, keep-with-next
   \                     ?Subroutine101:
   \   000000   12....       LCALL     ??Subroutine244_0 & 0xFFFF
   \                     ??CrossCallReturnLabel_521:
   \   000003                ; Setup parameters for call to function NLME_DirectJoinRequest
   \   000003   8A82         MOV       DPL,R2
   \   000005   8B83         MOV       DPH,R3
   \   000007   22           RET
   1736          
   1737          /*********************************************************************
   1738           * @fn          ZDO_ProcessMgmtLeaveReq
   1739           *
   1740           * @brief       This function processes a Management Leave Request
   1741           *              and generates the response.
   1742           *
   1743           * @param       inMsg - incoming message (request)
   1744           *
   1745           * @return      none
   1746           */

   \                                 In  segment BANKED_CODE, align 1, keep-with-next
   \                     ?Subroutine4:
   \   000000   12....       LCALL     ?DEALLOC_XSTACK8
   \   000003                REQUIRE ??Subroutine205_0
   \   000003                ; // Fall through to label ??Subroutine205_0

   \                                 In  segment BANKED_CODE, align 1, keep-with-next
   1747          void ZDO_ProcessMgmtLeaveReq( zdoIncomingMsg_t *inMsg )
   \                     ZDO_ProcessMgmtLeaveReq:
   1748          {
   \   000000                REQUIRE ?V0
   \   000000                REQUIRE ?V1
   \   000000                REQUIRE ?V2
   \   000000                REQUIRE ?V3
   \   000000   74F4         MOV       A,#-0xc
   \   000002   12....       LCALL     ?BANKED_ENTER_XDATA
   \   000005                ; Saved register size: 12
   \   000005                ; Auto size: 6
   \   000005   74FA         MOV       A,#-0x6
   \   000007   12....       LCALL     ?ALLOC_XSTACK8
   \   00000A   12....       LCALL     ?Subroutine129 & 0xFFFF
   1749            NLME_LeaveReq_t req;
   1750            ZStatus_t       status;
   1751            uint8           option;
   1752            uint8 *msg = inMsg->asdu;
   \                     ??CrossCallReturnLabel_357:
   \   00000D   12....       LCALL     ??Subroutine247_0 & 0xFFFF
   \                     ??CrossCallReturnLabel_526:
   \   000010   12....       LCALL     ?Subroutine181 & 0xFFFF
   \                     ??CrossCallReturnLabel_293:
   \   000013   FF           MOV       R7,A
   1753          
   1754            if ( ( AddrMgrExtAddrValid( msg ) == FALSE                 ) ||
   1755                 ( osal_ExtAddrEqual( msg, NLME_GetExtAddr() ) == TRUE )    )
   \   000014                ; Setup parameters for call to function AddrMgrExtAddrValid
   \   000014   EE           MOV       A,R6
   \   000015   FA           MOV       R2,A
   \   000016   EF           MOV       A,R7
   \   000017   FB           MOV       R3,A
   \   000018   12....       LCALL     `??AddrMgrExtAddrValid::?relay`; Banked call to: AddrMgrExtAddrValid
   \   00001B   E9           MOV       A,R1
   \   00001C   6017         JZ        ??ZDO_ProcessMgmtLeaveReq_0
   \   00001E                ; Setup parameters for call to function NLME_GetExtAddr
   \   00001E   12....       LCALL     `??NLME_GetExtAddr::?relay`; Banked call to: NLME_GetExtAddr
   \   000021   8A..         MOV       ?V2,R2
   \   000023   8B..         MOV       ?V3,R3
   \   000025   AC..         MOV       R4,?V2
   \   000027   AD..         MOV       R5,?V3
   \   000029                ; Setup parameters for call to function sAddrExtCmp
   \   000029   EE           MOV       A,R6
   \   00002A   FA           MOV       R2,A
   \   00002B   EF           MOV       A,R7
   \   00002C   FB           MOV       R3,A
   \   00002D   12....       LCALL     `??sAddrExtCmp::?relay`; Banked call to: sAddrExtCmp
   \   000030   E9           MOV       A,R1
   \   000031   6401         XRL       A,#0x1
   \   000033   700A         JNZ       ??ZDO_ProcessMgmtLeaveReq_1
   1756            {
   1757              // Remove this device
   1758              req.extAddr = NULL;
   \                     ??ZDO_ProcessMgmtLeaveReq_0:
   \   000035   7401         MOV       A,#0x1
   \   000037   12....       LCALL     ?XSTACK_DISP0_8
   \   00003A   E4           CLR       A
   \   00003B   F0           MOVX      @DPTR,A
   \   00003C   A3           INC       DPTR
   \   00003D   8009         SJMP      ??ZDO_ProcessMgmtLeaveReq_2
   1759            }
   1760            else
   1761            {
   1762              // Remove child device
   1763              req.extAddr = msg;
   \                     ??ZDO_ProcessMgmtLeaveReq_1:
   \   00003F   7401         MOV       A,#0x1
   \   000041   12....       LCALL     ?XSTACK_DISP0_8
   \   000044   EE           MOV       A,R6
   \   000045   F0           MOVX      @DPTR,A
   \   000046   A3           INC       DPTR
   \   000047   EF           MOV       A,R7
   1764            }
   \                     ??ZDO_ProcessMgmtLeaveReq_2:
   \   000048   12....       LCALL     ?Subroutine48 & 0xFFFF
   1765          
   1766            option = msg[Z_EXTADDR_LEN];
   \                     ??CrossCallReturnLabel_70:
   \   00004B   A3           INC       DPTR
   \   00004C   A3           INC       DPTR
   \   00004D   A3           INC       DPTR
   \   00004E   A3           INC       DPTR
   \   00004F   E0           MOVX      A,@DPTR
   \   000050   F8           MOV       R0,A
   1767            if ( option & ZDP_MGMT_LEAVE_REQ_RC )
   \   000051   A2E6         MOV       C,0xE0 /* A   */.6
   \   000053   5008         JNC       ??ZDO_ProcessMgmtLeaveReq_3
   1768            {
   1769              req.removeChildren = TRUE;
   \   000055   7403         MOV       A,#0x3
   \   000057   12....       LCALL     ?XSTACK_DISP0_8
   \   00005A   7401         MOV       A,#0x1
   \   00005C   F0           MOVX      @DPTR,A
   1770            }
   1771          
   1772            if ( option & ZDP_MGMT_LEAVE_REQ_REJOIN )
   \                     ??ZDO_ProcessMgmtLeaveReq_3:
   \   00005D   E8           MOV       A,R0
   \   00005E   A2E7         MOV       C,0xE0 /* A   */.7
   \   000060   5008         JNC       ??ZDO_ProcessMgmtLeaveReq_4
   1773            {
   1774               req.rejoin = TRUE;
   \   000062   7404         MOV       A,#0x4
   \   000064   12....       LCALL     ?XSTACK_DISP0_8
   \   000067   7401         MOV       A,#0x1
   \   000069   F0           MOVX      @DPTR,A
   1775            }
   1776          
   1777            req.silent = FALSE;
   \                     ??ZDO_ProcessMgmtLeaveReq_4:
   \   00006A   7405         MOV       A,#0x5
   \   00006C   12....       LCALL     ?XSTACK_DISP0_8
   \   00006F   E4           CLR       A
   \   000070   F0           MOVX      @DPTR,A
   1778          
   1779            status = NLME_LeaveReq( &req );
   \   000071                ; Setup parameters for call to function NLME_LeaveReq
   \   000071   04           INC       A
   \   000072   12....       LCALL     ?XSTACK_DISP101_8
   \   000075   12....       LCALL     `??NLME_LeaveReq::?relay`; Banked call to: NLME_LeaveReq
   \   000078   E9           MOV       A,R1
   \   000079   85..82       MOV       DPL,?XSP + 0
   \   00007C   85..83       MOV       DPH,?XSP + 1
   \   00007F   F0           MOVX      @DPTR,A
   1780          
   1781            if ( ZG_BUILD_ENDDEVICE_TYPE )
   1782            {
   1783              // Stop polling and get ready to reset
   1784              NLME_SetPollRate( 0 );
   \   000080                ; Setup parameters for call to function NLME_SetPollRate
   \   000080   90....       MOV       DPTR,#__Constant_0
   \   000083   12....       LCALL     ?XLOAD_R2345
   \   000086   12....       LCALL     `??NLME_SetPollRate::?relay`; Banked call to: NLME_SetPollRate
   1785              NLME_SetResponseRate(0);
   \   000089                ; Setup parameters for call to function NLME_SetResponseRate
   \   000089   7A00         MOV       R2,#0x0
   \   00008B   7B00         MOV       R3,#0x0
   \   00008D   12....       LCALL     `??NLME_SetResponseRate::?relay`; Banked call to: NLME_SetResponseRate
   1786              NLME_SetQueuedPollRate(0);
   \   000090                ; Setup parameters for call to function NLME_SetQueuedPollRate
   \   000090   7A00         MOV       R2,#0x0
   \   000092   7B00         MOV       R3,#0x0
   \   000094   12....       LCALL     `??NLME_SetQueuedPollRate::?relay`; Banked call to: NLME_SetQueuedPollRate
   1787            }
   1788          
   1789            ZDP_MgmtLeaveRsp( inMsg->TransSeq, &(inMsg->srcAddr), status, FALSE );
   \   000097                ; Setup parameters for call to function ZDP_SendData
   \   000097   75..00       MOV       ?V2,#0x0
   \   00009A   78..         MOV       R0,#?V2
   \   00009C   12....       LCALL     ?PUSH_XSTACK_I_ONE
   \   00009F   7401         MOV       A,#0x1
   \   0000A1   12....       LCALL     ?XSTACK_DISP100_8
   \   0000A4   88..         MOV       ?V2,R0
   \   0000A6   89..         MOV       ?V3,R1
   \   0000A8   78..         MOV       R0,#?V2
   \   0000AA   12....       LCALL     ?PUSH_XSTACK_I_TWO
   \   0000AD   75..34       MOV       ?V2,#0x34
   \   0000B0   75..80       MOV       ?V3,#-0x80
   \   0000B3   78..         MOV       R0,#?V2
   \   0000B5   12....       LCALL     ?PUSH_XSTACK_I_TWO
   \   0000B8   12....       LCALL     ?Subroutine135 & 0xFFFF
   \                     ??CrossCallReturnLabel_204:
   \   0000BB   12....       LCALL     `??ZDP_SendData::?relay`; Banked call to: ZDP_SendData
   \   0000BE   7405         MOV       A,#0x5
   \   0000C0   12....       LCALL     ?DEALLOC_XSTACK8
   1790          }
   \   0000C3   7406         MOV       A,#0x6
   \   0000C5   02....       LJMP      ?Subroutine4 & 0xFFFF

   \                                 In  segment BANKED_CODE, align 1, keep-with-next
   \                     ??Subroutine247_0:
   \   000000   35..         ADDC      A,?V1
   \   000002   F583         MOV       DPH,A
   \   000004   22           RET

   \                                 In  segment BANKED_CODE, align 1, keep-with-next
   \                     ?Subroutine48:
   \   000000   12....       LCALL     ?Subroutine163 & 0xFFFF
   \                     ??CrossCallReturnLabel_265:
   \   000003   22           RET
   1791          
   1792          
   1793          /*********************************************************************
   1794           * @fn          ZDO_ProcessMgmtPermitJoinReq
   1795           *
   1796           * @brief       This function processes a Management Permit Join Request
   1797           *              and generates the response.
   1798           *
   1799           * @param       inMsg - incoming message (request)
   1800           *
   1801           * @return      none
   1802           */

   \                                 In  segment BANKED_CODE, align 1, keep-with-next
   1803          void ZDO_ProcessMgmtPermitJoinReq( zdoIncomingMsg_t *inMsg )
   \                     ZDO_ProcessMgmtPermitJoinReq:
   1804          {
   \   000000                REQUIRE ?V0
   \   000000                REQUIRE ?V1
   \   000000   74F6         MOV       A,#-0xa
   \   000002   12....       LCALL     ?BANKED_ENTER_XDATA
   \   000005                ; Saved register size: 10
   \   000005                ; Auto size: 1
   \   000005   74FF         MOV       A,#-0x1
   \   000007   12....       LCALL     ?ALLOC_XSTACK8
   \   00000A   12....       LCALL     ?Subroutine77 & 0xFFFF
   1805            uint8 stat;
   1806            uint8 duration;
   1807            uint8 tcsig;
   1808          
   1809            duration = inMsg->asdu[ZDP_MGMT_PERMIT_JOIN_REQ_DURATION];
   \                     ??CrossCallReturnLabel_121:
   \   00000D   F5..         MOV       ?V1,A
   1810            tcsig    = inMsg->asdu[ZDP_MGMT_PERMIT_JOIN_REQ_TC_SIG];
   \   00000F   A3           INC       DPTR
   \   000010   E0           MOVX      A,@DPTR
   \   000011   F5..         MOV       ?V0,A
   1811          
   1812            // Set the network layer permit join duration
   1813            stat = (byte) NLME_PermitJoiningRequest( duration );
   \   000013                ; Setup parameters for call to function NLME_PermitJoiningRequest
   \   000013   A9..         MOV       R1,?V1
   \   000015   12....       LCALL     `??NLME_PermitJoiningRequest::?relay`; Banked call to: NLME_PermitJoiningRequest
   \   000018   E9           MOV       A,R1
   \   000019   85..82       MOV       DPL,?XSP + 0
   \   00001C   85..83       MOV       DPH,?XSP + 1
   \   00001F   F0           MOVX      @DPTR,A
   1814          
   1815            // Handle the Trust Center Significance
   1816            if ( ZG_SECURE_ENABLED && ZG_BUILD_COORDINATOR_TYPE && ZG_DEVICE_COORDINATOR_TYPE )
   \   000020   90....       MOV       DPTR,#zgDeviceLogicalType
   \   000023   E0           MOVX      A,@DPTR
   \   000024   700B         JNZ       ??ZDO_ProcessMgmtPermitJoinReq_0
   1817            {
   1818              if ( tcsig == TRUE )
   \   000026   7401         MOV       A,#0x1
   \   000028   65..         XRL       A,?V0
   \   00002A   7005         JNZ       ??ZDO_ProcessMgmtPermitJoinReq_0
   1819              {
   1820                ZDSecMgrPermitJoining( duration );
   \   00002C                ; Setup parameters for call to function ZDSecMgrPermitJoining
   \   00002C   A9..         MOV       R1,?V1
   \   00002E   12....       LCALL     `??ZDSecMgrPermitJoining::?relay`; Banked call to: ZDSecMgrPermitJoining
   1821              }
   1822            }
   1823          
   1824            // Send a response if unicast
   1825            if ( !inMsg->wasBroadcast )
   \                     ??ZDO_ProcessMgmtPermitJoinReq_0:
   \   000031   EE           MOV       A,R6
   \   000032   240B         ADD       A,#0xb
   \   000034   12....       LCALL     ??Subroutine255_0 & 0xFFFF
   \                     ??CrossCallReturnLabel_569:
   \   000037   702C         JNZ       ??ZDO_ProcessMgmtPermitJoinReq_1
   1826            {
   1827              ZDP_MgmtPermitJoinRsp( inMsg->TransSeq, &(inMsg->srcAddr), stat, false );
   \   000039                ; Setup parameters for call to function ZDP_SendData
   \   000039   75..00       MOV       ?V0,#0x0
   \   00003C   78..         MOV       R0,#?V0
   \   00003E   12....       LCALL     ?PUSH_XSTACK_I_ONE
   \   000041   7401         MOV       A,#0x1
   \   000043   12....       LCALL     ?XSTACK_DISP100_8
   \   000046   88..         MOV       ?V0,R0
   \   000048   89..         MOV       ?V1,R1
   \   00004A   78..         MOV       R0,#?V0
   \   00004C   12....       LCALL     ?PUSH_XSTACK_I_TWO
   \   00004F   75..36       MOV       ?V0,#0x36
   \   000052   75..80       MOV       ?V1,#-0x80
   \   000055   78..         MOV       R0,#?V0
   \   000057   12....       LCALL     ?PUSH_XSTACK_I_TWO
   \   00005A   12....       LCALL     ?Subroutine117 & 0xFFFF
   1828            }
   \                     ??CrossCallReturnLabel_402:
   \   00005D   12....       LCALL     `??ZDP_SendData::?relay`; Banked call to: ZDP_SendData
   \   000060   7405         MOV       A,#0x5
   \   000062   12....       LCALL     ?DEALLOC_XSTACK8
   1829          }
   \                     ??ZDO_ProcessMgmtPermitJoinReq_1:
   \   000065   02....       LJMP      ?Subroutine10 & 0xFFFF
   1830          
   1831          /*
   1832           * This function stub allows the next higher layer to be notified of
   1833           * a permit joining timeout.
   1834           */
   1835          /*********************************************************************
   1836           * @fn          ZDO_ProcessMgmtPermitJoinTimeout
   1837           *
   1838           * @brief       This function stub allows the next higher layer to be
   1839           *              notified of a permit joining timeout. Currently, this
   1840           *              directly bypasses the APS layer.
   1841           *
   1842           * @param       none
   1843           *
   1844           * @return      none
   1845           */

   \                                 In  segment BANKED_CODE, align 1, keep-with-next
   1846          void ZDO_ProcessMgmtPermitJoinTimeout( void )
   \                     NLME_PermitJoiningTimeout:
   1847          {
   \   000000   C082         PUSH      DPL
   \   000002   C083         PUSH      DPH
   \   000004                ; Saved register size: 2
   \   000004                ; Auto size: 0
   1848            #if defined( ZDO_MGMT_PERMIT_JOIN_RESPONSE )
   1849            // Currently, only the ZDSecMgr needs to be notified
   1850            if ( ZG_SECURE_ENABLED && ZG_BUILD_COORDINATOR_TYPE && ZG_DEVICE_COORDINATOR_TYPE )
   \   000004   90....       MOV       DPTR,#zgDeviceLogicalType
   \   000007   E0           MOVX      A,@DPTR
   \   000008   7003         JNZ       ??NLME_PermitJoiningTimeout_0
   1851            {
   1852              ZDSecMgrPermitJoiningTimeout();
   \   00000A                ; Setup parameters for call to function ZDSecMgrPermitJoiningTimeout
   \   00000A   12....       LCALL     `??ZDSecMgrPermitJoiningTimeout::?relay`; Banked call to: ZDSecMgrPermitJoiningTimeout
   1853            }
   1854            #endif
   1855          }
   \                     ??NLME_PermitJoiningTimeout_0:
   \   00000D                REQUIRE ?Subroutine0
   \   00000D                ; // Fall through to label ?Subroutine0
   1856          
   1857          /*********************************************************************
   1858           * @fn          ZDO_ProcessUserDescReq
   1859           *
   1860           * @brief       This function finishes the processing of the User
   1861           *              Descriptor Request and generates the response.
   1862           *
   1863           * @param       inMsg - incoming message (request)
   1864           *
   1865           * @return      none
   1866           */

   \                                 In  segment BANKED_CODE, align 1, keep-with-next
   1867          void ZDO_ProcessUserDescReq( zdoIncomingMsg_t *inMsg )
   \                     ZDO_ProcessUserDescReq:
   1868          {
   \   000000                REQUIRE ?V0
   \   000000                REQUIRE ?V1
   \   000000                REQUIRE ?V2
   \   000000                REQUIRE ?V3
   \   000000   74F4         MOV       A,#-0xc
   \   000002   12....       LCALL     ?BANKED_ENTER_XDATA
   \   000005                ; Saved register size: 12
   \   000005                ; Auto size: 17
   \   000005   74EF         MOV       A,#-0x11
   \   000007   12....       LCALL     ?ALLOC_XSTACK8
   \   00000A   EA           MOV       A,R2
   \   00000B   FE           MOV       R6,A
   \   00000C   EB           MOV       A,R3
   \   00000D   FF           MOV       R7,A
   1869            uint16 aoi = BUILD_UINT16( inMsg->asdu[0], inMsg->asdu[1] );
   \   00000E   12....       LCALL     ?Subroutine67 & 0xFFFF
   \                     ??CrossCallReturnLabel_107:
   \   000011   F5..         MOV       ?V0,A
   \   000013   E4           CLR       A
   \   000014   39           ADDC      A,R1
   \   000015   F5..         MOV       ?V1,A
   1870            UserDescriptorFormat_t userDesc;
   1871          
   1872            if ( (aoi == ZDAppNwkAddr.addr.shortAddr) && (ZSUCCESS == osal_nv_read(
   1873                       ZCD_NV_USERDESC, 0, sizeof(UserDescriptorFormat_t), &userDesc )) )
   \   000017   90....       MOV       DPTR,#ZDAppNwkAddr
   \   00001A   E0           MOVX      A,@DPTR
   \   00001B   65..         XRL       A,?V0
   \   00001D   7004         JNZ       ??ZDO_ProcessUserDescReq_0
   \   00001F   A3           INC       DPTR
   \   000020   E0           MOVX      A,@DPTR
   \   000021   65..         XRL       A,?V1
   \                     ??ZDO_ProcessUserDescReq_0:
   \   000023   7052         JNZ       ??ZDO_ProcessUserDescReq_1
   \   000025                ; Setup parameters for call to function osal_nv_read
   \   000025   A8..         MOV       R0,?XSP + 0
   \   000027   A9..         MOV       R1,?XSP + 1
   \   000029   88..         MOV       ?V2,R0
   \   00002B   89..         MOV       ?V3,R1
   \   00002D   78..         MOV       R0,#?V2
   \   00002F   12....       LCALL     ?PUSH_XSTACK_I_TWO
   \   000032   75..11       MOV       ?V2,#0x11
   \   000035   75..00       MOV       ?V3,#0x0
   \   000038   78..         MOV       R0,#?V2
   \   00003A   12....       LCALL     ?PUSH_XSTACK_I_TWO
   \   00003D   7C00         MOV       R4,#0x0
   \   00003F   7D00         MOV       R5,#0x0
   \   000041   7A81         MOV       R2,#-0x7f
   \   000043   7B00         MOV       R3,#0x0
   \   000045   12....       LCALL     `??osal_nv_read::?relay`; Banked call to: osal_nv_read
   \   000048   7404         MOV       A,#0x4
   \   00004A   12....       LCALL     ?DEALLOC_XSTACK8
   \   00004D   E9           MOV       A,R1
   \   00004E   7027         JNZ       ??ZDO_ProcessUserDescReq_1
   1874            {
   1875              ZDP_UserDescRsp( inMsg->TransSeq, &(inMsg->srcAddr), aoi, &userDesc, false );
   \   000050                ; Setup parameters for call to function ZDP_UserDescRsp
   \   000050   75..00       MOV       ?V2,#0x0
   \   000053   78..         MOV       R0,#?V2
   \   000055   12....       LCALL     ?PUSH_XSTACK_I_ONE
   \   000058   7401         MOV       A,#0x1
   \   00005A   12....       LCALL     ?XSTACK_DISP100_8
   \   00005D   88..         MOV       ?V2,R0
   \   00005F   89..         MOV       ?V3,R1
   \   000061   78..         MOV       R0,#?V2
   \   000063   12....       LCALL     ?PUSH_XSTACK_I_TWO
   \   000066   AC..         MOV       R4,?V0
   \   000068   AD..         MOV       R5,?V1
   \   00006A   12....       LCALL     ?Subroutine116 & 0xFFFF
   1876            }
   \                     ??CrossCallReturnLabel_178:
   \   00006D   12....       LCALL     `??ZDP_UserDescRsp::?relay`; Banked call to: ZDP_UserDescRsp
   \   000070   7403         MOV       A,#0x3
   \   000072   12....       LCALL     ?DEALLOC_XSTACK8
   \   000075   8021         SJMP      ??ZDO_ProcessUserDescReq_2
   1877            else
   1878            {
   1879              ZDP_GenericRsp(inMsg->TransSeq, &(inMsg->srcAddr),
   1880                     ZDP_NOT_SUPPORTED, aoi, User_Desc_rsp, inMsg->SecurityUse );
   \                     ??ZDO_ProcessUserDescReq_1:
   \   000077                ; Setup parameters for call to function ZDP_GenericRsp
   \   000077   75..11       MOV       ?V2,#0x11
   \   00007A   75..80       MOV       ?V3,#-0x80
   \   00007D   78..         MOV       R0,#?V2
   \   00007F   12....       LCALL     ?PUSH_XSTACK_I_TWO
   \   000082   78..         MOV       R0,#?V0
   \   000084   12....       LCALL     ?PUSH_XSTACK_I_TWO
   \   000087   12....       LCALL     ?Subroutine122 & 0xFFFF
   1881            }
   \                     ??CrossCallReturnLabel_578:
   \   00008A   FD           MOV       R5,A
   \   00008B   7C84         MOV       R4,#-0x7c
   \   00008D   12....       LCALL     ?Subroutine116 & 0xFFFF
   \                     ??CrossCallReturnLabel_179:
   \   000090   12....       LCALL     `??ZDP_GenericRsp::?relay`; Banked call to: ZDP_GenericRsp
   \   000093   7404         MOV       A,#0x4
   \   000095   12....       LCALL     ?DEALLOC_XSTACK8
   1882          }
   \                     ??ZDO_ProcessUserDescReq_2:
   \   000098   7411         MOV       A,#0x11
   \   00009A   02....       LJMP      ?Subroutine4 & 0xFFFF
   1883          
   1884          /*********************************************************************
   1885           * @fn          ZDO_ProcessUserDescSet
   1886           *
   1887           * @brief       This function finishes the processing of the User
   1888           *              Descriptor Set and generates the response.
   1889           *
   1890           * @param       inMsg - incoming message (request)
   1891           *
   1892           * @return      none
   1893           */

   \                                 In  segment BANKED_CODE, align 1, keep-with-next
   1894          void ZDO_ProcessUserDescSet( zdoIncomingMsg_t *inMsg )
   \                     ZDO_ProcessUserDescSet:
   1895          {
   \   000000                REQUIRE ?V0
   \   000000                REQUIRE ?V1
   \   000000                REQUIRE ?V2
   \   000000                REQUIRE ?V3
   \   000000                REQUIRE ?V4
   \   000000                REQUIRE ?V5
   \   000000                REQUIRE ?V6
   \   000000   74F1         MOV       A,#-0xf
   \   000002   12....       LCALL     ?BANKED_ENTER_XDATA
   \   000005                ; Saved register size: 15
   \   000005                ; Auto size: 21
   \   000005   74EB         MOV       A,#-0x15
   \   000007   12....       LCALL     ?ALLOC_XSTACK8
   \   00000A   12....       LCALL     ?Subroutine77 & 0xFFFF
   1896            uint8 *msg;
   1897            uint16 aoi;
   1898            UserDescriptorFormat_t userDesc;
   1899            uint8 outMsg[3];
   1900            uint8 status;
   1901          
   1902            msg = inMsg->asdu;
   1903            aoi = BUILD_UINT16( msg[0], msg[1] );
   \                     ??CrossCallReturnLabel_122:
   \   00000D   FC           MOV       R4,A
   \   00000E   A3           INC       DPTR
   \   00000F   E0           MOVX      A,@DPTR
   \   000010   FA           MOV       R2,A
   \   000011   E4           CLR       A
   \   000012   CA           XCH       A,R2
   \   000013   FB           MOV       R3,A
   \   000014   EC           MOV       A,R4
   \   000015   2A           ADD       A,R2
   \   000016   F5..         MOV       ?V0,A
   \   000018   E4           CLR       A
   \   000019   3B           ADDC      A,R3
   \   00001A   F5..         MOV       ?V1,A
   1904          
   1905            if ( aoi == ZDAppNwkAddr.addr.shortAddr )
   \   00001C   90....       MOV       DPTR,#ZDAppNwkAddr
   \   00001F   E0           MOVX      A,@DPTR
   \   000020   65..         XRL       A,?V0
   \   000022   7004         JNZ       ??ZDO_ProcessUserDescSet_0
   \   000024   A3           INC       DPTR
   \   000025   E0           MOVX      A,@DPTR
   \   000026   65..         XRL       A,?V1
   \                     ??ZDO_ProcessUserDescSet_0:
   \   000028   6003         JZ        $+5
   \   00002A   02....       LJMP      ??ZDO_ProcessUserDescSet_1 & 0xFFFF
   1906            {
   1907              userDesc.len = (msg[2] < AF_MAX_USER_DESCRIPTOR_LEN) ? msg[2] : AF_MAX_USER_DESCRIPTOR_LEN;
   \   00002D   8882         MOV       DPL,R0
   \   00002F   8983         MOV       DPH,R1
   \   000031   A3           INC       DPTR
   \   000032   A3           INC       DPTR
   \   000033   E0           MOVX      A,@DPTR
   \   000034   9410         SUBB      A,#0x10
   \   000036   500F         JNC       ??ZDO_ProcessUserDescSet_2
   \   000038   8882         MOV       DPL,R0
   \   00003A   8983         MOV       DPH,R1
   \   00003C   A3           INC       DPTR
   \   00003D   A3           INC       DPTR
   \   00003E   E0           MOVX      A,@DPTR
   \   00003F   85..82       MOV       DPL,?XSP + 0
   \   000042   85..83       MOV       DPH,?XSP + 1
   \   000045   8008         SJMP      ??ZDO_ProcessUserDescSet_3
   \                     ??ZDO_ProcessUserDescSet_2:
   \   000047   85..82       MOV       DPL,?XSP + 0
   \   00004A   85..83       MOV       DPH,?XSP + 1
   \   00004D   7410         MOV       A,#0x10
   \                     ??ZDO_ProcessUserDescSet_3:
   \   00004F   F0           MOVX      @DPTR,A
   \   000050   E0           MOVX      A,@DPTR
   \   000051   C0E0         PUSH      A
   \   000053   7404         MOV       A,#0x4
   \   000055   12....       LCALL     ?XSTACK_DISP0_8
   \   000058   D0E0         POP       A
   \   00005A   12....       LCALL     ?Subroutine45 & 0xFFFF
   1908              msg ++;  // increment one for the length field
   1909          
   1910              osal_memcpy( userDesc.desc, &msg[2], userDesc.len );
   \                     ??CrossCallReturnLabel_65:
   \   00005D   A982         MOV       R1,DPL
   \   00005F   AA83         MOV       R2,DPH
   \   000061   89..         MOV       ?V4,R1
   \   000063   8A..         MOV       ?V5,R2
   \   000065   75..00       MOV       ?V6,#0x0
   \   000068   78..         MOV       R0,#?V4
   \   00006A   12....       LCALL     ?PUSH_XSTACK_I_THREE
   \   00006D   7407         MOV       A,#0x7
   \   00006F   12....       LCALL     ?XSTACK_DISP0_8
   \   000072   E0           MOVX      A,@DPTR
   \   000073   FC           MOV       R4,A
   \   000074   7D00         MOV       R5,#0x0
   \   000076   7408         MOV       A,#0x8
   \   000078   12....       LCALL     ?XSTACK_DISP0_8
   \   00007B   AA82         MOV       R2,DPL
   \   00007D   AB83         MOV       R3,DPH
   \   00007F   12....       LCALL     `??osal_memcpy::?relay`; Banked call to: osal_memcpy
   \   000082   7403         MOV       A,#0x3
   \   000084   12....       LCALL     ?DEALLOC_XSTACK8
   1911              osal_nv_write( ZCD_NV_USERDESC, 0, sizeof(UserDescriptorFormat_t), &userDesc );
   \   000087                ; Setup parameters for call to function osal_nv_write
   \   000087   7404         MOV       A,#0x4
   \   000089   12....       LCALL     ?XSTACK_DISP100_8
   \   00008C   88..         MOV       ?V2,R0
   \   00008E   89..         MOV       ?V3,R1
   \   000090   78..         MOV       R0,#?V2
   \   000092   12....       LCALL     ?PUSH_XSTACK_I_TWO
   \   000095   75..11       MOV       ?V2,#0x11
   \   000098   75..00       MOV       ?V3,#0x0
   \   00009B   78..         MOV       R0,#?V2
   \   00009D   12....       LCALL     ?PUSH_XSTACK_I_TWO
   \   0000A0   7C00         MOV       R4,#0x0
   \   0000A2   7D00         MOV       R5,#0x0
   \   0000A4   7A81         MOV       R2,#-0x7f
   \   0000A6   7B00         MOV       R3,#0x0
   \   0000A8   12....       LCALL     `??osal_nv_write::?relay`; Banked call to: osal_nv_write
   \   0000AB   7404         MOV       A,#0x4
   \   0000AD   12....       LCALL     ?DEALLOC_XSTACK8
   1912              if ( userDesc.len != 0 )
   \   0000B0   7404         MOV       A,#0x4
   \   0000B2   12....       LCALL     ?XSTACK_DISP0_8
   \   0000B5   E0           MOVX      A,@DPTR
   \   0000B6   90....       MOV       DPTR,#ZDO_Config_Node_Descriptor
   \   0000B9   6005         JZ        ??ZDO_ProcessUserDescSet_4
   1913              {
   1914                ZDO_Config_Node_Descriptor.UserDescAvail = TRUE;
   \   0000BB   E0           MOVX      A,@DPTR
   \   0000BC   D2E4         SETB      0xE0 /* A   */.4
   \   0000BE   8003         SJMP      ??ZDO_ProcessUserDescSet_5
   1915              }
   1916              else
   1917              {
   1918                ZDO_Config_Node_Descriptor.UserDescAvail = FALSE;
   \                     ??ZDO_ProcessUserDescSet_4:
   \   0000C0   E0           MOVX      A,@DPTR
   \   0000C1   C2E4         CLR       0xE0 /* A   */.4
   1919              }
   1920          
   1921              status = ZDP_SUCCESS;
   1922            }
   \                     ??ZDO_ProcessUserDescSet_5:
   \   0000C3   12....       LCALL     ?Subroutine36 & 0xFFFF
   \                     ??CrossCallReturnLabel_45:
   \   0000C6   E4           CLR       A
   \   0000C7   8008         SJMP      ??ZDO_ProcessUserDescSet_6
   1923            else
   1924            {
   1925              status =  ZDP_NOT_SUPPORTED;
   \                     ??ZDO_ProcessUserDescSet_1:
   \   0000C9   85..82       MOV       DPL,?XSP + 0
   \   0000CC   85..83       MOV       DPH,?XSP + 1
   \   0000CF   7484         MOV       A,#-0x7c
   \                     ??ZDO_ProcessUserDescSet_6:
   \   0000D1   F0           MOVX      @DPTR,A
   1926            }
   1927          
   1928            outMsg[0] = status;
   \   0000D2   E0           MOVX      A,@DPTR
   \   0000D3   C0E0         PUSH      A
   \   0000D5   7401         MOV       A,#0x1
   \   0000D7   12....       LCALL     ?XSTACK_DISP0_8
   \   0000DA   D0E0         POP       A
   \   0000DC   F0           MOVX      @DPTR,A
   1929            outMsg[1] = LO_UINT16( aoi );
   \   0000DD   7402         MOV       A,#0x2
   \   0000DF   12....       LCALL     ?XSTACK_DISP0_8
   \   0000E2   E5..         MOV       A,?V0
   \   0000E4   F0           MOVX      @DPTR,A
   1930            outMsg[2] = LO_UINT16( aoi );
   \   0000E5   7403         MOV       A,#0x3
   \   0000E7   12....       LCALL     ?XSTACK_DISP0_8
   \   0000EA   E5..         MOV       A,?V0
   \   0000EC   F0           MOVX      @DPTR,A
   1931          
   1932            ZDP_SendData( &(inMsg->TransSeq), &(inMsg->srcAddr), User_Desc_conf, 3, outMsg,
   1933                         inMsg->SecurityUse );
   \   0000ED                ; Setup parameters for call to function ZDP_SendData
   \   0000ED   12....       LCALL     ?Subroutine133 & 0xFFFF
   \                     ??CrossCallReturnLabel_650:
   \   0000F0   3F           ADDC      A,R7
   \   0000F1   12....       LCALL     ??Subroutine251_0 & 0xFFFF
   \                     ??CrossCallReturnLabel_548:
   \   0000F4   12....       LCALL     ?PUSH_XSTACK_I_ONE
   \   0000F7   7402         MOV       A,#0x2
   \   0000F9   12....       LCALL     ?XSTACK_DISP100_8
   \   0000FC   88..         MOV       ?V0,R0
   \   0000FE   89..         MOV       ?V1,R1
   \   000100   78..         MOV       R0,#?V0
   \   000102   12....       LCALL     ?PUSH_XSTACK_I_TWO
   \   000105   75..14       MOV       ?V0,#0x14
   \   000108   75..80       MOV       ?V1,#-0x80
   \   00010B   78..         MOV       R0,#?V0
   \   00010D   12....       LCALL     ?PUSH_XSTACK_I_TWO
   \   000110   7903         MOV       R1,#0x3
   \   000112   12....       LCALL     ??Subroutine226_0 & 0xFFFF
   \                     ??CrossCallReturnLabel_400:
   \   000115   12....       LCALL     `??ZDP_SendData::?relay`; Banked call to: ZDP_SendData
   \   000118   7405         MOV       A,#0x5
   \   00011A   12....       LCALL     ?DEALLOC_XSTACK8
   1934          }
   \   00011D   7415         MOV       A,#0x15
   \   00011F   02....       LJMP      ?Subroutine7 & 0xFFFF

   \                                 In  segment BANKED_CODE, align 1, keep-with-next
   \                     ?Subroutine45:
   \   000000   12....       LCALL     ?Subroutine166 & 0xFFFF
   \                     ??CrossCallReturnLabel_272:
   \   000003   22           RET

   \                                 In  segment BANKED_CODE, align 1, keep-with-next
   \                     ?Subroutine166:
   \   000000   12....       LCALL     ?Subroutine194 & 0xFFFF
   \                     ??CrossCallReturnLabel_315:
   \   000003   22           RET

   \                                 In  segment BANKED_CODE, align 1, keep-with-next
   \                     ?Subroutine194:
   \   000000   12....       LCALL     ?Subroutine201 & 0xFFFF
   \                     ??CrossCallReturnLabel_325:
   \   000003   A3           INC       DPTR
   \   000004   A3           INC       DPTR
   \   000005   A3           INC       DPTR
   \   000006   22           RET

   \                                 In  segment BANKED_CODE, align 1, keep-with-next
   \                     ?Subroutine133:
   \   000000   EE           MOV       A,R6
   \   000001                REQUIRE ??Subroutine263_0
   \   000001                ; // Fall through to label ??Subroutine263_0

   \                                 In  segment BANKED_CODE, align 1, keep-with-next
   \                     ??Subroutine263_0:
   \   000000   240E         ADD       A,#0xe
   \   000002   F582         MOV       DPL,A
   \   000004   E4           CLR       A
   \   000005   22           RET
   1935          
   1936          /*********************************************************************
   1937           * @fn          ZDO_ProcessDeviceAnnce
   1938           *
   1939           * @brief       This function processes a device annouce message.
   1940           *
   1941           * @param       inMsg - incoming message
   1942           *
   1943           * @return      none
   1944           */

   \                                 In  segment BANKED_CODE, align 1, keep-with-next
   1945          void ZDO_ProcessDeviceAnnce( zdoIncomingMsg_t *inMsg )
   \                     ZDO_ProcessDeviceAnnce:
   1946          {
   \   000000                REQUIRE ?V0
   \   000000                REQUIRE ?V1
   \   000000   74F6         MOV       A,#-0xa
   \   000002   12....       LCALL     ?BANKED_ENTER_XDATA
   \   000005                ; Saved register size: 10
   \   000005                ; Auto size: 32
   \   000005   74E0         MOV       A,#-0x20
   \   000007   12....       LCALL     ?ALLOC_XSTACK8
   \   00000A   EA           MOV       A,R2
   \   00000B   FE           MOV       R6,A
   \   00000C   EB           MOV       A,R3
   \   00000D   FF           MOV       R7,A
   1947            ZDO_DeviceAnnce_t Annce;
   1948            AddrMgrEntry_t addrEntry;
   1949            uint8 parentExt[Z_EXTADDR_LEN];
   1950          
   1951            if ( (_NIB.nwkState != NWK_ROUTER) && (_NIB.nwkState != NWK_ENDDEVICE) )
   \   00000E   90....       MOV       DPTR,#_NIB + 35
   \   000011   E0           MOVX      A,@DPTR
   \   000012   6408         XRL       A,#0x8
   \   000014   6008         JZ        ??ZDO_ProcessDeviceAnnce_0
   \   000016   E0           MOVX      A,@DPTR
   \   000017   6404         XRL       A,#0x4
   \   000019   6003         JZ        $+5
   \   00001B   02....       LJMP      ??ZDO_ProcessDeviceAnnce_1 & 0xFFFF
   1952            {
   1953              // we arent stable, ignore the message
   1954              return;
   1955            }
   1956            
   1957            // Parse incoming message
   1958            ZDO_ParseDeviceAnnce( inMsg, &Annce );
   \                     ??ZDO_ProcessDeviceAnnce_0:
   \   00001E                ; Setup parameters for call to function ZDO_ParseDeviceAnnce
   \   00001E   AC..         MOV       R4,?XSP + 0
   \   000020   AD..         MOV       R5,?XSP + 1
   \   000022   12....       LCALL     `??ZDO_ParseDeviceAnnce::?relay`; Banked call to: ZDO_ParseDeviceAnnce
   1959          
   1960            if ( ZSTACK_END_DEVICE_BUILD )
   \   000025   90....       MOV       DPTR,#zgDeviceLogicalType
   \   000028   E0           MOVX      A,@DPTR
   \   000029   6402         XRL       A,#0x2
   \   00002B   702F         JNZ       ??ZDO_ProcessDeviceAnnce_2
   1961            {
   1962              // Make sure the message didn't come from myself - end device only
   1963              if ( osal_ExtAddrEqual( NLME_GetExtAddr(), Annce.extAddr ) && Annce.nwkAddr == NLME_GetShortAddr() )
   \   00002D                ; Setup parameters for call to function NLME_GetExtAddr
   \   00002D   12....       LCALL     `??NLME_GetExtAddr::?relay`; Banked call to: NLME_GetExtAddr
   \   000030                ; Setup parameters for call to function sAddrExtCmp
   \   000030   7402         MOV       A,#0x2
   \   000032   12....       LCALL     ?XSTACK_DISP0_8
   \   000035   AC82         MOV       R4,DPL
   \   000037   AD83         MOV       R5,DPH
   \   000039   12....       LCALL     `??sAddrExtCmp::?relay`; Banked call to: sAddrExtCmp
   \   00003C   E9           MOV       A,R1
   \   00003D   601D         JZ        ??ZDO_ProcessDeviceAnnce_2
   \   00003F                ; Setup parameters for call to function NLME_GetShortAddr
   \   00003F   12....       LCALL     `??NLME_GetShortAddr::?relay`; Banked call to: NLME_GetShortAddr
   \   000042   8A..         MOV       ?V0,R2
   \   000044   8B..         MOV       ?V1,R3
   \   000046   A8..         MOV       R0,?V0
   \   000048   A9..         MOV       R1,?V1
   \   00004A   85..82       MOV       DPL,?XSP + 0
   \   00004D   85..83       MOV       DPH,?XSP + 1
   \   000050   E0           MOVX      A,@DPTR
   \   000051   68           XRL       A,R0
   \   000052   7003         JNZ       ??ZDO_ProcessDeviceAnnce_3
   \   000054   A3           INC       DPTR
   \   000055   E0           MOVX      A,@DPTR
   \   000056   69           XRL       A,R1
   \                     ??ZDO_ProcessDeviceAnnce_3:
   \   000057   7003         JNZ       $+5
   \   000059   02....       LJMP      ??ZDO_ProcessDeviceAnnce_1 & 0xFFFF
   1964              {
   1965                return;
   1966              }
   1967            }
   1968          
   1969          #if defined ( ZIGBEEPRO )
   1970            // Clean up the neighbor table
   1971            nwkNeighborRemoveAllStranded();
   \                     ??ZDO_ProcessDeviceAnnce_2:
   \   00005C                ; Setup parameters for call to function nwkNeighborRemoveAllStranded
   \   00005C   12....       LCALL     `??nwkNeighborRemoveAllStranded::?relay`; Banked call to: nwkNeighborRemoveAllStranded
   1972          
   1973            // If address conflict is detected, no need to update the address manager
   1974            if ( NLME_CheckNewAddrSet( Annce.nwkAddr, Annce.extAddr )== ZFailure )
   \   00005F                ; Setup parameters for call to function NLME_CheckNewAddrSet
   \   00005F   7402         MOV       A,#0x2
   \   000061   12....       LCALL     ?XSTACK_DISP0_8
   \   000064   AC82         MOV       R4,DPL
   \   000066   AD83         MOV       R5,DPH
   \   000068   12....       LCALL     ?Subroutine102 & 0xFFFF
   \                     ??CrossCallReturnLabel_515:
   \   00006B   12....       LCALL     `??NLME_CheckNewAddrSet::?relay`; Banked call to: NLME_CheckNewAddrSet
   \   00006E   E9           MOV       A,R1
   \   00006F   6401         XRL       A,#0x1
   \   000071   7003         JNZ       $+5
   \   000073   02....       LJMP      ??ZDO_ProcessDeviceAnnce_1 & 0xFFFF
   1975            {
   1976              return;
   1977            }
   1978          
   1979            // Check for parent's address
   1980            NLME_GetCoordExtAddr( parentExt );
   \   000076                ; Setup parameters for call to function NLME_GetCoordExtAddr
   \   000076   7418         MOV       A,#0x18
   \   000078   12....       LCALL     ?XSTACK_DISP101_8
   \   00007B   12....       LCALL     `??NLME_GetCoordExtAddr::?relay`; Banked call to: NLME_GetCoordExtAddr
   1981            if ( osal_ExtAddrEqual( parentExt, Annce.extAddr ) )
   \   00007E                ; Setup parameters for call to function sAddrExtCmp
   \   00007E   7402         MOV       A,#0x2
   \   000080   12....       LCALL     ?XSTACK_DISP0_8
   \   000083   AC82         MOV       R4,DPL
   \   000085   AD83         MOV       R5,DPH
   \   000087   7418         MOV       A,#0x18
   \   000089   12....       LCALL     ?XSTACK_DISP101_8
   \   00008C   12....       LCALL     `??sAddrExtCmp::?relay`; Banked call to: sAddrExtCmp
   \   00008F   E9           MOV       A,R1
   \   000090   602C         JZ        ??ZDO_ProcessDeviceAnnce_4
   1982            {
   1983              if ( Annce.nwkAddr != NLME_GetCoordShortAddr() )
   \   000092                ; Setup parameters for call to function NLME_GetCoordShortAddr
   \   000092   12....       LCALL     `??NLME_GetCoordShortAddr::?relay`; Banked call to: NLME_GetCoordShortAddr
   \   000095   8A..         MOV       ?V0,R2
   \   000097   8B..         MOV       ?V1,R3
   \   000099   A8..         MOV       R0,?V0
   \   00009B   A9..         MOV       R1,?V1
   \   00009D   85..82       MOV       DPL,?XSP + 0
   \   0000A0   85..83       MOV       DPH,?XSP + 1
   \   0000A3   E0           MOVX      A,@DPTR
   \   0000A4   68           XRL       A,R0
   \   0000A5   7003         JNZ       ??ZDO_ProcessDeviceAnnce_5
   \   0000A7   A3           INC       DPTR
   \   0000A8   E0           MOVX      A,@DPTR
   \   0000A9   69           XRL       A,R1
   \                     ??ZDO_ProcessDeviceAnnce_5:
   \   0000AA   6012         JZ        ??ZDO_ProcessDeviceAnnce_4
   1984              {
   1985                // Set the Parent's MAC's new short address
   1986                _NIB.nwkCoordAddress = Annce.nwkAddr;
   \   0000AC   12....       LCALL     ?Subroutine105 & 0xFFFF
   \                     ??CrossCallReturnLabel_428:
   \   0000AF   90....       MOV       DPTR,#_NIB + 23
   \   0000B2   12....       LCALL     ??Subroutine221_0 & 0xFFFF
   1987                ZMacSetReq( ZMacCoordShortAddress, (byte*)&(_NIB.nwkCoordAddress) );
   \                     ??CrossCallReturnLabel_380:
   \   0000B5                ; Setup parameters for call to function ZMacSetReq
   \   0000B5   7A..         MOV       R2,#(_NIB + 23) & 0xff
   \   0000B7   7B..         MOV       R3,#((_NIB + 23) >> 8) & 0xff
   \   0000B9   794B         MOV       R1,#0x4b
   \   0000BB   12....       LCALL     `??ZMacSetReq::?relay`; Banked call to: ZMacSetReq
   1988              }
   1989            }
   1990          
   1991            if ( ZSTACK_ROUTER_BUILD )
   \                     ??ZDO_ProcessDeviceAnnce_4:
   \   0000BE   90....       MOV       DPTR,#zgDeviceLogicalType
   \   0000C1   E0           MOVX      A,@DPTR
   \   0000C2   6004         JZ        ??ZDO_ProcessDeviceAnnce_6
   \   0000C4   6401         XRL       A,#0x1
   \   0000C6   7073         JNZ       ??ZDO_ProcessDeviceAnnce_7
   1992            {
   1993              // If the device annce comes from a end device child that has moved
   1994              // to another parent, remove it from associated device list
   1995          
   1996              // If the dev annce is coming from other device's children,
   1997              // (The dev annce from its own children shall be unicast to itself,
   1998              // So check the mac destination address)
   1999              // Remove it from the associated device list. If it is not
   2000              // a child, no action will be taken in AssocRemove() anyway.
   2001              if ( inMsg->macDestAddr != NLME_GetShortAddr() )
   \                     ??ZDO_ProcessDeviceAnnce_6:
   \   0000C8                ; Setup parameters for call to function NLME_GetShortAddr
   \   0000C8   12....       LCALL     `??NLME_GetShortAddr::?relay`; Banked call to: NLME_GetShortAddr
   \   0000CB   8A..         MOV       ?V0,R2
   \   0000CD   8B..         MOV       ?V1,R3
   \   0000CF   A8..         MOV       R0,?V0
   \   0000D1   A9..         MOV       R1,?V1
   \   0000D3   EE           MOV       A,R6
   \   0000D4   2411         ADD       A,#0x11
   \   0000D6   12....       LCALL     ??Subroutine255_0 & 0xFFFF
   \                     ??CrossCallReturnLabel_570:
   \   0000D9   68           XRL       A,R0
   \   0000DA   7003         JNZ       ??ZDO_ProcessDeviceAnnce_8
   \   0000DC   A3           INC       DPTR
   \   0000DD   E0           MOVX      A,@DPTR
   \   0000DE   69           XRL       A,R1
   \                     ??ZDO_ProcessDeviceAnnce_8:
   \   0000DF   605A         JZ        ??ZDO_ProcessDeviceAnnce_7
   2002              {
   2003                associated_devices_t *dev_ptr;
   2004          
   2005                // If it's an end device child
   2006                dev_ptr = AssocGetWithExt( Annce.extAddr );
   \   0000E1                ; Setup parameters for call to function AssocGetWithExt
   \   0000E1   7402         MOV       A,#0x2
   \   0000E3   12....       LCALL     ?XSTACK_DISP0_8
   \   0000E6   AA82         MOV       R2,DPL
   \   0000E8   AB83         MOV       R3,DPH
   \   0000EA   12....       LCALL     `??AssocGetWithExt::?relay`; Banked call to: AssocGetWithExt
   \   0000ED   8A..         MOV       ?V0,R2
   \   0000EF   8B..         MOV       ?V1,R3
   \   0000F1   A8..         MOV       R0,?V0
   \   0000F3   A9..         MOV       R1,?V1
   2007                if ( dev_ptr )
   \   0000F5   E8           MOV       A,R0
   \   0000F6   49           ORL       A,R1
   \   0000F7   6026         JZ        ??ZDO_ProcessDeviceAnnce_9
   2008                {
   2009                  if ( dev_ptr->nodeRelation == CHILD_RFD ||
   2010                       dev_ptr->nodeRelation == CHILD_RFD_RX_IDLE )
   \   0000F9   8882         MOV       DPL,R0
   \   0000FB   8983         MOV       DPH,R1
   \   0000FD   A3           INC       DPTR
   \   0000FE   A3           INC       DPTR
   \   0000FF   A3           INC       DPTR
   \   000100   A3           INC       DPTR
   \   000101   E0           MOVX      A,@DPTR
   \   000102   6401         XRL       A,#0x1
   \   000104   600D         JZ        ??ZDO_ProcessDeviceAnnce_10
   \   000106   8882         MOV       DPL,R0
   \   000108   8983         MOV       DPH,R1
   \   00010A   A3           INC       DPTR
   \   00010B   A3           INC       DPTR
   \   00010C   A3           INC       DPTR
   \   00010D   A3           INC       DPTR
   \   00010E   E0           MOVX      A,@DPTR
   \   00010F   6402         XRL       A,#0x2
   \   000111   700C         JNZ       ??ZDO_ProcessDeviceAnnce_9
   2011                  {
   2012                    AssocRemove( Annce.extAddr );
   \                     ??ZDO_ProcessDeviceAnnce_10:
   \   000113                ; Setup parameters for call to function AssocRemove
   \   000113   7402         MOV       A,#0x2
   \   000115   12....       LCALL     ?XSTACK_DISP0_8
   \   000118   AA82         MOV       R2,DPL
   \   00011A   AB83         MOV       R3,DPH
   \   00011C   12....       LCALL     `??AssocRemove::?relay`; Banked call to: AssocRemove
   2013                  }
   2014                }
   2015          
   2016                // Remove the address from the SrcMatch table,
   2017                // just in case the device was aged out by Child Management Table process
   2018                if ( ( pNwkNotMyChildListDelete != NULL ) &&
   2019                     ( zgChildAgingEnable == TRUE ) )
   \                     ??ZDO_ProcessDeviceAnnce_9:
   \   00011F   90....       MOV       DPTR,#pNwkNotMyChildListDelete
   \   000122   12....       LCALL     ??Subroutine231_0 & 0xFFFF
   \                     ??CrossCallReturnLabel_439:
   \   000125   6014         JZ        ??ZDO_ProcessDeviceAnnce_7
   \   000127   90....       MOV       DPTR,#zgChildAgingEnable
   \   00012A   E0           MOVX      A,@DPTR
   \   00012B   6401         XRL       A,#0x1
   \   00012D   700C         JNZ       ??ZDO_ProcessDeviceAnnce_7
   2020                {
   2021                  pNwkNotMyChildListDelete( Annce.nwkAddr );
   \   00012F                ; Setup parameters for indirect call
   \   00012F   12....       LCALL     ?Subroutine102 & 0xFFFF
   2022                }
   2023              }
   2024            }
   \                     ??CrossCallReturnLabel_516:
   \   000132   90....       MOV       DPTR,#pNwkNotMyChildListDelete + 1
   \   000135   12....       LCALL     ??Subroutine209_0 & 0xFFFF
   \                     ??CrossCallReturnLabel_396:
   \   000138   12....       LCALL     ?CALL_IND
   2025          
   2026            // Assume that the device has moved, remove existing routing entries
   2027            RTG_RemoveRtgEntry( Annce.nwkAddr, 0 );
   \                     ??ZDO_ProcessDeviceAnnce_7:
   \   00013B                ; Setup parameters for call to function RTG_RemoveRtgEntry
   \   00013B   7900         MOV       R1,#0x0
   \   00013D   12....       LCALL     ?Subroutine102 & 0xFFFF
   \                     ??CrossCallReturnLabel_517:
   \   000140   12....       LCALL     `??RTG_RemoveRtgEntry::?relay`; Banked call to: RTG_RemoveRtgEntry
   2028          
   2029            // Remove entry from neighborTable
   2030            nwkNeighborRemove( Annce.nwkAddr, _NIB.nwkPanId );
   \   000143                ; Setup parameters for call to function nwkNeighborRemove
   \   000143   90....       MOV       DPTR,#_NIB + 33
   \   000146   12....       LCALL     ??Subroutine228_0 & 0xFFFF
   \                     ??CrossCallReturnLabel_411:
   \   000149   FD           MOV       R5,A
   \   00014A   12....       LCALL     ?Subroutine102 & 0xFFFF
   \                     ??CrossCallReturnLabel_518:
   \   00014D   12....       LCALL     `??nwkNeighborRemove::?relay`; Banked call to: nwkNeighborRemove
   2031          
   2032          #endif // ZIGBEEPRO
   2033          
   2034            // Fill in the extended address in address manager if we don't have it already.
   2035            addrEntry.user = ADDRMGR_USER_DEFAULT;
   \   000150   740B         MOV       A,#0xb
   \   000152   12....       LCALL     ?XSTACK_DISP0_8
   \   000155   E4           CLR       A
   \   000156   12....       LCALL     ?Subroutine30 & 0xFFFF
   2036            addrEntry.nwkAddr = Annce.nwkAddr;
   \                     ??CrossCallReturnLabel_36:
   \   000159   740C         MOV       A,#0xc
   \   00015B   12....       LCALL     ?XSTACK_DISP0_8
   \   00015E   12....       LCALL     ??Subroutine221_0 & 0xFFFF
   2037            if ( AddrMgrEntryLookupNwk( &addrEntry ) )
   \                     ??CrossCallReturnLabel_381:
   \   000161                ; Setup parameters for call to function AddrMgrEntryLookupNwk
   \   000161   740B         MOV       A,#0xb
   \   000163   12....       LCALL     ?XSTACK_DISP101_8
   \   000166   12....       LCALL     `??AddrMgrEntryLookupNwk::?relay`; Banked call to: AddrMgrEntryLookupNwk
   \   000169   E9           MOV       A,R1
   \   00016A   603F         JZ        ??ZDO_ProcessDeviceAnnce_11
   2038            {
   2039              osal_memset( parentExt, 0, Z_EXTADDR_LEN );
   \   00016C                ; Setup parameters for call to function osal_memset
   \   00016C   7C08         MOV       R4,#0x8
   \   00016E   7D00         MOV       R5,#0x0
   \   000170   7900         MOV       R1,#0x0
   \   000172   7418         MOV       A,#0x18
   \   000174   12....       LCALL     ?XSTACK_DISP101_8
   \   000177   12....       LCALL     `??osal_memset::?relay`; Banked call to: osal_memset
   2040              if ( osal_ExtAddrEqual( parentExt, addrEntry.extAddr ) )
   \   00017A                ; Setup parameters for call to function sAddrExtCmp
   \   00017A   740E         MOV       A,#0xe
   \   00017C   12....       LCALL     ?XSTACK_DISP0_8
   \   00017F   AC82         MOV       R4,DPL
   \   000181   AD83         MOV       R5,DPH
   \   000183   7418         MOV       A,#0x18
   \   000185   12....       LCALL     ?XSTACK_DISP101_8
   \   000188   12....       LCALL     `??sAddrExtCmp::?relay`; Banked call to: sAddrExtCmp
   \   00018B   E9           MOV       A,R1
   \   00018C   601D         JZ        ??ZDO_ProcessDeviceAnnce_11
   2041              {
   2042                AddrMgrExtAddrSet( addrEntry.extAddr, Annce.extAddr );
   \   00018E                ; Setup parameters for call to function AddrMgrExtAddrSet
   \   00018E   7402         MOV       A,#0x2
   \   000190   12....       LCALL     ?XSTACK_DISP0_8
   \   000193   AC82         MOV       R4,DPL
   \   000195   AD83         MOV       R5,DPH
   \   000197   740E         MOV       A,#0xe
   \   000199   12....       LCALL     ?XSTACK_DISP0_8
   \   00019C   AA82         MOV       R2,DPL
   \   00019E   AB83         MOV       R3,DPH
   \   0001A0   12....       LCALL     `??AddrMgrExtAddrSet::?relay`; Banked call to: AddrMgrExtAddrSet
   2043                AddrMgrEntryUpdate( &addrEntry );
   \   0001A3                ; Setup parameters for call to function AddrMgrEntryUpdate
   \   0001A3   740B         MOV       A,#0xb
   \   0001A5   12....       LCALL     ?XSTACK_DISP101_8
   \   0001A8   12....       LCALL     `??AddrMgrEntryUpdate::?relay`; Banked call to: AddrMgrEntryUpdate
   2044              }
   2045            }
   2046          
   2047            // Update the short address in address manager if it's been changed
   2048            AddrMgrExtAddrSet( addrEntry.extAddr, Annce.extAddr );
   \                     ??ZDO_ProcessDeviceAnnce_11:
   \   0001AB                ; Setup parameters for call to function AddrMgrExtAddrSet
   \   0001AB   7402         MOV       A,#0x2
   \   0001AD   12....       LCALL     ?XSTACK_DISP0_8
   \   0001B0   AC82         MOV       R4,DPL
   \   0001B2   AD83         MOV       R5,DPH
   \   0001B4   740E         MOV       A,#0xe
   \   0001B6   12....       LCALL     ?XSTACK_DISP0_8
   \   0001B9   AA82         MOV       R2,DPL
   \   0001BB   AB83         MOV       R3,DPH
   \   0001BD   12....       LCALL     `??AddrMgrExtAddrSet::?relay`; Banked call to: AddrMgrExtAddrSet
   2049            if ( AddrMgrEntryLookupExt( &addrEntry ) )
   \   0001C0                ; Setup parameters for call to function AddrMgrEntryLookupExt
   \   0001C0   740B         MOV       A,#0xb
   \   0001C2   12....       LCALL     ?XSTACK_DISP101_8
   \   0001C5   12....       LCALL     `??AddrMgrEntryLookupExt::?relay`; Banked call to: AddrMgrEntryLookupExt
   \   0001C8   E9           MOV       A,R1
   \   0001C9   602A         JZ        ??ZDO_ProcessDeviceAnnce_1
   2050            {
   2051              if ( addrEntry.nwkAddr != Annce.nwkAddr )
   \   0001CB   740C         MOV       A,#0xc
   \   0001CD   12....       LCALL     ?XSTACK_DISP0_8
   \   0001D0   12....       LCALL     ??Subroutine229_0 & 0xFFFF
   \                     ??CrossCallReturnLabel_423:
   \   0001D3   85..82       MOV       DPL,?XSP + 0
   \   0001D6   85..83       MOV       DPH,?XSP + 1
   \   0001D9   E0           MOVX      A,@DPTR
   \   0001DA   68           XRL       A,R0
   \   0001DB   7003         JNZ       ??ZDO_ProcessDeviceAnnce_12
   \   0001DD   A3           INC       DPTR
   \   0001DE   E0           MOVX      A,@DPTR
   \   0001DF   69           XRL       A,R1
   \                     ??ZDO_ProcessDeviceAnnce_12:
   \   0001E0   6013         JZ        ??ZDO_ProcessDeviceAnnce_1
   2052              {
   2053                addrEntry.nwkAddr = Annce.nwkAddr;
   \   0001E2   12....       LCALL     ?Subroutine105 & 0xFFFF
   \                     ??CrossCallReturnLabel_429:
   \   0001E5   740C         MOV       A,#0xc
   \   0001E7   12....       LCALL     ?XSTACK_DISP0_8
   \   0001EA   12....       LCALL     ??Subroutine221_0 & 0xFFFF
   2054                AddrMgrEntryUpdate( &addrEntry );
   \                     ??CrossCallReturnLabel_382:
   \   0001ED                ; Setup parameters for call to function AddrMgrEntryUpdate
   \   0001ED   740B         MOV       A,#0xb
   \   0001EF   12....       LCALL     ?XSTACK_DISP101_8
   \   0001F2   12....       LCALL     `??AddrMgrEntryUpdate::?relay`; Banked call to: AddrMgrEntryUpdate
   2055              }
   2056            }
   2057          }
   \                     ??ZDO_ProcessDeviceAnnce_1:
   \   0001F5   7420         MOV       A,#0x20
   \   0001F7   02....       LJMP      ??Subroutine206_0 & 0xFFFF
   2058          
   2059          /*********************************************************************
   2060           * @fn          ZDO_ProcessParentAnnce
   2061           *
   2062           * @brief       This function processes a Parent annouce message.
   2063           *
   2064           * @param       inMsg - incoming message
   2065           *
   2066           * @return      none
   2067           */

   \                                 In  segment BANKED_CODE, align 1, keep-with-next
   2068          void ZDO_ProcessParentAnnce( zdoIncomingMsg_t *inMsg )
   \                     ZDO_ProcessParentAnnce:
   2069          {
   \   000000                REQUIRE ?V0
   \   000000                REQUIRE ?V1
   \   000000                REQUIRE ?V2
   \   000000                REQUIRE ?V3
   \   000000                REQUIRE ?V4
   \   000000                REQUIRE ?V5
   \   000000                REQUIRE ?V6
   \   000000                REQUIRE ?V7
   \   000000                REQUIRE ?V8
   \   000000                REQUIRE ?V9
   \   000000                REQUIRE ?V10
   \   000000                REQUIRE ?V11
   \   000000                REQUIRE ?V12
   \   000000                REQUIRE ?V13
   \   000000                REQUIRE ?V14
   \   000000                REQUIRE ?V15
   \   000000   74E8         MOV       A,#-0x18
   \   000002   12....       LCALL     ?BANKED_ENTER_XDATA
   \   000005                ; Saved register size: 24
   \   000005                ; Auto size: 9
   \   000005   74F7         MOV       A,#-0x9
   \   000007   12....       LCALL     ?ALLOC_XSTACK8
   \   00000A   8A..         MOV       ?V14,R2
   \   00000C   8B..         MOV       ?V15,R3
   2070            ZDO_ParentAnnce_t *parentAnnce;
   2071            uint8 x;
   2072            uint8 childCount = 0;
   \   00000E   7F00         MOV       R7,#0x0
   2073            uint32 localAge;
   2074          
   2075            ZDO_ChildInfoList_t *listHead = NULL;
   \   000010   8F..         MOV       ?V0,R7
   \   000012   8F..         MOV       ?V1,R7
   2076            ZDO_ChildInfoList_t *listTail;
   2077            ZDO_ChildInfoList_t *newNode;
   2078          
   2079            // Parse incoming message, memory is allocated by the parse function,
   2080            // it should be free after processing the message
   2081            parentAnnce = ZDO_ParseParentAnnce( inMsg );
   \   000014                ; Setup parameters for call to function ZDO_ParseParentAnnce
   \   000014   12....       LCALL     `??ZDO_ParseParentAnnce::?relay`; Banked call to: ZDO_ParseParentAnnce
   \   000017   8A..         MOV       ?V10,R2
   \   000019   8B..         MOV       ?V11,R3
   2082          
   2083            if ( parentAnnce != NULL )
   \   00001B   EA           MOV       A,R2
   \   00001C   45..         ORL       A,?V11
   \   00001E   7003         JNZ       $+5
   \   000020   02....       LJMP      ??ZDO_ProcessParentAnnce_0 & 0xFFFF
   2084            {
   2085              for ( x = 0; x < parentAnnce->numOfChildren; x++ )
   \   000023   7E00         MOV       R6,#0x0
   \   000025   800D         SJMP      ??ZDO_ProcessParentAnnce_1
   2086              {
   2087                associated_devices_t *dev_ptr;
   2088                localAge = 0xFFFFFFFF;
   2089          
   2090                // If it's an End Device child
   2091                dev_ptr = AssocGetWithExt( parentAnnce->childInfo[x].extAddr );
   2092          
   2093                if ( dev_ptr )
   2094                {
   2095                  if ( dev_ptr->nodeRelation == CHILD_RFD ||
   2096                       dev_ptr->nodeRelation == CHILD_RFD_RX_IDLE )
   2097                  {
   2098                    if ( dev_ptr->keepaliveRcv == TRUE )
   2099                    {
   2100                      localAge = dev_ptr->endDev.deviceTimeout - dev_ptr->timeoutCounter;
   2101                    }
   2102          
   2103                    if ( localAge < parentAnnce->childInfo[x].age )
   2104                    {
   2105                      // Add one element to the list
   2106                      newNode = (ZDO_ChildInfoList_t *)osal_mem_alloc( sizeof(ZDO_ChildInfoList_t) );
   2107          
   2108                      osal_cpyExtAddr( newNode->child.extAddr, parentAnnce->childInfo[x].extAddr );
   2109          
   2110                      newNode->child.age = localAge;
   2111          
   2112                      newNode->next = NULL;
   2113          
   2114                      if ( listHead == NULL )
   2115                      {
   2116                        // Initialize the head of the list
   2117                        listHead = listTail = newNode;
   2118                      }
   2119                      else
   2120                      {
   2121                        // Add new element to the end
   2122                        listTail->next = newNode;
   2123          
   2124                        listTail = listTail->next;
   2125                      }
   2126          
   2127                      childCount++;
   2128                    }
   2129                    else
   2130                    {
   2131                      AssocRemove( parentAnnce->childInfo[x].extAddr );
   \                     ??ZDO_ProcessParentAnnce_2:
   \   000027                ; Setup parameters for call to function AssocRemove
   \   000027   EE           MOV       A,R6
   \   000028   75F00C       MOV       B,#0xc
   \   00002B   A4           MUL       AB
   \   00002C   F8           MOV       R0,A
   \   00002D   12....       LCALL     ?Subroutine130 & 0xFFFF
   2132                    }
   \                     ??CrossCallReturnLabel_456:
   \   000030   12....       LCALL     `??AssocRemove::?relay`; Banked call to: AssocRemove
   \                     ??ZDO_ProcessParentAnnce_3:
   \   000033   0E           INC       R6
   \                     ??ZDO_ProcessParentAnnce_1:
   \   000034   85..82       MOV       DPL,?V10
   \   000037   85..83       MOV       DPH,?V11
   \   00003A   E0           MOVX      A,@DPTR
   \   00003B   F8           MOV       R0,A
   \   00003C   EE           MOV       A,R6
   \   00003D   C3           CLR       C
   \   00003E   98           SUBB      A,R0
   \   00003F   4003         JC        $+5
   \   000041   02....       LJMP      ??ZDO_ProcessParentAnnce_4 & 0xFFFF
   \   000044   75..FF       MOV       ?V4,#-0x1
   \   000047   75..FF       MOV       ?V5,#-0x1
   \   00004A   75..FF       MOV       ?V6,#-0x1
   \   00004D   75..FF       MOV       ?V7,#-0x1
   \   000050                ; Setup parameters for call to function AssocGetWithExt
   \   000050   EE           MOV       A,R6
   \   000051   75F00C       MOV       B,#0xc
   \   000054   A4           MUL       AB
   \   000055   F8           MOV       R0,A
   \   000056   A9F0         MOV       R1,B
   \   000058   12....       LCALL     ?Subroutine130 & 0xFFFF
   \                     ??CrossCallReturnLabel_457:
   \   00005B   12....       LCALL     `??AssocGetWithExt::?relay`; Banked call to: AssocGetWithExt
   \   00005E   EA           MOV       A,R2
   \   00005F   4B           ORL       A,R3
   \   000060   60D1         JZ        ??ZDO_ProcessParentAnnce_3
   \   000062   8A82         MOV       DPL,R2
   \   000064   8B83         MOV       DPH,R3
   \   000066   A3           INC       DPTR
   \   000067   A3           INC       DPTR
   \   000068   A3           INC       DPTR
   \   000069   A3           INC       DPTR
   \   00006A   E0           MOVX      A,@DPTR
   \   00006B   6401         XRL       A,#0x1
   \   00006D   600D         JZ        ??ZDO_ProcessParentAnnce_5
   \   00006F   8A82         MOV       DPL,R2
   \   000071   8B83         MOV       DPH,R3
   \   000073   A3           INC       DPTR
   \   000074   A3           INC       DPTR
   \   000075   A3           INC       DPTR
   \   000076   A3           INC       DPTR
   \   000077   E0           MOVX      A,@DPTR
   \   000078   6402         XRL       A,#0x2
   \   00007A   70B7         JNZ       ??ZDO_ProcessParentAnnce_3
   \                     ??ZDO_ProcessParentAnnce_5:
   \   00007C   12....       LCALL     ?Subroutine151 & 0xFFFF
   \                     ??CrossCallReturnLabel_241:
   \   00007F   700C         JNZ       ??ZDO_ProcessParentAnnce_6
   \   000081   12....       LCALL     ?Subroutine125 & 0xFFFF
   \                     ??CrossCallReturnLabel_186:
   \   000084   12....       LCALL     ?L_MOV_X
   \   000087   12....       LCALL     ?Subroutine148 & 0xFFFF
   \                     ??CrossCallReturnLabel_235:
   \   00008A   12....       LCALL     ?L_SUB_X
   \                     ??ZDO_ProcessParentAnnce_6:
   \   00008D   EE           MOV       A,R6
   \   00008E   75F00C       MOV       B,#0xc
   \   000091   A4           MUL       AB
   \   000092   F8           MOV       R0,A
   \   000093   A9F0         MOV       R1,B
   \   000095   E5..         MOV       A,?V10
   \   000097   28           ADD       A,R0
   \   000098   F582         MOV       DPL,A
   \   00009A   E5..         MOV       A,?V11
   \   00009C   12....       LCALL     ?Subroutine132 & 0xFFFF
   \                     ??CrossCallReturnLabel_199:
   \   00009F   12....       LCALL     ?UL_GE_X
   \   0000A2   4083         JC        ??ZDO_ProcessParentAnnce_2
   \   0000A4                ; Setup parameters for call to function osal_mem_alloc
   \   0000A4   7A0E         MOV       R2,#0xe
   \   0000A6   7B00         MOV       R3,#0x0
   \   0000A8   12....       LCALL     `??osal_mem_alloc::?relay`; Banked call to: osal_mem_alloc
   \   0000AB   8A..         MOV       ?V2,R2
   \   0000AD   8B..         MOV       ?V3,R3
   \   0000AF                ; Setup parameters for call to function sAddrExtCpy
   \   0000AF   EE           MOV       A,R6
   \   0000B0   75F00C       MOV       B,#0xc
   \   0000B3   A4           MUL       AB
   \   0000B4   F8           MOV       R0,A
   \   0000B5   A9F0         MOV       R1,B
   \   0000B7   E5..         MOV       A,?V10
   \   0000B9   28           ADD       A,R0
   \   0000BA   F582         MOV       DPL,A
   \   0000BC   E5..         MOV       A,?V11
   \   0000BE   39           ADDC      A,R1
   \   0000BF   F583         MOV       DPH,A
   \   0000C1   A3           INC       DPTR
   \   0000C2   AC82         MOV       R4,DPL
   \   0000C4   AD83         MOV       R5,DPH
   \   0000C6   12....       LCALL     `??sAddrExtCpy::?relay`; Banked call to: sAddrExtCpy
   \   0000C9   85..82       MOV       DPL,?V2
   \   0000CC   85..83       MOV       DPH,?V3
   \   0000CF   A3           INC       DPTR
   \   0000D0   A3           INC       DPTR
   \   0000D1   A3           INC       DPTR
   \   0000D2   A3           INC       DPTR
   \   0000D3   A3           INC       DPTR
   \   0000D4   A3           INC       DPTR
   \   0000D5   A3           INC       DPTR
   \   0000D6   A3           INC       DPTR
   \   0000D7   78..         MOV       R0,#?V4
   \   0000D9   12....       LCALL     ?L_MOV_TO_X
   \   0000DC   E5..         MOV       A,?V2
   \   0000DE   240C         ADD       A,#0xc
   \   0000E0   12....       LCALL     ?Subroutine143 & 0xFFFF
   \                     ??CrossCallReturnLabel_333:
   \   0000E3   E4           CLR       A
   \   0000E4   F0           MOVX      @DPTR,A
   \   0000E5   A3           INC       DPTR
   \   0000E6   F0           MOVX      @DPTR,A
   \   0000E7   E5..         MOV       A,?V0
   \   0000E9   45..         ORL       A,?V1
   \   0000EB   700E         JNZ       ??ZDO_ProcessParentAnnce_7
   \   0000ED   85....       MOV       ?V8,?V2
   \   0000F0   85....       MOV       ?V9,?V3
   \   0000F3   85....       MOV       ?V0,?V8
   \   0000F6   85....       MOV       ?V1,?V9
   \   0000F9   801C         SJMP      ??ZDO_ProcessParentAnnce_8
   \                     ??ZDO_ProcessParentAnnce_7:
   \   0000FB   E5..         MOV       A,?V8
   \   0000FD   240C         ADD       A,#0xc
   \   0000FF   F8           MOV       R0,A
   \   000100   E4           CLR       A
   \   000101   35..         ADDC      A,?V9
   \   000103   F9           MOV       R1,A
   \   000104   8882         MOV       DPL,R0
   \   000106   8983         MOV       DPH,R1
   \   000108   E5..         MOV       A,?V2
   \   00010A   F0           MOVX      @DPTR,A
   \   00010B   A3           INC       DPTR
   \   00010C   E5..         MOV       A,?V3
   \   00010E   12....       LCALL     ?Subroutine161 & 0xFFFF
   \                     ??CrossCallReturnLabel_259:
   \   000111   F5..         MOV       ?V8,A
   \   000113   A3           INC       DPTR
   \   000114   E0           MOVX      A,@DPTR
   \   000115   F5..         MOV       ?V9,A
   \                     ??ZDO_ProcessParentAnnce_8:
   \   000117   0F           INC       R7
   \   000118   02....       LJMP      ??ZDO_ProcessParentAnnce_3 & 0xFFFF
   2133                  }
   2134                }
   2135              }
   2136          
   2137              // If the device has children that match some in the received list,
   2138              // it should send a unicast Parent_Annce_rsp message.
   2139              if ( childCount > 0 )
   \                     ??ZDO_ProcessParentAnnce_4:
   \   00011B   EF           MOV       A,R7
   \   00011C   7003         JNZ       $+5
   \   00011E   02....       LJMP      ??ZDO_ProcessParentAnnce_9 & 0xFFFF
   2140              {
   2141                ZDO_ChildInfo_t *childInfo;
   2142                zAddrType_t dstAddr;
   2143          
   2144                dstAddr.addrMode = (afAddrMode_t)Addr16Bit;
   \   000121   7408         MOV       A,#0x8
   \   000123   12....       LCALL     ?XSTACK_DISP0_8
   \   000126   7402         MOV       A,#0x2
   \   000128   12....       LCALL     ?Subroutine25 & 0xFFFF
   2145                dstAddr.addr.shortAddr = inMsg->srcAddr.addr.shortAddr;
   \                     ??CrossCallReturnLabel_26:
   \   00012B   85..82       MOV       DPL,?XSP + 0
   \   00012E   85..83       MOV       DPH,?XSP + 1
   \   000131   12....       LCALL     ??Subroutine221_0 & 0xFFFF
   2146          
   2147                x = 0;
   \                     ??CrossCallReturnLabel_383:
   \   000134   7E00         MOV       R6,#0x0
   2148          
   2149                childInfo = (ZDO_ChildInfo_t *)osal_mem_alloc( childCount * sizeof(ZDO_ChildInfo_t) );
   \   000136                ; Setup parameters for call to function osal_mem_alloc
   \   000136   EF           MOV       A,R7
   \   000137   75F00C       MOV       B,#0xc
   \   00013A   A4           MUL       AB
   \   00013B   FA           MOV       R2,A
   \   00013C   ABF0         MOV       R3,B
   \   00013E   12....       LCALL     `??osal_mem_alloc::?relay`; Banked call to: osal_mem_alloc
   \   000141   8A..         MOV       ?V4,R2
   \   000143   8B..         MOV       ?V5,R3
   2150          
   2151                if ( childInfo != NULL )
   \   000145   EA           MOV       A,R2
   \   000146   45..         ORL       A,?V5
   \   000148   7003         JNZ       $+5
   \   00014A   02....       LJMP      ??ZDO_ProcessParentAnnce_9 & 0xFFFF
   \   00014D   8058         SJMP      ??ZDO_ProcessParentAnnce_10
   2152                {
   2153                  // Copy the content of the link list into this buffer
   2154                  while ( listHead != NULL )
   2155                  {
   2156                    listTail = listHead;
   \                     ??ZDO_ProcessParentAnnce_11:
   \   00014F   85....       MOV       ?V8,?V0
   \   000152   85....       MOV       ?V9,?V1
   2157          
   2158                    osal_cpyExtAddr( childInfo[x].extAddr,  listHead->child.extAddr );
   \   000155   EE           MOV       A,R6
   \   000156   75F00C       MOV       B,#0xc
   \   000159   A4           MUL       AB
   \   00015A   F8           MOV       R0,A
   \   00015B   A9F0         MOV       R1,B
   \   00015D   E5..         MOV       A,?V4
   \   00015F   28           ADD       A,R0
   \   000160   F5..         MOV       ?V2,A
   \   000162   E5..         MOV       A,?V5
   \   000164   39           ADDC      A,R1
   \   000165   F5..         MOV       ?V3,A
   \   000167                ; Setup parameters for call to function sAddrExtCpy
   \   000167   AC..         MOV       R4,?V0
   \   000169   AD..         MOV       R5,?V1
   \   00016B   AA..         MOV       R2,?V2
   \   00016D   FB           MOV       R3,A
   \   00016E   12....       LCALL     `??sAddrExtCpy::?relay`; Banked call to: sAddrExtCpy
   2159                    childInfo[x].age = listHead->child.age;
   \   000171   85..82       MOV       DPL,?V0
   \   000174   85..83       MOV       DPH,?V1
   \   000177   A3           INC       DPTR
   \   000178   A3           INC       DPTR
   \   000179   A3           INC       DPTR
   \   00017A   A3           INC       DPTR
   \   00017B   A3           INC       DPTR
   \   00017C   A3           INC       DPTR
   \   00017D   A3           INC       DPTR
   \   00017E   A3           INC       DPTR
   \   00017F   12....       LCALL     ?XLOAD_R0123
   \   000182   85..82       MOV       DPL,?V2
   \   000185   85..83       MOV       DPH,?V3
   \   000188   A3           INC       DPTR
   \   000189   A3           INC       DPTR
   \   00018A   A3           INC       DPTR
   \   00018B   A3           INC       DPTR
   \   00018C   A3           INC       DPTR
   \   00018D   A3           INC       DPTR
   \   00018E   A3           INC       DPTR
   \   00018F   A3           INC       DPTR
   \   000190   12....       LCALL     ?XSTORE_R0123
   2160          
   2161                    x++;
   \   000193   0E           INC       R6
   2162          
   2163                    listHead = listTail->next;
   \   000194   E5..         MOV       A,?V8
   \   000196   240C         ADD       A,#0xc
   \   000198   F582         MOV       DPL,A
   \   00019A   E4           CLR       A
   \   00019B   35..         ADDC      A,?V9
   \   00019D   12....       LCALL     ??Subroutine233_0 & 0xFFFF
   2164          
   2165                    // Free this element of the link list
   2166                    osal_mem_free( listTail );
   \                     ??CrossCallReturnLabel_460:
   \   0001A0                ; Setup parameters for call to function osal_mem_free
   \   0001A0   AA..         MOV       R2,?V8
   \   0001A2   AB..         MOV       R3,?V9
   \   0001A4   12....       LCALL     `??osal_mem_free::?relay`; Banked call to: osal_mem_free
   2167                  }
   \                     ??ZDO_ProcessParentAnnce_10:
   \   0001A7   E5..         MOV       A,?V0
   \   0001A9   45..         ORL       A,?V1
   \   0001AB   70A2         JNZ       ??ZDO_ProcessParentAnnce_11
   2168          
   2169                  ZDP_ParentAnnceRsp( (inMsg->TransSeq), dstAddr, childCount,
   2170                                      ((uint8 *)childInfo), 0 );
   \   0001AD                ; Setup parameters for call to function ZDP_ParentAnnce
   \   0001AD   75..00       MOV       ?V0,#0x0
   \   0001B0   78..         MOV       R0,#?V0
   \   0001B2   12....       LCALL     ?PUSH_XSTACK_I_ONE
   \   0001B5   75..1F       MOV       ?V0,#0x1f
   \   0001B8   75..80       MOV       ?V1,#-0x80
   \   0001BB   78..         MOV       R0,#?V0
   \   0001BD   12....       LCALL     ?PUSH_XSTACK_I_TWO
   \   0001C0   78..         MOV       R0,#?V4
   \   0001C2   12....       LCALL     ?PUSH_XSTACK_I_TWO
   \   0001C5   EF           MOV       A,R7
   \   0001C6   F9           MOV       R1,A
   \   0001C7   7405         MOV       A,#0x5
   \   0001C9   12....       LCALL     ?XSTACK_DISP102_8
   \   0001CC   E5..         MOV       A,?V14
   \   0001CE   240F         ADD       A,#0xf
   \   0001D0   FA           MOV       R2,A
   \   0001D1   E4           CLR       A
   \   0001D2   35..         ADDC      A,?V15
   \   0001D4   FB           MOV       R3,A
   \   0001D5   12....       LCALL     `??ZDP_ParentAnnce::?relay`; Banked call to: ZDP_ParentAnnce
   \   0001D8   7405         MOV       A,#0x5
   \   0001DA   12....       LCALL     ?DEALLOC_XSTACK8
   2171                }
   2172              }
   2173          
   2174              // Free memory allocated by parsing function
   2175              osal_mem_free( parentAnnce );
   \                     ??ZDO_ProcessParentAnnce_9:
   \   0001DD                ; Setup parameters for call to function osal_mem_free
   \   0001DD   AA..         MOV       R2,?V10
   \   0001DF   AB..         MOV       R3,?V11
   \   0001E1   12....       LCALL     `??osal_mem_free::?relay`; Banked call to: osal_mem_free
   2176            }
   2177          }
   \                     ??ZDO_ProcessParentAnnce_0:
   \   0001E4   7409         MOV       A,#0x9
   \   0001E6   02....       LJMP      ?Subroutine6 & 0xFFFF

   \                                 In  segment BANKED_CODE, align 1, keep-with-next
   \                     ?Subroutine130:
   \   000000   E5..         MOV       A,?V10
   \   000002   28           ADD       A,R0
   \   000003   F582         MOV       DPL,A
   \   000005   E5..         MOV       A,?V11
   \   000007                REQUIRE ??Subroutine232_0
   \   000007                ; // Fall through to label ??Subroutine232_0

   \                                 In  segment BANKED_CODE, align 1, keep-with-next
   \                     ??Subroutine232_0:
   \   000000   39           ADDC      A,R1
   \   000001   F583         MOV       DPH,A
   \   000003   A3           INC       DPTR
   \   000004   AA82         MOV       R2,DPL
   \   000006   AB83         MOV       R3,DPH
   \   000008   22           RET

   \                                 In  segment BANKED_CODE, align 1, keep-with-next
   \                     ?Subroutine151:
   \   000000   EA           MOV       A,R2
   \   000001   241B         ADD       A,#0x1b
   \   000003   F582         MOV       DPL,A
   \   000005   E4           CLR       A
   \   000006   3B           ADDC      A,R3
   \   000007   F583         MOV       DPH,A
   \   000009   E0           MOVX      A,@DPTR
   \   00000A   6401         XRL       A,#0x1
   \   00000C   22           RET

   \                                 In  segment BANKED_CODE, align 1, keep-with-next
   \                     ?Subroutine148:
   \   000000   EA           MOV       A,R2
   \   000001   2417         ADD       A,#0x17
   \   000003   F582         MOV       DPL,A
   \   000005   E4           CLR       A
   \   000006   3B           ADDC      A,R3
   \   000007   F583         MOV       DPH,A
   \   000009   78..         MOV       R0,#?V4
   \   00000B   22           RET

   \                                 In  segment BANKED_CODE, align 1, keep-with-next
   \                     ?Subroutine132:
   \   000000   39           ADDC      A,R1
   \   000001   F583         MOV       DPH,A
   \   000003   A3           INC       DPTR
   \   000004   A3           INC       DPTR
   \   000005   A3           INC       DPTR
   \   000006   A3           INC       DPTR
   \   000007   A3           INC       DPTR
   \   000008   A3           INC       DPTR
   \   000009   A3           INC       DPTR
   \   00000A   A3           INC       DPTR
   \   00000B   A3           INC       DPTR
   \   00000C   78..         MOV       R0,#?V4
   \   00000E   22           RET

   \                                 In  segment BANKED_CODE, align 1, keep-with-next
   \                     ?Subroutine125:
   \   000000   12....       LCALL     ?Subroutine185 & 0xFFFF
   \                     ??CrossCallReturnLabel_300:
   \   000003   78..         MOV       R0,#?V4
   \   000005   22           RET

   \                                 In  segment BANKED_CODE, align 1, keep-with-next
   \                     ?Subroutine203:
   \   000000   EA           MOV       A,R2
   \   000001                REQUIRE ??Subroutine267_0
   \   000001                ; // Fall through to label ??Subroutine267_0

   \                                 In  segment BANKED_CODE, align 1, keep-with-next
   \                     ?Subroutine185:
   \   000000   12....       LCALL     ?Subroutine203 & 0xFFFF
   \                     ??CrossCallReturnLabel_665:
   \   000003   3B           ADDC      A,R3
   \   000004   F583         MOV       DPH,A
   \   000006   22           RET
   2178          
   2179          /*********************************************************************
   2180           * @fn          ZDO_ProcessParentAnnceRsp
   2181           *
   2182           * @brief       This function processes a Parent annouce response message.
   2183           *
   2184           * @param       inMsg - incoming message
   2185           *
   2186           * @return      none
   2187           */

   \                                 In  segment BANKED_CODE, align 1, keep-with-next
   2188          void ZDO_ProcessParentAnnceRsp( zdoIncomingMsg_t *inMsg )
   \                     ZDO_ProcessParentAnnceRsp:
   2189          {
   \   000000                REQUIRE ?V0
   \   000000                REQUIRE ?V1
   \   000000                REQUIRE ?V2
   \   000000                REQUIRE ?V3
   \   000000                REQUIRE ?V4
   \   000000                REQUIRE ?V5
   \   000000                REQUIRE ?V6
   \   000000                REQUIRE ?V7
   \   000000   74F0         MOV       A,#-0x10
   \   000002   12....       LCALL     ?BANKED_ENTER_XDATA
   \   000005                ; Saved register size: 16
   \   000005                ; Auto size: 0
   2190            ZDO_ParentAnnce_t *parentAnnce;
   2191            uint8 x;
   2192            uint32 localAge;
   2193          
   2194            // Parse incoming message, memory is allocated by the parse function,
   2195            // it should be free after processing the message
   2196            parentAnnce = ZDO_ParseParentAnnce( inMsg );
   \   000005                ; Setup parameters for call to function ZDO_ParseParentAnnce
   \   000005   12....       LCALL     `??ZDO_ParseParentAnnce::?relay`; Banked call to: ZDO_ParseParentAnnce
   \   000008   8A..         MOV       ?V0,R2
   \   00000A   8B..         MOV       ?V1,R3
   \   00000C   AE..         MOV       R6,?V0
   \   00000E   AF..         MOV       R7,?V1
   2197          
   2198            if ( parentAnnce != NULL )
   \   000010   EE           MOV       A,R6
   \   000011   4F           ORL       A,R7
   \   000012   7003         JNZ       $+5
   \   000014   02....       LJMP      ??ZDO_ProcessParentAnnceRsp_0 & 0xFFFF
   2199            {
   2200              for ( x = 0; x < parentAnnce->numOfChildren; x++ )
   \   000017   75..00       MOV       ?V0,#0x0
   \   00001A   8079         SJMP      ??ZDO_ProcessParentAnnceRsp_1
   2201              {
   2202                associated_devices_t *dev_ptr;
   2203                localAge = 0xFFFFFFFF;
   \                     ??ZDO_ProcessParentAnnceRsp_2:
   \   00001C   75..FF       MOV       ?V4,#-0x1
   \   00001F   75..FF       MOV       ?V5,#-0x1
   \   000022   75..FF       MOV       ?V6,#-0x1
   \   000025   75..FF       MOV       ?V7,#-0x1
   2204          
   2205                // If it's an End Device child
   2206                dev_ptr = AssocGetWithExt( parentAnnce->childInfo[x].extAddr );
   \   000028                ; Setup parameters for call to function AssocGetWithExt
   \   000028   E5..         MOV       A,?V0
   \   00002A   75F00C       MOV       B,#0xc
   \   00002D   A4           MUL       AB
   \   00002E   F8           MOV       R0,A
   \   00002F   A9F0         MOV       R1,B
   \   000031   EE           MOV       A,R6
   \   000032   28           ADD       A,R0
   \   000033   F582         MOV       DPL,A
   \   000035   EF           MOV       A,R7
   \   000036   12....       LCALL     ??Subroutine232_0 & 0xFFFF
   \                     ??CrossCallReturnLabel_454:
   \   000039   12....       LCALL     `??AssocGetWithExt::?relay`; Banked call to: AssocGetWithExt
   2207          
   2208                if ( dev_ptr )
   \   00003C   EA           MOV       A,R2
   \   00003D   4B           ORL       A,R3
   \   00003E   6053         JZ        ??ZDO_ProcessParentAnnceRsp_3
   2209                {
   2210                  if ( dev_ptr->nodeRelation == CHILD_RFD ||
   2211                       dev_ptr->nodeRelation == CHILD_RFD_RX_IDLE )
   \   000040   8A82         MOV       DPL,R2
   \   000042   8B83         MOV       DPH,R3
   \   000044   A3           INC       DPTR
   \   000045   A3           INC       DPTR
   \   000046   A3           INC       DPTR
   \   000047   A3           INC       DPTR
   \   000048   E0           MOVX      A,@DPTR
   \   000049   6401         XRL       A,#0x1
   \   00004B   600D         JZ        ??ZDO_ProcessParentAnnceRsp_4
   \   00004D   8A82         MOV       DPL,R2
   \   00004F   8B83         MOV       DPH,R3
   \   000051   A3           INC       DPTR
   \   000052   A3           INC       DPTR
   \   000053   A3           INC       DPTR
   \   000054   A3           INC       DPTR
   \   000055   E0           MOVX      A,@DPTR
   \   000056   6402         XRL       A,#0x2
   \   000058   7039         JNZ       ??ZDO_ProcessParentAnnceRsp_3
   2212                  {
   2213                    if ( dev_ptr->keepaliveRcv == TRUE )
   \                     ??ZDO_ProcessParentAnnceRsp_4:
   \   00005A   12....       LCALL     ?Subroutine151 & 0xFFFF
   \                     ??CrossCallReturnLabel_242:
   \   00005D   700C         JNZ       ??ZDO_ProcessParentAnnceRsp_5
   2214                    {
   2215                      localAge = dev_ptr->endDev.deviceTimeout - dev_ptr->timeoutCounter;
   \   00005F   12....       LCALL     ?Subroutine125 & 0xFFFF
   2216                    }
   \                     ??CrossCallReturnLabel_187:
   \   000062   12....       LCALL     ?L_MOV_X
   \   000065   12....       LCALL     ?Subroutine148 & 0xFFFF
   \                     ??CrossCallReturnLabel_236:
   \   000068   12....       LCALL     ?L_SUB_X
   2217          
   2218                    if ( localAge >= parentAnnce->childInfo[x].age )
   \                     ??ZDO_ProcessParentAnnceRsp_5:
   \   00006B   E5..         MOV       A,?V0
   \   00006D   75F00C       MOV       B,#0xc
   \   000070   A4           MUL       AB
   \   000071   F8           MOV       R0,A
   \   000072   A9F0         MOV       R1,B
   \   000074   EE           MOV       A,R6
   \   000075   28           ADD       A,R0
   \   000076   F582         MOV       DPL,A
   \   000078   EF           MOV       A,R7
   \   000079   12....       LCALL     ?Subroutine132 & 0xFFFF
   \                     ??CrossCallReturnLabel_200:
   \   00007C   12....       LCALL     ?UL_GE_X
   \   00007F   5012         JNC       ??ZDO_ProcessParentAnnceRsp_3
   2219                    {
   2220                      AssocRemove( parentAnnce->childInfo[x].extAddr );
   \   000081                ; Setup parameters for call to function AssocRemove
   \   000081   E5..         MOV       A,?V0
   \   000083   75F00C       MOV       B,#0xc
   \   000086   A4           MUL       AB
   \   000087   F8           MOV       R0,A
   \   000088   EE           MOV       A,R6
   \   000089   28           ADD       A,R0
   \   00008A   F582         MOV       DPL,A
   \   00008C   EF           MOV       A,R7
   \   00008D   12....       LCALL     ??Subroutine232_0 & 0xFFFF
   2221                    }
   2222                  }
   2223                }
   2224              }
   \                     ??CrossCallReturnLabel_455:
   \   000090   12....       LCALL     `??AssocRemove::?relay`; Banked call to: AssocRemove
   \                     ??ZDO_ProcessParentAnnceRsp_3:
   \   000093   05..         INC       ?V0
   \                     ??ZDO_ProcessParentAnnceRsp_1:
   \   000095   8E82         MOV       DPL,R6
   \   000097   8F83         MOV       DPH,R7
   \   000099   E0           MOVX      A,@DPTR
   \   00009A   F8           MOV       R0,A
   \   00009B   E5..         MOV       A,?V0
   \   00009D   C3           CLR       C
   \   00009E   98           SUBB      A,R0
   \   00009F   5003         JNC       $+5
   \   0000A1   02....       LJMP      ??ZDO_ProcessParentAnnceRsp_2 & 0xFFFF
   2225          
   2226              // Free memory allocated by parsing function
   2227              osal_mem_free( parentAnnce );
   \   0000A4                ; Setup parameters for call to function osal_mem_free
   \   0000A4   EE           MOV       A,R6
   \   0000A5   FA           MOV       R2,A
   \   0000A6   EF           MOV       A,R7
   \   0000A7   FB           MOV       R3,A
   \   0000A8   12....       LCALL     `??osal_mem_free::?relay`; Banked call to: osal_mem_free
   2228            }
   2229          }
   \                     ??ZDO_ProcessParentAnnceRsp_0:
   \   0000AB   02....       LJMP      ??Subroutine204_0 & 0xFFFF
   2230          
   2231          /*********************************************************************
   2232           * @fn          ZDO_BuildSimpleDescBuf
   2233           *
   2234           * @brief       Build a byte sequence representation of a Simple Descriptor.
   2235           *
   2236           * @param       buf  - pointer to a byte array big enough for data.
   2237           * @param       desc - SimpleDescriptionFormat_t *
   2238           *
   2239           * @return      none
   2240           */

   \                                 In  segment BANKED_CODE, align 1, keep-with-next
   2241          void ZDO_BuildSimpleDescBuf( uint8 *buf, SimpleDescriptionFormat_t *desc )
   \                     ZDO_BuildSimpleDescBuf:
   2242          {
   \   000000                REQUIRE ?V0
   \   000000                REQUIRE ?V1
   \   000000   74F6         MOV       A,#-0xa
   \   000002   12....       LCALL     ?BANKED_ENTER_XDATA
   \   000005                ; Saved register size: 10
   \   000005                ; Auto size: 0
   2243            byte cnt;
   2244            uint16 *ptr;
   2245          
   2246            *buf++ = desc->EndPoint;
   \   000005   8C82         MOV       DPL,R4
   \   000007   8D83         MOV       DPH,R5
   \   000009   12....       LCALL     ??Subroutine235_0 & 0xFFFF
   \                     ??CrossCallReturnLabel_463:
   \   00000C   F0           MOVX      @DPTR,A
   2247            *buf++ = HI_UINT16( desc->AppProfId );
   \   00000D   8C82         MOV       DPL,R4
   \   00000F   8D83         MOV       DPH,R5
   \   000011   A3           INC       DPTR
   \   000012   A882         MOV       R0,DPL
   \   000014   A983         MOV       R1,DPH
   \   000016   12....       LCALL     ?Subroutine96 & 0xFFFF
   \                     ??CrossCallReturnLabel_464:
   \   000019   12....       LCALL     ?Subroutine31 & 0xFFFF
   2248            *buf++ = LO_UINT16( desc->AppProfId );
   \                     ??CrossCallReturnLabel_38:
   \   00001C   F0           MOVX      @DPTR,A
   2249            *buf++ = HI_UINT16( desc->AppDeviceId );
   \   00001D   EC           MOV       A,R4
   \   00001E   2403         ADD       A,#0x3
   \   000020   F8           MOV       R0,A
   \   000021   E4           CLR       A
   \   000022   3D           ADDC      A,R5
   \   000023   F9           MOV       R1,A
   \   000024   8882         MOV       DPL,R0
   \   000026   8983         MOV       DPH,R1
   \   000028   12....       LCALL     ?Subroutine96 & 0xFFFF
   \                     ??CrossCallReturnLabel_465:
   \   00002B   A3           INC       DPTR
   \   00002C   A3           INC       DPTR
   \   00002D   12....       LCALL     ?Subroutine31 & 0xFFFF
   2250            *buf++ = LO_UINT16( desc->AppDeviceId );
   \                     ??CrossCallReturnLabel_39:
   \   000030   12....       LCALL     ?Subroutine46 & 0xFFFF
   2251          
   2252            *buf++ = (byte)(desc->AppDevVer << 4);
   \                     ??CrossCallReturnLabel_68:
   \   000033   E0           MOVX      A,@DPTR
   \   000034   C4           SWAP      A
   \   000035   54F0         ANL       A,#0xf0
   \   000037   8A82         MOV       DPL,R2
   \   000039   8B83         MOV       DPH,R3
   \   00003B   A3           INC       DPTR
   \   00003C   A3           INC       DPTR
   \   00003D   A3           INC       DPTR
   \   00003E   12....       LCALL     ?Subroutine46 & 0xFFFF
   2253          
   2254            *buf++ = desc->AppNumInClusters;
   \                     ??CrossCallReturnLabel_69:
   \   000041   12....       LCALL     ?Subroutine96 & 0xFFFF
   \                     ??CrossCallReturnLabel_466:
   \   000044   A3           INC       DPTR
   \   000045   A3           INC       DPTR
   \   000046   A3           INC       DPTR
   \   000047   A3           INC       DPTR
   \   000048   A3           INC       DPTR
   \   000049   A3           INC       DPTR
   \   00004A   F0           MOVX      @DPTR,A
   \   00004B   EA           MOV       A,R2
   \   00004C   2407         ADD       A,#0x7
   \   00004E   FA           MOV       R2,A
   \   00004F   5001         JNC       ??ZDO_BuildSimpleDescBuf_0
   \   000051   0B           INC       R3
   2255            ptr = desc->pAppInClusterList;
   \                     ??ZDO_BuildSimpleDescBuf_0:
   \   000052   8C82         MOV       DPL,R4
   \   000054   8D83         MOV       DPH,R5
   \   000056   A3           INC       DPTR
   \   000057   A3           INC       DPTR
   \   000058   A3           INC       DPTR
   \   000059   A3           INC       DPTR
   \   00005A   A3           INC       DPTR
   \   00005B   A3           INC       DPTR
   \   00005C   A3           INC       DPTR
   \   00005D   12....       LCALL     ??Subroutine229_0 & 0xFFFF
   2256            for ( cnt = 0; cnt < desc->AppNumInClusters; ptr++, cnt++ )
   \                     ??CrossCallReturnLabel_424:
   \   000060   7E00         MOV       R6,#0x0
   \   000062   800E         SJMP      ??ZDO_BuildSimpleDescBuf_1
   2257            {
   2258              *buf++ = HI_UINT16( *ptr );
   \                     ??ZDO_BuildSimpleDescBuf_2:
   \   000064   12....       LCALL     ?Subroutine20 & 0xFFFF
   2259              *buf++ = LO_UINT16( *ptr );
   2260            }
   \                     ??CrossCallReturnLabel_18:
   \   000067   5001         JNC       ??ZDO_BuildSimpleDescBuf_3
   \   000069   0B           INC       R3
   \                     ??ZDO_BuildSimpleDescBuf_3:
   \   00006A   E8           MOV       A,R0
   \   00006B   2402         ADD       A,#0x2
   \   00006D   F8           MOV       R0,A
   \   00006E   5001         JNC       ??ZDO_BuildSimpleDescBuf_4
   \   000070   09           INC       R1
   \                     ??ZDO_BuildSimpleDescBuf_4:
   \   000071   0E           INC       R6
   \                     ??ZDO_BuildSimpleDescBuf_1:
   \   000072   8C82         MOV       DPL,R4
   \   000074   8D83         MOV       DPH,R5
   \   000076   A3           INC       DPTR
   \   000077   A3           INC       DPTR
   \   000078   A3           INC       DPTR
   \   000079   A3           INC       DPTR
   \   00007A   A3           INC       DPTR
   \   00007B   A3           INC       DPTR
   \   00007C   E0           MOVX      A,@DPTR
   \   00007D   FF           MOV       R7,A
   \   00007E   EE           MOV       A,R6
   \   00007F   C3           CLR       C
   \   000080   9F           SUBB      A,R7
   \   000081   40E1         JC        ??ZDO_BuildSimpleDescBuf_2
   2261          
   2262            *buf++ = desc->AppNumOutClusters;
   \   000083   8C82         MOV       DPL,R4
   \   000085   8D83         MOV       DPH,R5
   \   000087   A3           INC       DPTR
   \   000088   A3           INC       DPTR
   \   000089   A3           INC       DPTR
   \   00008A   A3           INC       DPTR
   \   00008B   A3           INC       DPTR
   \   00008C   A3           INC       DPTR
   \   00008D   A3           INC       DPTR
   \   00008E   A3           INC       DPTR
   \   00008F   12....       LCALL     ?Subroutine96 & 0xFFFF
   \                     ??CrossCallReturnLabel_467:
   \   000092   F0           MOVX      @DPTR,A
   \   000093   A3           INC       DPTR
   \   000094   AA82         MOV       R2,DPL
   \   000096   AB83         MOV       R3,DPH
   2263            ptr = desc->pAppOutClusterList;
   \   000098   8C82         MOV       DPL,R4
   \   00009A   8D83         MOV       DPH,R5
   \   00009C   A3           INC       DPTR
   \   00009D   A3           INC       DPTR
   \   00009E   A3           INC       DPTR
   \   00009F   A3           INC       DPTR
   \   0000A0   A3           INC       DPTR
   \   0000A1   A3           INC       DPTR
   \   0000A2   A3           INC       DPTR
   \   0000A3   A3           INC       DPTR
   \   0000A4   A3           INC       DPTR
   \   0000A5   A3           INC       DPTR
   \   0000A6   12....       LCALL     ??Subroutine229_0 & 0xFFFF
   2264            for ( cnt = 0; cnt < desc->AppNumOutClusters; ptr++, cnt++ )
   \                     ??CrossCallReturnLabel_425:
   \   0000A9   7E00         MOV       R6,#0x0
   \   0000AB   800E         SJMP      ??ZDO_BuildSimpleDescBuf_5
   2265            {
   2266              *buf++ = HI_UINT16( *ptr );
   \                     ??ZDO_BuildSimpleDescBuf_6:
   \   0000AD   12....       LCALL     ?Subroutine20 & 0xFFFF
   2267              *buf++ = LO_UINT16( *ptr );
   2268            }
   \                     ??CrossCallReturnLabel_19:
   \   0000B0   5001         JNC       ??ZDO_BuildSimpleDescBuf_7
   \   0000B2   0B           INC       R3
   \                     ??ZDO_BuildSimpleDescBuf_7:
   \   0000B3   E8           MOV       A,R0
   \   0000B4   2402         ADD       A,#0x2
   \   0000B6   F8           MOV       R0,A
   \   0000B7   5001         JNC       ??ZDO_BuildSimpleDescBuf_8
   \   0000B9   09           INC       R1
   \                     ??ZDO_BuildSimpleDescBuf_8:
   \   0000BA   0E           INC       R6
   \                     ??ZDO_BuildSimpleDescBuf_5:
   \   0000BB   8C82         MOV       DPL,R4
   \   0000BD   8D83         MOV       DPH,R5
   \   0000BF   A3           INC       DPTR
   \   0000C0   A3           INC       DPTR
   \   0000C1   A3           INC       DPTR
   \   0000C2   A3           INC       DPTR
   \   0000C3   A3           INC       DPTR
   \   0000C4   A3           INC       DPTR
   \   0000C5   A3           INC       DPTR
   \   0000C6   A3           INC       DPTR
   \   0000C7   A3           INC       DPTR
   \   0000C8   E0           MOVX      A,@DPTR
   \   0000C9   FF           MOV       R7,A
   \   0000CA   EE           MOV       A,R6
   \   0000CB   C3           CLR       C
   \   0000CC   9F           SUBB      A,R7
   \   0000CD   40DE         JC        ??ZDO_BuildSimpleDescBuf_6
   2269          }
   \   0000CF   02....       LJMP      ??Subroutine207_0 & 0xFFFF

   \                                 In  segment BANKED_CODE, align 1, keep-with-next
   \                     ?Subroutine96:
   \   000000   A3           INC       DPTR
   \   000001                REQUIRE ??Subroutine235_0
   \   000001                ; // Fall through to label ??Subroutine235_0

   \                                 In  segment BANKED_CODE, align 1, keep-with-next
   \                     ??Subroutine235_0:
   \   000000   E0           MOVX      A,@DPTR
   \   000001   8A82         MOV       DPL,R2
   \   000003   8B83         MOV       DPH,R3
   \   000005   22           RET

   \                                 In  segment BANKED_CODE, align 1, keep-with-next
   \                     ?Subroutine46:
   \   000000   A3           INC       DPTR
   \   000001   A3           INC       DPTR
   \   000002   F0           MOVX      @DPTR,A
   \   000003   8C82         MOV       DPL,R4
   \   000005   8D83         MOV       DPH,R5
   \   000007   A3           INC       DPTR
   \   000008   A3           INC       DPTR
   \   000009   A3           INC       DPTR
   \   00000A   A3           INC       DPTR
   \   00000B   A3           INC       DPTR
   \   00000C   22           RET

   \                                 In  segment BANKED_CODE, align 1, keep-with-next
   \                     ?Subroutine31:
   \   000000   A3           INC       DPTR
   \   000001   12....       LCALL     ?Subroutine157 & 0xFFFF
   \                     ??CrossCallReturnLabel_253:
   \   000004   A3           INC       DPTR
   \   000005   22           RET

   \                                 In  segment BANKED_CODE, align 1, keep-with-next
   \                     ?Subroutine20:
   \   000000   8882         MOV       DPL,R0
   \   000002   8983         MOV       DPH,R1
   \   000004   A3           INC       DPTR
   \   000005   E0           MOVX      A,@DPTR
   \   000006   8A82         MOV       DPL,R2
   \   000008   8B83         MOV       DPH,R3
   \   00000A   12....       LCALL     ?Subroutine157 & 0xFFFF
   \                     ??CrossCallReturnLabel_254:
   \   00000D   F0           MOVX      @DPTR,A
   \   00000E   EA           MOV       A,R2
   \   00000F   2402         ADD       A,#0x2
   \   000011   FA           MOV       R2,A
   \   000012   22           RET

   \                                 In  segment BANKED_CODE, align 1, keep-with-next
   \                     ?Subroutine157:
   \   000000   12....       LCALL     ?Subroutine201 & 0xFFFF
   \                     ??CrossCallReturnLabel_324:
   \   000003   E0           MOVX      A,@DPTR
   \   000004   8A82         MOV       DPL,R2
   \   000006   8B83         MOV       DPH,R3
   \   000008   A3           INC       DPTR
   \   000009   22           RET
   2270          
   2271          #if ( ZG_BUILD_COORDINATOR_TYPE )
   2272          /*********************************************************************
   2273           * @fn      ZDO_MatchEndDeviceBind()
   2274           *
   2275           * @brief
   2276           *
   2277           *   Called to match end device binding requests
   2278           *
   2279           * @param  bindReq  - binding request information
   2280           * @param  SecurityUse - Security enable/disable
   2281           *
   2282           * @return  none
   2283           */

   \                                 In  segment BANKED_CODE, align 1, keep-with-next
   \                     ?Subroutine107:
   \   000000   EA           MOV       A,R2
   \   000001   F8           MOV       R0,A
   \   000002   EB           MOV       A,R3
   \   000003   F9           MOV       R1,A
   \   000004   90....       MOV       DPTR,#matchED
   \   000007                REQUIRE ??Subroutine228_0
   \   000007                ; // Fall through to label ??Subroutine228_0

   \                                 In  segment BANKED_CODE, align 1, keep-with-next
   2284          void ZDO_MatchEndDeviceBind( ZDEndDeviceBind_t *bindReq )
   \                     ZDO_MatchEndDeviceBind:
   2285          {
   \   000000                REQUIRE ?V0
   \   000000                REQUIRE ?V1
   \   000000                REQUIRE ?V2
   \   000000                REQUIRE ?V3
   \   000000                REQUIRE ?V4
   \   000000                REQUIRE ?V5
   \   000000                REQUIRE ?V6
   \   000000   74F1         MOV       A,#-0xf
   \   000002   12....       LCALL     ?BANKED_ENTER_XDATA
   \   000005                ; Saved register size: 15
   \   000005                ; Auto size: 10
   \   000005   74F6         MOV       A,#-0xa
   \   000007   12....       LCALL     ?ALLOC_XSTACK8
   \   00000A   EA           MOV       A,R2
   \   00000B   FE           MOV       R6,A
   \   00000C   EB           MOV       A,R3
   \   00000D   FF           MOV       R7,A
   2286            zAddrType_t dstAddr;
   2287            uint8 sendRsp = FALSE;
   \   00000E   75..00       MOV       ?V0,#0x0
   2288            uint8 status;
   2289          
   2290            // Is this the first request?
   2291            if ( matchED == NULL )
   \   000011   90....       MOV       DPTR,#matchED
   \   000014   12....       LCALL     ??Subroutine231_0 & 0xFFFF
   \                     ??CrossCallReturnLabel_440:
   \   000017   7052         JNZ       ??ZDO_MatchEndDeviceBind_0
   2292            {
   2293              // Create match info structure
   2294              matchED = (ZDMatchEndDeviceBind_t *)osal_mem_alloc( sizeof ( ZDMatchEndDeviceBind_t ) );
   \   000019                ; Setup parameters for call to function osal_mem_alloc
   \   000019   7A37         MOV       R2,#0x37
   \   00001B   7B00         MOV       R3,#0x0
   \   00001D   12....       LCALL     `??osal_mem_alloc::?relay`; Banked call to: osal_mem_alloc
   \   000020   90....       MOV       DPTR,#matchED
   \   000023   12....       LCALL     ??Subroutine213_0 & 0xFFFF
   2295              if ( matchED )
   \                     ??CrossCallReturnLabel_344:
   \   000026   90....       MOV       DPTR,#matchED
   \   000029   12....       LCALL     ??Subroutine231_0 & 0xFFFF
   \                     ??CrossCallReturnLabel_441:
   \   00002C   6019         JZ        ??ZDO_MatchEndDeviceBind_1
   2296              {
   2297                // Clear the structure
   2298                osal_memset( (uint8 *)matchED, 0, sizeof ( ZDMatchEndDeviceBind_t ) );
   \   00002E                ; Setup parameters for call to function osal_memset
   \   00002E   7C37         MOV       R4,#0x37
   \   000030   7D00         MOV       R5,#0x0
   \   000032   7900         MOV       R1,#0x0
   \   000034   12....       LCALL     `??osal_memset::?relay`; Banked call to: osal_memset
   2299          
   2300                // Copy the first request's information
   2301                if ( !ZDO_CopyMatchInfo( &(matchED->ed1), bindReq ) )
   \   000037                ; Setup parameters for call to function ZDO_CopyMatchInfo
   \   000037   EE           MOV       A,R6
   \   000038   FC           MOV       R4,A
   \   000039   EF           MOV       A,R7
   \   00003A   FD           MOV       R5,A
   \   00003B   90....       MOV       DPTR,#matchED
   \   00003E   12....       LCALL     ??Subroutine243_0 & 0xFFFF
   2302                {
   2303                  status = ZDP_NO_ENTRY;
   2304                  sendRsp = TRUE;
   2305                }
   2306              }
   \                     ??CrossCallReturnLabel_500:
   \   000041   12....       LCALL     `??ZDO_CopyMatchInfo::?relay`; Banked call to: ZDO_CopyMatchInfo
   \   000044   E9           MOV       A,R1
   \   000045   700B         JNZ       ??ZDO_MatchEndDeviceBind_2
   2307              else
   2308              {
   2309                status = ZDP_NO_ENTRY;
   \                     ??ZDO_MatchEndDeviceBind_1:
   \   000047   85..82       MOV       DPL,?XSP + 0
   \   00004A   85..83       MOV       DPH,?XSP + 1
   \   00004D   7488         MOV       A,#-0x78
   \   00004F   02....       LJMP      ??ZDO_MatchEndDeviceBind_3 & 0xFFFF
   2310                sendRsp = TRUE;
   2311              }
   2312          
   2313              if ( !sendRsp )
   2314              {
   2315                // Set into the correct state
   2316                matchED->state = ZDMATCH_WAIT_REQ;
   \                     ??ZDO_MatchEndDeviceBind_2:
   \   000052   12....       LCALL     ?Subroutine94 & 0xFFFF
   \                     ??CrossCallReturnLabel_590:
   \   000055   12....       LCALL     ?Subroutine152 & 0xFFFF
   \                     ??CrossCallReturnLabel_243:
   \   000058   7401         MOV       A,#0x1
   \   00005A   F0           MOVX      @DPTR,A
   2317          
   2318                // Setup the timeout
   2319                APS_SetEndDeviceBindTimeout( AIB_MaxBindingTime, ZDO_EndDeviceBindMatchTimeoutCB );
   \   00005B                ; Setup parameters for call to function APS_SetEndDeviceBindTimeout
   \   00005B   7C..         MOV       R4,#`??ZDO_EndDeviceBindMatchTimeoutCB::?relay` & 0xff
   \   00005D   7D..         MOV       R5,#(`??ZDO_EndDeviceBindMatchTimeoutCB::?relay` >> 8) & 0xff
   \   00005F   90....       MOV       DPTR,#AIB_MaxBindingTime
   \   000062   12....       LCALL     ??Subroutine243_0 & 0xFFFF
   2320              }
   2321            }
   \                     ??CrossCallReturnLabel_501:
   \   000065   12....       LCALL     `??APS_SetEndDeviceBindTimeout::?relay`; Banked call to: APS_SetEndDeviceBindTimeout
   \   000068   02....       LJMP      ??ZDO_MatchEndDeviceBind_4 & 0xFFFF
   2322            else
   2323            {
   2324                matchED->state = ZDMATCH_SENDING_BINDS;
   \                     ??ZDO_MatchEndDeviceBind_0:
   \   00006B   E0           MOVX      A,@DPTR
   \   00006C   C8           XCH       A,R0
   \   00006D   12....       LCALL     ?Subroutine152 & 0xFFFF
   \                     ??CrossCallReturnLabel_244:
   \   000070   7402         MOV       A,#0x2
   \   000072   F0           MOVX      @DPTR,A
   2325          
   2326                // Copy the 2nd request's information
   2327                if ( !ZDO_CopyMatchInfo( &(matchED->ed2), bindReq ) )
   \   000073                ; Setup parameters for call to function ZDO_CopyMatchInfo
   \   000073   EE           MOV       A,R6
   \   000074   FC           MOV       R4,A
   \   000075   EF           MOV       A,R7
   \   000076   FD           MOV       R5,A
   \   000077   12....       LCALL     ?Subroutine110 & 0xFFFF
   \                     ??CrossCallReturnLabel_166:
   \   00007A   12....       LCALL     `??ZDO_CopyMatchInfo::?relay`; Banked call to: ZDO_CopyMatchInfo
   \   00007D   E9           MOV       A,R1
   \   00007E   700C         JNZ       ??ZDO_MatchEndDeviceBind_5
   2328                {
   2329                  status = ZDP_NO_ENTRY;
   \   000080   85..82       MOV       DPL,?XSP + 0
   \   000083   85..83       MOV       DPH,?XSP + 1
   \   000086   7488         MOV       A,#-0x78
   \   000088   F0           MOVX      @DPTR,A
   2330                  sendRsp = TRUE;
   \   000089   75..01       MOV       ?V0,#0x1
   2331                }
   2332          
   2333                // Make a source match for ed1
   2334                matchED->ed1numMatched = ZDO_CompareClusterLists(
   2335                            matchED->ed1.numOutClusters, matchED->ed1.outClusters,
   2336                            matchED->ed2.numInClusters, matchED->ed2.inClusters, ZDOBuildBuf );
   \                     ??ZDO_MatchEndDeviceBind_5:
   \   00008C                ; Setup parameters for call to function ZDO_CompareClusterLists
   \   00008C   75....       MOV       ?V2,#ZDOBuildBuf & 0xff
   \   00008F   75....       MOV       ?V3,#(ZDOBuildBuf >> 8) & 0xff
   \   000092   78..         MOV       R0,#?V2
   \   000094   12....       LCALL     ?PUSH_XSTACK_I_TWO
   \   000097   12....       LCALL     ?Subroutine85 & 0xFFFF
   \                     ??CrossCallReturnLabel_133:
   \   00009A   12....       LCALL     ?PUSH_XSTACK8_X_TWO
   \   00009D   12....       LCALL     ?Subroutine94 & 0xFFFF
   \                     ??CrossCallReturnLabel_591:
   \   0000A0   2428         ADD       A,#0x28
   \   0000A2   12....       LCALL     ?Subroutine146 & 0xFFFF
   \                     ??CrossCallReturnLabel_224:
   \   0000A5   FC           MOV       R4,A
   \   0000A6   12....       LCALL     ?Subroutine69 & 0xFFFF
   \                     ??CrossCallReturnLabel_108:
   \   0000A9   12....       LCALL     ?Subroutine94 & 0xFFFF
   \                     ??CrossCallReturnLabel_592:
   \   0000AC   2414         ADD       A,#0x14
   \   0000AE   12....       LCALL     ?Subroutine146 & 0xFFFF
   \                     ??CrossCallReturnLabel_225:
   \   0000B1   F9           MOV       R1,A
   \   0000B2   12....       LCALL     `??ZDO_CompareClusterLists::?relay`; Banked call to: ZDO_CompareClusterLists
   \   0000B5   7404         MOV       A,#0x4
   \   0000B7   12....       LCALL     ?DEALLOC_XSTACK8
   \   0000BA   12....       LCALL     ?Subroutine93 & 0xFFFF
   \                     ??CrossCallReturnLabel_469:
   \   0000BD   12....       LCALL     ?Subroutine24 & 0xFFFF
   2337                if ( matchED->ed1numMatched )
   \                     ??CrossCallReturnLabel_484:
   \   0000C0   2431         ADD       A,#0x31
   \   0000C2   12....       LCALL     ?Subroutine146 & 0xFFFF
   \                     ??CrossCallReturnLabel_226:
   \   0000C5   6043         JZ        ??ZDO_MatchEndDeviceBind_6
   \   0000C7                ; Setup parameters for call to function osal_mem_alloc
   \   0000C7   12....       LCALL     ?Subroutine56 & 0xFFFF
   \                     ??CrossCallReturnLabel_83:
   \   0000CA   FA           MOV       R2,A
   \   0000CB   E4           CLR       A
   \   0000CC   33           RLC       A
   \   0000CD   FB           MOV       R3,A
   2338                {
   2339                  // Save the match list
   2340                  matchED->ed1Matched = osal_mem_alloc( (short)(matchED->ed1numMatched * sizeof ( uint16 )) );
   \   0000CE   12....       LCALL     `??osal_mem_alloc::?relay`; Banked call to: osal_mem_alloc
   \   0000D1   12....       LCALL     ?Subroutine107 & 0xFFFF
   \                     ??CrossCallReturnLabel_413:
   \   0000D4   CC           XCH       A,R4
   \   0000D5   2432         ADD       A,#0x32
   \   0000D7   12....       LCALL     ?Subroutine47 & 0xFFFF
   2341                  if ( matchED->ed1Matched )
   \                     ??CrossCallReturnLabel_481:
   \   0000DA   6022         JZ        ??ZDO_MatchEndDeviceBind_7
   2342                  {
   2343                    osal_memcpy( matchED->ed1Matched, ZDOBuildBuf, (matchED->ed1numMatched * sizeof ( uint16 )) );
   \   0000DC                ; Setup parameters for call to function osal_memcpy
   \   0000DC   75....       MOV       ?V4,#ZDOBuildBuf & 0xff
   \   0000DF   75....       MOV       ?V5,#(ZDOBuildBuf >> 8) & 0xff
   \   0000E2   75..00       MOV       ?V6,#0x0
   \   0000E5   78..         MOV       R0,#?V4
   \   0000E7   12....       LCALL     ?PUSH_XSTACK_I_THREE
   \   0000EA   12....       LCALL     ?Subroutine56 & 0xFFFF
   2344                  }
   \                     ??CrossCallReturnLabel_84:
   \   0000ED   FC           MOV       R4,A
   \   0000EE   E4           CLR       A
   \   0000EF   33           RLC       A
   \   0000F0   FD           MOV       R5,A
   \   0000F1   12....       LCALL     ?Subroutine70 & 0xFFFF
   \                     ??CrossCallReturnLabel_110:
   \   0000F4   12....       LCALL     `??osal_memcpy::?relay`; Banked call to: osal_memcpy
   \   0000F7   7403         MOV       A,#0x3
   \   0000F9   12....       LCALL     ?DEALLOC_XSTACK8
   \   0000FC   800C         SJMP      ??ZDO_MatchEndDeviceBind_6
   2345                  else
   2346                  {
   2347                    // Allocation error, stop
   2348                    status = ZDP_NO_ENTRY;
   \                     ??ZDO_MatchEndDeviceBind_7:
   \   0000FE   85..82       MOV       DPL,?XSP + 0
   \   000101   85..83       MOV       DPH,?XSP + 1
   \   000104   7488         MOV       A,#-0x78
   \   000106   F0           MOVX      @DPTR,A
   2349                    sendRsp = TRUE;
   \   000107   75..01       MOV       ?V0,#0x1
   2350                  }
   2351                }
   2352          
   2353                // Make a source match for ed2
   2354                matchED->ed2numMatched = ZDO_CompareClusterLists(
   2355                            matchED->ed2.numOutClusters, matchED->ed2.outClusters,
   2356                            matchED->ed1.numInClusters, matchED->ed1.inClusters, ZDOBuildBuf );
   \                     ??ZDO_MatchEndDeviceBind_6:
   \   00010A                ; Setup parameters for call to function ZDO_CompareClusterLists
   \   00010A   78..         MOV       R0,#?V2
   \   00010C   12....       LCALL     ?PUSH_XSTACK_I_TWO
   \   00010F   12....       LCALL     ?Subroutine86 & 0xFFFF
   \                     ??CrossCallReturnLabel_135:
   \   000112   12....       LCALL     ?PUSH_XSTACK8_X_TWO
   \   000115   12....       LCALL     ?Subroutine94 & 0xFFFF
   \                     ??CrossCallReturnLabel_593:
   \   000118   2411         ADD       A,#0x11
   \   00011A   12....       LCALL     ?Subroutine146 & 0xFFFF
   \                     ??CrossCallReturnLabel_227:
   \   00011D   FC           MOV       R4,A
   \   00011E   12....       LCALL     ?Subroutine71 & 0xFFFF
   \                     ??CrossCallReturnLabel_112:
   \   000121   12....       LCALL     ?Subroutine94 & 0xFFFF
   \                     ??CrossCallReturnLabel_594:
   \   000124   242B         ADD       A,#0x2b
   \   000126   12....       LCALL     ?Subroutine146 & 0xFFFF
   \                     ??CrossCallReturnLabel_228:
   \   000129   F9           MOV       R1,A
   \   00012A   12....       LCALL     `??ZDO_CompareClusterLists::?relay`; Banked call to: ZDO_CompareClusterLists
   \   00012D   7404         MOV       A,#0x4
   \   00012F   12....       LCALL     ?DEALLOC_XSTACK8
   \   000132   E9           MOV       A,R1
   \   000133   F8           MOV       R0,A
   \   000134   12....       LCALL     ?Subroutine94 & 0xFFFF
   \                     ??CrossCallReturnLabel_595:
   \   000137   2434         ADD       A,#0x34
   \   000139   12....       LCALL     ?Subroutine24 & 0xFFFF
   2357                if ( matchED->ed2numMatched )
   \                     ??CrossCallReturnLabel_485:
   \   00013C   2434         ADD       A,#0x34
   \   00013E   12....       LCALL     ?Subroutine146 & 0xFFFF
   \                     ??CrossCallReturnLabel_229:
   \   000141   6035         JZ        ??ZDO_MatchEndDeviceBind_8
   \   000143                ; Setup parameters for call to function osal_mem_alloc
   \   000143   12....       LCALL     ?Subroutine57 & 0xFFFF
   \                     ??CrossCallReturnLabel_86:
   \   000146   FA           MOV       R2,A
   \   000147   E4           CLR       A
   \   000148   33           RLC       A
   \   000149   FB           MOV       R3,A
   2358                {
   2359                  // Save the match list
   2360                  matchED->ed2Matched = osal_mem_alloc( (short)(matchED->ed2numMatched * sizeof ( uint16 )) );
   \   00014A   12....       LCALL     `??osal_mem_alloc::?relay`; Banked call to: osal_mem_alloc
   \   00014D   12....       LCALL     ?Subroutine107 & 0xFFFF
   \                     ??CrossCallReturnLabel_414:
   \   000150   CC           XCH       A,R4
   \   000151   2435         ADD       A,#0x35
   \   000153   12....       LCALL     ?Subroutine47 & 0xFFFF
   2361                  if ( matchED->ed2Matched )
   \                     ??CrossCallReturnLabel_482:
   \   000156   6042         JZ        ??ZDO_MatchEndDeviceBind_9
   2362                  {
   2363                    osal_memcpy( matchED->ed2Matched, ZDOBuildBuf, (matchED->ed2numMatched * sizeof ( uint16 )) );
   \   000158                ; Setup parameters for call to function osal_memcpy
   \   000158   75....       MOV       ?V4,#ZDOBuildBuf & 0xff
   \   00015B   75....       MOV       ?V5,#(ZDOBuildBuf >> 8) & 0xff
   \   00015E   75..00       MOV       ?V6,#0x0
   \   000161   78..         MOV       R0,#?V4
   \   000163   12....       LCALL     ?PUSH_XSTACK_I_THREE
   \   000166   12....       LCALL     ?Subroutine57 & 0xFFFF
   2364                  }
   \                     ??CrossCallReturnLabel_87:
   \   000169   FC           MOV       R4,A
   \   00016A   E4           CLR       A
   \   00016B   33           RLC       A
   \   00016C   FD           MOV       R5,A
   \   00016D   12....       LCALL     ?Subroutine72 & 0xFFFF
   \                     ??CrossCallReturnLabel_114:
   \   000170   12....       LCALL     `??osal_memcpy::?relay`; Banked call to: osal_memcpy
   \   000173   7403         MOV       A,#0x3
   \   000175   12....       LCALL     ?DEALLOC_XSTACK8
   2365                  else
   2366                  {
   2367                    // Allocation error, stop
   2368                    status = ZDP_NO_ENTRY;
   2369                    sendRsp = TRUE;
   2370                  }
   2371                }
   2372          
   2373                if ( (sendRsp == FALSE) && (matchED->ed1numMatched || matchED->ed2numMatched) )
   \                     ??ZDO_MatchEndDeviceBind_8:
   \   000178   E5..         MOV       A,?V0
   \   00017A   A2E0         MOV       C,0xE0 /* A   */.0
   \   00017C   4025         JC        ??ZDO_MatchEndDeviceBind_10
   \   00017E   12....       LCALL     ?Subroutine93 & 0xFFFF
   \                     ??CrossCallReturnLabel_470:
   \   000181   12....       LCALL     ?Subroutine146 & 0xFFFF
   \                     ??CrossCallReturnLabel_230:
   \   000184   7008         JNZ       ??ZDO_MatchEndDeviceBind_11
   \   000186   90....       MOV       DPTR,#matchED
   \   000189   12....       LCALL     ?Subroutine61 & 0xFFFF
   \                     ??CrossCallReturnLabel_95:
   \   00018C   6015         JZ        ??ZDO_MatchEndDeviceBind_10
   2374                {
   2375                  // Do the first unbind/bind state
   2376                  ZDMatchSendState( ZDMATCH_REASON_START, ZDP_SUCCESS, 0 );
   \                     ??ZDO_MatchEndDeviceBind_11:
   \   00018E                ; Setup parameters for call to function ZDMatchSendState
   \   00018E   7B00         MOV       R3,#0x0
   \   000190   7A00         MOV       R2,#0x0
   \   000192   7900         MOV       R1,#0x0
   \   000194   12....       LCALL     `??ZDMatchSendState::?relay`; Banked call to: ZDMatchSendState
   2377                }
   2378                else
   2379                {
   2380                  status = ZDP_NO_MATCH;
   2381                  sendRsp = TRUE;
   2382                }
   2383            }
   2384          
   2385            if ( sendRsp )
   \   000197   02....       LJMP      ??ZDO_MatchEndDeviceBind_4 & 0xFFFF
   \                     ??ZDO_MatchEndDeviceBind_9:
   \   00019A   85..82       MOV       DPL,?XSP + 0
   \   00019D   85..83       MOV       DPH,?XSP + 1
   \   0001A0   7488         MOV       A,#-0x78
   \   0001A2   F0           MOVX      @DPTR,A
   \                     ??ZDO_MatchEndDeviceBind_10:
   \   0001A3   85..82       MOV       DPL,?XSP + 0
   \   0001A6   85..83       MOV       DPH,?XSP + 1
   \   0001A9   7486         MOV       A,#-0x7a
   \                     ??ZDO_MatchEndDeviceBind_3:
   \   0001AB   F0           MOVX      @DPTR,A
   2386            {
   2387              // send response to this requester
   2388              dstAddr.addrMode = Addr16Bit;
   \   0001AC   7409         MOV       A,#0x9
   \   0001AE   12....       LCALL     ?XSTACK_DISP0_8
   \   0001B1   7402         MOV       A,#0x2
   \   0001B3   12....       LCALL     ?Subroutine53 & 0xFFFF
   2389              dstAddr.addr.shortAddr = bindReq->srcAddr;
   \                     ??CrossCallReturnLabel_79:
   \   0001B6   F8           MOV       R0,A
   \   0001B7   A3           INC       DPTR
   \   0001B8   E0           MOVX      A,@DPTR
   \   0001B9   F9           MOV       R1,A
   \   0001BA   7401         MOV       A,#0x1
   \   0001BC   12....       LCALL     ?XSTACK_DISP0_8
   \   0001BF   E8           MOV       A,R0
   \   0001C0   12....       LCALL     ?Subroutine51 & 0xFFFF
   2390              ZDP_EndDeviceBindRsp( bindReq->TransSeq, &dstAddr, status, bindReq->SecurityUse );
   \                     ??CrossCallReturnLabel_77:
   \   0001C3   A3           INC       DPTR
   \   0001C4   12....       LCALL     ??Subroutine252_0 & 0xFFFF
   \                     ??CrossCallReturnLabel_547:
   \   0001C7   12....       LCALL     ?PUSH_XSTACK_I_ONE
   \   0001CA   7401         MOV       A,#0x1
   \   0001CC   12....       LCALL     ?XSTACK_DISP100_8
   \   0001CF   88..         MOV       ?V0,R0
   \   0001D1   89..         MOV       ?V1,R1
   \   0001D3   78..         MOV       R0,#?V0
   \   0001D5   12....       LCALL     ?PUSH_XSTACK_I_TWO
   \   0001D8   75..20       MOV       ?V0,#0x20
   \   0001DB   75..80       MOV       ?V1,#-0x80
   \   0001DE   78..         MOV       R0,#?V0
   \   0001E0   12....       LCALL     ?PUSH_XSTACK_I_TWO
   \   0001E3   7901         MOV       R1,#0x1
   \   0001E5   7406         MOV       A,#0x6
   \   0001E7   12....       LCALL     ?XSTACK_DISP102_8
   \   0001EA   EE           MOV       A,R6
   \   0001EB   FA           MOV       R2,A
   \   0001EC   EF           MOV       A,R7
   \   0001ED   FB           MOV       R3,A
   \   0001EE   12....       LCALL     `??ZDP_SendData::?relay`; Banked call to: ZDP_SendData
   \   0001F1   7405         MOV       A,#0x5
   \   0001F3   12....       LCALL     ?DEALLOC_XSTACK8
   2391          
   2392              if ( matchED->state == ZDMATCH_SENDING_BINDS )
   \   0001F6   12....       LCALL     ?Subroutine79 & 0xFFFF
   \                     ??CrossCallReturnLabel_125:
   \   0001F9   7044         JNZ       ??ZDO_MatchEndDeviceBind_12
   2393              {
   2394                // send response to first requester
   2395                dstAddr.addrMode = Addr16Bit;
   \   0001FB   7409         MOV       A,#0x9
   \   0001FD   12....       LCALL     ?XSTACK_DISP0_8
   \   000200   7402         MOV       A,#0x2
   \   000202   12....       LCALL     ?Subroutine54 & 0xFFFF
   2396                dstAddr.addr.shortAddr = matchED->ed1.srcAddr;
   2397                ZDP_EndDeviceBindRsp( matchED->ed1.TransSeq, &dstAddr, status, matchED->ed1.SecurityUse );
   2398              }
   \                     ??CrossCallReturnLabel_81:
   \   000205   12....       LCALL     ?Subroutine81 & 0xFFFF
   \                     ??CrossCallReturnLabel_473:
   \   000208   12....       LCALL     ?XSTACK_DISP0_8
   \   00020B   12....       LCALL     ?Subroutine15 & 0xFFFF
   \                     ??CrossCallReturnLabel_8:
   \   00020E   12....       LCALL     ?PUSH_XSTACK_I_ONE
   \   000211   7401         MOV       A,#0x1
   \   000213   12....       LCALL     ?XSTACK_DISP100_8
   \   000216   88..         MOV       ?V0,R0
   \   000218   89..         MOV       ?V1,R1
   \   00021A   78..         MOV       R0,#?V0
   \   00021C   12....       LCALL     ?PUSH_XSTACK_I_TWO
   \   00021F   75..20       MOV       ?V0,#0x20
   \   000222   75..80       MOV       ?V1,#-0x80
   \   000225   78..         MOV       R0,#?V0
   \   000227   12....       LCALL     ?PUSH_XSTACK_I_TWO
   \   00022A   7901         MOV       R1,#0x1
   \   00022C   7406         MOV       A,#0x6
   \   00022E   12....       LCALL     ?XSTACK_DISP102_8
   \   000231   90....       MOV       DPTR,#matchED
   \   000234   12....       LCALL     ??Subroutine243_0 & 0xFFFF
   \                     ??CrossCallReturnLabel_502:
   \   000237   12....       LCALL     `??ZDP_SendData::?relay`; Banked call to: ZDP_SendData
   \   00023A   7405         MOV       A,#0x5
   \   00023C   12....       LCALL     ?DEALLOC_XSTACK8
   2399          
   2400              // Process ended - release memory used
   2401              ZDO_RemoveMatchMemory();
   \                     ??ZDO_MatchEndDeviceBind_12:
   \   00023F                ; Setup parameters for call to function ZDO_RemoveMatchMemory
   \   00023F   12....       LCALL     `??ZDO_RemoveMatchMemory::?relay`; Banked call to: ZDO_RemoveMatchMemory
   2402            }
   2403          }
   \                     ??ZDO_MatchEndDeviceBind_4:
   \   000242   740A         MOV       A,#0xa
   \   000244                REQUIRE ?Subroutine7
   \   000244                ; // Fall through to label ?Subroutine7

   \                                 In  segment BANKED_CODE, align 1, keep-with-next
   \                     ?Subroutine152:
   \   000000   12....       LCALL     ?Subroutine191 & 0xFFFF
   \                     ??CrossCallReturnLabel_314:
   \   000003   22           RET

   \                                 In  segment BANKED_CODE, align 1, keep-with-next
   \                     ?Subroutine191:
   \   000000   242E         ADD       A,#0x2e
   \   000002   F582         MOV       DPL,A
   \   000004   E4           CLR       A
   \   000005   38           ADDC      A,R0
   \   000006   F583         MOV       DPH,A
   \   000008   22           RET

   \                                 In  segment BANKED_CODE, align 1, keep-with-next
   \                     ?Subroutine93:
   \   000000   90....       MOV       DPTR,#matchED
   \   000003                REQUIRE ??Subroutine237_0
   \   000003                ; // Fall through to label ??Subroutine237_0

   \                                 In  segment BANKED_CODE, align 1, keep-with-next
   \                     ??Subroutine237_0:
   \   000000   12....       LCALL     ??Subroutine250_0 & 0xFFFF
   \                     ??CrossCallReturnLabel_612:
   \   000003   2431         ADD       A,#0x31
   \   000005   22           RET

   \                                 In  segment BANKED_CODE, align 1, keep-with-next
   \                     ?Subroutine81:
   \   000000   F583         MOV       DPH,A
   \   000002   8882         MOV       DPL,R0
   \   000004                REQUIRE ??Subroutine238_0
   \   000004                ; // Fall through to label ??Subroutine238_0

   \                                 In  segment BANKED_CODE, align 1, keep-with-next
   \                     ??Subroutine238_0:
   \   000000   A3           INC       DPTR
   \   000001   A3           INC       DPTR
   \   000002                REQUIRE ??Subroutine239_0
   \   000002                ; // Fall through to label ??Subroutine239_0

   \                                 In  segment BANKED_CODE, align 1, keep-with-next
   \                     ??Subroutine239_0:
   \   000000   12....       LCALL     ?Subroutine178 & 0xFFFF
   \                     ??CrossCallReturnLabel_480:
   \   000003   7401         MOV       A,#0x1
   \   000005   22           RET

   \                                 In  segment BANKED_CODE, align 1, keep-with-next
   \                     ?Subroutine47:
   \   000000   F582         MOV       DPL,A
   \   000002   E4           CLR       A
   \   000003   3C           ADDC      A,R4
   \   000004   F583         MOV       DPH,A
   \   000006                REQUIRE ??Subroutine240_0
   \   000006                ; // Fall through to label ??Subroutine240_0

   \                                 In  segment BANKED_CODE, align 1, keep-with-next
   \                     ??Subroutine240_0:
   \   000000   E8           MOV       A,R0
   \   000001   F0           MOVX      @DPTR,A
   \   000002   A3           INC       DPTR
   \   000003   E9           MOV       A,R1
   \   000004   F0           MOVX      @DPTR,A
   \   000005   EA           MOV       A,R2
   \   000006   4B           ORL       A,R3
   \   000007   22           RET

   \                                 In  segment BANKED_CODE, align 1, keep-with-next
   \                     ?Subroutine24:
   \   000000   F582         MOV       DPL,A
   \   000002   E4           CLR       A
   \   000003   38           ADDC      A,R0
   \   000004   F583         MOV       DPH,A
   \   000006                REQUIRE ??Subroutine241_0
   \   000006                ; // Fall through to label ??Subroutine241_0

   \                                 In  segment BANKED_CODE, align 1, keep-with-next
   \                     ??Subroutine241_0:
   \   000000   12....       LCALL     ?Subroutine155 & 0xFFFF
   \                     ??CrossCallReturnLabel_487:
   \   000003   C8           XCH       A,R0
   \   000004   22           RET

   \                                 In  segment BANKED_CODE, align 1, keep-with-next
   \                     ?Subroutine155:
   \   000000   E9           MOV       A,R1
   \   000001                REQUIRE ??Subroutine242_0
   \   000001                ; // Fall through to label ??Subroutine242_0

   \                                 In  segment BANKED_CODE, align 1, keep-with-next
   \                     ??Subroutine242_0:
   \   000000   F0           MOVX      @DPTR,A
   \   000001                ; Setup parameters for call to function ZDP_SendData
   \   000001                ; Setup parameters for call to function ZDP_SendData
   \   000001                ; Setup parameters for call to function ZDP_SendData
   \   000001   90....       MOV       DPTR,#matchED
   \   000004   E0           MOVX      A,@DPTR
   \   000005   F8           MOV       R0,A
   \   000006   A3           INC       DPTR
   \   000007   E0           MOVX      A,@DPTR
   \   000008   22           RET

   \                                 In  segment BANKED_CODE, align 1, keep-with-next
   \                     ?Subroutine86:
   \   000000   12....       LCALL     ?Subroutine172 & 0xFFFF
   \                     ??CrossCallReturnLabel_610:
   \   000003   2412         ADD       A,#0x12
   \   000005   F582         MOV       DPL,A
   \   000007   E4           CLR       A
   \   000008   38           ADDC      A,R0
   \   000009   F583         MOV       DPH,A
   \   00000B   22           RET

   \                                 In  segment BANKED_CODE, align 1, keep-with-next
   \                     ?Subroutine85:
   \   000000   12....       LCALL     ?Subroutine172 & 0xFFFF
   \                     ??CrossCallReturnLabel_609:
   \   000003   2429         ADD       A,#0x29
   \   000005   F582         MOV       DPL,A
   \   000007   E4           CLR       A
   \   000008   38           ADDC      A,R0
   \   000009   F583         MOV       DPH,A
   \   00000B   22           RET

   \                                 In  segment BANKED_CODE, align 1, keep-with-next
   \                     ?Subroutine72:
   \   000000   12....       LCALL     ?Subroutine172 & 0xFFFF
   \                     ??CrossCallReturnLabel_607:
   \   000003   2435         ADD       A,#0x35
   \   000005   12....       LCALL     ?Subroutine168 & 0xFFFF
   \                     ??CrossCallReturnLabel_525:
   \   000008   22           RET

   \                                 In  segment BANKED_CODE, align 1, keep-with-next
   \                     ?Subroutine71:
   \   000000   12....       LCALL     ?Subroutine172 & 0xFFFF
   \                     ??CrossCallReturnLabel_606:
   \   000003   242C         ADD       A,#0x2c
   \   000005   12....       LCALL     ?Subroutine168 & 0xFFFF
   \                     ??CrossCallReturnLabel_524:
   \   000008   22           RET

   \                                 In  segment BANKED_CODE, align 1, keep-with-next
   \                     ?Subroutine70:
   \   000000   12....       LCALL     ?Subroutine172 & 0xFFFF
   \                     ??CrossCallReturnLabel_605:
   \   000003   2432         ADD       A,#0x32
   \   000005   12....       LCALL     ?Subroutine168 & 0xFFFF
   \                     ??CrossCallReturnLabel_523:
   \   000008   22           RET

   \                                 In  segment BANKED_CODE, align 1, keep-with-next
   \                     ?Subroutine168:
   \   000000   F582         MOV       DPL,A
   \   000002   E4           CLR       A
   \   000003   38           ADDC      A,R0
   \   000004                REQUIRE ??Subroutine244_0
   \   000004                ; // Fall through to label ??Subroutine244_0

   \                                 In  segment BANKED_CODE, align 1, keep-with-next
   \                     ?Subroutine69:
   \   000000   12....       LCALL     ?Subroutine172 & 0xFFFF
   \                     ??CrossCallReturnLabel_604:
   \   000003   2415         ADD       A,#0x15
   \   000005   12....       LCALL     ?Subroutine168 & 0xFFFF
   \                     ??CrossCallReturnLabel_522:
   \   000008   22           RET

   \                                 In  segment BANKED_CODE, align 1, keep-with-next
   \                     ?Subroutine110:
   \   000000   90....       MOV       DPTR,#matchED
   \   000003   E0           MOVX      A,@DPTR
   \   000004   2417         ADD       A,#0x17
   \   000006   FA           MOV       R2,A
   \   000007   A3           INC       DPTR
   \   000008   E0           MOVX      A,@DPTR
   \   000009   3400         ADDC      A,#0x0
   \   00000B   FB           MOV       R3,A
   \   00000C   22           RET

   \                                 In  segment BANKED_CODE, align 1, keep-with-next
   \                     ?Subroutine172:
   \   000000   90....       MOV       DPTR,#matchED
   \   000003                REQUIRE ??Subroutine250_0
   \   000003                ; // Fall through to label ??Subroutine250_0

   \                                 In  segment BANKED_CODE, align 1, keep-with-next
   \                     ?Subroutine79:
   \   000000   12....       LCALL     ?Subroutine172 & 0xFFFF
   \                     ??CrossCallReturnLabel_608:
   \   000003   12....       LCALL     ?Subroutine191 & 0xFFFF
   \                     ??CrossCallReturnLabel_313:
   \   000006   E0           MOVX      A,@DPTR
   \   000007   6402         XRL       A,#0x2
   \   000009   22           RET

   \                                 In  segment BANKED_CODE, align 1, keep-with-next
   \                     ?Subroutine61:
   \   000000   12....       LCALL     ?Subroutine170 & 0xFFFF
   \                     ??CrossCallReturnLabel_279:
   \   000003   22           RET

   \                                 In  segment BANKED_CODE, align 1, keep-with-next
   \                     ?Subroutine170:
   \   000000   12....       LCALL     ?Subroutine197 & 0xFFFF
   \                     ??CrossCallReturnLabel_615:
   \   000003   2434         ADD       A,#0x34
   \   000005   F582         MOV       DPL,A
   \   000007   E4           CLR       A
   \   000008   38           ADDC      A,R0
   \   000009   F583         MOV       DPH,A
   \   00000B   E0           MOVX      A,@DPTR
   \   00000C   22           RET

   \                                 In  segment BANKED_CODE, align 1, keep-with-next
   \                     ?Subroutine57:
   \   000000   90....       MOV       DPTR,#matchED
   \   000003   12....       LCALL     ?Subroutine170 & 0xFFFF
   \                     ??CrossCallReturnLabel_278:
   \   000006   25E0         ADD       A,0xE0 /* A   */
   \   000008   22           RET

   \                                 In  segment BANKED_CODE, align 1, keep-with-next
   \                     ?Subroutine56:
   \   000000   12....       LCALL     ?Subroutine169 & 0xFFFF
   \                     ??CrossCallReturnLabel_276:
   \   000003   25E0         ADD       A,0xE0 /* A   */
   \   000005   22           RET

   \                                 In  segment BANKED_CODE, align 1, keep-with-next
   \                     ?Subroutine169:
   \   000000   90....       MOV       DPTR,#matchED
   \   000003   12....       LCALL     ?Subroutine197 & 0xFFFF
   \                     ??CrossCallReturnLabel_614:
   \   000006   2431         ADD       A,#0x31
   \   000008   F582         MOV       DPL,A
   \   00000A   E4           CLR       A
   \   00000B   38           ADDC      A,R0
   \   00000C   F583         MOV       DPH,A
   \   00000E   E0           MOVX      A,@DPTR
   \   00000F   22           RET

   \                                 In  segment BANKED_CODE, align 1, keep-with-next
   \                     ?Subroutine54:
   \   000000   12....       LCALL     ??Subroutine242_0 & 0xFFFF
   \                     ??CrossCallReturnLabel_489:
   \   000003   22           RET

   \                                 In  segment BANKED_CODE, align 1, keep-with-next
   \                     ?Subroutine15:
   \   000000   E8           MOV       A,R0
   \   000001   F0           MOVX      @DPTR,A
   \   000002   A3           INC       DPTR
   \   000003   12....       LCALL     ?Subroutine155 & 0xFFFF
   \                     ??CrossCallReturnLabel_488:
   \   000006   F583         MOV       DPH,A
   \   000008   8882         MOV       DPL,R0
   \   00000A   A3           INC       DPTR
   \   00000B   E0           MOVX      A,@DPTR
   \   00000C   F5..         MOV       ?V0,A
   \   00000E   78..         MOV       R0,#?V0
   \   000010   22           RET

   \                                 In  segment BANKED_CODE, align 1, keep-with-next
   \                     ?Subroutine94:
   \   000000   90....       MOV       DPTR,#matchED
   \   000003                REQUIRE ??Subroutine257_0
   \   000003                ; // Fall through to label ??Subroutine257_0

   \                                 In  segment BANKED_CODE, align 1, keep-with-next
   \                     ?Subroutine51:
   \   000000   F0           MOVX      @DPTR,A
   \   000001   A3           INC       DPTR
   \   000002   E9           MOV       A,R1
   \   000003   F0           MOVX      @DPTR,A
   \   000004                ; Setup parameters for call to function ZDP_SendData
   \   000004   8E82         MOV       DPL,R6
   \   000006   8F83         MOV       DPH,R7
   \   000008   22           RET

   \                                 In  segment BANKED_CODE, align 1, keep-with-next
   \                     ?Subroutine53:
   \   000000   12....       LCALL     ?Subroutine164 & 0xFFFF
   \                     ??CrossCallReturnLabel_268:
   \   000003   A3           INC       DPTR
   \   000004   E0           MOVX      A,@DPTR
   \   000005   22           RET

   \                                 In  segment BANKED_CODE, align 1, keep-with-next
   \                     ?Subroutine164:
   \   000000   12....       LCALL     ?Subroutine193 & 0xFFFF
   \                     ??CrossCallReturnLabel_630:
   \   000003   22           RET
   2404          
   2405          /*********************************************************************
   2406           * @fn      ZDO_RemoveMatchMemory()
   2407           *
   2408           * @brief   Called to clear the memory used for the end device bind.
   2409           *
   2410           * @param  none
   2411           *
   2412           * @return  none
   2413           */

   \                                 In  segment BANKED_CODE, align 1, keep-with-next
   2414          static void ZDO_RemoveMatchMemory( void )
   \                     ZDO_RemoveMatchMemory:
   2415          {
   \   000000   C082         PUSH      DPL
   \   000002   C083         PUSH      DPH
   \   000004                ; Saved register size: 2
   \   000004                ; Auto size: 0
   2416            if ( matchED != NULL )
   \   000004   90....       MOV       DPTR,#matchED
   \   000007   12....       LCALL     ??Subroutine231_0 & 0xFFFF
   \                     ??CrossCallReturnLabel_442:
   \   00000A   6075         JZ        ??ZDO_RemoveMatchMemory_0
   2417            {
   2418              if ( matchED->ed2Matched != NULL )
   \   00000C   E0           MOVX      A,@DPTR
   \   00000D   C8           XCH       A,R0
   \   00000E   2435         ADD       A,#0x35
   \   000010   12....       LCALL     ?Subroutine55 & 0xFFFF
   \                     ??CrossCallReturnLabel_448:
   \   000013   6006         JZ        ??ZDO_RemoveMatchMemory_1
   2419              {
   2420                osal_mem_free( matchED->ed2Matched );
   \   000015                ; Setup parameters for call to function osal_mem_free
   \   000015   12....       LCALL     ?Subroutine72 & 0xFFFF
   2421              }
   \                     ??CrossCallReturnLabel_115:
   \   000018   12....       LCALL     `??osal_mem_free::?relay`; Banked call to: osal_mem_free
   2422              if ( matchED->ed1Matched != NULL )
   \                     ??ZDO_RemoveMatchMemory_1:
   \   00001B   12....       LCALL     ?Subroutine94 & 0xFFFF
   \                     ??CrossCallReturnLabel_596:
   \   00001E   2432         ADD       A,#0x32
   \   000020   12....       LCALL     ?Subroutine55 & 0xFFFF
   \                     ??CrossCallReturnLabel_449:
   \   000023   6006         JZ        ??ZDO_RemoveMatchMemory_2
   2423              {
   2424                osal_mem_free( matchED->ed1Matched );
   \   000025                ; Setup parameters for call to function osal_mem_free
   \   000025   12....       LCALL     ?Subroutine70 & 0xFFFF
   2425              }
   \                     ??CrossCallReturnLabel_111:
   \   000028   12....       LCALL     `??osal_mem_free::?relay`; Banked call to: osal_mem_free
   2426              if ( matchED->ed1.inClusters != NULL )
   \                     ??ZDO_RemoveMatchMemory_2:
   \   00002B   12....       LCALL     ?Subroutine94 & 0xFFFF
   \                     ??CrossCallReturnLabel_597:
   \   00002E   2412         ADD       A,#0x12
   \   000030   12....       LCALL     ?Subroutine55 & 0xFFFF
   \                     ??CrossCallReturnLabel_450:
   \   000033   6009         JZ        ??ZDO_RemoveMatchMemory_3
   2427              {
   2428                osal_mem_free( matchED->ed1.inClusters );
   \   000035                ; Setup parameters for call to function osal_mem_free
   \   000035   12....       LCALL     ?Subroutine86 & 0xFFFF
   2429              }
   \                     ??CrossCallReturnLabel_136:
   \   000038   12....       LCALL     ??Subroutine243_0 & 0xFFFF
   \                     ??CrossCallReturnLabel_503:
   \   00003B   12....       LCALL     `??osal_mem_free::?relay`; Banked call to: osal_mem_free
   2430              if ( matchED->ed1.outClusters != NULL )
   \                     ??ZDO_RemoveMatchMemory_3:
   \   00003E   12....       LCALL     ?Subroutine94 & 0xFFFF
   \                     ??CrossCallReturnLabel_598:
   \   000041   2415         ADD       A,#0x15
   \   000043   12....       LCALL     ?Subroutine55 & 0xFFFF
   \                     ??CrossCallReturnLabel_451:
   \   000046   6006         JZ        ??ZDO_RemoveMatchMemory_4
   2431              {
   2432                osal_mem_free( matchED->ed1.outClusters );
   \   000048                ; Setup parameters for call to function osal_mem_free
   \   000048   12....       LCALL     ?Subroutine69 & 0xFFFF
   2433              }
   \                     ??CrossCallReturnLabel_109:
   \   00004B   12....       LCALL     `??osal_mem_free::?relay`; Banked call to: osal_mem_free
   2434              if ( matchED->ed2.inClusters != NULL )
   \                     ??ZDO_RemoveMatchMemory_4:
   \   00004E   12....       LCALL     ?Subroutine94 & 0xFFFF
   \                     ??CrossCallReturnLabel_599:
   \   000051   2429         ADD       A,#0x29
   \   000053   12....       LCALL     ?Subroutine55 & 0xFFFF
   \                     ??CrossCallReturnLabel_452:
   \   000056   6009         JZ        ??ZDO_RemoveMatchMemory_5
   2435              {
   2436                osal_mem_free( matchED->ed2.inClusters );
   \   000058                ; Setup parameters for call to function osal_mem_free
   \   000058   12....       LCALL     ?Subroutine85 & 0xFFFF
   2437              }
   \                     ??CrossCallReturnLabel_134:
   \   00005B   12....       LCALL     ??Subroutine243_0 & 0xFFFF
   \                     ??CrossCallReturnLabel_504:
   \   00005E   12....       LCALL     `??osal_mem_free::?relay`; Banked call to: osal_mem_free
   2438              if ( matchED->ed2.outClusters != NULL )
   \                     ??ZDO_RemoveMatchMemory_5:
   \   000061   12....       LCALL     ?Subroutine94 & 0xFFFF
   \                     ??CrossCallReturnLabel_600:
   \   000064   242C         ADD       A,#0x2c
   \   000066   12....       LCALL     ?Subroutine55 & 0xFFFF
   \                     ??CrossCallReturnLabel_453:
   \   000069   6006         JZ        ??ZDO_RemoveMatchMemory_6
   2439              {
   2440                osal_mem_free( matchED->ed2.outClusters );
   \   00006B                ; Setup parameters for call to function osal_mem_free
   \   00006B   12....       LCALL     ?Subroutine71 & 0xFFFF
   2441              }
   \                     ??CrossCallReturnLabel_113:
   \   00006E   12....       LCALL     `??osal_mem_free::?relay`; Banked call to: osal_mem_free
   2442          
   2443              osal_mem_free( matchED );
   \                     ??ZDO_RemoveMatchMemory_6:
   \   000071                ; Setup parameters for call to function osal_mem_free
   \   000071   90....       MOV       DPTR,#matchED
   \   000074   12....       LCALL     ??Subroutine243_0 & 0xFFFF
   \                     ??CrossCallReturnLabel_505:
   \   000077   12....       LCALL     `??osal_mem_free::?relay`; Banked call to: osal_mem_free
   2444              matchED = (ZDMatchEndDeviceBind_t *)NULL;
   \   00007A   90....       MOV       DPTR,#matchED
   \   00007D   E4           CLR       A
   \   00007E   F0           MOVX      @DPTR,A
   \   00007F   A3           INC       DPTR
   \   000080   F0           MOVX      @DPTR,A
   2445            }
   2446          }
   \                     ??ZDO_RemoveMatchMemory_0:
   \   000081   02....       LJMP      ?Subroutine0 & 0xFFFF
   2447          
   2448          /*********************************************************************
   2449           * @fn      ZDO_CopyMatchInfo()
   2450           *
   2451           * @brief   Called to copy memory used for the end device bind.
   2452           *
   2453           * @param  srcReq - source information
   2454           * @param  dstReq - destination location
   2455           *
   2456           * @return  TRUE if copy was successful.
   2457           */

   \                                 In  segment BANKED_CODE, align 1, keep-with-next
   2458          static uint8 ZDO_CopyMatchInfo( ZDEndDeviceBind_t *destReq, ZDEndDeviceBind_t *srcReq )
   \                     ZDO_CopyMatchInfo:
   2459          {
   \   000000                REQUIRE ?V0
   \   000000                REQUIRE ?V1
   \   000000                REQUIRE ?V2
   \   000000                REQUIRE ?V4
   \   000000                REQUIRE ?V5
   \   000000                REQUIRE ?V6
   \   000000   74F1         MOV       A,#-0xf
   \   000002   12....       LCALL     ?BANKED_ENTER_XDATA
   \   000005                ; Saved register size: 15
   \   000005                ; Auto size: 0
   \   000005   EA           MOV       A,R2
   \   000006   FE           MOV       R6,A
   \   000007   EB           MOV       A,R3
   \   000008   FF           MOV       R7,A
   \   000009   8C..         MOV       ?V0,R4
   \   00000B   8D..         MOV       ?V1,R5
   2460            uint8 allOK = TRUE;
   \   00000D   75..01       MOV       ?V2,#0x1
   2461          
   2462            // Copy bind information into the match info structure
   2463            osal_memcpy( (uint8 *)destReq, srcReq, sizeof ( ZDEndDeviceBind_t ) );
   \   000010                ; Setup parameters for call to function osal_memcpy
   \   000010   8C..         MOV       ?V4,R4
   \   000012   8D..         MOV       ?V5,R5
   \   000014   75..00       MOV       ?V6,#0x0
   \   000017   78..         MOV       R0,#?V4
   \   000019   12....       LCALL     ?PUSH_XSTACK_I_THREE
   \   00001C   7C17         MOV       R4,#0x17
   \   00001E   7D00         MOV       R5,#0x0
   \   000020   12....       LCALL     `??osal_memcpy::?relay`; Banked call to: osal_memcpy
   \   000023   7403         MOV       A,#0x3
   \   000025   12....       LCALL     ?DEALLOC_XSTACK8
   2464          
   2465            // Initialize the destination cluster pointers
   2466            destReq->inClusters = NULL;
   \   000028   12....       LCALL     ?Subroutine19 & 0xFFFF
   2467            destReq->outClusters = NULL;
   2468          
   2469            // Copy input cluster IDs
   2470            if ( srcReq->numInClusters )
   \                     ??CrossCallReturnLabel_16:
   \   00002B   E5..         MOV       A,?V0
   \   00002D   2411         ADD       A,#0x11
   \   00002F   12....       LCALL     ??Subroutine246_0 & 0xFFFF
   \                     ??CrossCallReturnLabel_529:
   \   000032   E0           MOVX      A,@DPTR
   \   000033   6037         JZ        ??ZDO_CopyMatchInfo_0
   \   000035                ; Setup parameters for call to function osal_mem_alloc
   \   000035   12....       LCALL     ??Subroutine268_0 & 0xFFFF
   2471            {
   2472              destReq->inClusters = osal_mem_alloc( (short)(srcReq->numInClusters * sizeof ( uint16 )) );
   \                     ??CrossCallReturnLabel_670:
   \   000038   12....       LCALL     `??osal_mem_alloc::?relay`; Banked call to: osal_mem_alloc
   \   00003B   8A..         MOV       ?V4,R2
   \   00003D   8B..         MOV       ?V5,R3
   \   00003F   A8..         MOV       R0,?V4
   \   000041   A9..         MOV       R1,?V5
   \   000043   12....       LCALL     ?Subroutine22 & 0xFFFF
   2473              if ( destReq->inClusters )
   \                     ??CrossCallReturnLabel_542:
   \   000046   6021         JZ        ??ZDO_CopyMatchInfo_1
   2474              {
   2475                // Copy the clusters
   2476                osal_memcpy( (uint8*)(destReq->inClusters), (uint8 *)(srcReq->inClusters),
   2477                                (srcReq->numInClusters * sizeof ( uint16 )) );
   \   000048                ; Setup parameters for call to function osal_memcpy
   \   000048   E5..         MOV       A,?V0
   \   00004A   2412         ADD       A,#0x12
   \   00004C   12....       LCALL     ?Subroutine108 & 0xFFFF
   2478              }
   \                     ??CrossCallReturnLabel_161:
   \   00004F   12....       LCALL     ?PUSH_XSTACK_I_THREE
   \   000052   E5..         MOV       A,?V0
   \   000054   2411         ADD       A,#0x11
   \   000056   12....       LCALL     ?Subroutine114 & 0xFFFF
   \                     ??CrossCallReturnLabel_173:
   \   000059   12....       LCALL     ??Subroutine215_0 & 0xFFFF
   \                     ??CrossCallReturnLabel_348:
   \   00005C   12....       LCALL     ??Subroutine243_0 & 0xFFFF
   \                     ??CrossCallReturnLabel_506:
   \   00005F   12....       LCALL     `??osal_memcpy::?relay`; Banked call to: osal_memcpy
   \   000062   7403         MOV       A,#0x3
   \   000064   12....       LCALL     ?DEALLOC_XSTACK8
   \   000067   8003         SJMP      ??ZDO_CopyMatchInfo_0
   2479              else
   2480              {
   2481                allOK = FALSE;
   \                     ??ZDO_CopyMatchInfo_1:
   \   000069   75..00       MOV       ?V2,#0x0
   2482              }
   2483            }
   2484          
   2485            // Copy output cluster IDs
   2486            if ( srcReq->numOutClusters )
   \                     ??ZDO_CopyMatchInfo_0:
   \   00006C   E5..         MOV       A,?V0
   \   00006E   2414         ADD       A,#0x14
   \   000070   12....       LCALL     ??Subroutine246_0 & 0xFFFF
   \                     ??CrossCallReturnLabel_530:
   \   000073   E0           MOVX      A,@DPTR
   \   000074   6035         JZ        ??ZDO_CopyMatchInfo_2
   \   000076                ; Setup parameters for call to function osal_mem_alloc
   \   000076   12....       LCALL     ??Subroutine268_0 & 0xFFFF
   2487            {
   2488              destReq->outClusters = osal_mem_alloc( (short)(srcReq->numOutClusters * sizeof ( uint16 )) );
   \                     ??CrossCallReturnLabel_671:
   \   000079   12....       LCALL     `??osal_mem_alloc::?relay`; Banked call to: osal_mem_alloc
   \   00007C   8A..         MOV       ?V4,R2
   \   00007E   8B..         MOV       ?V5,R3
   \   000080   A8..         MOV       R0,?V4
   \   000082   A9..         MOV       R1,?V5
   \   000084   EE           MOV       A,R6
   \   000085   2415         ADD       A,#0x15
   \   000087   12....       LCALL     ??Subroutine248_0 & 0xFFFF
   2489              if ( destReq->outClusters )
   \                     ??CrossCallReturnLabel_543:
   \   00008A   6055         JZ        ??ZDO_CopyMatchInfo_3
   2490              {
   2491                // Copy the clusters
   2492                osal_memcpy( (uint8 *)(destReq->outClusters), (uint8 *)(srcReq->outClusters),
   2493                                (srcReq->numOutClusters * sizeof ( uint16 )) );
   \   00008C                ; Setup parameters for call to function osal_memcpy
   \   00008C   E5..         MOV       A,?V0
   \   00008E   2415         ADD       A,#0x15
   \   000090   12....       LCALL     ?Subroutine108 & 0xFFFF
   2494              }
   \                     ??CrossCallReturnLabel_162:
   \   000093   12....       LCALL     ?PUSH_XSTACK_I_THREE
   \   000096   E5..         MOV       A,?V0
   \   000098   2414         ADD       A,#0x14
   \   00009A   12....       LCALL     ?Subroutine114 & 0xFFFF
   \                     ??CrossCallReturnLabel_174:
   \   00009D   12....       LCALL     ?Subroutine145 & 0xFFFF
   \                     ??CrossCallReturnLabel_221:
   \   0000A0   12....       LCALL     ??Subroutine243_0 & 0xFFFF
   \                     ??CrossCallReturnLabel_507:
   \   0000A3   12....       LCALL     `??osal_memcpy::?relay`; Banked call to: osal_memcpy
   \   0000A6   7403         MOV       A,#0x3
   \   0000A8   12....       LCALL     ?DEALLOC_XSTACK8
   2495              else
   2496              {
   2497                allOK = FALSE;
   2498              }
   2499            }
   2500          
   2501            if ( allOK == FALSE )
   \                     ??ZDO_CopyMatchInfo_2:
   \   0000AB   E5..         MOV       A,?V2
   \   0000AD   A2E0         MOV       C,0xE0 /* A   */.0
   \   0000AF   402B         JC        ??ZDO_CopyMatchInfo_4
   2502            {
   2503              if ( destReq->inClusters != NULL )
   \                     ??ZDO_CopyMatchInfo_5:
   \   0000B1   EE           MOV       A,R6
   \   0000B2   2412         ADD       A,#0x12
   \   0000B4   F582         MOV       DPL,A
   \   0000B6   E4           CLR       A
   \   0000B7   3F           ADDC      A,R7
   \   0000B8   12....       LCALL     ??Subroutine230_0 & 0xFFFF
   \                     ??CrossCallReturnLabel_444:
   \   0000BB   6009         JZ        ??ZDO_CopyMatchInfo_6
   2504              {
   2505                osal_mem_free( destReq->inClusters );
   \   0000BD                ; Setup parameters for call to function osal_mem_free
   \   0000BD   12....       LCALL     ?Subroutine147 & 0xFFFF
   2506              }
   \                     ??CrossCallReturnLabel_350:
   \   0000C0   12....       LCALL     ??Subroutine243_0 & 0xFFFF
   \                     ??CrossCallReturnLabel_508:
   \   0000C3   12....       LCALL     `??osal_mem_free::?relay`; Banked call to: osal_mem_free
   2507              if ( destReq->outClusters != NULL )
   \                     ??ZDO_CopyMatchInfo_6:
   \   0000C6   EE           MOV       A,R6
   \   0000C7   2415         ADD       A,#0x15
   \   0000C9   F582         MOV       DPL,A
   \   0000CB   E4           CLR       A
   \   0000CC   3F           ADDC      A,R7
   \   0000CD   12....       LCALL     ??Subroutine230_0 & 0xFFFF
   \                     ??CrossCallReturnLabel_445:
   \   0000D0   600A         JZ        ??ZDO_CopyMatchInfo_4
   2508              {
   2509                osal_mem_free( destReq->outClusters );
   \   0000D2                ; Setup parameters for call to function osal_mem_free
   \   0000D2   EE           MOV       A,R6
   \   0000D3   12....       LCALL     ?Subroutine145 & 0xFFFF
   2510              }
   2511            }
   \                     ??CrossCallReturnLabel_222:
   \   0000D6   12....       LCALL     ??Subroutine243_0 & 0xFFFF
   \                     ??CrossCallReturnLabel_509:
   \   0000D9   12....       LCALL     `??osal_mem_free::?relay`; Banked call to: osal_mem_free
   2512          
   2513            return ( allOK );
   \                     ??ZDO_CopyMatchInfo_4:
   \   0000DC   A9..         MOV       R1,?V2
   \   0000DE   02....       LJMP      ??Subroutine236_0 & 0xFFFF
   \                     ??ZDO_CopyMatchInfo_3:
   \   0000E1   75..00       MOV       ?V2,#0x0
   \   0000E4   80CB         SJMP      ??ZDO_CopyMatchInfo_5
   2514          }

   \                                 In  segment BANKED_CODE, align 1, keep-with-next
   \                     ?Subroutine145:
   \   000000   12....       LCALL     ?Subroutine199 & 0xFFFF
   \                     ??CrossCallReturnLabel_320:
   \   000003   22           RET

   \                                 In  segment BANKED_CODE, align 1, keep-with-next
   \                     ??Subroutine246_0:
   \   000000   F582         MOV       DPL,A
   \   000002   E4           CLR       A
   \   000003                REQUIRE ??Subroutine247_0
   \   000003                ; // Fall through to label ??Subroutine247_0

   \                                 In  segment BANKED_CODE, align 1, keep-with-next
   \                     ?Subroutine114:
   \   000000   12....       LCALL     ?Subroutine188 & 0xFFFF
   \                     ??CrossCallReturnLabel_309:
   \   000003   25E0         ADD       A,0xE0 /* A   */
   \   000005   FC           MOV       R4,A
   \   000006   E4           CLR       A
   \   000007   33           RLC       A
   \   000008   FD           MOV       R5,A
   \   000009   EE           MOV       A,R6
   \   00000A   22           RET

   \                                 In  segment BANKED_CODE, align 1, keep-with-next
   \                     ?Subroutine108:
   \   000000   12....       LCALL     ?Subroutine188 & 0xFFFF
   \                     ??CrossCallReturnLabel_308:
   \   000003   F5..         MOV       ?V4,A
   \   000005   A3           INC       DPTR
   \   000006   E0           MOVX      A,@DPTR
   \   000007   F5..         MOV       ?V5,A
   \   000009   78..         MOV       R0,#?V4
   \   00000B   22           RET

   \                                 In  segment BANKED_CODE, align 1, keep-with-next
   \                     ?Subroutine22:
   \   000000   EE           MOV       A,R6
   \   000001   2412         ADD       A,#0x12
   \   000003                REQUIRE ??Subroutine248_0
   \   000003                ; // Fall through to label ??Subroutine248_0

   \                                 In  segment BANKED_CODE, align 1, keep-with-next
   \                     ??Subroutine248_0:
   \   000000   F582         MOV       DPL,A
   \   000002   E4           CLR       A
   \   000003   3F           ADDC      A,R7
   \   000004   F583         MOV       DPH,A
   \   000006                REQUIRE ??Subroutine249_0
   \   000006                ; // Fall through to label ??Subroutine249_0

   \                                 In  segment BANKED_CODE, align 1, keep-with-next
   \                     ??Subroutine249_0:
   \   000000   E8           MOV       A,R0
   \   000001   F0           MOVX      @DPTR,A
   \   000002   A3           INC       DPTR
   \   000003   E9           MOV       A,R1
   \   000004   F0           MOVX      @DPTR,A
   \   000005   E8           MOV       A,R0
   \   000006   49           ORL       A,R1
   \   000007   22           RET

   \                                 In  segment BANKED_CODE, align 1, keep-with-next
   \                     ?Subroutine19:
   \   000000   EE           MOV       A,R6
   \   000001   12....       LCALL     ?Subroutine190 & 0xFFFF
   \                     ??CrossCallReturnLabel_351:
   \   000004   E4           CLR       A
   \   000005   F0           MOVX      @DPTR,A
   \   000006   A3           INC       DPTR
   \   000007   12....       LCALL     ?Subroutine160 & 0xFFFF
   \                     ??CrossCallReturnLabel_258:
   \   00000A   E4           CLR       A
   \   00000B   F0           MOVX      @DPTR,A
   \   00000C   A3           INC       DPTR
   \   00000D   F0           MOVX      @DPTR,A
   \   00000E   22           RET
   2515          
   2516          /*********************************************************************
   2517           * @fn      ZDMatchSendState()
   2518           *
   2519           * @brief   State machine for the End device match message algorithm.
   2520           *
   2521           * @param  reason - state of algoritm
   2522           * @param  status - initial message status
   2523           * @param  TransSeq - next transaction sequence number
   2524           *
   2525           * @return  FALSE if error and we are not currently matching, TRUE
   2526           *          if success.
   2527           */

   \                                 In  segment BANKED_CODE, align 1, keep-with-next
   2528          uint8 ZDMatchSendState( uint8 reason, uint8 status, uint8 TransSeq )
   \                     ZDMatchSendState:
   2529          {
   \   000000                REQUIRE ?V0
   \   000000                REQUIRE ?V1
   \   000000                REQUIRE ?V2
   \   000000                REQUIRE ?V3
   \   000000                REQUIRE ?V4
   \   000000                REQUIRE ?V5
   \   000000                REQUIRE ?V6
   \   000000                REQUIRE ?V7
   \   000000                REQUIRE ?V8
   \   000000                REQUIRE ?V9
   \   000000   74EE         MOV       A,#-0x12
   \   000002   12....       LCALL     ?BANKED_ENTER_XDATA
   \   000005                ; Saved register size: 18
   \   000005                ; Auto size: 19
   \   000005   74ED         MOV       A,#-0x13
   \   000007   12....       LCALL     ?ALLOC_XSTACK8
   \   00000A   89..         MOV       ?V3,R1
   \   00000C   8A..         MOV       ?V6,R2
   \   00000E   8B..         MOV       ?V7,R3
   2530            uint8 *dstIEEEAddr = NULL;
   \   000010   75..00       MOV       ?V4,#0x0
   \   000013   75..00       MOV       ?V5,#0x0
   2531            uint8 dstEP = 0xFF;
   \   000016   75..FF       MOV       ?V2,#-0x1
   2532            zAddrType_t dstAddr;
   2533            zAddrType_t destinationAddr;
   2534            uint16 msgType;
   2535            uint16 clusterID = 0xFFFF;
   \   000019   75..FF       MOV       ?V8,#-0x1
   \   00001C   75..FF       MOV       ?V9,#-0x1
   2536            ZDEndDeviceBind_t *ed = NULL;
   \   00001F   75..00       MOV       ?V0,#0x0
   \   000022   75..00       MOV       ?V1,#0x0
   2537            uint8 rspStatus = ZDP_SUCCESS;
   \   000025   85..82       MOV       DPL,?XSP + 0
   \   000028   85..83       MOV       DPH,?XSP + 1
   \   00002B   E4           CLR       A
   \   00002C   12....       LCALL     ?Subroutine54 & 0xFFFF
   2538          
   2539            if ( matchED == NULL )
   \                     ??CrossCallReturnLabel_82:
   \   00002F   F9           MOV       R1,A
   \   000030   E8           MOV       A,R0
   \   000031   49           ORL       A,R1
   \   000032   6017         JZ        ??ZDMatchSendState_0
   2540            {
   2541              return ( FALSE );
   2542            }
   2543          
   2544            // Check sequence number
   2545            if ( reason == ZDMATCH_REASON_BIND_RSP || reason == ZDMATCH_REASON_UNBIND_RSP )
   \   000034   7403         MOV       A,#0x3
   \   000036   65..         XRL       A,?V3
   \   000038   6006         JZ        ??ZDMatchSendState_1
   \   00003A   7402         MOV       A,#0x2
   \   00003C   65..         XRL       A,?V3
   \   00003E   7010         JNZ       ??ZDMatchSendState_2
   2546            {
   2547              if ( TransSeq != matchED->transSeq )
   \                     ??ZDMatchSendState_1:
   \   000040   E0           MOVX      A,@DPTR
   \   000041   C8           XCH       A,R0
   \   000042   2430         ADD       A,#0x30
   \   000044   12....       LCALL     ?Subroutine146 & 0xFFFF
   \                     ??CrossCallReturnLabel_231:
   \   000047   65..         XRL       A,?V7
   \   000049   6005         JZ        ??ZDMatchSendState_2
   2548              {
   2549                return( FALSE ); // ignore the message
   \                     ??ZDMatchSendState_0:
   \   00004B   7900         MOV       R1,#0x0
   \   00004D   02....       LJMP      ??ZDMatchSendState_3 & 0xFFFF
   2550              }
   2551            }
   2552          
   2553            // turn off timer
   2554            APS_SetEndDeviceBindTimeout( 0, ZDO_EndDeviceBindMatchTimeoutCB );
   \                     ??ZDMatchSendState_2:
   \   000050                ; Setup parameters for call to function APS_SetEndDeviceBindTimeout
   \   000050   7C..         MOV       R4,#`??ZDO_EndDeviceBindMatchTimeoutCB::?relay` & 0xff
   \   000052   7D..         MOV       R5,#(`??ZDO_EndDeviceBindMatchTimeoutCB::?relay` >> 8) & 0xff
   \   000054   7A00         MOV       R2,#0x0
   \   000056   7B00         MOV       R3,#0x0
   \   000058   12....       LCALL     `??APS_SetEndDeviceBindTimeout::?relay`; Banked call to: APS_SetEndDeviceBindTimeout
   2555          
   2556            if ( reason == ZDMATCH_REASON_TIMEOUT )
   \   00005B   7401         MOV       A,#0x1
   \   00005D   65..         XRL       A,?V3
   \   00005F   700A         JNZ       ??ZDMatchSendState_4
   2557            {
   2558              rspStatus = ZDP_TIMEOUT;    // The process will stop
   \   000061   85..82       MOV       DPL,?XSP + 0
   \   000064   85..83       MOV       DPH,?XSP + 1
   \   000067   7485         MOV       A,#-0x7b
   \   000069   803D         SJMP      ??ZDMatchSendState_5
   2559            }
   2560          
   2561            if ( reason == ZDMATCH_REASON_START || reason == ZDMATCH_REASON_BIND_RSP )
   \                     ??ZDMatchSendState_4:
   \   00006B   E5..         MOV       A,?V3
   \   00006D   6006         JZ        ??ZDMatchSendState_6
   \   00006F   7403         MOV       A,#0x3
   \   000071   65..         XRL       A,?V3
   \   000073   7019         JNZ       ??ZDMatchSendState_7
   2562            {
   2563              matchED->sending = ZDMATCH_SENDING_UNBIND;
   \                     ??ZDMatchSendState_6:
   \   000075   90....       MOV       DPTR,#matchED
   \   000078   12....       LCALL     ?Subroutine82 & 0xFFFF
   \                     ??CrossCallReturnLabel_129:
   \   00007B   F0           MOVX      @DPTR,A
   2564          
   2565              if ( reason == ZDMATCH_REASON_BIND_RSP && status != ZDP_SUCCESS )
   \   00007C   7403         MOV       A,#0x3
   \   00007E   65..         XRL       A,?V3
   \   000080   7029         JNZ       ??ZDMatchSendState_8
   \   000082   E5..         MOV       A,?V6
   \   000084   6029         JZ        ??ZDMatchSendState_9
   2566              {
   2567                rspStatus = status;
   \   000086   85..82       MOV       DPL,?XSP + 0
   \   000089   85..83       MOV       DPH,?XSP + 1
   \   00008C   801A         SJMP      ??ZDMatchSendState_5
   2568              }
   2569            }
   2570            else if ( reason == ZDMATCH_REASON_UNBIND_RSP )
   \                     ??ZDMatchSendState_7:
   \   00008E   7402         MOV       A,#0x2
   \   000090   65..         XRL       A,?V3
   \   000092   701B         JNZ       ??ZDMatchSendState_9
   2571            {
   2572              if ( status == ZDP_SUCCESS )
   \   000094   E5..         MOV       A,?V6
   \   000096   90....       MOV       DPTR,#matchED
   \   000099   7005         JNZ       ??ZDMatchSendState_10
   2573              {
   2574                matchED->sending = ZDMATCH_SENDING_UNBIND;
   \   00009B   12....       LCALL     ?Subroutine82 & 0xFFFF
   2575              }
   \                     ??CrossCallReturnLabel_130:
   \   00009E   8008         SJMP      ??ZDMatchSendState_5
   2576              else
   2577              {
   2578                matchED->sending = ZDMATCH_SENDING_BIND;
   \                     ??ZDMatchSendState_10:
   \   0000A0   12....       LCALL     ??Subroutine257_0 & 0xFFFF
   2579              }
   2580            }
   \                     ??CrossCallReturnLabel_588:
   \   0000A3   12....       LCALL     ?Subroutine200 & 0xFFFF
   \                     ??CrossCallReturnLabel_322:
   \   0000A6   7402         MOV       A,#0x2
   \                     ??ZDMatchSendState_5:
   \   0000A8   F0           MOVX      @DPTR,A
   \   0000A9   8004         SJMP      ??ZDMatchSendState_9
   2581          
   2582            if ( reason != ZDMATCH_REASON_START && matchED->sending == ZDMATCH_SENDING_UNBIND )
   \                     ??ZDMatchSendState_8:
   \   0000AB   E5..         MOV       A,?V3
   \   0000AD   601E         JZ        ??ZDMatchSendState_11
   \                     ??ZDMatchSendState_9:
   \   0000AF   12....       LCALL     ?Subroutine80 & 0xFFFF
   \                     ??CrossCallReturnLabel_127:
   \   0000B2   7019         JNZ       ??ZDMatchSendState_11
   2583            {
   2584              // Move to the next cluster ID
   2585              if ( matchED->ed1numMatched )
   \   0000B4   12....       LCALL     ?Subroutine78 & 0xFFFF
   \                     ??CrossCallReturnLabel_123:
   \   0000B7   6005         JZ        ??ZDMatchSendState_12
   2586              {
   2587                matchED->ed1numMatched--;
   \   0000B9   12....       LCALL     ??Subroutine237_0 & 0xFFFF
   2588              }
   \                     ??CrossCallReturnLabel_468:
   \   0000BC   800A         SJMP      ??ZDMatchSendState_13
   2589              else if ( matchED->ed2numMatched )
   \                     ??ZDMatchSendState_12:
   \   0000BE   12....       LCALL     ?Subroutine61 & 0xFFFF
   \                     ??CrossCallReturnLabel_96:
   \   0000C1   600A         JZ        ??ZDMatchSendState_11
   2590              {
   2591                matchED->ed2numMatched--;
   \   0000C3   12....       LCALL     ?Subroutine94 & 0xFFFF
   2592              }
   2593            }
   \                     ??CrossCallReturnLabel_601:
   \   0000C6   2434         ADD       A,#0x34
   \                     ??ZDMatchSendState_13:
   \   0000C8   12....       LCALL     ?Subroutine146 & 0xFFFF
   \                     ??CrossCallReturnLabel_232:
   \   0000CB   14           DEC       A
   \   0000CC   F0           MOVX      @DPTR,A
   2594          
   2595            // What message do we send now
   2596            if ( matchED->ed1numMatched )
   \                     ??ZDMatchSendState_11:
   \   0000CD   12....       LCALL     ?Subroutine78 & 0xFFFF
   \                     ??CrossCallReturnLabel_124:
   \   0000D0   6018         JZ        ??ZDMatchSendState_14
   2597            {
   2598              ed = &(matchED->ed1);
   \   0000D2   12....       LCALL     ??Subroutine234_0 & 0xFFFF
   2599              clusterID = matchED->ed1Matched[matchED->ed1numMatched-1];
   \                     ??CrossCallReturnLabel_458:
   \   0000D5   12....       LCALL     ?Subroutine56 & 0xFFFF
   2600              dstIEEEAddr = matchED->ed2.ieeeAddr;
   2601              dstEP = matchED->ed2.endpoint;
   2602            }
   \                     ??CrossCallReturnLabel_85:
   \   0000D8   12....       LCALL     ?Subroutine202 & 0xFFFF
   \                     ??CrossCallReturnLabel_695:
   \   0000DB   CA           XCH       A,R2
   \   0000DC   2432         ADD       A,#0x32
   \   0000DE   12....       LCALL     ?Subroutine59 & 0xFFFF
   \                     ??CrossCallReturnLabel_91:
   \   0000E1   241D         ADD       A,#0x1d
   \   0000E3   12....       LCALL     ?Subroutine89 & 0xFFFF
   \                     ??CrossCallReturnLabel_139:
   \   0000E6   2425         ADD       A,#0x25
   \   0000E8   8026         SJMP      ??ZDMatchSendState_15
   2603            else if ( matchED->ed2numMatched )
   \                     ??ZDMatchSendState_14:
   \   0000EA   12....       LCALL     ?Subroutine61 & 0xFFFF
   \                     ??CrossCallReturnLabel_97:
   \   0000ED   6026         JZ        ??ZDMatchSendState_16
   2604            {
   2605              ed = &(matchED->ed2);
   \   0000EF   90....       MOV       DPTR,#matchED
   \   0000F2   E0           MOVX      A,@DPTR
   \   0000F3   2417         ADD       A,#0x17
   \   0000F5   F5..         MOV       ?V0,A
   \   0000F7   A3           INC       DPTR
   \   0000F8   E0           MOVX      A,@DPTR
   \   0000F9   3400         ADDC      A,#0x0
   \   0000FB   F5..         MOV       ?V1,A
   2606              clusterID = matchED->ed2Matched[matchED->ed2numMatched-1];
   \   0000FD   12....       LCALL     ?Subroutine57 & 0xFFFF
   2607              dstIEEEAddr = matchED->ed1.ieeeAddr;
   2608              dstEP = matchED->ed1.endpoint;
   2609            }
   \                     ??CrossCallReturnLabel_88:
   \   000100   12....       LCALL     ?Subroutine202 & 0xFFFF
   \                     ??CrossCallReturnLabel_696:
   \   000103   CA           XCH       A,R2
   \   000104   2435         ADD       A,#0x35
   \   000106   12....       LCALL     ?Subroutine59 & 0xFFFF
   \                     ??CrossCallReturnLabel_92:
   \   000109   2406         ADD       A,#0x6
   \   00010B   12....       LCALL     ?Subroutine89 & 0xFFFF
   \                     ??CrossCallReturnLabel_140:
   \   00010E   240E         ADD       A,#0xe
   \                     ??ZDMatchSendState_15:
   \   000110   12....       LCALL     ?Subroutine146 & 0xFFFF
   \                     ??CrossCallReturnLabel_233:
   \   000113   F5..         MOV       ?V2,A
   2610          
   2611            dstAddr.addrMode = Addr16Bit;
   \                     ??ZDMatchSendState_16:
   \   000115   7409         MOV       A,#0x9
   \   000117   12....       LCALL     ?XSTACK_DISP0_8
   \   00011A   7402         MOV       A,#0x2
   \   00011C   12....       LCALL     ?Subroutine36 & 0xFFFF
   2612          
   2613            // Send the next message
   2614            if ( (rspStatus == ZDP_SUCCESS) && ed )
   \                     ??CrossCallReturnLabel_46:
   \   00011F   E0           MOVX      A,@DPTR
   \   000120   6003         JZ        $+5
   \   000122   02....       LJMP      ??ZDMatchSendState_17 & 0xFFFF
   \   000125   E5..         MOV       A,?V0
   \   000127   45..         ORL       A,?V1
   \   000129   7003         JNZ       $+5
   \   00012B   02....       LJMP      ??ZDMatchSendState_17 & 0xFFFF
   2615            {
   2616              // Send unbind/bind message to source
   2617              if ( matchED->sending == ZDMATCH_SENDING_UNBIND )
   \   00012E   12....       LCALL     ?Subroutine80 & 0xFFFF
   \                     ??CrossCallReturnLabel_128:
   \   000131   7004         JNZ       ??ZDMatchSendState_18
   2618              {
   2619                msgType = Unbind_req;
   \   000133   7E22         MOV       R6,#0x22
   \   000135   8002         SJMP      ??ZDMatchSendState_19
   2620              }
   2621              else
   2622              {
   2623                msgType = Bind_req;
   \                     ??ZDMatchSendState_18:
   \   000137   7E21         MOV       R6,#0x21
   2624              }
   2625          
   2626              dstAddr.addr.shortAddr = ed->srcAddr;
   \                     ??ZDMatchSendState_19:
   \   000139   85..82       MOV       DPL,?V0
   \   00013C   85..83       MOV       DPH,?V1
   \   00013F   12....       LCALL     ??Subroutine238_0 & 0xFFFF
   \                     ??CrossCallReturnLabel_472:
   \   000142   12....       LCALL     ?XSTACK_DISP0_8
   \   000145   12....       LCALL     ??Subroutine221_0 & 0xFFFF
   2627          
   2628              // Save off the transaction sequence number
   2629              matchED->transSeq = ZDP_TransID;
   \                     ??CrossCallReturnLabel_384:
   \   000148   90....       MOV       DPTR,#ZDP_TransID
   \   00014B   E0           MOVX      A,@DPTR
   \   00014C   C0E0         PUSH      A
   \   00014E   12....       LCALL     ?Subroutine94 & 0xFFFF
   \                     ??CrossCallReturnLabel_602:
   \   000151   2430         ADD       A,#0x30
   \   000153   F582         MOV       DPL,A
   \   000155   E4           CLR       A
   \   000156   38           ADDC      A,R0
   \   000157   F583         MOV       DPH,A
   \   000159   D0E0         POP       A
   \   00015B   F0           MOVX      @DPTR,A
   2630          
   2631              destinationAddr.addrMode = Addr64Bit;
   \   00015C   7412         MOV       A,#0x12
   \   00015E   12....       LCALL     ?XSTACK_DISP0_8
   \   000161   7403         MOV       A,#0x3
   \   000163   F0           MOVX      @DPTR,A
   2632              osal_cpyExtAddr( destinationAddr.addr.extAddr, dstIEEEAddr );
   \   000164                ; Setup parameters for call to function sAddrExtCpy
   \   000164   AC..         MOV       R4,?V4
   \   000166   AD..         MOV       R5,?V5
   \   000168   740A         MOV       A,#0xa
   \   00016A   12....       LCALL     ?XSTACK_DISP101_8
   \   00016D   12....       LCALL     `??sAddrExtCpy::?relay`; Banked call to: sAddrExtCpy
   2633          
   2634              ZDP_BindUnbindReq( msgType, &dstAddr, ed->ieeeAddr, ed->endpoint, clusterID,
   2635                  &destinationAddr, dstEP, ed->SecurityUse );
   \   000170                ; Setup parameters for call to function ZDP_BindUnbindReq
   \   000170   85..82       MOV       DPL,?V0
   \   000173   85..83       MOV       DPH,?V1
   \   000176   A3           INC       DPTR
   \   000177   E0           MOVX      A,@DPTR
   \   000178   F5..         MOV       ?V4,A
   \   00017A   78..         MOV       R0,#?V4
   \   00017C   12....       LCALL     ?PUSH_XSTACK_I_ONE
   \   00017F   78..         MOV       R0,#?V2
   \   000181   12....       LCALL     ?PUSH_XSTACK_I_ONE
   \   000184   740C         MOV       A,#0xc
   \   000186   12....       LCALL     ?XSTACK_DISP100_8
   \   000189   88..         MOV       ?V4,R0
   \   00018B   89..         MOV       ?V5,R1
   \   00018D   78..         MOV       R0,#?V4
   \   00018F   12....       LCALL     ?PUSH_XSTACK_I_TWO
   \   000192   78..         MOV       R0,#?V8
   \   000194   12....       LCALL     ?PUSH_XSTACK_I_TWO
   \   000197   E5..         MOV       A,?V0
   \   000199   2406         ADD       A,#0x6
   \   00019B   F5..         MOV       ?V4,A
   \   00019D   E4           CLR       A
   \   00019E   35..         ADDC      A,?V1
   \   0001A0   F5..         MOV       ?V5,A
   \   0001A2   78..         MOV       R0,#?V4
   \   0001A4   12....       LCALL     ?PUSH_XSTACK_I_TWO
   \   0001A7   12....       LCALL     ?Subroutine131 & 0xFFFF
   \                     ??CrossCallReturnLabel_198:
   \   0001AA   F9           MOV       R1,A
   \   0001AB   7409         MOV       A,#0x9
   \   0001AD   12....       LCALL     ?XSTACK_DISP102_8
   \   0001B0   EE           MOV       A,R6
   \   0001B1   FA           MOV       R2,A
   \   0001B2   7B00         MOV       R3,#0x0
   \   0001B4   12....       LCALL     `??ZDP_BindUnbindReq::?relay`; Banked call to: ZDP_BindUnbindReq
   \   0001B7   7408         MOV       A,#0x8
   \   0001B9   12....       LCALL     ?DEALLOC_XSTACK8
   2636          
   2637              // Set timeout for response
   2638              APS_SetEndDeviceBindTimeout( AIB_MaxBindingTime, ZDO_EndDeviceBindMatchTimeoutCB );
   \   0001BC                ; Setup parameters for call to function APS_SetEndDeviceBindTimeout
   \   0001BC   7C..         MOV       R4,#`??ZDO_EndDeviceBindMatchTimeoutCB::?relay` & 0xff
   \   0001BE   7D..         MOV       R5,#(`??ZDO_EndDeviceBindMatchTimeoutCB::?relay` >> 8) & 0xff
   \   0001C0   90....       MOV       DPTR,#AIB_MaxBindingTime
   \   0001C3   12....       LCALL     ??Subroutine243_0 & 0xFFFF
   2639            }
   \                     ??CrossCallReturnLabel_510:
   \   0001C6   12....       LCALL     `??APS_SetEndDeviceBindTimeout::?relay`; Banked call to: APS_SetEndDeviceBindTimeout
   \   0001C9   02....       LJMP      ??ZDMatchSendState_20 & 0xFFFF
   2640            else
   2641            {
   2642              // Send the response messages to requesting devices
   2643              // send response to first requester
   2644              dstAddr.addr.shortAddr = matchED->ed1.srcAddr;
   \                     ??ZDMatchSendState_17:
   \   0001CC   90....       MOV       DPTR,#matchED
   \   0001CF   E0           MOVX      A,@DPTR
   \   0001D0   F8           MOV       R0,A
   \   0001D1   A3           INC       DPTR
   \   0001D2   E0           MOVX      A,@DPTR
   \   0001D3   12....       LCALL     ?Subroutine81 & 0xFFFF
   \                     ??CrossCallReturnLabel_474:
   \   0001D6   12....       LCALL     ?XSTACK_DISP0_8
   \   0001D9   12....       LCALL     ?Subroutine15 & 0xFFFF
   2645              ZDP_EndDeviceBindRsp( matchED->ed1.TransSeq, &dstAddr, rspStatus, matchED->ed1.SecurityUse );
   \                     ??CrossCallReturnLabel_9:
   \   0001DC   12....       LCALL     ?PUSH_XSTACK_I_ONE
   \   0001DF   7401         MOV       A,#0x1
   \   0001E1   12....       LCALL     ?XSTACK_DISP100_8
   \   0001E4   88..         MOV       ?V0,R0
   \   0001E6   89..         MOV       ?V1,R1
   \   0001E8   78..         MOV       R0,#?V0
   \   0001EA   12....       LCALL     ?PUSH_XSTACK_I_TWO
   \   0001ED   75..20       MOV       ?V0,#0x20
   \   0001F0   75..80       MOV       ?V1,#-0x80
   \   0001F3   78..         MOV       R0,#?V0
   \   0001F5   12....       LCALL     ?PUSH_XSTACK_I_TWO
   \   0001F8   7901         MOV       R1,#0x1
   \   0001FA   7406         MOV       A,#0x6
   \   0001FC   12....       LCALL     ?XSTACK_DISP102_8
   \   0001FF   90....       MOV       DPTR,#matchED
   \   000202   12....       LCALL     ??Subroutine243_0 & 0xFFFF
   \                     ??CrossCallReturnLabel_511:
   \   000205   12....       LCALL     `??ZDP_SendData::?relay`; Banked call to: ZDP_SendData
   \   000208   7405         MOV       A,#0x5
   \   00020A   12....       LCALL     ?DEALLOC_XSTACK8
   2646          
   2647              // send response to second requester
   2648              if ( matchED->state == ZDMATCH_SENDING_BINDS )
   \   00020D   12....       LCALL     ?Subroutine79 & 0xFFFF
   \                     ??CrossCallReturnLabel_126:
   \   000210   704E         JNZ       ??ZDMatchSendState_21
   2649              {
   2650                dstAddr.addr.shortAddr = matchED->ed2.srcAddr;
   \   000212   12....       LCALL     ?Subroutine94 & 0xFFFF
   2651                ZDP_EndDeviceBindRsp( matchED->ed2.TransSeq, &dstAddr, rspStatus, matchED->ed2.SecurityUse );
   2652              }
   \                     ??CrossCallReturnLabel_603:
   \   000215   2419         ADD       A,#0x19
   \   000217   F582         MOV       DPL,A
   \   000219   E4           CLR       A
   \   00021A   38           ADDC      A,R0
   \   00021B   F583         MOV       DPH,A
   \   00021D   12....       LCALL     ??Subroutine239_0 & 0xFFFF
   \                     ??CrossCallReturnLabel_471:
   \   000220   12....       LCALL     ?XSTACK_DISP0_8
   \   000223   E8           MOV       A,R0
   \   000224   F0           MOVX      @DPTR,A
   \   000225   A3           INC       DPTR
   \   000226   12....       LCALL     ??Subroutine241_0 & 0xFFFF
   \                     ??CrossCallReturnLabel_486:
   \   000229   2418         ADD       A,#0x18
   \   00022B   F582         MOV       DPL,A
   \   00022D   E4           CLR       A
   \   00022E   38           ADDC      A,R0
   \   00022F   12....       LCALL     ??Subroutine251_0 & 0xFFFF
   \                     ??CrossCallReturnLabel_549:
   \   000232   12....       LCALL     ?PUSH_XSTACK_I_ONE
   \   000235   7401         MOV       A,#0x1
   \   000237   12....       LCALL     ?XSTACK_DISP100_8
   \   00023A   88..         MOV       ?V0,R0
   \   00023C   89..         MOV       ?V1,R1
   \   00023E   78..         MOV       R0,#?V0
   \   000240   12....       LCALL     ?PUSH_XSTACK_I_TWO
   \   000243   75..20       MOV       ?V0,#0x20
   \   000246   75..80       MOV       ?V1,#-0x80
   \   000249   78..         MOV       R0,#?V0
   \   00024B   12....       LCALL     ?PUSH_XSTACK_I_TWO
   \   00024E   7901         MOV       R1,#0x1
   \   000250   7406         MOV       A,#0x6
   \   000252   12....       LCALL     ?XSTACK_DISP102_8
   \   000255   12....       LCALL     ?Subroutine110 & 0xFFFF
   \                     ??CrossCallReturnLabel_167:
   \   000258   12....       LCALL     `??ZDP_SendData::?relay`; Banked call to: ZDP_SendData
   \   00025B   7405         MOV       A,#0x5
   \   00025D   12....       LCALL     ?DEALLOC_XSTACK8
   2653          
   2654              // Process ended - release memory used
   2655              ZDO_RemoveMatchMemory();
   \                     ??ZDMatchSendState_21:
   \   000260                ; Setup parameters for call to function ZDO_RemoveMatchMemory
   \   000260   12....       LCALL     `??ZDO_RemoveMatchMemory::?relay`; Banked call to: ZDO_RemoveMatchMemory
   2656            }
   2657          
   2658            return ( TRUE );
   \                     ??ZDMatchSendState_20:
   \   000263   7901         MOV       R1,#0x1
   \                     ??ZDMatchSendState_3:
   \   000265   7413         MOV       A,#0x13
   \   000267   02....       LJMP      ?Subroutine9 & 0xFFFF
   2659          }

   \                                 In  segment BANKED_CODE, align 1, keep-with-next
   \                     ?Subroutine89:
   \   000000   F5..         MOV       ?V4,A
   \   000002   A3           INC       DPTR
   \   000003   E0           MOVX      A,@DPTR
   \   000004   3400         ADDC      A,#0x0
   \   000006   F5..         MOV       ?V5,A
   \   000008   12....       LCALL     ?Subroutine172 & 0xFFFF
   \                     ??CrossCallReturnLabel_611:
   \   00000B   22           RET

   \                                 In  segment BANKED_CODE, align 1, keep-with-next
   \                     ?Subroutine82:
   \   000000   12....       LCALL     ?Subroutine171 & 0xFFFF
   \                     ??CrossCallReturnLabel_281:
   \   000003   7401         MOV       A,#0x1
   \   000005   22           RET

   \                                 In  segment BANKED_CODE, align 1, keep-with-next
   \                     ?Subroutine80:
   \   000000   90....       MOV       DPTR,#matchED
   \   000003   12....       LCALL     ?Subroutine171 & 0xFFFF
   \                     ??CrossCallReturnLabel_280:
   \   000006   E0           MOVX      A,@DPTR
   \   000007   6401         XRL       A,#0x1
   \   000009   22           RET

   \                                 In  segment BANKED_CODE, align 1, keep-with-next
   \                     ?Subroutine171:
   \   000000   12....       LCALL     ?Subroutine197 & 0xFFFF
   \                     ??CrossCallReturnLabel_616:
   \   000003   12....       LCALL     ?Subroutine200 & 0xFFFF
   \                     ??CrossCallReturnLabel_323:
   \   000006   22           RET

   \                                 In  segment BANKED_CODE, align 1, keep-with-next
   \                     ?Subroutine200:
   \   000000   242F         ADD       A,#0x2f
   \   000002   F582         MOV       DPL,A
   \   000004   E4           CLR       A
   \   000005   38           ADDC      A,R0
   \   000006   F583         MOV       DPH,A
   \   000008   22           RET

   \                                 In  segment BANKED_CODE, align 1, keep-with-next
   \                     ?Subroutine78:
   \   000000   12....       LCALL     ?Subroutine169 & 0xFFFF
   \                     ??CrossCallReturnLabel_277:
   \   000003   90....       MOV       DPTR,#matchED
   \   000006   22           RET

   \                                 In  segment BANKED_CODE, align 1, keep-with-next
   \                     ?Subroutine59:
   \   000000   F582         MOV       DPL,A
   \   000002   E4           CLR       A
   \   000003   3A           ADDC      A,R2
   \   000004   F583         MOV       DPH,A
   \   000006   E0           MOVX      A,@DPTR
   \   000007   28           ADD       A,R0
   \   000008   F8           MOV       R0,A
   \   000009   A3           INC       DPTR
   \   00000A   E0           MOVX      A,@DPTR
   \   00000B   39           ADDC      A,R1
   \   00000C   F9           MOV       R1,A
   \   00000D   E8           MOV       A,R0
   \   00000E   24FE         ADD       A,#-0x2
   \   000010   F582         MOV       DPL,A
   \   000012   E9           MOV       A,R1
   \   000013   34FF         ADDC      A,#-0x1
   \   000015   F583         MOV       DPH,A
   \   000017   E0           MOVX      A,@DPTR
   \   000018   F5..         MOV       ?V8,A
   \   00001A   A3           INC       DPTR
   \   00001B   E0           MOVX      A,@DPTR
   \   00001C   F5..         MOV       ?V9,A
   \   00001E   90....       MOV       DPTR,#matchED
   \   000021   E0           MOVX      A,@DPTR
   \   000022   22           RET

   \                                 In  segment BANKED_CODE, align 1, keep-with-next
   \                     ?Subroutine202:
   \   000000   F8           MOV       R0,A
   \   000001   E4           CLR       A
   \   000002   33           RLC       A
   \   000003   F9           MOV       R1,A
   \   000004   90....       MOV       DPTR,#matchED
   \   000007                REQUIRE ??Subroutine262_0
   \   000007                ; // Fall through to label ??Subroutine262_0
   2660          
   2661          /*********************************************************************
   2662           * @fn      ZDO_EndDeviceBindMatchTimeoutCB()
   2663           *
   2664           * @brief   End device bind timeout.
   2665           *
   2666           * @param  none
   2667           *
   2668           * @return  none
   2669           */

   \                                 In  segment BANKED_CODE, align 1, keep-with-next
   2670          static void ZDO_EndDeviceBindMatchTimeoutCB( void )
   \                     ZDO_EndDeviceBindMatchTimeoutCB:
   2671          {
   \   000000   C082         PUSH      DPL
   \   000002   C083         PUSH      DPH
   \   000004                ; Saved register size: 2
   \   000004                ; Auto size: 0
   2672            ZDMatchSendState( ZDMATCH_REASON_TIMEOUT, ZDP_TIMEOUT, 0 );
   \   000004                ; Setup parameters for call to function ZDMatchSendState
   \   000004   7B00         MOV       R3,#0x0
   \   000006   7A85         MOV       R2,#-0x7b
   \   000008   7901         MOV       R1,#0x1
   \   00000A   12....       LCALL     `??ZDMatchSendState::?relay`; Banked call to: ZDMatchSendState
   2673          }
   \   00000D   02....       LJMP      ?Subroutine0 & 0xFFFF
   2674          #endif // ZG_BUILD_COORDINATOR_TYPE
   2675          
   2676          /*********************************************************************
   2677           * ZDO MESSAGE PARSING API FUNCTIONS
   2678           */
   2679          
   2680          /*********************************************************************
   2681           * @fn          ZDO_ParseEndDeviceBindReq
   2682           *
   2683           * @brief       This function parses the End_Device_Bind_req message.
   2684           *
   2685           *     NOTE:  The clusters lists in bindReq are allocated in this
   2686           *            function and must be freed by that calling function.
   2687           *
   2688           * @param       inMsg  - incoming message (request)
   2689           * @param       bindReq - pointer to place to parse message to
   2690           *
   2691           * @return      none
   2692           */

   \                                 In  segment BANKED_CODE, align 1, keep-with-next
   \                     ?Subroutine52:
   \   000000   F582         MOV       DPL,A
   \   000002   E4           CLR       A
   \   000003   3F           ADDC      A,R7
   \   000004   F583         MOV       DPH,A
   \   000006                REQUIRE ??Subroutine221_0
   \   000006                ; // Fall through to label ??Subroutine221_0

   \                                 In  segment BANKED_CODE, align 1, keep-with-next
   \                     ?Subroutine68:
   \   000000   12....       LCALL     ?Subroutine186 & 0xFFFF
   \                     ??CrossCallReturnLabel_303:
   \   000003                REQUIRE ??Subroutine233_0
   \   000003                ; // Fall through to label ??Subroutine233_0

   \                                 In  segment BANKED_CODE, align 1, keep-with-next
   2693          void ZDO_ParseEndDeviceBindReq( zdoIncomingMsg_t *inMsg, ZDEndDeviceBind_t *bindReq )
   \                     ZDO_ParseEndDeviceBindReq:
   2694          {
   \   000000                REQUIRE ?V0
   \   000000                REQUIRE ?V1
   \   000000                REQUIRE ?V2
   \   000000                REQUIRE ?V3
   \   000000   74F4         MOV       A,#-0xc
   \   000002   12....       LCALL     ?BANKED_ENTER_XDATA
   \   000005                ; Saved register size: 12
   \   000005                ; Auto size: 0
   \   000005   EC           MOV       A,R4
   \   000006   FE           MOV       R6,A
   \   000007   ED           MOV       A,R5
   \   000008   FF           MOV       R7,A
   2695            uint8 *msg;
   2696          
   2697            // Parse the message
   2698            bindReq->TransSeq = inMsg->TransSeq;
   \   000009   EA           MOV       A,R2
   \   00000A   12....       LCALL     ?Subroutine136 & 0xFFFF
   \                     ??CrossCallReturnLabel_208:
   \   00000D   3B           ADDC      A,R3
   \   00000E   F583         MOV       DPH,A
   \   000010   12....       LCALL     ?Subroutine180 & 0xFFFF
   \                     ??CrossCallReturnLabel_288:
   \   000013   12....       LCALL     ?Subroutine39 & 0xFFFF
   2699            bindReq->srcAddr = inMsg->srcAddr.addr.shortAddr;
   \                     ??CrossCallReturnLabel_51:
   \   000016   12....       LCALL     ?Subroutine104 & 0xFFFF
   \                     ??CrossCallReturnLabel_158:
   \   000019   A3           INC       DPTR
   \   00001A   A3           INC       DPTR
   \   00001B   12....       LCALL     ??Subroutine221_0 & 0xFFFF
   2700            bindReq->SecurityUse = inMsg->SecurityUse;
   \                     ??CrossCallReturnLabel_385:
   \   00001E   EA           MOV       A,R2
   \   00001F   12....       LCALL     ??Subroutine263_0 & 0xFFFF
   \                     ??CrossCallReturnLabel_647:
   \   000022   3B           ADDC      A,R3
   \   000023   F583         MOV       DPH,A
   \   000025   12....       LCALL     ?Subroutine109 & 0xFFFF
   \                     ??CrossCallReturnLabel_165:
   \   000028   F0           MOVX      @DPTR,A
   2701            msg = inMsg->asdu;
   \   000029   12....       LCALL     ?Subroutine68 & 0xFFFF
   2702          
   2703            bindReq->localCoordinator = BUILD_UINT16( msg[0], msg[1] );
   \                     ??CrossCallReturnLabel_461:
   \   00002C   85..82       MOV       DPL,?V0
   \   00002F   F583         MOV       DPH,A
   \   000031   12....       LCALL     ??Subroutine261_0 & 0xFFFF
   \                     ??CrossCallReturnLabel_638:
   \   000034   8E82         MOV       DPL,R6
   \   000036   8F83         MOV       DPH,R7
   \   000038   A3           INC       DPTR
   \   000039   A3           INC       DPTR
   \   00003A   A3           INC       DPTR
   \   00003B   A3           INC       DPTR
   \   00003C   12....       LCALL     ??Subroutine222_0 & 0xFFFF
   2704            msg += 2;
   \                     ??CrossCallReturnLabel_370:
   \   00003F   E5..         MOV       A,?V0
   \   000041   2402         ADD       A,#0x2
   \   000043   F5..         MOV       ?V0,A
   \   000045   5002         JNC       ??ZDO_ParseEndDeviceBindReq_0
   \   000047   05..         INC       ?V1
   2705          
   2706            osal_cpyExtAddr( bindReq->ieeeAddr, msg );
   \                     ??ZDO_ParseEndDeviceBindReq_0:
   \   000049                ; Setup parameters for call to function sAddrExtCpy
   \   000049   FC           MOV       R4,A
   \   00004A   AD..         MOV       R5,?V1
   \   00004C   EE           MOV       A,R6
   \   00004D   2406         ADD       A,#0x6
   \   00004F   FA           MOV       R2,A
   \   000050   E4           CLR       A
   \   000051   3F           ADDC      A,R7
   \   000052   FB           MOV       R3,A
   \   000053   12....       LCALL     `??sAddrExtCpy::?relay`; Banked call to: sAddrExtCpy
   2707            msg += Z_EXTADDR_LEN;
   2708          
   2709            bindReq->endpoint = *msg++;
   \   000056   85..82       MOV       DPL,?V0
   \   000059   85..83       MOV       DPH,?V1
   \   00005C   A3           INC       DPTR
   \   00005D   A3           INC       DPTR
   \   00005E   A3           INC       DPTR
   \   00005F   A3           INC       DPTR
   \   000060   A3           INC       DPTR
   \   000061   A3           INC       DPTR
   \   000062   A3           INC       DPTR
   \   000063   A3           INC       DPTR
   \   000064   E0           MOVX      A,@DPTR
   \   000065   C0E0         PUSH      A
   \   000067   12....       LCALL     ?Subroutine133 & 0xFFFF
   \                     ??CrossCallReturnLabel_651:
   \   00006A   3F           ADDC      A,R7
   \   00006B   F583         MOV       DPH,A
   \   00006D   D0E0         POP       A
   \   00006F   F0           MOVX      @DPTR,A
   \   000070   E5..         MOV       A,?V0
   \   000072   2409         ADD       A,#0x9
   \   000074   F5..         MOV       ?V0,A
   \   000076   5002         JNC       ??ZDO_ParseEndDeviceBindReq_1
   \   000078   05..         INC       ?V1
   2710            bindReq->profileID = BUILD_UINT16( msg[0], msg[1] );
   \                     ??ZDO_ParseEndDeviceBindReq_1:
   \   00007A   F582         MOV       DPL,A
   \   00007C   85..83       MOV       DPH,?V1
   \   00007F   12....       LCALL     ??Subroutine261_0 & 0xFFFF
   \                     ??CrossCallReturnLabel_639:
   \   000082   F8           MOV       R0,A
   \   000083   EE           MOV       A,R6
   \   000084   240F         ADD       A,#0xf
   \   000086   12....       LCALL     ?Subroutine52 & 0xFFFF
   2711            msg += 2;
   2712          
   2713            bindReq->inClusters = NULL;
   \                     ??CrossCallReturnLabel_386:
   \   000089   12....       LCALL     ?Subroutine19 & 0xFFFF
   2714            bindReq->outClusters = NULL;
   2715          
   2716            if ((bindReq->numInClusters = *msg++) &&
   2717                (bindReq->inClusters = (uint16*)osal_mem_alloc( (bindReq->numInClusters * sizeof( uint16 )))))
   \                     ??CrossCallReturnLabel_17:
   \   00008C   85..82       MOV       DPL,?V0
   \   00008F   85..83       MOV       DPH,?V1
   \   000092   A3           INC       DPTR
   \   000093   A3           INC       DPTR
   \   000094   E0           MOVX      A,@DPTR
   \   000095   F8           MOV       R0,A
   \   000096   EE           MOV       A,R6
   \   000097   2411         ADD       A,#0x11
   \   000099   12....       LCALL     ?Subroutine119 & 0xFFFF
   \                     ??CrossCallReturnLabel_180:
   \   00009C   5002         JNC       ??ZDO_ParseEndDeviceBindReq_2
   \   00009E   05..         INC       ?V1
   \                     ??ZDO_ParseEndDeviceBindReq_2:
   \   0000A0   E8           MOV       A,R0
   \   0000A1   6028         JZ        ??ZDO_ParseEndDeviceBindReq_3
   \   0000A3   12....       LCALL     ?Subroutine124 & 0xFFFF
   \                     ??CrossCallReturnLabel_674:
   \   0000A6   12....       LCALL     `??osal_mem_alloc::?relay`; Banked call to: osal_mem_alloc
   \   0000A9   8A..         MOV       ?V2,R2
   \   0000AB   8B..         MOV       ?V3,R3
   \   0000AD   A8..         MOV       R0,?V2
   \   0000AF   A9..         MOV       R1,?V3
   \   0000B1   12....       LCALL     ?Subroutine22 & 0xFFFF
   \                     ??CrossCallReturnLabel_546:
   \   0000B4   6015         JZ        ??ZDO_ParseEndDeviceBindReq_3
   2718            {
   2719              msg = ZDO_ConvertOTAClusters( bindReq->numInClusters, msg, bindReq->inClusters );
   \   0000B6                ; Setup parameters for call to function ZDO_ConvertOTAClusters
   \   0000B6   EE           MOV       A,R6
   \   0000B7   2412         ADD       A,#0x12
   \   0000B9   12....       LCALL     ?Subroutine99 & 0xFFFF
   2720            }
   \                     ??CrossCallReturnLabel_149:
   \   0000BC   2411         ADD       A,#0x11
   \   0000BE   12....       LCALL     ??Subroutine255_0 & 0xFFFF
   \                     ??CrossCallReturnLabel_571:
   \   0000C1   F9           MOV       R1,A
   \   0000C2   12....       LCALL     `??ZDO_ConvertOTAClusters::?relay`; Banked call to: ZDO_ConvertOTAClusters
   \   0000C5   8A..         MOV       ?V0,R2
   \   0000C7   8B..         MOV       ?V1,R3
   \   0000C9   8007         SJMP      ??ZDO_ParseEndDeviceBindReq_4
   2721            else
   2722            {
   2723              bindReq->numInClusters = 0;
   \                     ??ZDO_ParseEndDeviceBindReq_3:
   \   0000CB   EE           MOV       A,R6
   \   0000CC   2411         ADD       A,#0x11
   \   0000CE   12....       LCALL     ??Subroutine254_0 & 0xFFFF
   2724            }
   \                     ??CrossCallReturnLabel_560:
   \   0000D1   F0           MOVX      @DPTR,A
   2725          
   2726            if ((bindReq->numOutClusters = *msg++) &&
   2727                (bindReq->outClusters = (uint16*)osal_mem_alloc((bindReq->numOutClusters * sizeof(uint16)))))
   \                     ??ZDO_ParseEndDeviceBindReq_4:
   \   0000D2   85..82       MOV       DPL,?V0
   \   0000D5   85..83       MOV       DPH,?V1
   \   0000D8   E0           MOVX      A,@DPTR
   \   0000D9   F8           MOV       R0,A
   \   0000DA   12....       LCALL     ?Subroutine139 & 0xFFFF
   \                     ??CrossCallReturnLabel_555:
   \   0000DD   E8           MOV       A,R0
   \   0000DE   12....       LCALL     ?Subroutine42 & 0xFFFF
   \                     ??CrossCallReturnLabel_60:
   \   0000E1   8582..       MOV       ?V0,DPL
   \   0000E4   8583..       MOV       ?V1,DPH
   \   0000E7   602D         JZ        ??ZDO_ParseEndDeviceBindReq_5
   \   0000E9   EE           MOV       A,R6
   \   0000EA   2414         ADD       A,#0x14
   \   0000EC   12....       LCALL     ??Subroutine255_0 & 0xFFFF
   \                     ??CrossCallReturnLabel_572:
   \   0000EF   12....       LCALL     ?Subroutine124 & 0xFFFF
   \                     ??CrossCallReturnLabel_675:
   \   0000F2   12....       LCALL     `??osal_mem_alloc::?relay`; Banked call to: osal_mem_alloc
   \   0000F5   8A..         MOV       ?V2,R2
   \   0000F7   8B..         MOV       ?V3,R3
   \   0000F9   A8..         MOV       R0,?V2
   \   0000FB   A9..         MOV       R1,?V3
   \   0000FD   EE           MOV       A,R6
   \   0000FE   2415         ADD       A,#0x15
   \   000100   12....       LCALL     ??Subroutine248_0 & 0xFFFF
   \                     ??CrossCallReturnLabel_545:
   \   000103   6011         JZ        ??ZDO_ParseEndDeviceBindReq_5
   2728            {
   2729              msg = ZDO_ConvertOTAClusters( bindReq->numOutClusters, msg, bindReq->outClusters );
   \   000105                ; Setup parameters for call to function ZDO_ConvertOTAClusters
   \   000105   EE           MOV       A,R6
   \   000106   2415         ADD       A,#0x15
   \   000108   12....       LCALL     ?Subroutine99 & 0xFFFF
   2730            }
   \                     ??CrossCallReturnLabel_150:
   \   00010B   2414         ADD       A,#0x14
   \   00010D   12....       LCALL     ??Subroutine255_0 & 0xFFFF
   \                     ??CrossCallReturnLabel_573:
   \   000110   F9           MOV       R1,A
   \   000111   12....       LCALL     `??ZDO_ConvertOTAClusters::?relay`; Banked call to: ZDO_ConvertOTAClusters
   \   000114   8004         SJMP      ??ZDO_ParseEndDeviceBindReq_6
   2731            else
   2732            {
   2733              bindReq->numOutClusters = 0;
   \                     ??ZDO_ParseEndDeviceBindReq_5:
   \   000116   12....       LCALL     ?Subroutine123 & 0xFFFF
   2734            }
   \                     ??CrossCallReturnLabel_563:
   \   000119   F0           MOVX      @DPTR,A
   2735          }
   \                     ??ZDO_ParseEndDeviceBindReq_6:
   \   00011A   02....       LJMP      ??Subroutine205_0 & 0xFFFF

   \                                 In  segment BANKED_CODE, align 1, keep-with-next
   \                     ?Subroutine99:
   \   000000   12....       LCALL     ?Subroutine183 & 0xFFFF
   \                     ??CrossCallReturnLabel_582:
   \   000003   FC           MOV       R4,A
   \   000004   A3           INC       DPTR
   \   000005   E0           MOVX      A,@DPTR
   \   000006   FD           MOV       R5,A
   \   000007   AA..         MOV       R2,?V0
   \   000009   AB..         MOV       R3,?V1
   \   00000B   EE           MOV       A,R6
   \   00000C   22           RET

   \                                 In  segment BANKED_CODE, align 1, keep-with-next
   \                     ?Subroutine119:
   \   000000   F582         MOV       DPL,A
   \   000002   E4           CLR       A
   \   000003   3F           ADDC      A,R7
   \   000004   F583         MOV       DPH,A
   \   000006   E8           MOV       A,R0
   \   000007   F0           MOVX      @DPTR,A
   \   000008   E5..         MOV       A,?V0
   \   00000A   2403         ADD       A,#0x3
   \   00000C   F5..         MOV       ?V0,A
   \   00000E   22           RET

   \                                 In  segment BANKED_CODE, align 1, keep-with-next
   \                     ?Subroutine42:
   \   000000   12....       LCALL     ?Subroutine165 & 0xFFFF
   \                     ??CrossCallReturnLabel_271:
   \   000003   22           RET

   \                                 In  segment BANKED_CODE, align 1, keep-with-next
   \                     ??Subroutine261_0:
   \   000000   12....       LCALL     ?Subroutine173 & 0xFFFF
   \                     ??CrossCallReturnLabel_646:
   \   000003   22           RET

   \                                 In  segment BANKED_CODE, align 1, keep-with-next
   \                     ?Subroutine173:
   \   000000   12....       LCALL     ??Subroutine262_0 & 0xFFFF
   \                     ??CrossCallReturnLabel_698:
   \   000003   F9           MOV       R1,A
   \   000004   EA           MOV       A,R2
   \   000005   22           RET

   \                                 In  segment BANKED_CODE, align 1, keep-with-next
   \                     ?Subroutine39:
   \   000000   12....       LCALL     ?Subroutine162 & 0xFFFF
   \                     ??CrossCallReturnLabel_262:
   \   000003   A3           INC       DPTR
   \   000004   22           RET

   \                                 In  segment BANKED_CODE, align 1, keep-with-next
   \                     ?Subroutine162:
   \   000000   F0           MOVX      @DPTR,A
   \   000001   8A82         MOV       DPL,R2
   \   000003   8B83         MOV       DPH,R3
   \   000005   A3           INC       DPTR
   \   000006   22           RET

   \                                 In  segment BANKED_CODE, align 1, keep-with-next
   \                     ?Subroutine186:
   \   000000   12....       LCALL     ?Subroutine203 & 0xFFFF
   \                     ??CrossCallReturnLabel_666:
   \   000003   3B           ADDC      A,R3
   \   000004   22           RET

   \                                 In  segment BANKED_CODE, align 1, keep-with-next
   \                     ?Subroutine124:
   \   000000   F8           MOV       R0,A
   \   000001                ; Setup parameters for call to function osal_mem_alloc
   \   000001                ; Setup parameters for call to function osal_mem_alloc
   \   000001                REQUIRE ??Subroutine268_0
   \   000001                ; // Fall through to label ??Subroutine268_0
   2736          
   2737          /*********************************************************************
   2738           * @fn          ZDO_ParseBindUnbindReq
   2739           *
   2740           * @brief       This function parses the Bind_req or Unbind_req message.
   2741           *
   2742           * @param       inMsg  - incoming message (request)
   2743           * @param       pReq - place to put parsed information
   2744           *
   2745           * @return      none
   2746           */

   \                                 In  segment BANKED_CODE, align 1, keep-with-next
   2747          void ZDO_ParseBindUnbindReq( zdoIncomingMsg_t *inMsg, ZDO_BindUnbindReq_t *pReq )
   \                     ZDO_ParseBindUnbindReq:
   2748          {
   \   000000                REQUIRE ?V0
   \   000000                REQUIRE ?V1
   \   000000   74F6         MOV       A,#-0xa
   \   000002   12....       LCALL     ?BANKED_ENTER_XDATA
   \   000005                ; Saved register size: 10
   \   000005                ; Auto size: 0
   \   000005   EC           MOV       A,R4
   \   000006   FE           MOV       R6,A
   \   000007   ED           MOV       A,R5
   \   000008   FF           MOV       R7,A
   2749            uint8 *msg;
   2750          
   2751            msg = inMsg->asdu;
   \   000009   12....       LCALL     ?Subroutine68 & 0xFFFF
   2752            osal_cpyExtAddr( pReq->srcAddress, msg );
   \                     ??CrossCallReturnLabel_462:
   \   00000C                ; Setup parameters for call to function sAddrExtCpy
   \   00000C   AC..         MOV       R4,?V0
   \   00000E   FD           MOV       R5,A
   \   00000F   EE           MOV       A,R6
   \   000010   FA           MOV       R2,A
   \   000011   EF           MOV       A,R7
   \   000012   FB           MOV       R3,A
   \   000013   12....       LCALL     `??sAddrExtCpy::?relay`; Banked call to: sAddrExtCpy
   2753            msg += Z_EXTADDR_LEN;
   2754            pReq->srcEndpoint = *msg++;
   \   000016   85..82       MOV       DPL,?V0
   \   000019   85..83       MOV       DPH,?V1
   \   00001C   12....       LCALL     ?Subroutine83 & 0xFFFF
   \                     ??CrossCallReturnLabel_131:
   \   00001F   E5..         MOV       A,?V0
   \   000021   2409         ADD       A,#0x9
   \   000023   F5..         MOV       ?V0,A
   \   000025   5002         JNC       ??ZDO_ParseBindUnbindReq_0
   \   000027   05..         INC       ?V1
   2755            pReq->clusterID = BUILD_UINT16( msg[0], msg[1] );
   \                     ??ZDO_ParseBindUnbindReq_0:
   \   000029   F582         MOV       DPL,A
   \   00002B   85..83       MOV       DPH,?V1
   \   00002E   12....       LCALL     ?Subroutine65 & 0xFFFF
   \                     ??CrossCallReturnLabel_102:
   \   000031   F0           MOVX      @DPTR,A
   \   000032   A3           INC       DPTR
   \   000033   E9           MOV       A,R1
   \   000034   12....       LCALL     ?Subroutine41 & 0xFFFF
   2756            msg += 2;
   2757            pReq->dstAddress.addrMode = *msg++;
   \                     ??CrossCallReturnLabel_57:
   \   000037   F8           MOV       R0,A
   \   000038   EE           MOV       A,R6
   \   000039   2413         ADD       A,#0x13
   \   00003B   12....       LCALL     ?Subroutine119 & 0xFFFF
   \                     ??CrossCallReturnLabel_181:
   \   00003E   5002         JNC       ??ZDO_ParseBindUnbindReq_1
   \   000040   05..         INC       ?V1
   2758            if ( pReq->dstAddress.addrMode == Addr64Bit )
   \                     ??ZDO_ParseBindUnbindReq_1:
   \   000042   7403         MOV       A,#0x3
   \   000044   68           XRL       A,R0
   \   000045   7022         JNZ       ??ZDO_ParseBindUnbindReq_2
   2759            {
   2760              osal_cpyExtAddr( pReq->dstAddress.addr.extAddr, msg );
   \   000047                ; Setup parameters for call to function sAddrExtCpy
   \   000047   AC..         MOV       R4,?V0
   \   000049   AD..         MOV       R5,?V1
   \   00004B   12....       LCALL     ?Subroutine144 & 0xFFFF
   \                     ??CrossCallReturnLabel_219:
   \   00004E   12....       LCALL     `??sAddrExtCpy::?relay`; Banked call to: sAddrExtCpy
   2761              msg += Z_EXTADDR_LEN;
   2762              pReq->dstEndpoint = *msg;
   \   000051   85..82       MOV       DPL,?V0
   \   000054   85..83       MOV       DPH,?V1
   \   000057   A3           INC       DPTR
   \   000058   A3           INC       DPTR
   \   000059   A3           INC       DPTR
   \   00005A   A3           INC       DPTR
   \   00005B   A3           INC       DPTR
   \   00005C   A3           INC       DPTR
   \   00005D   A3           INC       DPTR
   \   00005E   A3           INC       DPTR
   \   00005F   E0           MOVX      A,@DPTR
   \   000060   C0E0         PUSH      A
   \   000062   12....       LCALL     ?Subroutine139 & 0xFFFF
   2763            }
   \                     ??CrossCallReturnLabel_556:
   \   000065   D0E0         POP       A
   \   000067   8013         SJMP      ??ZDO_ParseBindUnbindReq_3
   2764            else
   2765            {
   2766              // copy group address
   2767              pReq->dstAddress.addr.shortAddr = BUILD_UINT16( msg[0], msg[1] );
   \                     ??ZDO_ParseBindUnbindReq_2:
   \   000069   85..82       MOV       DPL,?V0
   \   00006C   85..83       MOV       DPH,?V1
   \   00006F   12....       LCALL     ?Subroutine97 & 0xFFFF
   2768            }
   \                     ??CrossCallReturnLabel_147:
   \   000072   F582         MOV       DPL,A
   \   000074   E4           CLR       A
   \   000075   3F           ADDC      A,R7
   \   000076   F583         MOV       DPH,A
   \   000078   E8           MOV       A,R0
   \   000079   F0           MOVX      @DPTR,A
   \   00007A   A3           INC       DPTR
   \   00007B   E9           MOV       A,R1
   \                     ??ZDO_ParseBindUnbindReq_3:
   \   00007C   F0           MOVX      @DPTR,A
   2769          }
   \   00007D   02....       LJMP      ??Subroutine207_0 & 0xFFFF

   \                                 In  segment BANKED_CODE, align 1, keep-with-next
   \                     ?Subroutine97:
   \   000000   12....       LCALL     ?Subroutine173 & 0xFFFF
   \                     ??CrossCallReturnLabel_645:
   \   000003   F8           MOV       R0,A
   \   000004   EE           MOV       A,R6
   \   000005   240B         ADD       A,#0xb
   \   000007   22           RET

   \                                 In  segment BANKED_CODE, align 1, keep-with-next
   \                     ?Subroutine83:
   \   000000   A3           INC       DPTR
   \   000001   A3           INC       DPTR
   \   000002   A3           INC       DPTR
   \   000003   A3           INC       DPTR
   \   000004   A3           INC       DPTR
   \   000005   A3           INC       DPTR
   \   000006   A3           INC       DPTR
   \   000007   A3           INC       DPTR
   \   000008   12....       LCALL     ?Subroutine180 & 0xFFFF
   \                     ??CrossCallReturnLabel_290:
   \   00000B   A3           INC       DPTR
   \   00000C   A3           INC       DPTR
   \   00000D   A3           INC       DPTR
   \   00000E   A3           INC       DPTR
   \   00000F   A3           INC       DPTR
   \   000010   A3           INC       DPTR
   \   000011   A3           INC       DPTR
   \   000012   A3           INC       DPTR
   \   000013   F0           MOVX      @DPTR,A
   \   000014   22           RET

   \                                 In  segment BANKED_CODE, align 1, keep-with-next
   \                     ?Subroutine65:
   \   000000   12....       LCALL     ?Subroutine173 & 0xFFFF
   \                     ??CrossCallReturnLabel_643:
   \   000003   8E82         MOV       DPL,R6
   \   000005   8F83         MOV       DPH,R7
   \   000007   A3           INC       DPTR
   \   000008   A3           INC       DPTR
   \   000009   A3           INC       DPTR
   \   00000A   A3           INC       DPTR
   \   00000B   A3           INC       DPTR
   \   00000C   A3           INC       DPTR
   \   00000D   A3           INC       DPTR
   \   00000E   A3           INC       DPTR
   \   00000F   A3           INC       DPTR
   \   000010   22           RET
   2770          
   2771          /*********************************************************************
   2772           * @fn      ZDO_ParseAddrRsp
   2773           *
   2774           * @brief   Turns the inMsg (incoming message) into the out parsed
   2775           *          structure.
   2776           *
   2777           * @param   inMsg - incoming message
   2778           *
   2779           * @return  pointer to parsed structures.  This structure was
   2780           *          allocated using osal_mem_alloc, so it must be freed
   2781           *          by the calling function [osal_mem_free()].
   2782           */

   \                                 In  segment BANKED_CODE, align 1, keep-with-next
   \                     ?Subroutine141:
   \   000000   E5..         MOV       A,?V0
   \   000002   240B         ADD       A,#0xb
   \   000004                REQUIRE ??Subroutine246_0
   \   000004                ; // Fall through to label ??Subroutine246_0

   \                                 In  segment BANKED_CODE, align 1, keep-with-next
   2783          ZDO_NwkIEEEAddrResp_t *ZDO_ParseAddrRsp( zdoIncomingMsg_t *inMsg )
   \                     ZDO_ParseAddrRsp:
   2784          {
   \   000000                REQUIRE ?V0
   \   000000                REQUIRE ?V1
   \   000000                REQUIRE ?V2
   \   000000                REQUIRE ?V3
   \   000000                REQUIRE ?V4
   \   000000                REQUIRE ?V5
   \   000000   74F2         MOV       A,#-0xe
   \   000002   12....       LCALL     ?BANKED_ENTER_XDATA
   \   000005                ; Saved register size: 14
   \   000005                ; Auto size: 0
   \   000005   EA           MOV       A,R2
   \   000006   FE           MOV       R6,A
   \   000007   EB           MOV       A,R3
   \   000008   FF           MOV       R7,A
   2785            ZDO_NwkIEEEAddrResp_t *rsp;
   2786            uint8 *msg;
   2787            byte cnt = 0;
   \   000009   75..00       MOV       ?V2,#0x0
   2788          
   2789            // Calculate the number of items in the list
   2790            if ( inMsg->asduLen > (1 + Z_EXTADDR_LEN + 2) )
   \   00000C   EE           MOV       A,R6
   \   00000D   2410         ADD       A,#0x10
   \   00000F   12....       LCALL     ??Subroutine255_0 & 0xFFFF
   \                     ??CrossCallReturnLabel_574:
   \   000012   C3           CLR       C
   \   000013   940C         SUBB      A,#0xc
   \   000015   400D         JC        ??ZDO_ParseAddrRsp_0
   2791            {
   2792              cnt = inMsg->asdu[1 + Z_EXTADDR_LEN + 2];
   \   000017   12....       LCALL     ?Subroutine128 & 0xFFFF
   2793            }
   \                     ??CrossCallReturnLabel_194:
   \   00001A   12....       LCALL     ??Subroutine257_0 & 0xFFFF
   \                     ??CrossCallReturnLabel_589:
   \   00001D   240B         ADD       A,#0xb
   \   00001F   12....       LCALL     ?Subroutine146 & 0xFFFF
   \                     ??CrossCallReturnLabel_234:
   \   000022   F5..         MOV       ?V2,A
   2794            else
   2795            {
   2796              cnt = 0;
   2797            }
   2798          
   2799            // Make buffer
   2800            rsp = (ZDO_NwkIEEEAddrResp_t *)osal_mem_alloc( sizeof(ZDO_NwkIEEEAddrResp_t) + (cnt * sizeof ( uint16 )) );
   \                     ??ZDO_ParseAddrRsp_0:
   \   000024                ; Setup parameters for call to function osal_mem_alloc
   \   000024   A8..         MOV       R0,?V2
   \   000026   E8           MOV       A,R0
   \   000027   28           ADD       A,R0
   \   000028   F8           MOV       R0,A
   \   000029   E4           CLR       A
   \   00002A   33           RLC       A
   \   00002B   F9           MOV       R1,A
   \   00002C   E8           MOV       A,R0
   \   00002D   240D         ADD       A,#0xd
   \   00002F   FA           MOV       R2,A
   \   000030   E4           CLR       A
   \   000031   39           ADDC      A,R1
   \   000032   FB           MOV       R3,A
   \   000033   12....       LCALL     `??osal_mem_alloc::?relay`; Banked call to: osal_mem_alloc
   \   000036   8A..         MOV       ?V0,R2
   \   000038   8B..         MOV       ?V1,R3
   2801          
   2802            if ( rsp )
   \   00003A   EA           MOV       A,R2
   \   00003B   45..         ORL       A,?V1
   \   00003D   7003         JNZ       $+5
   \   00003F   02....       LJMP      ??ZDO_ParseAddrRsp_1 & 0xFFFF
   2803            {
   2804              msg = inMsg->asdu;
   \   000042   EE           MOV       A,R6
   \   000043   12....       LCALL     ??Subroutine218_0 & 0xFFFF
   \                     ??CrossCallReturnLabel_360:
   \   000046   3F           ADDC      A,R7
   \   000047   12....       LCALL     ??Subroutine264_0 & 0xFFFF
   2805          
   2806              rsp->status = *msg++;
   \                     ??CrossCallReturnLabel_655:
   \   00004A   F8           MOV       R0,A
   \   00004B   8A82         MOV       DPL,R2
   \   00004D   8B83         MOV       DPH,R3
   \   00004F   12....       LCALL     ?Subroutine43 & 0xFFFF
   2807              if ( rsp->status == ZDO_SUCCESS )
   \                     ??CrossCallReturnLabel_61:
   \   000052   707C         JNZ       ??ZDO_ParseAddrRsp_1
   2808              {
   2809                osal_cpyExtAddr( rsp->extAddr, msg );
   \   000054                ; Setup parameters for call to function sAddrExtCpy
   \   000054   EE           MOV       A,R6
   \   000055   FC           MOV       R4,A
   \   000056   EF           MOV       A,R7
   \   000057   FD           MOV       R5,A
   \   000058   EA           MOV       A,R2
   \   000059   2403         ADD       A,#0x3
   \   00005B   FA           MOV       R2,A
   \   00005C   E4           CLR       A
   \   00005D   35..         ADDC      A,?V1
   \   00005F   FB           MOV       R3,A
   \   000060   12....       LCALL     `??sAddrExtCpy::?relay`; Banked call to: sAddrExtCpy
   2810                msg += Z_EXTADDR_LEN;
   \   000063   EE           MOV       A,R6
   \   000064   2408         ADD       A,#0x8
   \   000066   FE           MOV       R6,A
   \   000067   5001         JNC       ??ZDO_ParseAddrRsp_2
   \   000069   0F           INC       R7
   2811                rsp->nwkAddr = BUILD_UINT16( msg[0], msg[1] );
   \                     ??ZDO_ParseAddrRsp_2:
   \   00006A   12....       LCALL     ?Subroutine98 & 0xFFFF
   \                     ??CrossCallReturnLabel_640:
   \   00006D   85..82       MOV       DPL,?V0
   \   000070   85..83       MOV       DPH,?V1
   \   000073   A3           INC       DPTR
   \   000074   12....       LCALL     ??Subroutine222_0 & 0xFFFF
   2812          
   2813                msg += 2;
   2814                rsp->numAssocDevs = 0;
   \                     ??CrossCallReturnLabel_371:
   \   000077   12....       LCALL     ?Subroutine141 & 0xFFFF
   \                     ??CrossCallReturnLabel_539:
   \   00007A   E4           CLR       A
   \   00007B   F0           MOVX      @DPTR,A
   2815          
   2816                // StartIndex field is only present if NumAssocDev field is non-zero.
   2817                if ( cnt > 0 )
   \   00007C   E5..         MOV       A,?V2
   \   00007E   6050         JZ        ??ZDO_ParseAddrRsp_1
   2818                {
   2819                  uint16 *pList = &(rsp->devList[0]);
   \   000080   E5..         MOV       A,?V0
   \   000082   240D         ADD       A,#0xd
   \   000084   F8           MOV       R0,A
   \   000085   E4           CLR       A
   \   000086   35..         ADDC      A,?V1
   \   000088   F9           MOV       R1,A
   2820                  byte n = cnt;
   2821          
   2822                  rsp->numAssocDevs = *msg++;
   \   000089   8E82         MOV       DPL,R6
   \   00008B   8F83         MOV       DPH,R7
   \   00008D   A3           INC       DPTR
   \   00008E   A3           INC       DPTR
   \   00008F   E0           MOVX      A,@DPTR
   \   000090   C0E0         PUSH      A
   \   000092   12....       LCALL     ?Subroutine141 & 0xFFFF
   \                     ??CrossCallReturnLabel_540:
   \   000095   D0E0         POP       A
   \   000097   12....       LCALL     ?Subroutine23 & 0xFFFF
   2823                  rsp->startIndex = *msg++;
   \                     ??CrossCallReturnLabel_22:
   \   00009A   C0E0         PUSH      A
   \   00009C   12....       LCALL     ?Subroutine140 & 0xFFFF
   \                     ??CrossCallReturnLabel_212:
   \   00009F   D0E0         POP       A
   \   0000A1   F0           MOVX      @DPTR,A
   \   0000A2   EE           MOV       A,R6
   \   0000A3   2404         ADD       A,#0x4
   \   0000A5   FE           MOV       R6,A
   \   0000A6   5001         JNC       ??ZDO_ParseAddrRsp_3
   \   0000A8   0F           INC       R7
   \                     ??ZDO_ParseAddrRsp_3:
   \   0000A9   85....       MOV       ?V3,?V2
   2824          
   2825                  while ( n != 0 )
   2826                  {
   2827                    *pList++ = BUILD_UINT16( msg[0], msg[1] );
   \                     ??ZDO_ParseAddrRsp_4:
   \   0000AC   8E82         MOV       DPL,R6
   \   0000AE   8F83         MOV       DPH,R7
   \   0000B0   12....       LCALL     ??Subroutine228_0 & 0xFFFF
   \                     ??CrossCallReturnLabel_412:
   \   0000B3   FB           MOV       R3,A
   \   0000B4   EC           MOV       A,R4
   \   0000B5   8882         MOV       DPL,R0
   \   0000B7   8983         MOV       DPH,R1
   \   0000B9   12....       LCALL     ??Subroutine214_0 & 0xFFFF
   \                     ??CrossCallReturnLabel_339:
   \   0000BC   E8           MOV       A,R0
   \   0000BD   2402         ADD       A,#0x2
   \   0000BF   F8           MOV       R0,A
   \   0000C0   5001         JNC       ??ZDO_ParseAddrRsp_5
   \   0000C2   09           INC       R1
   2828                    msg += sizeof( uint16 );
   \                     ??ZDO_ParseAddrRsp_5:
   \   0000C3   EE           MOV       A,R6
   \   0000C4   2402         ADD       A,#0x2
   \   0000C6   FE           MOV       R6,A
   \   0000C7   5001         JNC       ??ZDO_ParseAddrRsp_6
   \   0000C9   0F           INC       R7
   2829                    n--;
   2830                  }
   \                     ??ZDO_ParseAddrRsp_6:
   \   0000CA   15..         DEC       ?V3
   \   0000CC   E5..         MOV       A,?V3
   \   0000CE   70DC         JNZ       ??ZDO_ParseAddrRsp_4
   2831                }
   2832              }
   2833            }
   2834          
   2835            return ( rsp );
   \                     ??ZDO_ParseAddrRsp_1:
   \   0000D0   AA..         MOV       R2,?V0
   \   0000D2   AB..         MOV       R3,?V1
   \   0000D4   02....       LJMP      ??Subroutine266_0 & 0xFFFF
   2836          }

   \                                 In  segment BANKED_CODE, align 1, keep-with-next
   \                     ?Subroutine98:
   \   000000   8E82         MOV       DPL,R6
   \   000002   8F83         MOV       DPH,R7
   \   000004                REQUIRE ??Subroutine261_0
   \   000004                ; // Fall through to label ??Subroutine261_0

   \                                 In  segment BANKED_CODE, align 1, keep-with-next
   \                     ?Subroutine23:
   \   000000   12....       LCALL     ?Subroutine164 & 0xFFFF
   \                     ??CrossCallReturnLabel_267:
   \   000003   A3           INC       DPTR
   \   000004   A3           INC       DPTR
   \   000005   E0           MOVX      A,@DPTR
   \   000006   22           RET

   \                                 In  segment BANKED_CODE, align 1, keep-with-next
   \                     ??Subroutine264_0:
   \   000000   12....       LCALL     ?Subroutine175 & 0xFFFF
   \                     ??CrossCallReturnLabel_656:
   \   000003   22           RET

   \                                 In  segment BANKED_CODE, align 1, keep-with-next
   \                     ?Subroutine175:
   \   000000   F583         MOV       DPH,A
   \   000002   E0           MOVX      A,@DPTR
   \   000003   FE           MOV       R6,A
   \   000004   A3           INC       DPTR
   \   000005   E0           MOVX      A,@DPTR
   \   000006   FF           MOV       R7,A
   \   000007   8E82         MOV       DPL,R6
   \   000009   8F83         MOV       DPH,R7
   \   00000B   E0           MOVX      A,@DPTR
   \   00000C   22           RET

   \                                 In  segment BANKED_CODE, align 1, keep-with-next
   \                     ?Subroutine128:
   \   000000   12....       LCALL     ?Subroutine198 & 0xFFFF
   \                     ??CrossCallReturnLabel_318:
   \   000003   F583         MOV       DPH,A
   \   000005   22           RET

   \                                 In  segment BANKED_CODE, align 1, keep-with-next
   \                     ?Subroutine43:
   \   000000   12....       LCALL     ?Subroutine164 & 0xFFFF
   \                     ??CrossCallReturnLabel_269:
   \   000003   AE82         MOV       R6,DPL
   \   000005   AF83         MOV       R7,DPH
   \   000007   22           RET
   2837          
   2838          /*********************************************************************
   2839           * @fn          ZDO_ParseNodeDescRsp
   2840           *
   2841           * @brief       This function parses the Node_Desc_rsp message.
   2842           *
   2843           * @param       inMsg - incoming message
   2844           * @param       pNDRsp - place to parse the message into
   2845           *
   2846           * @return      none
   2847           */

   \                                 In  segment BANKED_CODE, align 1, keep-with-next
   2848          void ZDO_ParseNodeDescRsp( zdoIncomingMsg_t *inMsg, ZDO_NodeDescRsp_t *pNDRsp )
   \                     ZDO_ParseNodeDescRsp:
   2849          {
   \   000000                REQUIRE ?V0
   \   000000                REQUIRE ?V1
   \   000000   74F6         MOV       A,#-0xa
   \   000002   12....       LCALL     ?BANKED_ENTER_XDATA
   \   000005                ; Saved register size: 10
   \   000005                ; Auto size: 0
   2850            uint8 *msg;
   2851          
   2852            msg = inMsg->asdu;
   \   000005   12....       LCALL     ?Subroutine11 & 0xFFFF
   2853          
   2854            pNDRsp->status = *msg++;
   2855            pNDRsp->nwkAddr = BUILD_UINT16( msg[0], msg[1] );
   2856          
   2857            if ( pNDRsp->status == ZDP_SUCCESS )
   \                     ??CrossCallReturnLabel_0:
   \   000008   6003         JZ        $+5
   \   00000A   02....       LJMP      ??ZDO_ParseNodeDescRsp_0 & 0xFFFF
   2858            {
   2859              msg += 2;
   2860              pNDRsp->nodeDesc.LogicalType = *msg & 0x07;
   \   00000D   E8           MOV       A,R0
   \   00000E   12....       LCALL     ??Subroutine258_0 & 0xFFFF
   \                     ??CrossCallReturnLabel_621:
   \   000011   39           ADDC      A,R1
   \   000012   FB           MOV       R3,A
   \   000013   EC           MOV       A,R4
   \   000014   2403         ADD       A,#0x3
   \   000016   FE           MOV       R6,A
   \   000017   E4           CLR       A
   \   000018   3D           ADDC      A,R5
   \   000019   FF           MOV       R7,A
   \   00001A   8A82         MOV       DPL,R2
   \   00001C   8B83         MOV       DPH,R3
   \   00001E   E0           MOVX      A,@DPTR
   \   00001F   5407         ANL       A,#0x7
   \   000021   F5..         MOV       ?V0,A
   \   000023   8E82         MOV       DPL,R6
   \   000025   8F83         MOV       DPH,R7
   \   000027   E0           MOVX      A,@DPTR
   \   000028   54F8         ANL       A,#0xf8
   \   00002A   45..         ORL       A,?V0
   \   00002C   F5..         MOV       ?V1,A
   \   00002E   12....       LCALL     ?Subroutine50 & 0xFFFF
   2861          
   2862              pNDRsp->nodeDesc.ComplexDescAvail = ( *msg & 0x08 ) >> 3;
   \                     ??CrossCallReturnLabel_74:
   \   000031   A2E3         MOV       C,0xE0 /* A   */.3
   \   000033   E4           CLR       A
   \   000034   33           RLC       A
   \   000035   F5..         MOV       ?V0,A
   \   000037   A2E0         MOV       C,0xE0 /* A   */.0
   \   000039   E4           CLR       A
   \   00003A   33           RLC       A
   \   00003B   33           RLC       A
   \   00003C   33           RLC       A
   \   00003D   33           RLC       A
   \   00003E   F5..         MOV       ?V0,A
   \   000040   74F7         MOV       A,#-0x9
   \   000042   55..         ANL       A,?V1
   \   000044   45..         ORL       A,?V0
   \   000046   8E82         MOV       DPL,R6
   \   000048   8F83         MOV       DPH,R7
   \   00004A   12....       LCALL     ?Subroutine50 & 0xFFFF
   2863              pNDRsp->nodeDesc.UserDescAvail = ( *msg & 0x10 ) >> 4;
   \                     ??CrossCallReturnLabel_75:
   \   00004D   A2E4         MOV       C,0xE0 /* A   */.4
   \   00004F   E4           CLR       A
   \   000050   33           RLC       A
   \   000051   FA           MOV       R2,A
   \   000052   A2E0         MOV       C,0xE0 /* A   */.0
   \   000054   E4           CLR       A
   \   000055   33           RLC       A
   \   000056   C4           SWAP      A
   \   000057   FA           MOV       R2,A
   \   000058   8E82         MOV       DPL,R6
   \   00005A   8F83         MOV       DPH,R7
   \   00005C   E0           MOVX      A,@DPTR
   \   00005D   54EF         ANL       A,#0xef
   \   00005F   4A           ORL       A,R2
   \   000060   F0           MOVX      @DPTR,A
   2864          
   2865              msg++;  // Reserved bits.
   2866              pNDRsp->nodeDesc.FrequencyBand = (*msg >> 3) & 0x1f;
   \   000061   E8           MOV       A,R0
   \   000062   2403         ADD       A,#0x3
   \   000064   FA           MOV       R2,A
   \   000065   E4           CLR       A
   \   000066   39           ADDC      A,R1
   \   000067   FB           MOV       R3,A
   \   000068   EC           MOV       A,R4
   \   000069   2404         ADD       A,#0x4
   \   00006B   0E           INC       R6
   \   00006C   E4           CLR       A
   \   00006D   3D           ADDC      A,R5
   \   00006E   FF           MOV       R7,A
   \   00006F   8A82         MOV       DPL,R2
   \   000071   8B83         MOV       DPH,R3
   \   000073   E0           MOVX      A,@DPTR
   \   000074   54F8         ANL       A,#0xf8
   \   000076   F5..         MOV       ?V0,A
   \   000078   8E82         MOV       DPL,R6
   \   00007A   8F83         MOV       DPH,R7
   \   00007C   E0           MOVX      A,@DPTR
   \   00007D   5407         ANL       A,#0x7
   \   00007F   45..         ORL       A,?V0
   \   000081   F5..         MOV       ?V0,A
   \   000083   12....       LCALL     ?Subroutine50 & 0xFFFF
   2867              pNDRsp->nodeDesc.APSFlags = *msg++ & 0x07;
   \                     ??CrossCallReturnLabel_76:
   \   000086   5407         ANL       A,#0x7
   \   000088   FA           MOV       R2,A
   \   000089   74F8         MOV       A,#-0x8
   \   00008B   55..         ANL       A,?V0
   \   00008D   4A           ORL       A,R2
   \   00008E   8E82         MOV       DPL,R6
   \   000090   8F83         MOV       DPH,R7
   \   000092   12....       LCALL     ?Subroutine44 & 0xFFFF
   2868              pNDRsp->nodeDesc.CapabilityFlags = *msg++;
   \                     ??CrossCallReturnLabel_63:
   \   000095   8C82         MOV       DPL,R4
   \   000097   8D83         MOV       DPH,R5
   \   000099   A3           INC       DPTR
   \   00009A   A3           INC       DPTR
   \   00009B   A3           INC       DPTR
   \   00009C   A3           INC       DPTR
   \   00009D   A3           INC       DPTR
   \   00009E   12....       LCALL     ?Subroutine45 & 0xFFFF
   2869              pNDRsp->nodeDesc.ManufacturerCode[0] = *msg++;
   \                     ??CrossCallReturnLabel_66:
   \   0000A1   A3           INC       DPTR
   \   0000A2   12....       LCALL     ?Subroutine112 & 0xFFFF
   \                     ??CrossCallReturnLabel_679:
   \   0000A5   12....       LCALL     ?Subroutine37 & 0xFFFF
   2870              pNDRsp->nodeDesc.ManufacturerCode[1] = *msg++;
   \                     ??CrossCallReturnLabel_47:
   \   0000A8   12....       LCALL     ?Subroutine111 & 0xFFFF
   \                     ??CrossCallReturnLabel_168:
   \   0000AB   12....       LCALL     ?Subroutine37 & 0xFFFF
   2871              pNDRsp->nodeDesc.MaxBufferSize = *msg++;
   \                     ??CrossCallReturnLabel_48:
   \   0000AE   12....       LCALL     ?Subroutine112 & 0xFFFF
   \                     ??CrossCallReturnLabel_680:
   \   0000B1   12....       LCALL     ?Subroutine29 & 0xFFFF
   2872              pNDRsp->nodeDesc.MaxInTransferSize[0] = *msg++;
   \                     ??CrossCallReturnLabel_34:
   \   0000B4   12....       LCALL     ?Subroutine111 & 0xFFFF
   \                     ??CrossCallReturnLabel_169:
   \   0000B7   12....       LCALL     ?Subroutine29 & 0xFFFF
   2873              pNDRsp->nodeDesc.MaxInTransferSize[1] = *msg++;
   \                     ??CrossCallReturnLabel_35:
   \   0000BA   A3           INC       DPTR
   \   0000BB   12....       LCALL     ?Subroutine111 & 0xFFFF
   \                     ??CrossCallReturnLabel_170:
   \   0000BE   A3           INC       DPTR
   \   0000BF   A3           INC       DPTR
   \   0000C0   A3           INC       DPTR
   \   0000C1   A3           INC       DPTR
   \   0000C2   A3           INC       DPTR
   \   0000C3   A3           INC       DPTR
   \   0000C4   A3           INC       DPTR
   \   0000C5   A3           INC       DPTR
   \   0000C6   A3           INC       DPTR
   \   0000C7   F0           MOVX      @DPTR,A
   \   0000C8   E8           MOV       A,R0
   \   0000C9   240A         ADD       A,#0xa
   \   0000CB   F8           MOV       R0,A
   \   0000CC   5001         JNC       ??ZDO_ParseNodeDescRsp_1
   \   0000CE   09           INC       R1
   2874              pNDRsp->nodeDesc.ServerMask = BUILD_UINT16( msg[0], msg[1] );
   \                     ??ZDO_ParseNodeDescRsp_1:
   \   0000CF   8882         MOV       DPL,R0
   \   0000D1   8983         MOV       DPH,R1
   \   0000D3   12....       LCALL     ?Subroutine181 & 0xFFFF
   \                     ??CrossCallReturnLabel_294:
   \   0000D6   FB           MOV       R3,A
   \   0000D7   EE           MOV       A,R6
   \   0000D8   FA           MOV       R2,A
   \   0000D9   EC           MOV       A,R4
   \   0000DA   240B         ADD       A,#0xb
   \   0000DC   F582         MOV       DPL,A
   \   0000DE   E4           CLR       A
   \   0000DF   3D           ADDC      A,R5
   \   0000E0   F583         MOV       DPH,A
   \   0000E2   12....       LCALL     ??Subroutine213_0 & 0xFFFF
   2875              msg += 2;
   2876              pNDRsp->nodeDesc.MaxOutTransferSize[0] = *msg++;
   \                     ??CrossCallReturnLabel_345:
   \   0000E5   8882         MOV       DPL,R0
   \   0000E7   8983         MOV       DPH,R1
   \   0000E9   A3           INC       DPTR
   \   0000EA   A3           INC       DPTR
   \   0000EB   E0           MOVX      A,@DPTR
   \   0000EC   C0E0         PUSH      A
   \   0000EE   EC           MOV       A,R4
   \   0000EF   240D         ADD       A,#0xd
   \   0000F1   F582         MOV       DPL,A
   \   0000F3   E4           CLR       A
   \   0000F4   3D           ADDC      A,R5
   \   0000F5   F583         MOV       DPH,A
   \   0000F7   D0E0         POP       A
   \   0000F9   12....       LCALL     ?Subroutine45 & 0xFFFF
   2877              pNDRsp->nodeDesc.MaxOutTransferSize[1] = *msg++;
   2878              pNDRsp->nodeDesc.DescriptorCapability = *msg;
   2879            }
   \                     ??CrossCallReturnLabel_67:
   \   0000FC   E0           MOVX      A,@DPTR
   \   0000FD   C0E0         PUSH      A
   \   0000FF   EC           MOV       A,R4
   \   000100   12....       LCALL     ??Subroutine263_0 & 0xFFFF
   \                     ??CrossCallReturnLabel_648:
   \   000103   3D           ADDC      A,R5
   \   000104   F583         MOV       DPH,A
   \   000106   D0E0         POP       A
   \   000108   12....       LCALL     ?Subroutine44 & 0xFFFF
   \                     ??CrossCallReturnLabel_64:
   \   00010B   C0E0         PUSH      A
   \   00010D   EC           MOV       A,R4
   \   00010E   12....       LCALL     ?Subroutine136 & 0xFFFF
   \                     ??CrossCallReturnLabel_209:
   \   000111   3D           ADDC      A,R5
   \   000112   F583         MOV       DPH,A
   \   000114   D0E0         POP       A
   \   000116   F0           MOVX      @DPTR,A
   2880          }
   \                     ??ZDO_ParseNodeDescRsp_0:
   \   000117   02....       LJMP      ??Subroutine207_0 & 0xFFFF

   \                                 In  segment BANKED_CODE, align 1, keep-with-next
   \                     ?Subroutine111:
   \   000000   E0           MOVX      A,@DPTR
   \   000001   8C82         MOV       DPL,R4
   \   000003   8D83         MOV       DPH,R5
   \   000005   A3           INC       DPTR
   \   000006   22           RET

   \                                 In  segment BANKED_CODE, align 1, keep-with-next
   \                     ?Subroutine50:
   \   000000   F0           MOVX      @DPTR,A
   \   000001   8A82         MOV       DPL,R2
   \   000003   8B83         MOV       DPH,R3
   \   000005   E0           MOVX      A,@DPTR
   \   000006   22           RET

   \                                 In  segment BANKED_CODE, align 1, keep-with-next
   \                     ?Subroutine44:
   \   000000   12....       LCALL     ?Subroutine166 & 0xFFFF
   \                     ??CrossCallReturnLabel_273:
   \   000003   A3           INC       DPTR
   \   000004   E0           MOVX      A,@DPTR
   \   000005   22           RET

   \                                 In  segment BANKED_CODE, align 1, keep-with-next
   \                     ?Subroutine37:
   \   000000   12....       LCALL     ?Subroutine158 & 0xFFFF
   \                     ??CrossCallReturnLabel_255:
   \   000003   22           RET

   \                                 In  segment BANKED_CODE, align 1, keep-with-next
   \                     ?Subroutine158:
   \   000000   A3           INC       DPTR
   \   000001   A3           INC       DPTR
   \   000002   A3           INC       DPTR
   \   000003   A3           INC       DPTR
   \   000004   A3           INC       DPTR
   \   000005   A3           INC       DPTR
   \   000006   12....       LCALL     ?Subroutine194 & 0xFFFF
   \                     ??CrossCallReturnLabel_316:
   \   000009   A3           INC       DPTR
   \   00000A   A3           INC       DPTR
   \   00000B   A3           INC       DPTR
   \   00000C   22           RET

   \                                 In  segment BANKED_CODE, align 1, keep-with-next
   \                     ?Subroutine29:
   \   000000   A3           INC       DPTR
   \   000001   A3           INC       DPTR
   \   000002   12....       LCALL     ?Subroutine158 & 0xFFFF
   \                     ??CrossCallReturnLabel_256:
   \   000005   A3           INC       DPTR
   \   000006   A3           INC       DPTR
   \   000007   22           RET

   \                                 In  segment BANKED_CODE, align 1, keep-with-next
   \                     ?Subroutine11:
   \   000000   12....       LCALL     ?Subroutine186 & 0xFFFF
   \                     ??CrossCallReturnLabel_302:
   \   000003   12....       LCALL     ?Subroutine176 & 0xFFFF
   \                     ??CrossCallReturnLabel_285:
   \   000006   8C82         MOV       DPL,R4
   \   000008   8D83         MOV       DPH,R5
   \   00000A   12....       LCALL     ?Subroutine201 & 0xFFFF
   \                     ??CrossCallReturnLabel_327:
   \   00000D   A3           INC       DPTR
   \   00000E   A882         MOV       R0,DPL
   \   000010   A983         MOV       R1,DPH
   \   000012   12....       LCALL     ?Subroutine181 & 0xFFFF
   \                     ??CrossCallReturnLabel_296:
   \   000015   FB           MOV       R3,A
   \   000016   EE           MOV       A,R6
   \   000017   8C82         MOV       DPL,R4
   \   000019   8D83         MOV       DPH,R5
   \   00001B   A3           INC       DPTR
   \   00001C   F0           MOVX      @DPTR,A
   \   00001D   A3           INC       DPTR
   \   00001E   EB           MOV       A,R3
   \   00001F   F0           MOVX      @DPTR,A
   \   000020   8C82         MOV       DPL,R4
   \   000022   8D83         MOV       DPH,R5
   \   000024   E0           MOVX      A,@DPTR
   \   000025   22           RET

   \                                 In  segment BANKED_CODE, align 1, keep-with-next
   \                     ?Subroutine112:
   \   000000   A3           INC       DPTR
   \   000001                REQUIRE ??Subroutine269_0
   \   000001                ; // Fall through to label ??Subroutine269_0

   \                                 In  segment BANKED_CODE, align 1, keep-with-next
   \                     ??Subroutine269_0:
   \   000000   E0           MOVX      A,@DPTR
   \   000001   8C82         MOV       DPL,R4
   \   000003   8D83         MOV       DPH,R5
   \   000005   22           RET
   2881          
   2882          /*********************************************************************
   2883           * @fn          ZDO_ParsePowerDescRsp
   2884           *
   2885           * @brief       This function parses the Power_Desc_rsp message.
   2886           *
   2887           * @param       inMsg  - incoming message
   2888           * @param       pNPRsp - place to parse the message into
   2889           *
   2890           * @return      none
   2891           */

   \                                 In  segment BANKED_CODE, align 1, keep-with-next
   2892          void ZDO_ParsePowerDescRsp( zdoIncomingMsg_t *inMsg, ZDO_PowerRsp_t *pNPRsp )
   \                     ZDO_ParsePowerDescRsp:
   2893          {
   \   000000                REQUIRE ?V0
   \   000000                REQUIRE ?V1
   \   000000                REQUIRE ?V2
   \   000000                REQUIRE ?V3
   \   000000   74F4         MOV       A,#-0xc
   \   000002   12....       LCALL     ?BANKED_ENTER_XDATA
   \   000005                ; Saved register size: 12
   \   000005                ; Auto size: 0
   2894            uint8 *msg;
   2895          
   2896            msg = inMsg->asdu;
   \   000005   12....       LCALL     ?Subroutine127 & 0xFFFF
   \                     ??CrossCallReturnLabel_191:
   \   000008   12....       LCALL     ?Subroutine101 & 0xFFFF
   2897            pNPRsp->status = *msg++;
   \                     ??CrossCallReturnLabel_153:
   \   00000B   12....       LCALL     ??Subroutine269_0 & 0xFFFF
   \                     ??CrossCallReturnLabel_676:
   \   00000E   12....       LCALL     ?Subroutine162 & 0xFFFF
   \                     ??CrossCallReturnLabel_264:
   \   000011   AA82         MOV       R2,DPL
   \   000013   AB83         MOV       R3,DPH
   2898            pNPRsp->nwkAddr = BUILD_UINT16( msg[0], msg[1] );
   \   000015   12....       LCALL     ?Subroutine181 & 0xFFFF
   \                     ??CrossCallReturnLabel_295:
   \   000018   F9           MOV       R1,A
   \   000019   EE           MOV       A,R6
   \   00001A   8C82         MOV       DPL,R4
   \   00001C   8D83         MOV       DPH,R5
   \   00001E   A3           INC       DPTR
   \   00001F   12....       LCALL     ??Subroutine222_0 & 0xFFFF
   2899          
   2900            if ( pNPRsp->status == ZDP_SUCCESS )
   \                     ??CrossCallReturnLabel_372:
   \   000022   8C82         MOV       DPL,R4
   \   000024   8D83         MOV       DPH,R5
   \   000026   E0           MOVX      A,@DPTR
   \   000027   6003         JZ        $+5
   \   000029   02....       LJMP      ??ZDO_ParsePowerDescRsp_0 & 0xFFFF
   2901            {
   2902              msg += 2;
   2903              pNPRsp->pwrDesc.AvailablePowerSources = *msg >> 4;
   \   00002C   EA           MOV       A,R2
   \   00002D   2402         ADD       A,#0x2
   \   00002F   F8           MOV       R0,A
   \   000030   E4           CLR       A
   \   000031   3B           ADDC      A,R3
   \   000032   F9           MOV       R1,A
   \   000033   E8           MOV       A,R0
   \   000034   FE           MOV       R6,A
   \   000035   E9           MOV       A,R1
   \   000036   FF           MOV       R7,A
   \   000037   EC           MOV       A,R4
   \   000038   2403         ADD       A,#0x3
   \   00003A   E4           CLR       A
   \   00003B   3D           ADDC      A,R5
   \   00003C   0C           INC       R4
   \   00003D   0C           INC       R4
   \   00003E   0C           INC       R4
   \   00003F   FD           MOV       R5,A
   \   000040   8C82         MOV       DPL,R4
   \   000042   8D83         MOV       DPH,R5
   \   000044   E0           MOVX      A,@DPTR
   \   000045   540F         ANL       A,#0xf
   \   000047   F5..         MOV       ?V0,A
   \   000049   A3           INC       DPTR
   \   00004A   E0           MOVX      A,@DPTR
   \   00004B   F5..         MOV       ?V1,A
   \   00004D   8E82         MOV       DPL,R6
   \   00004F   8F83         MOV       DPH,R7
   \   000051   E0           MOVX      A,@DPTR
   \   000052   C4           SWAP      A
   \   000053   540F         ANL       A,#0xf
   \   000055   F5..         MOV       ?V2,A
   \   000057   75..00       MOV       ?V3,#0x0
   \   00005A   7404         MOV       A,#0x4
   \   00005C   78..         MOV       R0,#?V2
   \   00005E   12....       LCALL     ?S_SHL
   \   000061   E5..         MOV       A,?V0
   \   000063   45..         ORL       A,?V2
   \   000065   F8           MOV       R0,A
   \   000066   A9..         MOV       R1,?V1
   \   000068   8C82         MOV       DPL,R4
   \   00006A   8D83         MOV       DPH,R5
   \   00006C   12....       LCALL     ??Subroutine222_0 & 0xFFFF
   2904              pNPRsp->pwrDesc.PowerMode = *msg++ & 0x0F;
   \                     ??CrossCallReturnLabel_373:
   \   00006F   E8           MOV       A,R0
   \   000070   54F0         ANL       A,#0xf0
   \   000072   F8           MOV       R0,A
   \   000073   8E82         MOV       DPL,R6
   \   000075   8F83         MOV       DPH,R7
   \   000077   E0           MOVX      A,@DPTR
   \   000078   540F         ANL       A,#0xf
   \   00007A   FE           MOV       R6,A
   \   00007B   E8           MOV       A,R0
   \   00007C   4E           ORL       A,R6
   \   00007D   F5..         MOV       ?V0,A
   \   00007F   8C82         MOV       DPL,R4
   \   000081   8D83         MOV       DPH,R5
   \   000083   12....       LCALL     ??Subroutine222_0 & 0xFFFF
   2905              pNPRsp->pwrDesc.CurrentPowerSourceLevel = *msg >> 4;
   \                     ??CrossCallReturnLabel_374:
   \   000086   EA           MOV       A,R2
   \   000087   2403         ADD       A,#0x3
   \   000089   F8           MOV       R0,A
   \   00008A   E4           CLR       A
   \   00008B   3B           ADDC      A,R3
   \   00008C   F9           MOV       R1,A
   \   00008D   E8           MOV       A,R0
   \   00008E   FE           MOV       R6,A
   \   00008F   E9           MOV       A,R1
   \   000090   FF           MOV       R7,A
   \   000091   E5..         MOV       A,?V1
   \   000093   540F         ANL       A,#0xf
   \   000095   F5..         MOV       ?V1,A
   \   000097   8E82         MOV       DPL,R6
   \   000099   8F83         MOV       DPH,R7
   \   00009B   E0           MOVX      A,@DPTR
   \   00009C   C4           SWAP      A
   \   00009D   540F         ANL       A,#0xf
   \   00009F   F5..         MOV       ?V2,A
   \   0000A1   740C         MOV       A,#0xc
   \   0000A3   78..         MOV       R0,#?V2
   \   0000A5   12....       LCALL     ?S_SHL
   \   0000A8   E5..         MOV       A,?V1
   \   0000AA   45..         ORL       A,?V3
   \   0000AC   F9           MOV       R1,A
   \   0000AD   8C82         MOV       DPL,R4
   \   0000AF   8D83         MOV       DPH,R5
   \   0000B1   E5..         MOV       A,?V0
   \   0000B3   12....       LCALL     ?Subroutine51 & 0xFFFF
   2906              pNPRsp->pwrDesc.CurrentPowerSource = *msg++ & 0x0F;
   2907            }
   \                     ??CrossCallReturnLabel_78:
   \   0000B6   E0           MOVX      A,@DPTR
   \   0000B7   540F         ANL       A,#0xf
   \   0000B9   F8           MOV       R0,A
   \   0000BA   EA           MOV       A,R2
   \   0000BB   2404         ADD       A,#0x4
   \   0000BD   8C82         MOV       DPL,R4
   \   0000BF   8D83         MOV       DPH,R5
   \   0000C1   A3           INC       DPTR
   \   0000C2   E0           MOVX      A,@DPTR
   \   0000C3   54F0         ANL       A,#0xf0
   \   0000C5   F0           MOVX      @DPTR,A
   \   0000C6   E8           MOV       A,R0
   \   0000C7   F9           MOV       R1,A
   \   0000C8   8C82         MOV       DPL,R4
   \   0000CA   8D83         MOV       DPH,R5
   \   0000CC   A3           INC       DPTR
   \   0000CD   E0           MOVX      A,@DPTR
   \   0000CE   49           ORL       A,R1
   \   0000CF   F0           MOVX      @DPTR,A
   2908          }
   \                     ??ZDO_ParsePowerDescRsp_0:
   \   0000D0   02....       LJMP      ??Subroutine205_0 & 0xFFFF

   \                                 In  segment BANKED_CODE, align 1, keep-with-next
   \                     ?Subroutine127:
   \   000000   12....       LCALL     ?Subroutine186 & 0xFFFF
   \                     ??CrossCallReturnLabel_306:
   \   000003   22           RET
   2909          
   2910          /*********************************************************************
   2911           * @fn          ZDO_ParseSimpleDescRsp
   2912           *
   2913           * @brief       This function parse the Simple_Desc_rsp message.
   2914           *
   2915           *   NOTE: The pAppInClusterList and pAppOutClusterList fields
   2916           *         in the SimpleDescriptionFormat_t structure are allocated
   2917           *         and the calling function needs to free [osal_msg_free()]
   2918           *         these buffers.
   2919           *
   2920           * @param       inMsg  - incoming message
   2921           * @param       pSimpleDescRsp - place to parse the message into
   2922           *
   2923           * @return      none
   2924           */

   \                                 In  segment BANKED_CODE, align 1, keep-with-next
   2925          void ZDO_ParseSimpleDescRsp( zdoIncomingMsg_t *inMsg, ZDO_SimpleDescRsp_t *pSimpleDescRsp )
   \                     ZDO_ParseSimpleDescRsp:
   2926          {
   \   000000   74F7         MOV       A,#-0x9
   \   000002   12....       LCALL     ?BANKED_ENTER_XDATA
   \   000005                ; Saved register size: 9
   \   000005                ; Auto size: 0
   2927            uint8 *msg;
   2928          
   2929            msg = inMsg->asdu;
   \   000005   12....       LCALL     ?Subroutine11 & 0xFFFF
   2930            pSimpleDescRsp->status = *msg++;
   2931            pSimpleDescRsp->nwkAddr = BUILD_UINT16( msg[0], msg[1] );
   2932            msg += sizeof ( uint16 );
   2933            msg++; // Skip past the length field.
   2934          
   2935            if ( pSimpleDescRsp->status == ZDP_SUCCESS )
   \                     ??CrossCallReturnLabel_1:
   \   000008   7011         JNZ       ??ZDO_ParseSimpleDescRsp_0
   2936            {
   2937              ZDO_ParseSimpleDescBuf( msg, &(pSimpleDescRsp->simpleDesc) );
   \   00000A                ; Setup parameters for call to function ZDO_ParseSimpleDescBuf
   \   00000A   EC           MOV       A,R4
   \   00000B   2403         ADD       A,#0x3
   \   00000D   FC           MOV       R4,A
   \   00000E   5001         JNC       ??ZDO_ParseSimpleDescRsp_1
   \   000010   0D           INC       R5
   \                     ??ZDO_ParseSimpleDescRsp_1:
   \   000011   E8           MOV       A,R0
   \   000012   2403         ADD       A,#0x3
   \   000014   FA           MOV       R2,A
   \   000015   E4           CLR       A
   \   000016   39           ADDC      A,R1
   \   000017   FB           MOV       R3,A
   \   000018   12....       LCALL     `??ZDO_ParseSimpleDescBuf::?relay`; Banked call to: ZDO_ParseSimpleDescBuf
   2938            }
   2939          }
   \                     ??ZDO_ParseSimpleDescRsp_0:
   \   00001B   02....       LJMP      ?Subroutine2 & 0xFFFF
   2940          
   2941          /*********************************************************************
   2942           * @fn          ZDO_ParseEPListRsp
   2943           *
   2944           * @brief       This parse the Active_EP_rsp or Match_Desc_rsp message.
   2945           *
   2946           * @param       inMsg  - incoming message
   2947           *
   2948           * @return      none
   2949           */

   \                                 In  segment BANKED_CODE, align 1, keep-with-next
   2950          ZDO_ActiveEndpointRsp_t *ZDO_ParseEPListRsp( zdoIncomingMsg_t *inMsg )
   \                     ZDO_ParseEPListRsp:
   2951          {
   \   000000                REQUIRE ?V0
   \   000000                REQUIRE ?V1
   \   000000                REQUIRE ?V2
   \   000000                REQUIRE ?V3
   \   000000                REQUIRE ?V4
   \   000000                REQUIRE ?V5
   \   000000                REQUIRE ?V6
   \   000000   74F1         MOV       A,#-0xf
   \   000002   12....       LCALL     ?BANKED_ENTER_XDATA
   \   000005                ; Saved register size: 15
   \   000005                ; Auto size: 0
   2952            ZDO_ActiveEndpointRsp_t *pRsp;
   2953            uint8 *msg;
   2954            uint8 Status;
   2955            uint8 cnt;
   2956          
   2957            msg = inMsg->asdu;
   \   000005   12....       LCALL     ?Subroutine126 & 0xFFFF
   \                     ??CrossCallReturnLabel_188:
   \   000008   E0           MOVX      A,@DPTR
   \   000009   F5..         MOV       ?V0,A
   \   00000B   A3           INC       DPTR
   \   00000C   E0           MOVX      A,@DPTR
   2958            Status = *msg++;
   \   00000D   85..82       MOV       DPL,?V0
   \   000010   F583         MOV       DPH,A
   \   000012   E0           MOVX      A,@DPTR
   \   000013   F5..         MOV       ?V3,A
   \   000015   A3           INC       DPTR
   \   000016   8582..       MOV       ?V0,DPL
   \   000019   8583..       MOV       ?V1,DPH
   2959            cnt = msg[2];
   \   00001C   A3           INC       DPTR
   \   00001D   A3           INC       DPTR
   \   00001E   E0           MOVX      A,@DPTR
   \   00001F   F5..         MOV       ?V2,A
   2960          
   2961            pRsp = (ZDO_ActiveEndpointRsp_t *)osal_mem_alloc( sizeof(  ZDO_ActiveEndpointRsp_t ) + cnt );
   \   000021                ; Setup parameters for call to function osal_mem_alloc
   \   000021   12....       LCALL     ??Subroutine265_0 & 0xFFFF
   \                     ??CrossCallReturnLabel_658:
   \   000024   3400         ADDC      A,#0x0
   \   000026   FB           MOV       R3,A
   \   000027   12....       LCALL     `??osal_mem_alloc::?relay`; Banked call to: osal_mem_alloc
   \   00002A   8A..         MOV       ?V4,R2
   \   00002C   8B..         MOV       ?V5,R3
   \   00002E   AE..         MOV       R6,?V4
   \   000030   AF..         MOV       R7,?V5
   2962            if ( pRsp )
   \   000032   EE           MOV       A,R6
   \   000033   4F           ORL       A,R7
   \   000034   6037         JZ        ??ZDO_ParseEPListRsp_0
   2963            {
   2964              pRsp->status = Status;
   \   000036   8E82         MOV       DPL,R6
   \   000038   8F83         MOV       DPH,R7
   \   00003A   E5..         MOV       A,?V3
   \   00003C   F0           MOVX      @DPTR,A
   2965              pRsp->nwkAddr = BUILD_UINT16( msg[0], msg[1] );
   \   00003D   85..82       MOV       DPL,?V0
   \   000040   85..83       MOV       DPH,?V1
   \   000043   E0           MOVX      A,@DPTR
   \   000044   FA           MOV       R2,A
   \   000045   12....       LCALL     ?Subroutine18 & 0xFFFF
   2966              msg += sizeof( uint16 );
   2967              pRsp->cnt = cnt;
   2968              msg++; // pass cnt
   2969              osal_memcpy( pRsp->epList, msg, cnt );
   2970            }
   \                     ??CrossCallReturnLabel_624:
   \   000048   E5..         MOV       A,?V2
   \   00004A   12....       LCALL     ?Subroutine42 & 0xFFFF
   \                     ??CrossCallReturnLabel_58:
   \   00004D   A3           INC       DPTR
   \   00004E   A3           INC       DPTR
   \   00004F   A982         MOV       R1,DPL
   \   000051   AA83         MOV       R2,DPH
   \   000053   89..         MOV       ?V4,R1
   \   000055   8A..         MOV       ?V5,R2
   \   000057   88..         MOV       ?V6,R0
   \   000059   78..         MOV       R0,#?V4
   \   00005B   12....       LCALL     ?PUSH_XSTACK_I_THREE
   \   00005E   AC..         MOV       R4,?V2
   \   000060   12....       LCALL     ?Subroutine192 & 0xFFFF
   \                     ??CrossCallReturnLabel_662:
   \   000063   3F           ADDC      A,R7
   \   000064   FB           MOV       R3,A
   \   000065   12....       LCALL     `??osal_memcpy::?relay`; Banked call to: osal_memcpy
   \   000068   7403         MOV       A,#0x3
   \   00006A   12....       LCALL     ?DEALLOC_XSTACK8
   2971          
   2972            return ( pRsp );
   \                     ??ZDO_ParseEPListRsp_0:
   \   00006D   EE           MOV       A,R6
   \   00006E   FA           MOV       R2,A
   \   00006F   EF           MOV       A,R7
   \   000070   FB           MOV       R3,A
   \   000071   02....       LJMP      ??Subroutine236_0 & 0xFFFF
   2973          }

   \                                 In  segment BANKED_CODE, align 1, keep-with-next
   \                     ?Subroutine18:
   \   000000   A3           INC       DPTR
   \   000001   E0           MOVX      A,@DPTR
   \   000002   F8           MOV       R0,A
   \   000003   E4           CLR       A
   \   000004   C8           XCH       A,R0
   \   000005   F9           MOV       R1,A
   \   000006   EA           MOV       A,R2
   \   000007   8E82         MOV       DPL,R6
   \   000009   8F83         MOV       DPH,R7
   \   00000B                REQUIRE ??Subroutine259_0
   \   00000B                ; // Fall through to label ??Subroutine259_0

   \                                 In  segment BANKED_CODE, align 1, keep-with-next
   \                     ??Subroutine259_0:
   \   000000   A3           INC       DPTR
   \   000001   12....       LCALL     ?Subroutine159 & 0xFFFF
   \                     ??CrossCallReturnLabel_627:
   \   000004   A3           INC       DPTR
   \   000005   22           RET

   \                                 In  segment BANKED_CODE, align 1, keep-with-next
   \                     ?Subroutine192:
   \   000000   7D00         MOV       R5,#0x0
   \   000002   EE           MOV       A,R6
   \   000003                REQUIRE ??Subroutine265_0
   \   000003                ; // Fall through to label ??Subroutine265_0

   \                                 In  segment BANKED_CODE, align 1, keep-with-next
   \                     ??Subroutine265_0:
   \   000000   2404         ADD       A,#0x4
   \   000002   FA           MOV       R2,A
   \   000003   E4           CLR       A
   \   000004   22           RET

   \                                 In  segment BANKED_CODE, align 1, keep-with-next
   \                     ?Subroutine126:
   \   000000   12....       LCALL     ?Subroutine185 & 0xFFFF
   \                     ??CrossCallReturnLabel_301:
   \   000003   22           RET

   \                                 In  segment BANKED_CODE, align 1, keep-with-next
   \                     ?Subroutine159:
   \   000000   F0           MOVX      @DPTR,A
   \   000001   A3           INC       DPTR
   \   000002   E9           MOV       A,R1
   \   000003   12....       LCALL     ?Subroutine193 & 0xFFFF
   \                     ??CrossCallReturnLabel_631:
   \   000006   A3           INC       DPTR
   \   000007   22           RET
   2974          
   2975          /*********************************************************************
   2976           * @fn          ZDO_ParseServerDiscRsp
   2977           *
   2978           * @brief       Parse the Server_Discovery_rsp message.
   2979           *
   2980           * @param       inMsg - incoming message.
   2981           * @param       pRsp - place to put the parsed information.
   2982           *
   2983           * @return      none
   2984           */

   \                                 In  segment BANKED_CODE, align 1, keep-with-next
   2985          void ZDO_ParseServerDiscRsp( zdoIncomingMsg_t *inMsg, ZDO_ServerDiscRsp_t *pRsp )
   \                     ZDO_ParseServerDiscRsp:
   2986          {
   \   000000   74F7         MOV       A,#-0x9
   \   000002   12....       LCALL     ?BANKED_ENTER_XDATA
   \   000005                ; Saved register size: 9
   \   000005                ; Auto size: 0
   2987            pRsp->status = inMsg->asdu[0];
   \   000005   EA           MOV       A,R2
   \   000006   2413         ADD       A,#0x13
   \   000008   F8           MOV       R0,A
   \   000009   E4           CLR       A
   \   00000A   3B           ADDC      A,R3
   \   00000B   F9           MOV       R1,A
   \   00000C   8882         MOV       DPL,R0
   \   00000E   8983         MOV       DPH,R1
   \   000010   12....       LCALL     ??Subroutine262_0 & 0xFFFF
   \                     ??CrossCallReturnLabel_694:
   \   000013   F583         MOV       DPH,A
   \   000015   8A82         MOV       DPL,R2
   \   000017   12....       LCALL     ??Subroutine269_0 & 0xFFFF
   \                     ??CrossCallReturnLabel_677:
   \   00001A   12....       LCALL     ?Subroutine40 & 0xFFFF
   2988            pRsp->serverMask = BUILD_UINT16( inMsg->asdu[1], inMsg->asdu[2] );
   \                     ??CrossCallReturnLabel_55:
   \   00001D   8882         MOV       DPL,R0
   \   00001F   8983         MOV       DPH,R1
   \   000021   A3           INC       DPTR
   \   000022   E0           MOVX      A,@DPTR
   \   000023   FA           MOV       R2,A
   \   000024   8882         MOV       DPL,R0
   \   000026   8983         MOV       DPH,R1
   \   000028   A3           INC       DPTR
   \   000029   12....       LCALL     ??Subroutine270_0 & 0xFFFF
   \                     ??CrossCallReturnLabel_681:
   \   00002C   12....       LCALL     ??Subroutine222_0 & 0xFFFF
   2989          }
   \                     ??CrossCallReturnLabel_375:
   \   00002F   02....       LJMP      ?Subroutine2 & 0xFFFF

   \                                 In  segment BANKED_CODE, align 1, keep-with-next
   \                     ??Subroutine270_0:
   \   000000   A3           INC       DPTR
   \   000001   E0           MOVX      A,@DPTR
   \   000002   F9           MOV       R1,A
   \   000003   EA           MOV       A,R2
   \   000004   8C82         MOV       DPL,R4
   \   000006   8D83         MOV       DPH,R5
   \   000008   A3           INC       DPTR
   \   000009   22           RET
   2990          
   2991          /*********************************************************************
   2992           * @fn          ZDO_ParseMgmtLqiRsp
   2993           *
   2994           * @brief       This function parses the incoming Management
   2995           *              LQI response
   2996           *
   2997           * @param       inMsg - incoming message
   2998           *
   2999           * @return      a pointer to parsed response structure (NULL if not allocated).
   3000           *          This structure was allocated using osal_mem_alloc, so it must be freed
   3001           *          by the calling function [osal_mem_free()].
   3002           */

   \                                 In  segment BANKED_CODE, align 1, keep-with-next
   \                     ?Subroutine3:
   \   000000   AA..         MOV       R2,?V2
   \   000002   AB..         MOV       R3,?V3
   \   000004                REQUIRE ??Subroutine204_0
   \   000004                ; // Fall through to label ??Subroutine204_0

   \                                 In  segment BANKED_CODE, align 1, keep-with-next
   \                     ?Subroutine137:
   \   000000   FC           MOV       R4,A
   \   000001   EF           MOV       A,R7
   \   000002   FD           MOV       R5,A
   \   000003   E5..         MOV       A,?V0
   \   000005                REQUIRE ??Subroutine258_0
   \   000005                ; // Fall through to label ??Subroutine258_0

   \                                 In  segment BANKED_CODE, align 1, keep-with-next
   3003          ZDO_MgmtLqiRsp_t *ZDO_ParseMgmtLqiRsp( zdoIncomingMsg_t *inMsg )
   \                     ZDO_ParseMgmtLqiRsp:
   3004          {
   \   000000                REQUIRE ?V0
   \   000000                REQUIRE ?V1
   \   000000                REQUIRE ?V2
   \   000000                REQUIRE ?V3
   \   000000                REQUIRE ?V4
   \   000000                REQUIRE ?V5
   \   000000                REQUIRE ?V6
   \   000000                REQUIRE ?V7
   \   000000   74F0         MOV       A,#-0x10
   \   000002   12....       LCALL     ?BANKED_ENTER_XDATA
   \   000005                ; Saved register size: 16
   \   000005                ; Auto size: 0
   3005            ZDO_MgmtLqiRsp_t *pRsp;
   3006            uint8 status;
   3007            uint8 startIndex = 0;
   \   000005   75..00       MOV       ?V5,#0x0
   3008            uint8 neighborLqiCount = 0;
   \   000008   75..00       MOV       ?V4,#0x0
   3009            uint8 neighborLqiEntries = 0;
   \   00000B   75..00       MOV       ?V6,#0x0
   3010            uint8 *msg;
   3011          
   3012            msg = inMsg->asdu;
   \   00000E   12....       LCALL     ?Subroutine76 & 0xFFFF
   3013          
   3014            status = *msg++;
   \                     ??CrossCallReturnLabel_652:
   \   000011   F5..         MOV       ?V7,A
   \   000013   A3           INC       DPTR
   \   000014   AE82         MOV       R6,DPL
   \   000016   AF83         MOV       R7,DPH
   3015            if ( status == ZSuccess )
   \   000018   7017         JNZ       ??ZDO_ParseMgmtLqiRsp_0
   3016            {
   3017              neighborLqiEntries = *msg++;
   \   00001A   E0           MOVX      A,@DPTR
   \   00001B   F5..         MOV       ?V6,A
   3018              startIndex = *msg++;
   \   00001D   A3           INC       DPTR
   \   00001E   E0           MOVX      A,@DPTR
   \   00001F   F5..         MOV       ?V5,A
   3019              neighborLqiCount = *msg++;
   \   000021   8E82         MOV       DPL,R6
   \   000023   8F83         MOV       DPH,R7
   \   000025   A3           INC       DPTR
   \   000026   A3           INC       DPTR
   \   000027   E0           MOVX      A,@DPTR
   \   000028   F5..         MOV       ?V4,A
   \   00002A   EE           MOV       A,R6
   \   00002B   2403         ADD       A,#0x3
   \   00002D   FE           MOV       R6,A
   \   00002E   5001         JNC       ??ZDO_ParseMgmtLqiRsp_0
   \   000030   0F           INC       R7
   3020            }
   3021          
   3022            // Allocate a buffer big enough to handle the list.
   3023            pRsp = (ZDO_MgmtLqiRsp_t *)osal_mem_alloc(
   3024                      sizeof( ZDO_MgmtLqiRsp_t ) + (neighborLqiCount * sizeof( ZDP_MgmtLqiItem_t )) );
   \                     ??ZDO_ParseMgmtLqiRsp_0:
   \   000031                ; Setup parameters for call to function osal_mem_alloc
   \   000031   E5..         MOV       A,?V4
   \   000033   75F01A       MOV       B,#0x1a
   \   000036   12....       LCALL     ?Subroutine153 & 0xFFFF
   \                     ??CrossCallReturnLabel_245:
   \   000039   12....       LCALL     `??osal_mem_alloc::?relay`; Banked call to: osal_mem_alloc
   \   00003C   8A..         MOV       ?V2,R2
   \   00003E   8B..         MOV       ?V3,R3
   3025            if ( pRsp )
   \   000040   EA           MOV       A,R2
   \   000041   45..         ORL       A,?V3
   \   000043   7003         JNZ       $+5
   \   000045   02....       LJMP      ??ZDO_ParseMgmtLqiRsp_1 & 0xFFFF
   3026            {
   3027              uint8 x;
   3028              ZDP_MgmtLqiItem_t *pList = pRsp->list;
   \   000048   12....       LCALL     ?Subroutine154 & 0xFFFF
   3029              pRsp->status = status;
   \                     ??CrossCallReturnLabel_248:
   \   00004B   12....       LCALL     ?Subroutine12 & 0xFFFF
   3030              pRsp->neighborLqiEntries = neighborLqiEntries;
   3031              pRsp->startIndex = startIndex;
   3032              pRsp->neighborLqiCount = neighborLqiCount;
   3033          
   3034              for ( x = 0; x < neighborLqiCount; x++ )
   \                     ??CrossCallReturnLabel_2:
   \   00004E   02....       LJMP      ??ZDO_ParseMgmtLqiRsp_2 & 0xFFFF
   3035              {
   3036                uint8 tmp;
   3037          
   3038                pList->panID = 0; // This isn't in the record, why is it in the structure?
   \                     ??ZDO_ParseMgmtLqiRsp_3:
   \   000051   85..82       MOV       DPL,?V0
   \   000054   85..83       MOV       DPH,?V1
   \   000057   E4           CLR       A
   \   000058   F0           MOVX      @DPTR,A
   \   000059   A3           INC       DPTR
   \   00005A   F0           MOVX      @DPTR,A
   3039                osal_cpyExtAddr(pList->extPanID, msg);   //Copy extended PAN ID
   \   00005B                ; Setup parameters for call to function sAddrExtCpy
   \   00005B   EE           MOV       A,R6
   \   00005C   12....       LCALL     ?Subroutine137 & 0xFFFF
   \                     ??CrossCallReturnLabel_622:
   \   00005F   35..         ADDC      A,?V1
   \   000061   FB           MOV       R3,A
   \   000062   12....       LCALL     `??sAddrExtCpy::?relay`; Banked call to: sAddrExtCpy
   3040                msg += Z_EXTADDR_LEN;
   \   000065   EE           MOV       A,R6
   \   000066   2408         ADD       A,#0x8
   \   000068   FE           MOV       R6,A
   \   000069   5001         JNC       ??ZDO_ParseMgmtLqiRsp_4
   \   00006B   0F           INC       R7
   3041          
   3042                osal_cpyExtAddr(pList->extAddr, msg);   //Copy extended address
   \                     ??ZDO_ParseMgmtLqiRsp_4:
   \   00006C                ; Setup parameters for call to function sAddrExtCpy
   \   00006C   FC           MOV       R4,A
   \   00006D   EF           MOV       A,R7
   \   00006E   FD           MOV       R5,A
   \   00006F   E5..         MOV       A,?V0
   \   000071   12....       LCALL     ??Subroutine260_0 & 0xFFFF
   \                     ??CrossCallReturnLabel_633:
   \   000074   35..         ADDC      A,?V1
   \   000076   FB           MOV       R3,A
   \   000077   12....       LCALL     `??sAddrExtCpy::?relay`; Banked call to: sAddrExtCpy
   3043                msg += Z_EXTADDR_LEN;
   \   00007A   EE           MOV       A,R6
   \   00007B   2408         ADD       A,#0x8
   \   00007D   FE           MOV       R6,A
   \   00007E   5001         JNC       ??ZDO_ParseMgmtLqiRsp_5
   \   000080   0F           INC       R7
   3044          
   3045                pList->nwkAddr = BUILD_UINT16( msg[0], msg[1] );
   \                     ??ZDO_ParseMgmtLqiRsp_5:
   \   000081   12....       LCALL     ?Subroutine98 & 0xFFFF
   \                     ??CrossCallReturnLabel_641:
   \   000084   F8           MOV       R0,A
   \   000085   E5..         MOV       A,?V0
   \   000087   2412         ADD       A,#0x12
   \   000089   12....       LCALL     ??Subroutine246_0 & 0xFFFF
   \                     ??CrossCallReturnLabel_531:
   \   00008C   E8           MOV       A,R0
   \   00008D   12....       LCALL     ?Subroutine33 & 0xFFFF
   3046                msg += 2;
   3047          
   3048                tmp = *msg++;
   \                     ??CrossCallReturnLabel_40:
   \   000090   F8           MOV       R0,A
   3049                pList->devType = tmp & 0x03;
   \   000091   7403         MOV       A,#0x3
   \   000093   58           ANL       A,R0
   \   000094   C0E0         PUSH      A
   \   000096   E5..         MOV       A,?V0
   \   000098   2414         ADD       A,#0x14
   \   00009A   12....       LCALL     ??Subroutine246_0 & 0xFFFF
   \                     ??CrossCallReturnLabel_532:
   \   00009D   D0E0         POP       A
   \   00009F   F0           MOVX      @DPTR,A
   3050                pList->rxOnIdle = (tmp >> 2) & 0x03;
   \   0000A0   E8           MOV       A,R0
   \   0000A1   13           RRC       A
   \   0000A2   13           RRC       A
   \   0000A3   543F         ANL       A,#0x3f
   \   0000A5   5403         ANL       A,#0x3
   \   0000A7   C0E0         PUSH      A
   \   0000A9   E5..         MOV       A,?V0
   \   0000AB   2415         ADD       A,#0x15
   \   0000AD   12....       LCALL     ??Subroutine246_0 & 0xFFFF
   \                     ??CrossCallReturnLabel_533:
   \   0000B0   D0E0         POP       A
   \   0000B2   F0           MOVX      @DPTR,A
   3051                pList->relation = (tmp >> 4) & 0x07;
   \   0000B3   E8           MOV       A,R0
   \   0000B4   C4           SWAP      A
   \   0000B5   540F         ANL       A,#0xf
   \   0000B7   5407         ANL       A,#0x7
   \   0000B9   C0E0         PUSH      A
   \   0000BB   E5..         MOV       A,?V0
   \   0000BD   2416         ADD       A,#0x16
   \   0000BF   12....       LCALL     ??Subroutine246_0 & 0xFFFF
   \                     ??CrossCallReturnLabel_534:
   \   0000C2   D0E0         POP       A
   \   0000C4   12....       LCALL     ?Subroutine23 & 0xFFFF
   3052          
   3053                pList->permit = (*msg++) & 0x03;
   \                     ??CrossCallReturnLabel_23:
   \   0000C7   5403         ANL       A,#0x3
   \   0000C9   C0E0         PUSH      A
   \   0000CB   E5..         MOV       A,?V0
   \   0000CD   2417         ADD       A,#0x17
   \   0000CF   12....       LCALL     ??Subroutine246_0 & 0xFFFF
   \                     ??CrossCallReturnLabel_535:
   \   0000D2   D0E0         POP       A
   \   0000D4   12....       LCALL     ?Subroutine48 & 0xFFFF
   3054          
   3055                pList->depth = *msg++;
   \                     ??CrossCallReturnLabel_71:
   \   0000D7   E0           MOVX      A,@DPTR
   \   0000D8   C0E0         PUSH      A
   \   0000DA   E5..         MOV       A,?V0
   \   0000DC   2418         ADD       A,#0x18
   \   0000DE   12....       LCALL     ??Subroutine246_0 & 0xFFFF
   \                     ??CrossCallReturnLabel_536:
   \   0000E1   D0E0         POP       A
   \   0000E3   12....       LCALL     ?Subroutine38 & 0xFFFF
   3056          
   3057                pList->lqi = *msg++;
   \                     ??CrossCallReturnLabel_50:
   \   0000E6   C0E0         PUSH      A
   \   0000E8   E5..         MOV       A,?V0
   \   0000EA   2419         ADD       A,#0x19
   \   0000EC   12....       LCALL     ??Subroutine246_0 & 0xFFFF
   \                     ??CrossCallReturnLabel_537:
   \   0000EF   D0E0         POP       A
   \   0000F1   F0           MOVX      @DPTR,A
   \   0000F2   EE           MOV       A,R6
   \   0000F3   2406         ADD       A,#0x6
   \   0000F5   FE           MOV       R6,A
   \   0000F6   5001         JNC       ??ZDO_ParseMgmtLqiRsp_6
   \   0000F8   0F           INC       R7
   3058                pList++;
   \                     ??ZDO_ParseMgmtLqiRsp_6:
   \   0000F9   E5..         MOV       A,?V0
   \   0000FB   241A         ADD       A,#0x1a
   \   0000FD   F5..         MOV       ?V0,A
   \   0000FF   5002         JNC       ??ZDO_ParseMgmtLqiRsp_7
   \   000101   05..         INC       ?V1
   3059              }
   \                     ??ZDO_ParseMgmtLqiRsp_7:
   \   000103   05..         INC       ?V5
   \                     ??ZDO_ParseMgmtLqiRsp_2:
   \   000105   E5..         MOV       A,?V5
   \   000107   C3           CLR       C
   \   000108   95..         SUBB      A,?V4
   \   00010A   5003         JNC       $+5
   \   00010C   02....       LJMP      ??ZDO_ParseMgmtLqiRsp_3 & 0xFFFF
   3060            }
   3061          
   3062            return ( pRsp );
   \                     ??ZDO_ParseMgmtLqiRsp_1:
   \   00010F   02....       LJMP      ?Subroutine3 & 0xFFFF
   3063          }

   \                                 In  segment BANKED_CODE, align 1, keep-with-next
   \                     ?Subroutine154:
   \   000000   EA           MOV       A,R2
   \   000001   2404         ADD       A,#0x4
   \   000003   F5..         MOV       ?V0,A
   \   000005   E4           CLR       A
   \   000006   35..         ADDC      A,?V3
   \   000008   F5..         MOV       ?V1,A
   \   00000A   22           RET

   \                                 In  segment BANKED_CODE, align 1, keep-with-next
   \                     ?Subroutine76:
   \   000000   12....       LCALL     ?Subroutine186 & 0xFFFF
   \                     ??CrossCallReturnLabel_305:
   \   000003                REQUIRE ??Subroutine264_0
   \   000003                ; // Fall through to label ??Subroutine264_0

   \                                 In  segment BANKED_CODE, align 1, keep-with-next
   \                     ?Subroutine153:
   \   000000   A4           MUL       AB
   \   000001   A9F0         MOV       R1,B
   \   000003   12....       LCALL     ??Subroutine265_0 & 0xFFFF
   \                     ??CrossCallReturnLabel_661:
   \   000006   39           ADDC      A,R1
   \   000007   FB           MOV       R3,A
   \   000008   22           RET

   \                                 In  segment BANKED_CODE, align 1, keep-with-next
   \                     ?Subroutine12:
   \   000000   8A82         MOV       DPL,R2
   \   000002   8B83         MOV       DPH,R3
   \   000004   E5..         MOV       A,?V7
   \   000006   F0           MOVX      @DPTR,A
   \   000007   A3           INC       DPTR
   \   000008   E5..         MOV       A,?V6
   \   00000A   12....       LCALL     ?Subroutine162 & 0xFFFF
   \                     ??CrossCallReturnLabel_263:
   \   00000D   A3           INC       DPTR
   \   00000E   E5..         MOV       A,?V5
   \   000010   12....       LCALL     ?Subroutine156 & 0xFFFF
   \                     ??CrossCallReturnLabel_251:
   \   000013   E5..         MOV       A,?V4
   \   000015   F0           MOVX      @DPTR,A
   \   000016   75..00       MOV       ?V5,#0x0
   \   000019   22           RET

   \                                 In  segment BANKED_CODE, align 1, keep-with-next
   \                     ?Subroutine33:
   \   000000   12....       LCALL     ?Subroutine159 & 0xFFFF
   \                     ??CrossCallReturnLabel_628:
   \   000003   E0           MOVX      A,@DPTR
   \   000004   22           RET
   3064          
   3065          /*********************************************************************
   3066           * @fn          ZDO_ParseMgmNwkDiscRsp
   3067           *
   3068           * @brief       This function parses the incoming Management
   3069           *              Network Discover response.
   3070           *
   3071           * @param       inMsg - incoming message
   3072           *
   3073           * @return      pointer to parsed response.  This structure was
   3074           *          allocated using osal_mem_alloc, so it must be freed
   3075           *          by the calling function [osal_mem_free()].
   3076           */

   \                                 In  segment BANKED_CODE, align 1, keep-with-next
   3077          ZDO_MgmNwkDiscRsp_t *ZDO_ParseMgmNwkDiscRsp( zdoIncomingMsg_t *inMsg )
   \                     ZDO_ParseMgmNwkDiscRsp:
   3078          {
   \   000000                REQUIRE ?V0
   \   000000                REQUIRE ?V1
   \   000000                REQUIRE ?V2
   \   000000                REQUIRE ?V3
   \   000000                REQUIRE ?V4
   \   000000                REQUIRE ?V5
   \   000000                REQUIRE ?V6
   \   000000                REQUIRE ?V7
   \   000000   74F0         MOV       A,#-0x10
   \   000002   12....       LCALL     ?BANKED_ENTER_XDATA
   \   000005                ; Saved register size: 16
   \   000005                ; Auto size: 0
   3079            ZDO_MgmNwkDiscRsp_t *pRsp;
   3080            uint8 status;
   3081            uint8 networkCount = 0;
   \   000005   75..00       MOV       ?V1,#0x0
   3082            uint8 startIndex = 0;
   \   000008   75..00       MOV       ?V0,#0x0
   3083            uint8 networkListCount = 0;
   \   00000B   75..00       MOV       ?V4,#0x0
   3084            uint8 *msg;
   3085          
   3086            msg = inMsg->asdu;
   \   00000E   12....       LCALL     ?Subroutine76 & 0xFFFF
   3087            status = *msg++;
   \                     ??CrossCallReturnLabel_653:
   \   000011   F5..         MOV       ?V5,A
   \   000013   A3           INC       DPTR
   \   000014   AE82         MOV       R6,DPL
   \   000016   AF83         MOV       R7,DPH
   3088          
   3089            if ( status == ZSuccess )
   \   000018   7017         JNZ       ??ZDO_ParseMgmNwkDiscRsp_0
   3090            {
   3091              networkCount = *msg++;
   \   00001A   E0           MOVX      A,@DPTR
   \   00001B   F5..         MOV       ?V1,A
   3092              startIndex = *msg++;
   \   00001D   A3           INC       DPTR
   \   00001E   E0           MOVX      A,@DPTR
   \   00001F   F5..         MOV       ?V0,A
   3093              networkListCount = *msg++;
   \   000021   8E82         MOV       DPL,R6
   \   000023   8F83         MOV       DPH,R7
   \   000025   A3           INC       DPTR
   \   000026   A3           INC       DPTR
   \   000027   E0           MOVX      A,@DPTR
   \   000028   F5..         MOV       ?V4,A
   \   00002A   EE           MOV       A,R6
   \   00002B   2403         ADD       A,#0x3
   \   00002D   FE           MOV       R6,A
   \   00002E   5001         JNC       ??ZDO_ParseMgmNwkDiscRsp_0
   \   000030   0F           INC       R7
   3094            }
   3095          
   3096            // Allocate a buffer big enough to handle the list.
   3097            pRsp = (ZDO_MgmNwkDiscRsp_t *)osal_mem_alloc( sizeof( ZDO_MgmNwkDiscRsp_t )
   3098                                            + (networkListCount * sizeof( mgmtNwkDiscItem_t )) );
   \                     ??ZDO_ParseMgmNwkDiscRsp_0:
   \   000031                ; Setup parameters for call to function osal_mem_alloc
   \   000031   E5..         MOV       A,?V4
   \   000033   F5..         MOV       ?V2,A
   \   000035   75..00       MOV       ?V3,#0x0
   \   000038   7404         MOV       A,#0x4
   \   00003A   78..         MOV       R0,#?V2
   \   00003C   12....       LCALL     ?S_SHL
   \   00003F   E5..         MOV       A,?V2
   \   000041   12....       LCALL     ??Subroutine265_0 & 0xFFFF
   \                     ??CrossCallReturnLabel_659:
   \   000044   35..         ADDC      A,?V3
   \   000046   FB           MOV       R3,A
   \   000047   12....       LCALL     `??osal_mem_alloc::?relay`; Banked call to: osal_mem_alloc
   \   00004A   8A..         MOV       ?V2,R2
   \   00004C   8B..         MOV       ?V3,R3
   3099            if ( pRsp )
   \   00004E   EA           MOV       A,R2
   \   00004F   45..         ORL       A,?V3
   \   000051   7003         JNZ       $+5
   \   000053   02....       LJMP      ??ZDO_ParseMgmNwkDiscRsp_1 & 0xFFFF
   3100            {
   3101              uint8 x;
   3102              mgmtNwkDiscItem_t *pList;
   3103          
   3104              pRsp->status = status;
   \   000056   8A82         MOV       DPL,R2
   \   000058   8B83         MOV       DPH,R3
   \   00005A   E5..         MOV       A,?V5
   \   00005C   F0           MOVX      @DPTR,A
   3105              pRsp->networkCount = networkCount;
   \   00005D   A3           INC       DPTR
   \   00005E   E5..         MOV       A,?V1
   \   000060   12....       LCALL     ?Subroutine39 & 0xFFFF
   3106              pRsp->startIndex = startIndex;
   \                     ??CrossCallReturnLabel_52:
   \   000063   E5..         MOV       A,?V0
   \   000065   12....       LCALL     ?Subroutine27 & 0xFFFF
   3107              pRsp->networkListCount = networkListCount;
   \                     ??CrossCallReturnLabel_30:
   \   000068   E5..         MOV       A,?V4
   \   00006A   F0           MOVX      @DPTR,A
   3108              pList = pRsp->list;
   \   00006B   12....       LCALL     ?Subroutine154 & 0xFFFF
   3109          
   3110              for ( x = 0; x < networkListCount; x++ )
   \                     ??CrossCallReturnLabel_249:
   \   00006E   75..00       MOV       ?V5,#0x0
   \   000071   8075         SJMP      ??ZDO_ParseMgmNwkDiscRsp_2
   3111              {
   3112                osal_cpyExtAddr(pList->extendedPANID, msg);   //Copy extended PAN ID
   \                     ??ZDO_ParseMgmNwkDiscRsp_3:
   \   000073                ; Setup parameters for call to function sAddrExtCpy
   \   000073   EE           MOV       A,R6
   \   000074   FC           MOV       R4,A
   \   000075   EF           MOV       A,R7
   \   000076   FD           MOV       R5,A
   \   000077   AA..         MOV       R2,?V0
   \   000079   AB..         MOV       R3,?V1
   \   00007B   12....       LCALL     `??sAddrExtCpy::?relay`; Banked call to: sAddrExtCpy
   3113                pList->PANId = BUILD_UINT16( msg[0], msg[1] );
   \   00007E   12....       LCALL     ?Subroutine66 & 0xFFFF
   \                     ??CrossCallReturnLabel_104:
   \   000081   12....       LCALL     ??Subroutine259_0 & 0xFFFF
   3114                msg += Z_EXTADDR_LEN;
   3115          
   3116                pList->logicalChannel = *msg++;
   \                     ??CrossCallReturnLabel_626:
   \   000084   12....       LCALL     ?Subroutine73 & 0xFFFF
   3117                pList->stackProfile = (*msg) & 0x0F;
   \                     ??CrossCallReturnLabel_116:
   \   000087   EE           MOV       A,R6
   \   000088   2409         ADD       A,#0x9
   \   00008A   F8           MOV       R0,A
   \   00008B   12....       LCALL     ?Subroutine120 & 0xFFFF
   \                     ??CrossCallReturnLabel_182:
   \   00008E   C0E0         PUSH      A
   \   000090   12....       LCALL     ?Subroutine141 & 0xFFFF
   \                     ??CrossCallReturnLabel_541:
   \   000093   D0E0         POP       A
   \   000095   12....       LCALL     ?Subroutine49 & 0xFFFF
   3118                pList->version = (*msg++ >> 4) & 0x0F;
   \                     ??CrossCallReturnLabel_72:
   \   000098   C0E0         PUSH      A
   \   00009A   12....       LCALL     ?Subroutine140 & 0xFFFF
   \                     ??CrossCallReturnLabel_213:
   \   00009D   D0E0         POP       A
   \   00009F   F0           MOVX      @DPTR,A
   3119                pList->beaconOrder = (*msg) & 0x0F;
   \   0000A0   EE           MOV       A,R6
   \   0000A1   240A         ADD       A,#0xa
   \   0000A3   08           INC       R0
   \   0000A4   12....       LCALL     ?Subroutine120 & 0xFFFF
   \                     ??CrossCallReturnLabel_183:
   \   0000A7   C0E0         PUSH      A
   \   0000A9   E5..         MOV       A,?V0
   \   0000AB   240D         ADD       A,#0xd
   \   0000AD   12....       LCALL     ??Subroutine246_0 & 0xFFFF
   \                     ??CrossCallReturnLabel_538:
   \   0000B0   D0E0         POP       A
   \   0000B2   12....       LCALL     ?Subroutine49 & 0xFFFF
   3120                pList->superFrameOrder = (*msg++ >> 4) & 0x0F;
   \                     ??CrossCallReturnLabel_73:
   \   0000B5   C0E0         PUSH      A
   \   0000B7   E5..         MOV       A,?V0
   \   0000B9   12....       LCALL     ??Subroutine263_0 & 0xFFFF
   \                     ??CrossCallReturnLabel_649:
   \   0000BC   12....       LCALL     ??Subroutine247_0 & 0xFFFF
   \                     ??CrossCallReturnLabel_527:
   \   0000BF   D0E0         POP       A
   \   0000C1   F0           MOVX      @DPTR,A
   3121                pList->permitJoining = *msg++;
   \   0000C2   EE           MOV       A,R6
   \   0000C3   240B         ADD       A,#0xb
   \   0000C5   12....       LCALL     ??Subroutine255_0 & 0xFFFF
   \                     ??CrossCallReturnLabel_575:
   \   0000C8   C0E0         PUSH      A
   \   0000CA   E5..         MOV       A,?V0
   \   0000CC   12....       LCALL     ?Subroutine136 & 0xFFFF
   \                     ??CrossCallReturnLabel_210:
   \   0000CF   12....       LCALL     ??Subroutine247_0 & 0xFFFF
   \                     ??CrossCallReturnLabel_528:
   \   0000D2   D0E0         POP       A
   \   0000D4   F0           MOVX      @DPTR,A
   \   0000D5   EE           MOV       A,R6
   \   0000D6   240C         ADD       A,#0xc
   \   0000D8   FE           MOV       R6,A
   \   0000D9   5001         JNC       ??ZDO_ParseMgmNwkDiscRsp_4
   \   0000DB   0F           INC       R7
   3122                pList++;
   \                     ??ZDO_ParseMgmNwkDiscRsp_4:
   \   0000DC   E5..         MOV       A,?V0
   \   0000DE   2410         ADD       A,#0x10
   \   0000E0   F5..         MOV       ?V0,A
   \   0000E2   5002         JNC       ??ZDO_ParseMgmNwkDiscRsp_5
   \   0000E4   05..         INC       ?V1
   3123              }
   \                     ??ZDO_ParseMgmNwkDiscRsp_5:
   \   0000E6   05..         INC       ?V5
   \                     ??ZDO_ParseMgmNwkDiscRsp_2:
   \   0000E8   E5..         MOV       A,?V5
   \   0000EA   C3           CLR       C
   \   0000EB   95..         SUBB      A,?V4
   \   0000ED   4084         JC        ??ZDO_ParseMgmNwkDiscRsp_3
   3124            }
   3125          
   3126            return ( pRsp );
   \                     ??ZDO_ParseMgmNwkDiscRsp_1:
   \   0000EF   02....       LJMP      ?Subroutine3 & 0xFFFF
   3127          }

   \                                 In  segment BANKED_CODE, align 1, keep-with-next
   \                     ?Subroutine120:
   \   000000   E4           CLR       A
   \   000001   3F           ADDC      A,R7
   \   000002   F9           MOV       R1,A
   \   000003   8882         MOV       DPL,R0
   \   000005   8983         MOV       DPH,R1
   \   000007   E0           MOVX      A,@DPTR
   \   000008   540F         ANL       A,#0xf
   \   00000A   22           RET

   \                                 In  segment BANKED_CODE, align 1, keep-with-next
   \                     ?Subroutine49:
   \   000000   12....       LCALL     ?Subroutine161 & 0xFFFF
   \                     ??CrossCallReturnLabel_261:
   \   000003   C4           SWAP      A
   \   000004   540F         ANL       A,#0xf
   \   000006   22           RET

   \                                 In  segment BANKED_CODE, align 1, keep-with-next
   \                     ?Subroutine73:
   \   000000   12....       LCALL     ?Subroutine174 & 0xFFFF
   \                     ??CrossCallReturnLabel_282:
   \   000003   A3           INC       DPTR
   \   000004   A3           INC       DPTR
   \   000005   A3           INC       DPTR
   \   000006   A3           INC       DPTR
   \   000007   A3           INC       DPTR
   \   000008   F0           MOVX      @DPTR,A
   \   000009   22           RET

   \                                 In  segment BANKED_CODE, align 1, keep-with-next
   \                     ?Subroutine174:
   \   000000   A3           INC       DPTR
   \   000001   A3           INC       DPTR
   \   000002   A3           INC       DPTR
   \   000003   A3           INC       DPTR
   \   000004   A3           INC       DPTR
   \   000005   E0           MOVX      A,@DPTR
   \   000006   85..82       MOV       DPL,?V0
   \   000009   85..83       MOV       DPH,?V1
   \   00000C   A3           INC       DPTR
   \   00000D   A3           INC       DPTR
   \   00000E   A3           INC       DPTR
   \   00000F   A3           INC       DPTR
   \   000010   A3           INC       DPTR
   \   000011   22           RET

   \                                 In  segment BANKED_CODE, align 1, keep-with-next
   \                     ?Subroutine66:
   \   000000   8E82         MOV       DPL,R6
   \   000002   8F83         MOV       DPH,R7
   \   000004   12....       LCALL     ?Subroutine173 & 0xFFFF
   \                     ??CrossCallReturnLabel_644:
   \   000007   85..82       MOV       DPL,?V0
   \   00000A   85..83       MOV       DPH,?V1
   \   00000D   A3           INC       DPTR
   \   00000E   A3           INC       DPTR
   \   00000F   A3           INC       DPTR
   \   000010   A3           INC       DPTR
   \   000011   A3           INC       DPTR
   \   000012   A3           INC       DPTR
   \   000013   A3           INC       DPTR
   \   000014   22           RET
   3128          
   3129          /*********************************************************************
   3130           * @fn          ZDO_ParseMgmtRtgRsp
   3131           *
   3132           * @brief       This function parses the incoming Management
   3133           *              Routing response.
   3134           *
   3135           * @param       inMsg - incoming message
   3136           *
   3137           * @return      a pointer to parsed response structure (NULL if not allocated).
   3138           *          This structure was allocated using osal_mem_alloc, so it must be freed
   3139           *          by the calling function [osal_mem_free()].
   3140           */

   \                                 In  segment BANKED_CODE, align 1, keep-with-next
   3141          ZDO_MgmtRtgRsp_t *ZDO_ParseMgmtRtgRsp( zdoIncomingMsg_t *inMsg )
   \                     ZDO_ParseMgmtRtgRsp:
   3142          {
   \   000000                REQUIRE ?V0
   \   000000                REQUIRE ?V1
   \   000000                REQUIRE ?V2
   \   000000                REQUIRE ?V3
   \   000000                REQUIRE ?V4
   \   000000                REQUIRE ?V5
   \   000000   74F2         MOV       A,#-0xe
   \   000002   12....       LCALL     ?BANKED_ENTER_XDATA
   \   000005                ; Saved register size: 14
   \   000005                ; Auto size: 0
   3143            ZDO_MgmtRtgRsp_t *pRsp;
   3144            uint8 status;
   3145            uint8 rtgCount = 0;
   \   000005   75..00       MOV       ?V2,#0x0
   3146            uint8 startIndex = 0;
   \   000008   75..00       MOV       ?V1,#0x0
   3147            uint8 rtgListCount = 0;
   \   00000B   75..00       MOV       ?V0,#0x0
   3148            uint8 *msg;
   3149          
   3150            msg = inMsg->asdu;
   \   00000E   12....       LCALL     ?Subroutine75 & 0xFFFF
   3151          
   3152            status = *msg++;
   3153            if ( status == ZSuccess )
   \                     ??CrossCallReturnLabel_118:
   \   000011   7015         JNZ       ??ZDO_ParseMgmtRtgRsp_0
   3154            {
   3155              rtgCount = *msg++;
   \   000013   12....       LCALL     ??Subroutine211_0 & 0xFFFF
   3156              startIndex = *msg++;
   \                     ??CrossCallReturnLabel_334:
   \   000016   F5..         MOV       ?V1,A
   3157              rtgListCount = *msg++;
   \   000018   8E82         MOV       DPL,R6
   \   00001A   8F83         MOV       DPH,R7
   \   00001C   A3           INC       DPTR
   \   00001D   A3           INC       DPTR
   \   00001E   E0           MOVX      A,@DPTR
   \   00001F   F5..         MOV       ?V0,A
   \   000021   EE           MOV       A,R6
   \   000022   2403         ADD       A,#0x3
   \   000024   FE           MOV       R6,A
   \   000025   5001         JNC       ??ZDO_ParseMgmtRtgRsp_0
   \   000027   0F           INC       R7
   3158            }
   3159          
   3160            // Allocate a buffer big enough to handle the list
   3161            pRsp = (ZDO_MgmtRtgRsp_t *)osal_mem_alloc(
   3162                    sizeof( ZDO_MgmtRtgRsp_t ) + (rtgListCount * sizeof( rtgItem_t )) );
   \                     ??ZDO_ParseMgmtRtgRsp_0:
   \   000028                ; Setup parameters for call to function osal_mem_alloc
   \   000028   E5..         MOV       A,?V0
   \   00002A   75F007       MOV       B,#0x7
   \   00002D   12....       LCALL     ?Subroutine153 & 0xFFFF
   \                     ??CrossCallReturnLabel_246:
   \   000030   12....       LCALL     `??osal_mem_alloc::?relay`; Banked call to: osal_mem_alloc
   3163            if ( pRsp )
   \   000033   EA           MOV       A,R2
   \   000034   4B           ORL       A,R3
   \   000035   606F         JZ        ??ZDO_ParseMgmtRtgRsp_1
   3164            {
   3165              uint8 x;
   3166              rtgItem_t *pList = pRsp->list;
   \   000037   EA           MOV       A,R2
   \   000038   2404         ADD       A,#0x4
   \   00003A   F8           MOV       R0,A
   \   00003B   E4           CLR       A
   \   00003C   3B           ADDC      A,R3
   \   00003D   F9           MOV       R1,A
   3167              pRsp->status = status;
   \   00003E   8A82         MOV       DPL,R2
   \   000040   8B83         MOV       DPH,R3
   \   000042   E5..         MOV       A,?V3
   \   000044   F0           MOVX      @DPTR,A
   3168              pRsp->rtgCount = rtgCount;
   \   000045   A3           INC       DPTR
   \   000046   E5..         MOV       A,?V2
   \   000048   12....       LCALL     ?Subroutine39 & 0xFFFF
   3169              pRsp->startIndex = startIndex;
   \                     ??CrossCallReturnLabel_53:
   \   00004B   E5..         MOV       A,?V1
   \   00004D   12....       LCALL     ?Subroutine27 & 0xFFFF
   3170              pRsp->rtgListCount = rtgListCount;
   \                     ??CrossCallReturnLabel_31:
   \   000050   E5..         MOV       A,?V0
   \   000052   F0           MOVX      @DPTR,A
   3171          
   3172              for ( x = 0; x < rtgListCount; x++ )
   \   000053   7C00         MOV       R4,#0x0
   \   000055   8049         SJMP      ??ZDO_ParseMgmtRtgRsp_2
   3173              {
   3174                uint8 statOpt;
   3175          
   3176                pList->dstAddress = BUILD_UINT16( msg[0], msg[1] );
   \                     ??ZDO_ParseMgmtRtgRsp_3:
   \   000057   12....       LCALL     ?Subroutine87 & 0xFFFF
   \                     ??CrossCallReturnLabel_137:
   \   00005A   F0           MOVX      @DPTR,A
   \   00005B   A3           INC       DPTR
   \   00005C   E5..         MOV       A,?V3
   \   00005E   12....       LCALL     ?Subroutine53 & 0xFFFF
   3177                msg += 2;
   3178                statOpt = *msg++;
   \                     ??CrossCallReturnLabel_80:
   \   000061   FD           MOV       R5,A
   \   000062   EE           MOV       A,R6
   \   000063   2403         ADD       A,#0x3
   \   000065   FE           MOV       R6,A
   \   000066   5001         JNC       ??ZDO_ParseMgmtRtgRsp_4
   \   000068   0F           INC       R7
   3179                pList->status = (statOpt & 0x07);
   \                     ??ZDO_ParseMgmtRtgRsp_4:
   \   000069   7407         MOV       A,#0x7
   \   00006B   5D           ANL       A,R5
   \   00006C   8882         MOV       DPL,R0
   \   00006E   8983         MOV       DPH,R1
   \   000070   A3           INC       DPTR
   \   000071   A3           INC       DPTR
   \   000072   A3           INC       DPTR
   \   000073   A3           INC       DPTR
   \   000074   A3           INC       DPTR
   \   000075   F0           MOVX      @DPTR,A
   3180                pList->options = ((statOpt >> 3) & 0x07);
   \   000076   ED           MOV       A,R5
   \   000077   13           RRC       A
   \   000078   13           RRC       A
   \   000079   13           RRC       A
   \   00007A   541F         ANL       A,#0x1f
   \   00007C   5407         ANL       A,#0x7
   \   00007E   8882         MOV       DPL,R0
   \   000080   8983         MOV       DPH,R1
   \   000082   A3           INC       DPTR
   \   000083   A3           INC       DPTR
   \   000084   A3           INC       DPTR
   \   000085   A3           INC       DPTR
   \   000086   A3           INC       DPTR
   \   000087   A3           INC       DPTR
   \   000088   F0           MOVX      @DPTR,A
   3181                pList->nextHopAddress = BUILD_UINT16( msg[0], msg[1] );
   \   000089   12....       LCALL     ?Subroutine87 & 0xFFFF
   \                     ??CrossCallReturnLabel_138:
   \   00008C   A3           INC       DPTR
   \   00008D   A3           INC       DPTR
   \   00008E   F0           MOVX      @DPTR,A
   \   00008F   A3           INC       DPTR
   \   000090   E5..         MOV       A,?V3
   \   000092   12....       LCALL     ??Subroutine271_0 & 0xFFFF
   3182                msg += 2;
   \                     ??CrossCallReturnLabel_686:
   \   000095   5001         JNC       ??ZDO_ParseMgmtRtgRsp_5
   \   000097   0F           INC       R7
   3183                pList++;
   \                     ??ZDO_ParseMgmtRtgRsp_5:
   \   000098   E8           MOV       A,R0
   \   000099   2407         ADD       A,#0x7
   \   00009B   F8           MOV       R0,A
   \   00009C   5001         JNC       ??ZDO_ParseMgmtRtgRsp_6
   \   00009E   09           INC       R1
   3184              }
   \                     ??ZDO_ParseMgmtRtgRsp_6:
   \   00009F   0C           INC       R4
   \                     ??ZDO_ParseMgmtRtgRsp_2:
   \   0000A0   EC           MOV       A,R4
   \   0000A1   C3           CLR       C
   \   0000A2   95..         SUBB      A,?V0
   \   0000A4   40B1         JC        ??ZDO_ParseMgmtRtgRsp_3
   3185            }
   3186          
   3187            return ( pRsp );
   \                     ??ZDO_ParseMgmtRtgRsp_1:
   \   0000A6   80..         SJMP      ??Subroutine266_0
   3188          }

   \                                 In  segment BANKED_CODE, align 1, keep-with-next
   \                     ?Subroutine87:
   \   000000   8E82         MOV       DPL,R6
   \   000002   8F83         MOV       DPH,R7
   \   000004   E0           MOVX      A,@DPTR
   \   000005   F5..         MOV       ?V4,A
   \   000007   A3           INC       DPTR
   \   000008   E0           MOVX      A,@DPTR
   \   000009   F5..         MOV       ?V3,A
   \   00000B   E5..         MOV       A,?V4
   \   00000D   8882         MOV       DPL,R0
   \   00000F   8983         MOV       DPH,R1
   \   000011   22           RET

   \                                 In  segment BANKED_CODE, align 1, keep-with-next
   \                     ??Subroutine271_0:
   \   000000   F0           MOVX      @DPTR,A
   \   000001   EE           MOV       A,R6
   \   000002   2402         ADD       A,#0x2
   \   000004   FE           MOV       R6,A
   \   000005   22           RET

   \                                 In  segment BANKED_CODE, align 1, keep-with-next
   \                     ?Subroutine75:
   \   000000   12....       LCALL     ?Subroutine186 & 0xFFFF
   \                     ??CrossCallReturnLabel_304:
   \   000003   12....       LCALL     ?Subroutine175 & 0xFFFF
   \                     ??CrossCallReturnLabel_657:
   \   000006   F5..         MOV       ?V3,A
   \   000008   A3           INC       DPTR
   \   000009   AE82         MOV       R6,DPL
   \   00000B   AF83         MOV       R7,DPH
   \   00000D   22           RET
   3189          
   3190          /*********************************************************************
   3191           * @fn          ZDO_ParseMgmtBindRsp
   3192           *
   3193           * @brief       This function parses the incoming Management
   3194           *              Binding response.
   3195           *
   3196           * @param       inMsg - pointer to message to parse
   3197           *
   3198           * @return      a pointer to parsed response structure (NULL if not allocated).
   3199           *          This structure was allocated using osal_mem_alloc, so it must be freed
   3200           *          by the calling function [osal_mem_free()].
   3201           */

   \                                 In  segment BANKED_CODE, align 1, keep-with-next
   3202          ZDO_MgmtBindRsp_t *ZDO_ParseMgmtBindRsp( zdoIncomingMsg_t *inMsg )
   \                     ZDO_ParseMgmtBindRsp:
   3203          {
   \   000000                REQUIRE ?V0
   \   000000                REQUIRE ?V1
   \   000000                REQUIRE ?V2
   \   000000                REQUIRE ?V3
   \   000000                REQUIRE ?V4
   \   000000                REQUIRE ?V5
   \   000000                REQUIRE ?V6
   \   000000                REQUIRE ?V7
   \   000000                REQUIRE ?V8
   \   000000                REQUIRE ?V9
   \   000000   74EE         MOV       A,#-0x12
   \   000002   12....       LCALL     ?BANKED_ENTER_XDATA
   \   000005                ; Saved register size: 18
   \   000005                ; Auto size: 0
   3204            ZDO_MgmtBindRsp_t *pRsp;
   3205            uint8 status;
   3206            uint8 bindingCount = 0;
   \   000005   75..00       MOV       ?V6,#0x0
   3207            uint8 startIndex = 0;
   \   000008   75..00       MOV       ?V5,#0x0
   3208            uint8 bindingListCount = 0;
   \   00000B   75..00       MOV       ?V4,#0x0
   3209            uint8 *msg;
   3210          
   3211            msg = inMsg->asdu;
   \   00000E   12....       LCALL     ?Subroutine127 & 0xFFFF
   \                     ??CrossCallReturnLabel_192:
   \   000011   12....       LCALL     ?Subroutine95 & 0xFFFF
   3212          
   3213            status = *msg++;
   \                     ??CrossCallReturnLabel_338:
   \   000014   85..82       MOV       DPL,?V2
   \   000017   F583         MOV       DPH,A
   \   000019   12....       LCALL     ?Subroutine100 & 0xFFFF
   3214            if ( status == ZSuccess )
   \                     ??CrossCallReturnLabel_152:
   \   00001C   701C         JNZ       ??ZDO_ParseMgmtBindRsp_0
   3215            {
   3216              bindingCount = *msg++;
   \   00001E   E0           MOVX      A,@DPTR
   \   00001F   F5..         MOV       ?V6,A
   3217              startIndex = *msg++;
   \   000021   A3           INC       DPTR
   \   000022   E0           MOVX      A,@DPTR
   \   000023   F5..         MOV       ?V5,A
   3218              bindingListCount = *msg++;
   \   000025   85..82       MOV       DPL,?V2
   \   000028   85..83       MOV       DPH,?V3
   \   00002B   A3           INC       DPTR
   \   00002C   A3           INC       DPTR
   \   00002D   E0           MOVX      A,@DPTR
   \   00002E   F5..         MOV       ?V4,A
   \   000030   E5..         MOV       A,?V2
   \   000032   2403         ADD       A,#0x3
   \   000034   F5..         MOV       ?V2,A
   \   000036   5002         JNC       ??ZDO_ParseMgmtBindRsp_0
   \   000038   05..         INC       ?V3
   3219            }
   3220          
   3221            // Allocate a buffer big enough to handle the list
   3222            pRsp = (ZDO_MgmtBindRsp_t *)osal_mem_alloc(
   3223                    (sizeof ( ZDO_MgmtBindRsp_t ) + (bindingListCount * sizeof( apsBindingItem_t ))) );
   \                     ??ZDO_ParseMgmtBindRsp_0:
   \   00003A                ; Setup parameters for call to function osal_mem_alloc
   \   00003A   E5..         MOV       A,?V4
   \   00003C   75F015       MOV       B,#0x15
   \   00003F   12....       LCALL     ?Subroutine153 & 0xFFFF
   \                     ??CrossCallReturnLabel_247:
   \   000042   12....       LCALL     `??osal_mem_alloc::?relay`; Banked call to: osal_mem_alloc
   \   000045   8A..         MOV       ?V0,R2
   \   000047   8B..         MOV       ?V1,R3
   3224            if ( pRsp )
   \   000049   EA           MOV       A,R2
   \   00004A   45..         ORL       A,?V1
   \   00004C   7003         JNZ       $+5
   \   00004E   02....       LJMP      ??ZDO_ParseMgmtBindRsp_1 & 0xFFFF
   3225            {
   3226              uint8 x;
   3227              apsBindingItem_t *pList = pRsp->list;
   \   000051   EA           MOV       A,R2
   \   000052   2404         ADD       A,#0x4
   \   000054   FE           MOV       R6,A
   \   000055   E4           CLR       A
   \   000056   35..         ADDC      A,?V1
   \   000058   FF           MOV       R7,A
   3228              pRsp->status = status;
   \   000059   12....       LCALL     ?Subroutine12 & 0xFFFF
   3229              pRsp->bindingCount = bindingCount;
   3230              pRsp->startIndex = startIndex;
   3231              pRsp->bindingListCount = bindingListCount;
   3232          
   3233              for ( x = 0; x < bindingListCount; x++ )
   \                     ??CrossCallReturnLabel_3:
   \   00005C   801F         SJMP      ??ZDO_ParseMgmtBindRsp_2
   3234              {
   3235                osal_cpyExtAddr( pList->srcAddr, msg );
   3236                msg += Z_EXTADDR_LEN;
   3237                pList->srcEP = *msg++;
   3238          
   3239                // Get the Cluster ID
   3240          
   3241                pList->clusterID = BUILD_UINT16( msg[0], msg[1] );
   3242                msg += 2;
   3243                pList->dstAddr.addrMode = *msg++;
   3244                if ( pList->dstAddr.addrMode == Addr64Bit )
   3245                {
   3246                  osal_cpyExtAddr( pList->dstAddr.addr.extAddr, msg );
   3247                  msg += Z_EXTADDR_LEN;
   3248                  pList->dstEP = *msg++;
   3249                }
   3250                else
   3251                {
   3252                  pList->dstAddr.addr.shortAddr = BUILD_UINT16( msg[0], msg[1] );
   \                     ??ZDO_ParseMgmtBindRsp_3:
   \   00005E   85..82       MOV       DPL,?V2
   \   000061   85..83       MOV       DPH,?V3
   \   000064   12....       LCALL     ?Subroutine97 & 0xFFFF
   \                     ??CrossCallReturnLabel_148:
   \   000067   12....       LCALL     ?Subroutine52 & 0xFFFF
   3253                  msg += 2;
   \                     ??CrossCallReturnLabel_387:
   \   00006A   E5..         MOV       A,?V2
   \   00006C   2402         ADD       A,#0x2
   \   00006E   F5..         MOV       ?V2,A
   \   000070   5002         JNC       ??ZDO_ParseMgmtBindRsp_4
   \   000072   05..         INC       ?V3
   3254                }
   3255          
   3256                pList++;
   \                     ??ZDO_ParseMgmtBindRsp_4:
   \   000074   EE           MOV       A,R6
   \   000075   2415         ADD       A,#0x15
   \   000077   FE           MOV       R6,A
   \   000078   5001         JNC       ??ZDO_ParseMgmtBindRsp_5
   \   00007A   0F           INC       R7
   \                     ??ZDO_ParseMgmtBindRsp_5:
   \   00007B   05..         INC       ?V5
   \                     ??ZDO_ParseMgmtBindRsp_2:
   \   00007D   E5..         MOV       A,?V5
   \   00007F   C3           CLR       C
   \   000080   95..         SUBB      A,?V4
   \   000082   5075         JNC       ??ZDO_ParseMgmtBindRsp_1
   \   000084                ; Setup parameters for call to function sAddrExtCpy
   \   000084   AC..         MOV       R4,?V2
   \   000086   AD..         MOV       R5,?V3
   \   000088   EE           MOV       A,R6
   \   000089   FA           MOV       R2,A
   \   00008A   EF           MOV       A,R7
   \   00008B   FB           MOV       R3,A
   \   00008C   12....       LCALL     `??sAddrExtCpy::?relay`; Banked call to: sAddrExtCpy
   \   00008F   85..82       MOV       DPL,?V2
   \   000092   85..83       MOV       DPH,?V3
   \   000095   12....       LCALL     ?Subroutine83 & 0xFFFF
   \                     ??CrossCallReturnLabel_132:
   \   000098   E5..         MOV       A,?V2
   \   00009A   2409         ADD       A,#0x9
   \   00009C   F5..         MOV       ?V2,A
   \   00009E   5002         JNC       ??ZDO_ParseMgmtBindRsp_6
   \   0000A0   05..         INC       ?V3
   \                     ??ZDO_ParseMgmtBindRsp_6:
   \   0000A2   F582         MOV       DPL,A
   \   0000A4   85..83       MOV       DPH,?V3
   \   0000A7   12....       LCALL     ?Subroutine65 & 0xFFFF
   \                     ??CrossCallReturnLabel_103:
   \   0000AA   12....       LCALL     ??Subroutine222_0 & 0xFFFF
   \                     ??CrossCallReturnLabel_376:
   \   0000AD   85..82       MOV       DPL,?V2
   \   0000B0   85..83       MOV       DPH,?V3
   \   0000B3   A3           INC       DPTR
   \   0000B4   A3           INC       DPTR
   \   0000B5   E0           MOVX      A,@DPTR
   \   0000B6   F8           MOV       R0,A
   \   0000B7   12....       LCALL     ?Subroutine128 & 0xFFFF
   \                     ??CrossCallReturnLabel_195:
   \   0000BA   E8           MOV       A,R0
   \   0000BB   F0           MOVX      @DPTR,A
   \   0000BC   E5..         MOV       A,?V2
   \   0000BE   2403         ADD       A,#0x3
   \   0000C0   F5..         MOV       ?V2,A
   \   0000C2   5002         JNC       ??ZDO_ParseMgmtBindRsp_7
   \   0000C4   05..         INC       ?V3
   \                     ??ZDO_ParseMgmtBindRsp_7:
   \   0000C6   7403         MOV       A,#0x3
   \   0000C8   68           XRL       A,R0
   \   0000C9   7093         JNZ       ??ZDO_ParseMgmtBindRsp_3
   \   0000CB                ; Setup parameters for call to function sAddrExtCpy
   \   0000CB   AC..         MOV       R4,?V2
   \   0000CD   AD..         MOV       R5,?V3
   \   0000CF   12....       LCALL     ?Subroutine144 & 0xFFFF
   \                     ??CrossCallReturnLabel_220:
   \   0000D2   12....       LCALL     `??sAddrExtCpy::?relay`; Banked call to: sAddrExtCpy
   \   0000D5   85..82       MOV       DPL,?V2
   \   0000D8   85..83       MOV       DPH,?V3
   \   0000DB   A3           INC       DPTR
   \   0000DC   A3           INC       DPTR
   \   0000DD   A3           INC       DPTR
   \   0000DE   A3           INC       DPTR
   \   0000DF   A3           INC       DPTR
   \   0000E0   A3           INC       DPTR
   \   0000E1   A3           INC       DPTR
   \   0000E2   A3           INC       DPTR
   \   0000E3   E0           MOVX      A,@DPTR
   \   0000E4   C0E0         PUSH      A
   \   0000E6   12....       LCALL     ?Subroutine139 & 0xFFFF
   3257              }
   3258            }
   \                     ??CrossCallReturnLabel_557:
   \   0000E9   D0E0         POP       A
   \   0000EB   F0           MOVX      @DPTR,A
   \   0000EC   E5..         MOV       A,?V2
   \   0000EE   2409         ADD       A,#0x9
   \   0000F0   F5..         MOV       ?V2,A
   \   0000F2   5080         JNC       ??ZDO_ParseMgmtBindRsp_4
   \   0000F4   05..         INC       ?V3
   \                     ??ZDO_ParseMgmtBindRsp_8:
   \   0000F6   02....       LJMP      ??ZDO_ParseMgmtBindRsp_4 & 0xFFFF
   3259          
   3260            return ( pRsp );
   \                     ??ZDO_ParseMgmtBindRsp_1:
   \   0000F9   AA..         MOV       R2,?V0
   \   0000FB   AB..         MOV       R3,?V1
   \   0000FD   02....       LJMP      ??Subroutine225_0 & 0xFFFF
   3261          }
   3262          
   3263          /*********************************************************************
   3264           * @fn          ZDO_ParseUserDescRsp
   3265           *
   3266           * @brief       This function parses the incoming User
   3267           *              Descriptor Response.
   3268           *
   3269           * @param       inMsg - incoming response message
   3270           *
   3271           * @return      a pointer to parsed response structure (NULL if not allocated).
   3272           *          This structure was allocated using osal_mem_alloc, so it must be freed
   3273           *          by the calling function [osal_mem_free()].
   3274           */

   \                                 In  segment BANKED_CODE, align 1, keep-with-next
   3275          ZDO_UserDescRsp_t *ZDO_ParseUserDescRsp( zdoIncomingMsg_t *inMsg )
   \                     ZDO_ParseUserDescRsp:
   3276          {
   \   000000                REQUIRE ?V0
   \   000000                REQUIRE ?V1
   \   000000                REQUIRE ?V2
   \   000000                REQUIRE ?V3
   \   000000                REQUIRE ?V4
   \   000000                REQUIRE ?V5
   \   000000   74F2         MOV       A,#-0xe
   \   000002   12....       LCALL     ?BANKED_ENTER_XDATA
   \   000005                ; Saved register size: 14
   \   000005                ; Auto size: 0
   3277            ZDO_UserDescRsp_t *pRsp;
   3278            uint8 *msg;
   3279            uint8 descLen = 0;
   \   000005   75..00       MOV       ?V3,#0x0
   3280          
   3281            msg = inMsg->asdu;
   \   000008   12....       LCALL     ?Subroutine126 & 0xFFFF
   \                     ??CrossCallReturnLabel_189:
   \   00000B   12....       LCALL     ??Subroutine229_0 & 0xFFFF
   \                     ??CrossCallReturnLabel_426:
   \   00000E   88..         MOV       ?V0,R0
   \   000010   89..         MOV       ?V1,R1
   3282          
   3283            if ( msg[0] == ZSuccess )
   \   000012   8882         MOV       DPL,R0
   \   000014   F583         MOV       DPH,A
   \   000016   E0           MOVX      A,@DPTR
   \   000017   7006         JNZ       ??ZDO_ParseUserDescRsp_0
   3284            {
   3285              descLen = msg[3];
   \   000019   A3           INC       DPTR
   \   00001A   A3           INC       DPTR
   \   00001B   A3           INC       DPTR
   \   00001C   E0           MOVX      A,@DPTR
   \   00001D   F5..         MOV       ?V3,A
   3286            }
   3287          
   3288            pRsp = (ZDO_UserDescRsp_t *)osal_mem_alloc( sizeof ( ZDO_UserDescRsp_t ) + descLen );
   \                     ??ZDO_ParseUserDescRsp_0:
   \   00001F                ; Setup parameters for call to function osal_mem_alloc
   \   00001F   E5..         MOV       A,?V3
   \   000021   12....       LCALL     ??Subroutine265_0 & 0xFFFF
   \                     ??CrossCallReturnLabel_660:
   \   000024   3400         ADDC      A,#0x0
   \   000026   FB           MOV       R3,A
   \   000027   12....       LCALL     `??osal_mem_alloc::?relay`; Banked call to: osal_mem_alloc
   \   00002A   8A..         MOV       ?V4,R2
   \   00002C   8B..         MOV       ?V5,R3
   \   00002E   AE..         MOV       R6,?V4
   \   000030   AF..         MOV       R7,?V5
   3289            if ( pRsp )
   \   000032   EE           MOV       A,R6
   \   000033   4F           ORL       A,R7
   \   000034   603D         JZ        ??ZDO_ParseUserDescRsp_1
   3290            {
   3291              pRsp->status = msg[0];
   \   000036   85..82       MOV       DPL,?V0
   \   000039   85..83       MOV       DPH,?V1
   \   00003C   12....       LCALL     ?Subroutine180 & 0xFFFF
   \                     ??CrossCallReturnLabel_289:
   \   00003F   12....       LCALL     ?Subroutine42 & 0xFFFF
   3292              pRsp->nwkAddr = BUILD_UINT16( msg[1], msg[2] );
   \                     ??CrossCallReturnLabel_59:
   \   000042   E0           MOVX      A,@DPTR
   \   000043   FA           MOV       R2,A
   \   000044   85..82       MOV       DPL,?V0
   \   000047   85..83       MOV       DPH,?V1
   \   00004A   A3           INC       DPTR
   \   00004B   12....       LCALL     ?Subroutine18 & 0xFFFF
   3293              pRsp->length = descLen;
   \                     ??CrossCallReturnLabel_625:
   \   00004E   E5..         MOV       A,?V3
   \   000050   F0           MOVX      @DPTR,A
   3294              if ( descLen )
   \   000051   6020         JZ        ??ZDO_ParseUserDescRsp_1
   3295              {
   3296                osal_memcpy( pRsp->desc, &msg[4], descLen );
   \   000053                ; Setup parameters for call to function osal_memcpy
   \   000053   E5..         MOV       A,?V0
   \   000055   2404         ADD       A,#0x4
   \   000057   F5..         MOV       ?V0,A
   \   000059   5002         JNC       ??ZDO_ParseUserDescRsp_2
   \   00005B   05..         INC       ?V1
   \                     ??ZDO_ParseUserDescRsp_2:
   \   00005D   88..         MOV       ?V2,R0
   \   00005F   78..         MOV       R0,#?V0
   \   000061   12....       LCALL     ?PUSH_XSTACK_I_THREE
   \   000064   AC..         MOV       R4,?V3
   \   000066   12....       LCALL     ?Subroutine192 & 0xFFFF
   3297              }
   3298            }
   \                     ??CrossCallReturnLabel_663:
   \   000069   3F           ADDC      A,R7
   \   00006A   FB           MOV       R3,A
   \   00006B   12....       LCALL     `??osal_memcpy::?relay`; Banked call to: osal_memcpy
   \   00006E   7403         MOV       A,#0x3
   \   000070   12....       LCALL     ?DEALLOC_XSTACK8
   3299          
   3300            return ( pRsp );
   \                     ??ZDO_ParseUserDescRsp_1:
   \   000073   EE           MOV       A,R6
   \   000074   FA           MOV       R2,A
   \   000075   EF           MOV       A,R7
   \   000076   FB           MOV       R3,A
   \   000077   02....       LJMP      ??Subroutine266_0 & 0xFFFF
   3301          }
   3302          
   3303          /*********************************************************************
   3304           * @fn          ZDO_ParseSimpleDescBuf
   3305           *
   3306           * @brief       Parse a byte sequence representation of a Simple Descriptor.
   3307           *
   3308           * @param       buf  - pointer to a byte array representing a Simple Desc.
   3309           * @param       desc - SimpleDescriptionFormat_t *
   3310           *
   3311           *              This routine allocates storage for the cluster IDs because
   3312           *              they are 16-bit and need to be aligned to be properly processed.
   3313           *              This routine returns non-zero if an allocation fails.
   3314           *
   3315           *              NOTE: This means that the caller or user of the input structure
   3316           *                    is responsible for freeing the memory
   3317           *
   3318           * @return      0: success
   3319           *              1: failure due to malloc failure.
   3320           */

   \                                 In  segment BANKED_CODE, align 1, keep-with-next
   3321          uint8 ZDO_ParseSimpleDescBuf( uint8 *buf, SimpleDescriptionFormat_t *desc )
   \                     ZDO_ParseSimpleDescBuf:
   3322          {
   \   000000                REQUIRE ?V0
   \   000000                REQUIRE ?V1
   \   000000                REQUIRE ?V2
   \   000000                REQUIRE ?V3
   \   000000                REQUIRE ?V4
   \   000000                REQUIRE ?V5
   \   000000   74F2         MOV       A,#-0xe
   \   000002   12....       LCALL     ?BANKED_ENTER_XDATA
   \   000005                ; Saved register size: 14
   \   000005                ; Auto size: 0
   \   000005   EA           MOV       A,R2
   \   000006   FE           MOV       R6,A
   \   000007   EB           MOV       A,R3
   \   000008   FF           MOV       R7,A
   \   000009   8C..         MOV       ?V0,R4
   \   00000B   8D..         MOV       ?V1,R5
   3323            uint8 num, i;
   3324          
   3325            desc->EndPoint = *buf++;
   \   00000D   8E82         MOV       DPL,R6
   \   00000F   8F83         MOV       DPH,R7
   \   000011   12....       LCALL     ??Subroutine269_0 & 0xFFFF
   \                     ??CrossCallReturnLabel_678:
   \   000014   12....       LCALL     ?Subroutine43 & 0xFFFF
   3326            desc->AppProfId = BUILD_UINT16( buf[0], buf[1] );
   \                     ??CrossCallReturnLabel_62:
   \   000017   12....       LCALL     ?Subroutine84 & 0xFFFF
   \                     ??CrossCallReturnLabel_682:
   \   00001A   F0           MOVX      @DPTR,A
   \   00001B   A3           INC       DPTR
   \   00001C   E9           MOV       A,R1
   \   00001D   12....       LCALL     ??Subroutine271_0 & 0xFFFF
   3327            buf += 2;
   \                     ??CrossCallReturnLabel_687:
   \   000020   5001         JNC       ??ZDO_ParseSimpleDescBuf_0
   \   000022   0F           INC       R7
   3328            desc->AppDeviceId = BUILD_UINT16( buf[0], buf[1] );
   \                     ??ZDO_ParseSimpleDescBuf_0:
   \   000023   8E82         MOV       DPL,R6
   \   000025   8F83         MOV       DPH,R7
   \   000027   12....       LCALL     ?Subroutine84 & 0xFFFF
   \                     ??CrossCallReturnLabel_683:
   \   00002A   A3           INC       DPTR
   \   00002B   A3           INC       DPTR
   \   00002C   12....       LCALL     ?Subroutine33 & 0xFFFF
   3329            buf += 2;
   3330            desc->AppDevVer = *buf >> 4;
   \                     ??CrossCallReturnLabel_41:
   \   00002F   C4           SWAP      A
   \   000030   540F         ANL       A,#0xf
   3331          
   3332            desc->Reserved = 0;
   \   000032   8C82         MOV       DPL,R4
   \   000034   8D83         MOV       DPH,R5
   \   000036   A3           INC       DPTR
   \   000037   A3           INC       DPTR
   \   000038   A3           INC       DPTR
   \   000039   A3           INC       DPTR
   \   00003A   A3           INC       DPTR
   \   00003B   12....       LCALL     ?Subroutine23 & 0xFFFF
   3333            buf++;
   3334          
   3335            // move in input cluster list (if any). allocate aligned memory.
   3336            num = desc->AppNumInClusters = *buf++;
   \                     ??CrossCallReturnLabel_24:
   \   00003E   F5..         MOV       ?V4,A
   \   000040   EE           MOV       A,R6
   \   000041   2404         ADD       A,#0x4
   \   000043   FE           MOV       R6,A
   \   000044   5001         JNC       ??ZDO_ParseSimpleDescBuf_1
   \   000046   0F           INC       R7
   \                     ??ZDO_ParseSimpleDescBuf_1:
   \   000047   8C82         MOV       DPL,R4
   \   000049   8D83         MOV       DPH,R5
   \   00004B   A3           INC       DPTR
   \   00004C   A3           INC       DPTR
   \   00004D   A3           INC       DPTR
   \   00004E   A3           INC       DPTR
   \   00004F   A3           INC       DPTR
   \   000050   A3           INC       DPTR
   \   000051   E5..         MOV       A,?V4
   \   000053   F0           MOVX      @DPTR,A
   3337            if ( num )
   \   000054   6039         JZ        ??ZDO_ParseSimpleDescBuf_2
   3338            {
   3339              if (!(desc->pAppInClusterList = (uint16 *)osal_mem_alloc(num*sizeof(uint16))))
   \   000056                ; Setup parameters for call to function osal_mem_alloc
   \   000056   12....       LCALL     ??Subroutine268_0 & 0xFFFF
   \                     ??CrossCallReturnLabel_672:
   \   000059   12....       LCALL     `??osal_mem_alloc::?relay`; Banked call to: osal_mem_alloc
   \   00005C   E5..         MOV       A,?V0
   \   00005E   2407         ADD       A,#0x7
   \   000060   F8           MOV       R0,A
   \   000061   E4           CLR       A
   \   000062   35..         ADDC      A,?V1
   \   000064   F9           MOV       R1,A
   \   000065   88..         MOV       ?V2,R0
   \   000067   89..         MOV       ?V3,R1
   \   000069   EA           MOV       A,R2
   \   00006A   F8           MOV       R0,A
   \   00006B   EB           MOV       A,R3
   \   00006C   F9           MOV       R1,A
   \   00006D   85..82       MOV       DPL,?V2
   \   000070   85..83       MOV       DPH,?V3
   \   000073   12....       LCALL     ??Subroutine240_0 & 0xFFFF
   \                     ??CrossCallReturnLabel_483:
   \   000076   7003         JNZ       $+5
   \   000078   02....       LJMP      ??ZDO_ParseSimpleDescBuf_3 & 0xFFFF
   3340              {
   3341                // malloc failed. we're done.
   3342                return 1;
   3343              }
   3344              for (i=0; i<num; ++i)
   \   00007B   7800         MOV       R0,#0x0
   \   00007D   800A         SJMP      ??ZDO_ParseSimpleDescBuf_4
   3345              {
   3346                desc->pAppInClusterList[i] = BUILD_UINT16( buf[0], buf[1] );
   \                     ??ZDO_ParseSimpleDescBuf_5:
   \   00007F   12....       LCALL     ?Subroutine60 & 0xFFFF
   3347                buf += 2;
   3348              }
   \                     ??CrossCallReturnLabel_93:
   \   000082   12....       LCALL     ?Subroutine35 & 0xFFFF
   \                     ??CrossCallReturnLabel_684:
   \   000085   5001         JNC       ??ZDO_ParseSimpleDescBuf_6
   \   000087   0F           INC       R7
   \                     ??ZDO_ParseSimpleDescBuf_6:
   \   000088   08           INC       R0
   \                     ??ZDO_ParseSimpleDescBuf_4:
   \   000089   E8           MOV       A,R0
   \   00008A   C3           CLR       C
   \   00008B   95..         SUBB      A,?V4
   \   00008D   40F0         JC        ??ZDO_ParseSimpleDescBuf_5
   3349            }
   3350          
   3351            // move in output cluster list (if any). allocate aligned memory.
   3352            num = desc->AppNumOutClusters = *buf++;
   \                     ??ZDO_ParseSimpleDescBuf_2:
   \   00008F   8E82         MOV       DPL,R6
   \   000091   8F83         MOV       DPH,R7
   \   000093   E0           MOVX      A,@DPTR
   \   000094   F5..         MOV       ?V2,A
   \   000096   A3           INC       DPTR
   \   000097   AE82         MOV       R6,DPL
   \   000099   AF83         MOV       R7,DPH
   \   00009B   85..82       MOV       DPL,?V0
   \   00009E   85..83       MOV       DPH,?V1
   \   0000A1   A3           INC       DPTR
   \   0000A2   A3           INC       DPTR
   \   0000A3   A3           INC       DPTR
   \   0000A4   A3           INC       DPTR
   \   0000A5   A3           INC       DPTR
   \   0000A6   A3           INC       DPTR
   \   0000A7   A3           INC       DPTR
   \   0000A8   A3           INC       DPTR
   \   0000A9   A3           INC       DPTR
   \   0000AA   F0           MOVX      @DPTR,A
   3353            if (num)
   \   0000AB   6070         JZ        ??ZDO_ParseSimpleDescBuf_7
   3354            {
   3355              if (!(desc->pAppOutClusterList = (uint16 *)osal_mem_alloc(num*sizeof(uint16))))
   \   0000AD                ; Setup parameters for call to function osal_mem_alloc
   \   0000AD   12....       LCALL     ??Subroutine268_0 & 0xFFFF
   \                     ??CrossCallReturnLabel_673:
   \   0000B0   12....       LCALL     `??osal_mem_alloc::?relay`; Banked call to: osal_mem_alloc
   \   0000B3   8A..         MOV       ?V4,R2
   \   0000B5   8B..         MOV       ?V5,R3
   \   0000B7   A8..         MOV       R0,?V4
   \   0000B9   A9..         MOV       R1,?V5
   \   0000BB   85..82       MOV       DPL,?V0
   \   0000BE   85..83       MOV       DPH,?V1
   \   0000C1   A3           INC       DPTR
   \   0000C2   A3           INC       DPTR
   \   0000C3   A3           INC       DPTR
   \   0000C4   A3           INC       DPTR
   \   0000C5   A3           INC       DPTR
   \   0000C6   A3           INC       DPTR
   \   0000C7   A3           INC       DPTR
   \   0000C8   A3           INC       DPTR
   \   0000C9   A3           INC       DPTR
   \   0000CA   A3           INC       DPTR
   \   0000CB   12....       LCALL     ??Subroutine249_0 & 0xFFFF
   \                     ??CrossCallReturnLabel_544:
   \   0000CE   7036         JNZ       ??ZDO_ParseSimpleDescBuf_8
   3356              {
   3357                // malloc failed. free input cluster list memory if there is any
   3358                if ( desc->pAppInClusterList != NULL )
   \   0000D0   85..82       MOV       DPL,?V0
   \   0000D3   85..83       MOV       DPH,?V1
   \   0000D6   A3           INC       DPTR
   \   0000D7   A3           INC       DPTR
   \   0000D8   A3           INC       DPTR
   \   0000D9   A3           INC       DPTR
   \   0000DA   A3           INC       DPTR
   \   0000DB   A3           INC       DPTR
   \   0000DC   A3           INC       DPTR
   \   0000DD   12....       LCALL     ??Subroutine231_0 & 0xFFFF
   \                     ??CrossCallReturnLabel_443:
   \   0000E0   6020         JZ        ??ZDO_ParseSimpleDescBuf_3
   3359                {
   3360                  osal_mem_free(desc->pAppInClusterList);
   \   0000E2   E5..         MOV       A,?V0
   \   0000E4   2407         ADD       A,#0x7
   \   0000E6   F5..         MOV       ?V2,A
   \   0000E8   E4           CLR       A
   \   0000E9   35..         ADDC      A,?V1
   \   0000EB   F5..         MOV       ?V3,A
   \   0000ED                ; Setup parameters for call to function osal_mem_free
   \   0000ED   85..82       MOV       DPL,?V2
   \   0000F0   F583         MOV       DPH,A
   \   0000F2   12....       LCALL     ??Subroutine243_0 & 0xFFFF
   \                     ??CrossCallReturnLabel_512:
   \   0000F5   12....       LCALL     `??osal_mem_free::?relay`; Banked call to: osal_mem_free
   3361          
   3362                  desc->pAppInClusterList = NULL;
   \   0000F8   85..82       MOV       DPL,?V2
   \   0000FB   85..83       MOV       DPH,?V3
   \   0000FE   E4           CLR       A
   \   0000FF   F0           MOVX      @DPTR,A
   \   000100   A3           INC       DPTR
   \   000101   F0           MOVX      @DPTR,A
   3363                }
   3364                return 1;
   \                     ??ZDO_ParseSimpleDescBuf_3:
   \   000102   7901         MOV       R1,#0x1
   \   000104   8019         SJMP      ??ZDO_ParseSimpleDescBuf_9
   3365              }
   3366              for (i=0; i<num; ++i)
   \                     ??ZDO_ParseSimpleDescBuf_8:
   \   000106   7800         MOV       R0,#0x0
   \   000108   800D         SJMP      ??ZDO_ParseSimpleDescBuf_10
   3367              {
   3368                desc->pAppOutClusterList[i] = BUILD_UINT16( buf[0], buf[1] );
   \                     ??ZDO_ParseSimpleDescBuf_11:
   \   00010A   12....       LCALL     ?Subroutine60 & 0xFFFF
   3369                buf += 2;
   3370              }
   \                     ??CrossCallReturnLabel_94:
   \   00010D   A3           INC       DPTR
   \   00010E   A3           INC       DPTR
   \   00010F   A3           INC       DPTR
   \   000110   12....       LCALL     ?Subroutine35 & 0xFFFF
   \                     ??CrossCallReturnLabel_685:
   \   000113   5001         JNC       ??ZDO_ParseSimpleDescBuf_12
   \   000115   0F           INC       R7
   \                     ??ZDO_ParseSimpleDescBuf_12:
   \   000116   08           INC       R0
   \                     ??ZDO_ParseSimpleDescBuf_10:
   \   000117   E8           MOV       A,R0
   \   000118   C3           CLR       C
   \   000119   95..         SUBB      A,?V2
   \   00011B   40ED         JC        ??ZDO_ParseSimpleDescBuf_11
   3371            }
   3372            return 0;
   \                     ??ZDO_ParseSimpleDescBuf_7:
   \   00011D   7900         MOV       R1,#0x0
   \                     ??ZDO_ParseSimpleDescBuf_9:
   \   00011F   02....       LJMP      ??Subroutine266_0 & 0xFFFF
   3373          }

   \                                 In  segment BANKED_CODE, align 1, keep-with-next
   \                     ?Subroutine84:
   \   000000   E0           MOVX      A,@DPTR
   \   000001   FA           MOV       R2,A
   \   000002                REQUIRE ??Subroutine270_0
   \   000002                ; // Fall through to label ??Subroutine270_0

   \                                 In  segment BANKED_CODE, align 1, keep-with-next
   \                     ?Subroutine60:
   \   000000   8E82         MOV       DPL,R6
   \   000002   8F83         MOV       DPH,R7
   \   000004   E0           MOVX      A,@DPTR
   \   000005   FC           MOV       R4,A
   \   000006   A3           INC       DPTR
   \   000007   E0           MOVX      A,@DPTR
   \   000008   FA           MOV       R2,A
   \   000009   E4           CLR       A
   \   00000A   CA           XCH       A,R2
   \   00000B   FB           MOV       R3,A
   \   00000C   EC           MOV       A,R4
   \   00000D   2A           ADD       A,R2
   \   00000E   E4           CLR       A
   \   00000F   3B           ADDC      A,R3
   \   000010   FD           MOV       R5,A
   \   000011   E8           MOV       A,R0
   \   000012   25E0         ADD       A,0xE0 /* A   */
   \   000014   FA           MOV       R2,A
   \   000015   E4           CLR       A
   \   000016   33           RLC       A
   \   000017   FB           MOV       R3,A
   \   000018   85..82       MOV       DPL,?V0
   \   00001B   85..83       MOV       DPH,?V1
   \   00001E   22           RET

   \                                 In  segment BANKED_CODE, align 1, keep-with-next
   \                     ?Subroutine35:
   \   000000   A3           INC       DPTR
   \   000001   A3           INC       DPTR
   \   000002   A3           INC       DPTR
   \   000003   A3           INC       DPTR
   \   000004   A3           INC       DPTR
   \   000005   A3           INC       DPTR
   \   000006   A3           INC       DPTR
   \   000007   E0           MOVX      A,@DPTR
   \   000008   2A           ADD       A,R2
   \   000009   F9           MOV       R1,A
   \   00000A   A3           INC       DPTR
   \   00000B   E0           MOVX      A,@DPTR
   \   00000C   3B           ADDC      A,R3
   \   00000D   8982         MOV       DPL,R1
   \   00000F   F583         MOV       DPH,A
   \   000011   EC           MOV       A,R4
   \   000012   F0           MOVX      @DPTR,A
   \   000013   A3           INC       DPTR
   \   000014   ED           MOV       A,R5
   \   000015                REQUIRE ??Subroutine271_0
   \   000015                ; // Fall through to label ??Subroutine271_0
   3374          
   3375          /*********************************************************************
   3376           * @fn          ZDO_ParseDeviceAnnce
   3377           *
   3378           * @brief       Parse a Device Announce message.
   3379           *
   3380           * @param       inMsg - Incoming message
   3381           * @param       pAnnce - place to put the parsed information
   3382           *
   3383           * @return      none
   3384           */

   \                                 In  segment BANKED_CODE, align 1, keep-with-next
   3385          void ZDO_ParseDeviceAnnce( zdoIncomingMsg_t *inMsg, ZDO_DeviceAnnce_t *pAnnce )
   \                     ZDO_ParseDeviceAnnce:
   3386          {
   \   000000                REQUIRE ?V0
   \   000000                REQUIRE ?V1
   \   000000   74F6         MOV       A,#-0xa
   \   000002   12....       LCALL     ?BANKED_ENTER_XDATA
   \   000005                ; Saved register size: 10
   \   000005                ; Auto size: 0
   \   000005   8C..         MOV       ?V0,R4
   \   000007   8D..         MOV       ?V1,R5
   3387            uint8 *msg;
   3388          
   3389            // Parse incoming message
   3390            msg = inMsg->asdu;
   \   000009   12....       LCALL     ?Subroutine126 & 0xFFFF
   \                     ??CrossCallReturnLabel_190:
   \   00000C   12....       LCALL     ?Subroutine103 & 0xFFFF
   3391            pAnnce->nwkAddr = BUILD_UINT16( msg[0], msg[1] );
   \                     ??CrossCallReturnLabel_156:
   \   00000F   12....       LCALL     ?Subroutine98 & 0xFFFF
   \                     ??CrossCallReturnLabel_642:
   \   000012   8C82         MOV       DPL,R4
   \   000014   8D83         MOV       DPH,R5
   \   000016   F0           MOVX      @DPTR,A
   \   000017   A3           INC       DPTR
   \   000018   E9           MOV       A,R1
   \   000019   12....       LCALL     ??Subroutine271_0 & 0xFFFF
   3392            msg += 2;
   \                     ??CrossCallReturnLabel_688:
   \   00001C   5001         JNC       ??ZDO_ParseDeviceAnnce_0
   \   00001E   0F           INC       R7
   3393            osal_cpyExtAddr( pAnnce->extAddr, msg );
   \                     ??ZDO_ParseDeviceAnnce_0:
   \   00001F                ; Setup parameters for call to function sAddrExtCpy
   \   00001F   12....       LCALL     ?Subroutine137 & 0xFFFF
   \                     ??CrossCallReturnLabel_623:
   \   000022   35..         ADDC      A,?V1
   \   000024   FB           MOV       R3,A
   \   000025   12....       LCALL     `??sAddrExtCpy::?relay`; Banked call to: sAddrExtCpy
   3394            msg += Z_EXTADDR_LEN;
   3395            pAnnce->capabilities = *msg;
   \   000028   8E82         MOV       DPL,R6
   \   00002A   8F83         MOV       DPH,R7
   \   00002C   A3           INC       DPTR
   \   00002D   A3           INC       DPTR
   \   00002E   A3           INC       DPTR
   \   00002F   12....       LCALL     ?Subroutine73 & 0xFFFF
   3396          }
   \                     ??CrossCallReturnLabel_117:
   \   000032   02....       LJMP      ??Subroutine207_0 & 0xFFFF
   3397          
   3398          /*********************************************************************
   3399           * @fn          ZDO_ParseParentAnnce
   3400           *
   3401           * @brief       Parse Parent Announce and Parent Announce Rsp messages,
   3402           *              both messages have the same payload.
   3403           *
   3404           * @param       inMsg - Incoming message
   3405           *
   3406           * @return      a pointer to parsed response structure (NULL if not allocated).
   3407           *          This structure was allocated using osal_mem_alloc, so it must be freed
   3408           *          by the calling function [osal_mem_free()].
   3409           */

   \                                 In  segment BANKED_CODE, align 1, keep-with-next
   3410          ZDO_ParentAnnce_t *ZDO_ParseParentAnnce( zdoIncomingMsg_t *inMsg )
   \                     ZDO_ParseParentAnnce:
   3411          {
   \   000000                REQUIRE ?V0
   \   000000                REQUIRE ?V1
   \   000000                REQUIRE ?V2
   \   000000                REQUIRE ?V3
   \   000000                REQUIRE ?V4
   \   000000                REQUIRE ?V5
   \   000000   74F2         MOV       A,#-0xe
   \   000002   12....       LCALL     ?BANKED_ENTER_XDATA
   \   000005                ; Saved register size: 14
   \   000005                ; Auto size: 0
   3412            ZDO_ParentAnnce_t *pRcvdMsg;
   3413            uint8 *msg;
   3414            uint8 numChildren;
   3415          
   3416            msg = inMsg->asdu;
   \   000005   12....       LCALL     ?Subroutine75 & 0xFFFF
   3417            numChildren = *msg++;
   3418          
   3419            // Allocate a buffer big enough to handle the list
   3420            pRcvdMsg = (ZDO_ParentAnnce_t *)osal_mem_alloc(
   3421                       (sizeof(ZDO_ParentAnnce_t) + (numChildren * sizeof(ZDO_ChildInfo_t))));
   \                     ??CrossCallReturnLabel_119:
   \   000008                ; Setup parameters for call to function osal_mem_alloc
   \   000008   75F00C       MOV       B,#0xc
   \   00000B   A4           MUL       AB
   \   00000C   A9F0         MOV       R1,B
   \   00000E   2401         ADD       A,#0x1
   \   000010   FA           MOV       R2,A
   \   000011   E4           CLR       A
   \   000012   39           ADDC      A,R1
   \   000013   FB           MOV       R3,A
   \   000014   12....       LCALL     `??osal_mem_alloc::?relay`; Banked call to: osal_mem_alloc
   \   000017   8A..         MOV       ?V4,R2
   \   000019   8B..         MOV       ?V5,R3
   3422          
   3423            if ( pRcvdMsg )
   \   00001B   EA           MOV       A,R2
   \   00001C   45..         ORL       A,?V5
   \   00001E   6064         JZ        ??ZDO_ParseParentAnnce_0
   3424            {
   3425              uint8 x;
   3426              ZDO_ChildInfo_t *pList = pRcvdMsg->childInfo;
   \   000020   8A82         MOV       DPL,R2
   \   000022   8B83         MOV       DPH,R3
   \   000024   A3           INC       DPTR
   \   000025   8582..       MOV       ?V0,DPL
   \   000028   8583..       MOV       ?V1,DPH
   3427          
   3428              pRcvdMsg->numOfChildren = numChildren;
   \   00002B   8A82         MOV       DPL,R2
   \   00002D   8B83         MOV       DPH,R3
   \   00002F   E5..         MOV       A,?V3
   \   000031   F0           MOVX      @DPTR,A
   3429          
   3430              for ( x = 0; x < numChildren; x++ )
   \   000032   75..00       MOV       ?V2,#0x0
   \   000035   8046         SJMP      ??ZDO_ParseParentAnnce_1
   3431              {
   3432                osal_cpyExtAddr( pList->extAddr, msg );
   \                     ??ZDO_ParseParentAnnce_2:
   \   000037                ; Setup parameters for call to function sAddrExtCpy
   \   000037   EE           MOV       A,R6
   \   000038   FC           MOV       R4,A
   \   000039   EF           MOV       A,R7
   \   00003A   FD           MOV       R5,A
   \   00003B   AA..         MOV       R2,?V0
   \   00003D   AB..         MOV       R3,?V1
   \   00003F   12....       LCALL     `??sAddrExtCpy::?relay`; Banked call to: sAddrExtCpy
   3433                msg += Z_EXTADDR_LEN;
   \   000042   EE           MOV       A,R6
   \   000043   2408         ADD       A,#0x8
   \   000045   FE           MOV       R6,A
   \   000046   5001         JNC       ??ZDO_ParseParentAnnce_3
   \   000048   0F           INC       R7
   3434          
   3435                pList->age = osal_build_uint32( msg, 4 );
   \                     ??ZDO_ParseParentAnnce_3:
   \   000049                ; Setup parameters for call to function osal_build_uint32
   \   000049   7904         MOV       R1,#0x4
   \   00004B   FA           MOV       R2,A
   \   00004C   EF           MOV       A,R7
   \   00004D   FB           MOV       R3,A
   \   00004E   12....       LCALL     `??osal_build_uint32::?relay`; Banked call to: osal_build_uint32
   \   000051   EA           MOV       A,R2
   \   000052   F8           MOV       R0,A
   \   000053   EB           MOV       A,R3
   \   000054   F9           MOV       R1,A
   \   000055   EC           MOV       A,R4
   \   000056   FA           MOV       R2,A
   \   000057   ED           MOV       A,R5
   \   000058   FB           MOV       R3,A
   \   000059   85..82       MOV       DPL,?V0
   \   00005C   85..83       MOV       DPH,?V1
   \   00005F   A3           INC       DPTR
   \   000060   A3           INC       DPTR
   \   000061   A3           INC       DPTR
   \   000062   A3           INC       DPTR
   \   000063   A3           INC       DPTR
   \   000064   A3           INC       DPTR
   \   000065   A3           INC       DPTR
   \   000066   A3           INC       DPTR
   \   000067   12....       LCALL     ?XSTORE_R0123
   3436                msg += 4;
   \   00006A   EE           MOV       A,R6
   \   00006B   2404         ADD       A,#0x4
   \   00006D   FE           MOV       R6,A
   \   00006E   5001         JNC       ??ZDO_ParseParentAnnce_4
   \   000070   0F           INC       R7
   3437          
   3438                pList++;
   \                     ??ZDO_ParseParentAnnce_4:
   \   000071   E5..         MOV       A,?V0
   \   000073   240C         ADD       A,#0xc
   \   000075   F5..         MOV       ?V0,A
   \   000077   5002         JNC       ??ZDO_ParseParentAnnce_5
   \   000079   05..         INC       ?V1
   3439              }
   \                     ??ZDO_ParseParentAnnce_5:
   \   00007B   05..         INC       ?V2
   \                     ??ZDO_ParseParentAnnce_1:
   \   00007D   E5..         MOV       A,?V2
   \   00007F   C3           CLR       C
   \   000080   95..         SUBB      A,?V3
   \   000082   40B3         JC        ??ZDO_ParseParentAnnce_2
   3440            }
   3441          
   3442            return ( pRcvdMsg );
   \                     ??ZDO_ParseParentAnnce_0:
   \   000084   AA..         MOV       R2,?V4
   \   000086   AB..         MOV       R3,?V5
   \   000088   02....       LJMP      ??Subroutine266_0 & 0xFFFF
   3443          }
   3444          
   3445          /*********************************************************************
   3446           * @fn          ZDO_ParseMgmtNwkUpdateNotify
   3447           *
   3448           * @brief       This function handles parsing of the incoming Management
   3449           *              Network Update notify.
   3450           *
   3451           * @param       inMsg - incoming message (request)
   3452           *
   3453           * @return      a pointer to parsed response structure (NULL if not allocated).
   3454           *          This structure was allocated using osal_mem_alloc, so it must be freed
   3455           *          by the calling function [osal_mem_free()].
   3456           */

   \                                 In  segment BANKED_CODE, align 1, keep-with-next
   3457          ZDO_MgmtNwkUpdateNotify_t *ZDO_ParseMgmtNwkUpdateNotify( zdoIncomingMsg_t *inMsg )
   \                     ZDO_ParseMgmtNwkUpdateNotify:
   3458          {
   \   000000                REQUIRE ?V0
   \   000000                REQUIRE ?V1
   \   000000                REQUIRE ?V2
   \   000000                REQUIRE ?V3
   \   000000                REQUIRE ?V4
   \   000000                REQUIRE ?V5
   \   000000                REQUIRE ?V6
   \   000000                REQUIRE ?V7
   \   000000                REQUIRE ?V8
   \   000000                REQUIRE ?V9
   \   000000                REQUIRE ?V10
   \   000000                REQUIRE ?V11
   \   000000                REQUIRE ?V12
   \   000000                REQUIRE ?V13
   \   000000   74EA         MOV       A,#-0x16
   \   000002   12....       LCALL     ?BANKED_ENTER_XDATA
   \   000005                ; Saved register size: 22
   \   000005                ; Auto size: 0
   3459            uint8 status;
   3460            uint32 scannedChannels = 0;
   \   000005   75..00       MOV       ?V4,#0x0
   \   000008   75..00       MOV       ?V5,#0x0
   \   00000B   75..00       MOV       ?V6,#0x0
   \   00000E   75..00       MOV       ?V7,#0x0
   3461            uint16 totalTransmissions = 0;
   \   000011   75..00       MOV       ?V0,#0x0
   \   000014   75..00       MOV       ?V1,#0x0
   3462            uint16 transmissionFailures = 0;
   \   000017   75..00       MOV       ?V2,#0x0
   \   00001A   75..00       MOV       ?V3,#0x0
   3463            uint8 listCount = 0;
   \   00001D   75..00       MOV       ?V10,#0x0
   3464            uint8 *msg = inMsg->asdu;
   \   000020   12....       LCALL     ?Subroutine76 & 0xFFFF
   3465            ZDO_MgmtNwkUpdateNotify_t *pRsp;
   3466          
   3467            status = *msg++;
   \                     ??CrossCallReturnLabel_654:
   \   000023   F5..         MOV       ?V11,A
   \   000025   A3           INC       DPTR
   \   000026   AE82         MOV       R6,DPL
   \   000028   AF83         MOV       R7,DPH
   3468            if ( status == ZSuccess )
   \   00002A   7041         JNZ       ??ZDO_ParseMgmtNwkUpdateNotify_0
   3469            {
   3470              scannedChannels = osal_build_uint32( msg, 4 );
   \   00002C                ; Setup parameters for call to function osal_build_uint32
   \   00002C   7904         MOV       R1,#0x4
   \   00002E   EE           MOV       A,R6
   \   00002F   FA           MOV       R2,A
   \   000030   EF           MOV       A,R7
   \   000031   FB           MOV       R3,A
   \   000032   12....       LCALL     `??osal_build_uint32::?relay`; Banked call to: osal_build_uint32
   \   000035   8A..         MOV       ?V4,R2
   \   000037   8B..         MOV       ?V5,R3
   \   000039   8C..         MOV       ?V6,R4
   \   00003B   8D..         MOV       ?V7,R5
   3471              msg += 4;
   \   00003D   EE           MOV       A,R6
   \   00003E   2404         ADD       A,#0x4
   \   000040   FE           MOV       R6,A
   \   000041   5001         JNC       ??ZDO_ParseMgmtNwkUpdateNotify_1
   \   000043   0F           INC       R7
   3472              totalTransmissions = BUILD_UINT16( msg[0], msg[1] );
   \                     ??ZDO_ParseMgmtNwkUpdateNotify_1:
   \   000044   12....       LCALL     ?Subroutine74 & 0xFFFF
   \                     ??CrossCallReturnLabel_690:
   \   000047   F5..         MOV       ?V0,A
   \   000049   E4           CLR       A
   \   00004A   39           ADDC      A,R1
   \   00004B   F5..         MOV       ?V1,A
   3473              msg += 2;
   \   00004D   EE           MOV       A,R6
   \   00004E   2402         ADD       A,#0x2
   \   000050   FE           MOV       R6,A
   \   000051   5001         JNC       ??ZDO_ParseMgmtNwkUpdateNotify_2
   \   000053   0F           INC       R7
   3474              transmissionFailures = BUILD_UINT16( msg[0], msg[1] );
   \                     ??ZDO_ParseMgmtNwkUpdateNotify_2:
   \   000054   12....       LCALL     ?Subroutine74 & 0xFFFF
   \                     ??CrossCallReturnLabel_691:
   \   000057   F5..         MOV       ?V2,A
   \   000059   E4           CLR       A
   \   00005A   39           ADDC      A,R1
   \   00005B   F5..         MOV       ?V3,A
   3475              msg += 2;
   3476              listCount = *msg++;
   \   00005D   8E82         MOV       DPL,R6
   \   00005F   8F83         MOV       DPH,R7
   \   000061   A3           INC       DPTR
   \   000062   A3           INC       DPTR
   \   000063   E0           MOVX      A,@DPTR
   \   000064   F5..         MOV       ?V10,A
   \   000066   EE           MOV       A,R6
   \   000067   2403         ADD       A,#0x3
   \   000069   FE           MOV       R6,A
   \   00006A   5001         JNC       ??ZDO_ParseMgmtNwkUpdateNotify_0
   \   00006C   0F           INC       R7
   3477            }
   3478          
   3479            pRsp = (ZDO_MgmtNwkUpdateNotify_t *)osal_mem_alloc( sizeof ( ZDO_MgmtNwkUpdateNotify_t ) + listCount );
   \                     ??ZDO_ParseMgmtNwkUpdateNotify_0:
   \   00006D                ; Setup parameters for call to function osal_mem_alloc
   \   00006D   E5..         MOV       A,?V10
   \   00006F   12....       LCALL     ??Subroutine260_0 & 0xFFFF
   \                     ??CrossCallReturnLabel_634:
   \   000072   3400         ADDC      A,#0x0
   \   000074   FB           MOV       R3,A
   \   000075   12....       LCALL     `??osal_mem_alloc::?relay`; Banked call to: osal_mem_alloc
   \   000078   8A..         MOV       ?V8,R2
   \   00007A   8B..         MOV       ?V9,R3
   3480          
   3481            if ( pRsp )
   \   00007C   EA           MOV       A,R2
   \   00007D   45..         ORL       A,?V9
   \   00007F   604D         JZ        ??ZDO_ParseMgmtNwkUpdateNotify_3
   3482            {
   3483              pRsp->status = status;
   \   000081   8A82         MOV       DPL,R2
   \   000083   8B83         MOV       DPH,R3
   \   000085   E5..         MOV       A,?V11
   \   000087   F0           MOVX      @DPTR,A
   3484              pRsp->scannedChannels = scannedChannels;
   \   000088   A3           INC       DPTR
   \   000089   78..         MOV       R0,#?V4
   \   00008B   12....       LCALL     ?L_MOV_TO_X
   3485              pRsp->totalTransmissions = totalTransmissions;
   \   00008E   8A82         MOV       DPL,R2
   \   000090   8B83         MOV       DPH,R3
   \   000092   A3           INC       DPTR
   \   000093   A3           INC       DPTR
   \   000094   A3           INC       DPTR
   \   000095   A3           INC       DPTR
   \   000096   A3           INC       DPTR
   \   000097   E5..         MOV       A,?V0
   \   000099   F0           MOVX      @DPTR,A
   \   00009A   A3           INC       DPTR
   \   00009B   E5..         MOV       A,?V1
   \   00009D   12....       LCALL     ?Subroutine16 & 0xFFFF
   3486              pRsp->transmissionFailures = transmissionFailures;
   \                     ??CrossCallReturnLabel_11:
   \   0000A0   E5..         MOV       A,?V2
   \   0000A2   F0           MOVX      @DPTR,A
   \   0000A3   A3           INC       DPTR
   \   0000A4   E5..         MOV       A,?V3
   \   0000A6   12....       LCALL     ?Subroutine16 & 0xFFFF
   3487              pRsp->listCount = listCount;
   \                     ??CrossCallReturnLabel_12:
   \   0000A9   A3           INC       DPTR
   \   0000AA   A3           INC       DPTR
   \   0000AB   E5..         MOV       A,?V10
   \   0000AD   F0           MOVX      @DPTR,A
   3488          
   3489              // Allocate a buffer big enough to handle the list.
   3490              if ( listCount > 0 )
   \   0000AE   601E         JZ        ??ZDO_ParseMgmtNwkUpdateNotify_3
   3491              {
   3492                osal_memcpy( pRsp->energyValues, msg, listCount );
   \   0000B0                ; Setup parameters for call to function osal_memcpy
   \   0000B0   8E..         MOV       ?V0,R6
   \   0000B2   8F..         MOV       ?V1,R7
   \   0000B4   75..00       MOV       ?V2,#0x0
   \   0000B7   78..         MOV       R0,#?V0
   \   0000B9   12....       LCALL     ?PUSH_XSTACK_I_THREE
   \   0000BC   AC..         MOV       R4,?V10
   \   0000BE   7D00         MOV       R5,#0x0
   \   0000C0   12....       LCALL     ?Subroutine187 & 0xFFFF
   3493              }
   3494            }
   \                     ??CrossCallReturnLabel_636:
   \   0000C3   35..         ADDC      A,?V9
   \   0000C5   FB           MOV       R3,A
   \   0000C6   12....       LCALL     `??osal_memcpy::?relay`; Banked call to: osal_memcpy
   \   0000C9   7403         MOV       A,#0x3
   \   0000CB   12....       LCALL     ?DEALLOC_XSTACK8
   3495          
   3496            return ( pRsp );
   \                     ??ZDO_ParseMgmtNwkUpdateNotify_3:
   \   0000CE   AA..         MOV       R2,?V8
   \   0000D0   AB..         MOV       R3,?V9
   \   0000D2   02....       LJMP      ?Subroutine8 & 0xFFFF
   3497          }

   \                                 In  segment BANKED_CODE, align 1, keep-with-next
   \                     ?Subroutine74:
   \   000000   8E82         MOV       DPL,R6
   \   000002   8F83         MOV       DPH,R7
   \   000004                REQUIRE ??Subroutine272_0
   \   000004                ; // Fall through to label ??Subroutine272_0
   3498          
   3499          /*********************************************************************
   3500           * @fn          ZDO_ParseMgmtNwkUpdateReq
   3501           *
   3502           * @brief       This function handles parsing the incoming Management
   3503           *              Network Update request and starts the request (if needed).
   3504           *
   3505           * @param       inMsg - incoming message (request)
   3506           * @param       pReq - pointer to place to parse message to
   3507           *
   3508           * @return      none
   3509           */

   \                                 In  segment BANKED_CODE, align 1, keep-with-next
   3510          void ZDO_ParseMgmtNwkUpdateReq( zdoIncomingMsg_t *inMsg, ZDO_MgmtNwkUpdateReq_t *pReq )
   \                     ZDO_ParseMgmtNwkUpdateReq:
   3511          {
   \   000000                REQUIRE ?V0
   \   000000                REQUIRE ?V1
   \   000000   74F6         MOV       A,#-0xa
   \   000002   12....       LCALL     ?BANKED_ENTER_XDATA
   \   000005                ; Saved register size: 10
   \   000005                ; Auto size: 0
   \   000005   8C..         MOV       ?V0,R4
   \   000007   8D..         MOV       ?V1,R5
   3512            uint8 *msg = inMsg->asdu;
   \   000009   12....       LCALL     ?Subroutine127 & 0xFFFF
   \                     ??CrossCallReturnLabel_193:
   \   00000C   12....       LCALL     ?Subroutine92 & 0xFFFF
   3513          
   3514            pReq->channelMask = osal_build_uint32( msg, 4 );
   \                     ??CrossCallReturnLabel_146:
   \   00000F   12....       LCALL     `??osal_build_uint32::?relay`; Banked call to: osal_build_uint32
   \   000012   EA           MOV       A,R2
   \   000013   F8           MOV       R0,A
   \   000014   EB           MOV       A,R3
   \   000015   F9           MOV       R1,A
   \   000016   EC           MOV       A,R4
   \   000017   FA           MOV       R2,A
   \   000018   ED           MOV       A,R5
   \   000019   FB           MOV       R3,A
   \   00001A   85..82       MOV       DPL,?V0
   \   00001D   85..83       MOV       DPH,?V1
   \   000020   12....       LCALL     ?XSTORE_R0123
   3515            msg += 4;
   3516            pReq->scanDuration = *msg++;
   \   000023   8E82         MOV       DPL,R6
   \   000025   8F83         MOV       DPH,R7
   \   000027   A3           INC       DPTR
   \   000028   A3           INC       DPTR
   \   000029   A3           INC       DPTR
   \   00002A   A3           INC       DPTR
   \   00002B   E0           MOVX      A,@DPTR
   \   00002C   F8           MOV       R0,A
   \   00002D   85..82       MOV       DPL,?V0
   \   000030   85..83       MOV       DPH,?V1
   \   000033   A3           INC       DPTR
   \   000034   A3           INC       DPTR
   \   000035   A3           INC       DPTR
   \   000036   A3           INC       DPTR
   \   000037   F0           MOVX      @DPTR,A
   3517          
   3518            if ( pReq->scanDuration <= 0x05 )
   \   000038   C3           CLR       C
   \   000039   9406         SUBB      A,#0x6
   \   00003B   5005         JNC       ??ZDO_ParseMgmtNwkUpdateReq_0
   3519            {
   3520              // Request is to scan over channelMask
   3521              pReq->scanCount = *msg;
   \   00003D   12....       LCALL     ?Subroutine91 & 0xFFFF
   3522            }
   \                     ??CrossCallReturnLabel_143:
   \   000040   803D         SJMP      ??ZDO_ParseMgmtNwkUpdateReq_1
   3523            else if ( ( pReq->scanDuration == 0xFE ) || ( pReq->scanDuration == 0xFF ) )
   \                     ??ZDO_ParseMgmtNwkUpdateReq_0:
   \   000042   85..82       MOV       DPL,?V0
   \   000045   85..83       MOV       DPH,?V1
   \   000048   A3           INC       DPTR
   \   000049   A3           INC       DPTR
   \   00004A   A3           INC       DPTR
   \   00004B   A3           INC       DPTR
   \   00004C   E0           MOVX      A,@DPTR
   \   00004D   64FE         XRL       A,#0xfe
   \   00004F   600E         JZ        ??ZDO_ParseMgmtNwkUpdateReq_2
   \   000051   85..82       MOV       DPL,?V0
   \   000054   85..83       MOV       DPH,?V1
   \   000057   A3           INC       DPTR
   \   000058   A3           INC       DPTR
   \   000059   A3           INC       DPTR
   \   00005A   A3           INC       DPTR
   \   00005B   E0           MOVX      A,@DPTR
   \   00005C   F4           CPL       A
   \   00005D   7021         JNZ       ??ZDO_ParseMgmtNwkUpdateReq_3
   3524            {
   3525              // Request is to change Channel (0xFE) or apsChannelMask and NwkManagerAddr (0xFF)
   3526              pReq->nwkUpdateId = *msg++;
   \                     ??ZDO_ParseMgmtNwkUpdateReq_2:
   \   00005F   12....       LCALL     ?Subroutine91 & 0xFFFF
   \                     ??CrossCallReturnLabel_144:
   \   000062   A3           INC       DPTR
   \   000063   F0           MOVX      @DPTR,A
   \   000064   EE           MOV       A,R6
   \   000065   2406         ADD       A,#0x6
   \   000067   FE           MOV       R6,A
   \   000068   5001         JNC       ??ZDO_ParseMgmtNwkUpdateReq_4
   \   00006A   0F           INC       R7
   3527          
   3528              if ( pReq->scanDuration == 0xFF )
   \                     ??ZDO_ParseMgmtNwkUpdateReq_4:
   \   00006B   85..82       MOV       DPL,?V0
   \   00006E   85..83       MOV       DPH,?V1
   \   000071   A3           INC       DPTR
   \   000072   A3           INC       DPTR
   \   000073   A3           INC       DPTR
   \   000074   A3           INC       DPTR
   \   000075   E0           MOVX      A,@DPTR
   \   000076   F4           CPL       A
   \   000077   7007         JNZ       ??ZDO_ParseMgmtNwkUpdateReq_3
   3529              {
   3530                pReq->nwkManagerAddr = BUILD_UINT16( msg[0], msg[1] );
   \   000079   12....       LCALL     ?Subroutine66 & 0xFFFF
   3531              }
   3532            }
   \                     ??CrossCallReturnLabel_105:
   \   00007C   F0           MOVX      @DPTR,A
   \   00007D   A3           INC       DPTR
   \   00007E   E9           MOV       A,R1
   \                     ??ZDO_ParseMgmtNwkUpdateReq_1:
   \   00007F   F0           MOVX      @DPTR,A
   3533          }
   \                     ??ZDO_ParseMgmtNwkUpdateReq_3:
   \   000080   02....       LJMP      ??Subroutine207_0 & 0xFFFF

   \                                 In  segment BANKED_CODE, align 1, keep-with-next
   \                     ?Subroutine91:
   \   000000   8E82         MOV       DPL,R6
   \   000002   8F83         MOV       DPH,R7
   \   000004   12....       LCALL     ?Subroutine174 & 0xFFFF
   \                     ??CrossCallReturnLabel_283:
   \   000007   22           RET

   \                                 In  segment XDATA_ID, align 1, keep-with-next
   \                     `?<Initializer for zdpExternalStateTaskID>`:
   \   000000   FFFF         DW -1

   \                                 In  segment XDATA_ROM_C, align 1
   \                     __Constant_3e8:
   \   000000   E8030000     DD 1000

   \                                 In  segment XDATA_ROM_C, align 1
   \                     __Constant_0:
   \   000000   00000000     DD 0

   \                                 In  segment BANK_RELAYS, align 1
   \                     `??ZDO_Init::?relay`:
   \   000000   12....       LCALL   ?BDISPATCH
   \   000003   ......       DC24    ZDO_Init

   \                                 In  segment BANK_RELAYS, align 1
   \                     `??ZDO_StartDevice::?relay`:
   \   000000   12....       LCALL   ?BDISPATCH
   \   000003   ......       DC24    ZDO_StartDevice

   \                                 In  segment BANK_RELAYS, align 1
   \                     `??zdoSendStateChangeMsg::?relay`:
   \   000000   12....       LCALL   ?BDISPATCH
   \   000003   ......       DC24    zdoSendStateChangeMsg

   \                                 In  segment BANK_RELAYS, align 1
   \                     `??ZDO_UpdateNwkStatus::?relay`:
   \   000000   12....       LCALL   ?BDISPATCH
   \   000003   ......       DC24    ZDO_UpdateNwkStatus

   \                                 In  segment BANK_RELAYS, align 1
   \                     `??ZDO_CompareClusterLists::?relay`:
   \   000000   12....       LCALL   ?BDISPATCH
   \   000003   ......       DC24    ZDO_CompareClusterLists

   \                                 In  segment BANK_RELAYS, align 1
   \                     `??ZDO_AnyClusterMatches::?relay`:
   \   000000   12....       LCALL   ?BDISPATCH
   \   000003   ......       DC24    ZDO_AnyClusterMatches

   \                                 In  segment BANK_RELAYS, align 1
   \                     `??ZDO_ProcessNodeDescReq::?relay`:
   \   000000   12....       LCALL   ?BDISPATCH
   \   000003   ......       DC24    ZDO_ProcessNodeDescReq

   \                                 In  segment BANK_RELAYS, align 1
   \                     `??ZDO_ProcessPowerDescReq::?relay`:
   \   000000   12....       LCALL   ?BDISPATCH
   \   000003   ......       DC24    ZDO_ProcessPowerDescReq

   \                                 In  segment BANK_RELAYS, align 1
   \                     `??ZDO_ProcessSimpleDescReq::?relay`:
   \   000000   12....       LCALL   ?BDISPATCH
   \   000003   ......       DC24    ZDO_ProcessSimpleDescReq

   \                                 In  segment BANK_RELAYS, align 1
   \                     `??ZDO_ProcessActiveEPReq::?relay`:
   \   000000   12....       LCALL   ?BDISPATCH
   \   000003   ......       DC24    ZDO_ProcessActiveEPReq

   \                                 In  segment BANK_RELAYS, align 1
   \                     `??ZDO_ConvertOTAClusters::?relay`:
   \   000000   12....       LCALL   ?BDISPATCH
   \   000003   ......       DC24    ZDO_ConvertOTAClusters

   \                                 In  segment BANK_RELAYS, align 1
   \                     `??ZDO_ProcessMatchDescReq::?relay`:
   \   000000   12....       LCALL   ?BDISPATCH
   \   000003   ......       DC24    ZDO_ProcessMatchDescReq

   \                                 In  segment BANK_RELAYS, align 1
   \                     `??ZDO_ProcessBindUnbindReq::?relay`:
   \   000000   12....       LCALL   ?BDISPATCH
   \   000003   ......       DC24    ZDO_ProcessBindUnbindReq

   \                                 In  segment BANK_RELAYS, align 1
   \                     `??ZDO_UpdateAddrManager::?relay`:
   \   000000   12....       LCALL   ?BDISPATCH
   \   000003   ......       DC24    ZDO_UpdateAddrManager

   \                                 In  segment BANK_RELAYS, align 1
   \                     `??ZDO_ProcessServerDiscReq::?relay`:
   \   000000   12....       LCALL   ?BDISPATCH
   \   000003   ......       DC24    ZDO_ProcessServerDiscReq

   \                                 In  segment BANK_RELAYS, align 1
   \                     `??ZDO_EndDeviceTimeoutCB::?relay`:
   \   000000   12....       LCALL   ?BDISPATCH
   \   000003   ......       DC24    ZDO_EndDeviceTimeoutCB

   \                                 In  segment BANK_RELAYS, align 1
   \                     `??ZDO_ProcessMgmtLqiReq::?relay`:
   \   000000   12....       LCALL   ?BDISPATCH
   \   000003   ......       DC24    ZDO_ProcessMgmtLqiReq

   \                                 In  segment BANK_RELAYS, align 1
   \                     `??ZDO_ProcessMgmtNwkDiscReq::?relay`:
   \   000000   12....       LCALL   ?BDISPATCH
   \   000003   ......       DC24    ZDO_ProcessMgmtNwkDiscReq

   \                                 In  segment BANK_RELAYS, align 1
   \                     `??ZDO_FinishProcessingMgmtNwkDiscReq::?relay`:
   \   000000   12....       LCALL   ?BDISPATCH
   \   000003   ......       DC24    ZDO_FinishProcessingMgmtNwkDiscReq

   \                                 In  segment BANK_RELAYS, align 1
   \                     `??ZDO_ProcessMgmtRtgReq::?relay`:
   \   000000   12....       LCALL   ?BDISPATCH
   \   000003   ......       DC24    ZDO_ProcessMgmtRtgReq

   \                                 In  segment BANK_RELAYS, align 1
   \                     `??ZDO_ProcessMgmtBindReq::?relay`:
   \   000000   12....       LCALL   ?BDISPATCH
   \   000003   ......       DC24    ZDO_ProcessMgmtBindReq

   \                                 In  segment BANK_RELAYS, align 1
   \                     `??ZDO_ProcessMgmtDirectJoinReq::?relay`:
   \   000000   12....       LCALL   ?BDISPATCH
   \   000003   ......       DC24    ZDO_ProcessMgmtDirectJoinReq

   \                                 In  segment BANK_RELAYS, align 1
   \                     `??ZDO_ProcessMgmtLeaveReq::?relay`:
   \   000000   12....       LCALL   ?BDISPATCH
   \   000003   ......       DC24    ZDO_ProcessMgmtLeaveReq

   \                                 In  segment BANK_RELAYS, align 1
   \                     `??ZDO_ProcessMgmtPermitJoinReq::?relay`:
   \   000000   12....       LCALL   ?BDISPATCH
   \   000003   ......       DC24    ZDO_ProcessMgmtPermitJoinReq

   \                                 In  segment BANK_RELAYS, align 1
   \                     `??NLME_PermitJoiningTimeout::?relay`:
   \   000000   12....       LCALL   ?BDISPATCH
   \   000003   ......       DC24    NLME_PermitJoiningTimeout

   \                                 In  segment BANK_RELAYS, align 1
   \                     `??ZDO_ProcessUserDescReq::?relay`:
   \   000000   12....       LCALL   ?BDISPATCH
   \   000003   ......       DC24    ZDO_ProcessUserDescReq

   \                                 In  segment BANK_RELAYS, align 1
   \                     `??ZDO_ProcessUserDescSet::?relay`:
   \   000000   12....       LCALL   ?BDISPATCH
   \   000003   ......       DC24    ZDO_ProcessUserDescSet

   \                                 In  segment BANK_RELAYS, align 1
   \                     `??ZDO_ProcessDeviceAnnce::?relay`:
   \   000000   12....       LCALL   ?BDISPATCH
   \   000003   ......       DC24    ZDO_ProcessDeviceAnnce

   \                                 In  segment BANK_RELAYS, align 1
   \                     `??ZDO_ProcessParentAnnce::?relay`:
   \   000000   12....       LCALL   ?BDISPATCH
   \   000003   ......       DC24    ZDO_ProcessParentAnnce

   \                                 In  segment BANK_RELAYS, align 1
   \                     `??ZDO_ProcessParentAnnceRsp::?relay`:
   \   000000   12....       LCALL   ?BDISPATCH
   \   000003   ......       DC24    ZDO_ProcessParentAnnceRsp

   \                                 In  segment BANK_RELAYS, align 1
   \                     `??ZDO_BuildSimpleDescBuf::?relay`:
   \   000000   12....       LCALL   ?BDISPATCH
   \   000003   ......       DC24    ZDO_BuildSimpleDescBuf

   \                                 In  segment BANK_RELAYS, align 1
   \                     `??ZDO_MatchEndDeviceBind::?relay`:
   \   000000   12....       LCALL   ?BDISPATCH
   \   000003   ......       DC24    ZDO_MatchEndDeviceBind

   \                                 In  segment BANK_RELAYS, align 1
   \                     `??ZDO_RemoveMatchMemory::?relay`:
   \   000000   12....       LCALL   ?BDISPATCH
   \   000003   ......       DC24    ZDO_RemoveMatchMemory

   \                                 In  segment BANK_RELAYS, align 1
   \                     `??ZDO_CopyMatchInfo::?relay`:
   \   000000   12....       LCALL   ?BDISPATCH
   \   000003   ......       DC24    ZDO_CopyMatchInfo

   \                                 In  segment BANK_RELAYS, align 1
   \                     `??ZDMatchSendState::?relay`:
   \   000000   12....       LCALL   ?BDISPATCH
   \   000003   ......       DC24    ZDMatchSendState

   \                                 In  segment BANK_RELAYS, align 1
   \                     `??ZDO_EndDeviceBindMatchTimeoutCB::?relay`:
   \   000000   12....       LCALL   ?BDISPATCH
   \   000003   ......       DC24    ZDO_EndDeviceBindMatchTimeoutCB

   \                                 In  segment BANK_RELAYS, align 1
   \                     `??ZDO_ParseEndDeviceBindReq::?relay`:
   \   000000   12....       LCALL   ?BDISPATCH
   \   000003   ......       DC24    ZDO_ParseEndDeviceBindReq

   \                                 In  segment BANK_RELAYS, align 1
   \                     `??ZDO_ParseBindUnbindReq::?relay`:
   \   000000   12....       LCALL   ?BDISPATCH
   \   000003   ......       DC24    ZDO_ParseBindUnbindReq

   \                                 In  segment BANK_RELAYS, align 1
   \                     `??ZDO_ParseAddrRsp::?relay`:
   \   000000   12....       LCALL   ?BDISPATCH
   \   000003   ......       DC24    ZDO_ParseAddrRsp

   \                                 In  segment BANK_RELAYS, align 1
   \                     `??ZDO_ParseNodeDescRsp::?relay`:
   \   000000   12....       LCALL   ?BDISPATCH
   \   000003   ......       DC24    ZDO_ParseNodeDescRsp

   \                                 In  segment BANK_RELAYS, align 1
   \                     `??ZDO_ParsePowerDescRsp::?relay`:
   \   000000   12....       LCALL   ?BDISPATCH
   \   000003   ......       DC24    ZDO_ParsePowerDescRsp

   \                                 In  segment BANK_RELAYS, align 1
   \                     `??ZDO_ParseSimpleDescRsp::?relay`:
   \   000000   12....       LCALL   ?BDISPATCH
   \   000003   ......       DC24    ZDO_ParseSimpleDescRsp

   \                                 In  segment BANK_RELAYS, align 1
   \                     `??ZDO_ParseEPListRsp::?relay`:
   \   000000   12....       LCALL   ?BDISPATCH
   \   000003   ......       DC24    ZDO_ParseEPListRsp

   \                                 In  segment BANK_RELAYS, align 1
   \                     `??ZDO_ParseServerDiscRsp::?relay`:
   \   000000   12....       LCALL   ?BDISPATCH
   \   000003   ......       DC24    ZDO_ParseServerDiscRsp

   \                                 In  segment BANK_RELAYS, align 1
   \                     `??ZDO_ParseMgmtLqiRsp::?relay`:
   \   000000   12....       LCALL   ?BDISPATCH
   \   000003   ......       DC24    ZDO_ParseMgmtLqiRsp

   \                                 In  segment BANK_RELAYS, align 1
   \                     `??ZDO_ParseMgmNwkDiscRsp::?relay`:
   \   000000   12....       LCALL   ?BDISPATCH
   \   000003   ......       DC24    ZDO_ParseMgmNwkDiscRsp

   \                                 In  segment BANK_RELAYS, align 1
   \                     `??ZDO_ParseMgmtRtgRsp::?relay`:
   \   000000   12....       LCALL   ?BDISPATCH
   \   000003   ......       DC24    ZDO_ParseMgmtRtgRsp

   \                                 In  segment BANK_RELAYS, align 1
   \                     `??ZDO_ParseMgmtBindRsp::?relay`:
   \   000000   12....       LCALL   ?BDISPATCH
   \   000003   ......       DC24    ZDO_ParseMgmtBindRsp

   \                                 In  segment BANK_RELAYS, align 1
   \                     `??ZDO_ParseUserDescRsp::?relay`:
   \   000000   12....       LCALL   ?BDISPATCH
   \   000003   ......       DC24    ZDO_ParseUserDescRsp

   \                                 In  segment BANK_RELAYS, align 1
   \                     `??ZDO_ParseSimpleDescBuf::?relay`:
   \   000000   12....       LCALL   ?BDISPATCH
   \   000003   ......       DC24    ZDO_ParseSimpleDescBuf

   \                                 In  segment BANK_RELAYS, align 1
   \                     `??ZDO_ParseDeviceAnnce::?relay`:
   \   000000   12....       LCALL   ?BDISPATCH
   \   000003   ......       DC24    ZDO_ParseDeviceAnnce

   \                                 In  segment BANK_RELAYS, align 1
   \                     `??ZDO_ParseParentAnnce::?relay`:
   \   000000   12....       LCALL   ?BDISPATCH
   \   000003   ......       DC24    ZDO_ParseParentAnnce

   \                                 In  segment BANK_RELAYS, align 1
   \                     `??ZDO_ParseMgmtNwkUpdateNotify::?relay`:
   \   000000   12....       LCALL   ?BDISPATCH
   \   000003   ......       DC24    ZDO_ParseMgmtNwkUpdateNotify

   \                                 In  segment BANK_RELAYS, align 1
   \                     `??ZDO_ParseMgmtNwkUpdateReq::?relay`:
   \   000000   12....       LCALL   ?BDISPATCH
   \   000003   ......       DC24    ZDO_ParseMgmtNwkUpdateReq
   3534          
   3535          /*********************************************************************
   3536          *********************************************************************/

   Maximum stack usage in bytes:

   ISTACK XSTACK Function
   ------ ------ --------
      2      0   NLME_PermitJoiningTimeout
        2      0   -> ZDSecMgrPermitJoiningTimeout
      1     70   ZDMatchSendState
        0     37   -> APS_SetEndDeviceBindTimeout
        0     37   -> ZDO_RemoveMatchMemory
        0     45   -> ZDP_BindUnbindReq
        0     42   -> ZDP_SendData
        0     37   -> sAddrExtCpy
      0     42   ZDO_AnyClusterMatches
      1     10   ZDO_BuildSimpleDescBuf
      0     45   ZDO_CompareClusterLists
      0     38   ZDO_ConvertOTAClusters
      0     43   ZDO_CopyMatchInfo
        0     15   -> osal_mem_alloc
        0     15   -> osal_mem_free
        0     18   -> osal_memcpy
      2      0   ZDO_EndDeviceBindMatchTimeoutCB
        2      0   -> ZDMatchSendState
      1     17   ZDO_EndDeviceTimeoutCB
        0     17   -> ZDP_SendData
        0     12   -> osal_mem_free
      1     20   ZDO_FinishProcessingMgmtNwkDiscReq
        0     15   -> NLME_GetProtocolVersion
        0     15   -> NLME_NwkDiscTerm
        0     20   -> ZDP_MgmtNwkDiscRsp
        0     15   -> ZMacGetReq
        0     15   -> nwk_getNwkDescList
        0     15   -> osal_mem_alloc
        0     15   -> osal_mem_free
        0     15   -> sAddrExtCpy
      2      0   ZDO_Init
        2      0   -> APS_ReflectorInit
        2      0   -> NLME_CoordinatorInit
        2      0   -> NLME_DeviceJoiningInit
        2      0   -> sAddrExtCpy
      1     30   ZDO_MatchEndDeviceBind
        0     25   -> APS_SetEndDeviceBindTimeout
        0     25   -> ZDMatchSendState
        0     29   -> ZDO_CompareClusterLists
        0     25   -> ZDO_CopyMatchInfo
        0     25   -> ZDO_RemoveMatchMemory
        0     30   -> ZDP_SendData
        0     25   -> osal_mem_alloc
        0     28   -> osal_memcpy
        0     25   -> osal_memset
      1     14   ZDO_ParseAddrRsp
        0     14   -> osal_mem_alloc
        0     14   -> sAddrExtCpy
      1     10   ZDO_ParseBindUnbindReq
        0     10   -> sAddrExtCpy
      1     52   ZDO_ParseDeviceAnnce
        0     10   -> sAddrExtCpy
      1     18   ZDO_ParseEPListRsp
        0     15   -> osal_mem_alloc
        0     18   -> osal_memcpy
      1     12   ZDO_ParseEndDeviceBindReq
        0     12   -> ZDO_ConvertOTAClusters
        0     12   -> osal_mem_alloc
        0     12   -> sAddrExtCpy
      1     16   ZDO_ParseMgmNwkDiscRsp
        0     16   -> osal_mem_alloc
        0     16   -> sAddrExtCpy
      1     18   ZDO_ParseMgmtBindRsp
        0     18   -> osal_mem_alloc
        0     18   -> sAddrExtCpy
      1     16   ZDO_ParseMgmtLqiRsp
        0     16   -> osal_mem_alloc
        0     16   -> sAddrExtCpy
      1     25   ZDO_ParseMgmtNwkUpdateNotify
        0     22   -> osal_build_uint32
        0     22   -> osal_mem_alloc
        0     25   -> osal_memcpy
      1     10   ZDO_ParseMgmtNwkUpdateReq
        0     10   -> osal_build_uint32
      1     14   ZDO_ParseMgmtRtgRsp
        0     14   -> osal_mem_alloc
      1     10   ZDO_ParseNodeDescRsp
      1     47   ZDO_ParseParentAnnce
        0     14   -> osal_build_uint32
        0     14   -> osal_mem_alloc
        0     14   -> sAddrExtCpy
      1     12   ZDO_ParsePowerDescRsp
      1      9   ZDO_ParseServerDiscRsp
      1     23   ZDO_ParseSimpleDescBuf
        0     14   -> osal_mem_alloc
        0     14   -> osal_mem_free
      1      9   ZDO_ParseSimpleDescRsp
        0      9   -> ZDO_ParseSimpleDescBuf
      1     17   ZDO_ParseUserDescRsp
        0     14   -> osal_mem_alloc
        0     17   -> osal_memcpy
      0     21   ZDO_ProcessActiveEPReq
        0     14   -> NLME_GetShortAddr
        0     21   -> ZDP_EPRsp
        0     14   -> afEndPoints
        0     14   -> afNumEndPoints
      1     32   ZDO_ProcessBindUnbindReq
        0     28   -> APSME_BindRequest
        0     27   -> APSME_LookupNwkAddr
        0     28   -> APSME_UnBindRequest
        0     27   -> NLME_GetExtAddr
        0     27   -> ZDApp_GetEmptyPendingBindReq
        0     27   -> ZDApp_NVUpdate
        0     27   -> ZDP_NwkAddrReq
        0     32   -> ZDP_SendData
        0     27   -> bindAddrIndexGet
        0     30   -> osal_memcpy
        0     31   -> osal_start_timerEx
        0     27   -> sAddrExtCmp
        0     27   -> sAddrExtCpy
      0     42   ZDO_ProcessDeviceAnnce
        0     42   -> AddrMgrEntryLookupExt
        0     42   -> AddrMgrEntryLookupNwk
        0     42   -> AddrMgrEntryUpdate
        0     42   -> AddrMgrExtAddrSet
        0     42   -> AssocGetWithExt
        0     42   -> AssocRemove
        0     42   -> NLME_CheckNewAddrSet
        0     42   -> NLME_GetCoordExtAddr
        0     42   -> NLME_GetCoordShortAddr
        0     42   -> NLME_GetExtAddr
        0     42   -> NLME_GetShortAddr
        0     42   -> RTG_RemoveRtgEntry
        0     42   -> ZDO_ParseDeviceAnnce
        0     42   -> ZMacSetReq
        0     42   -> nwkNeighborRemove
        0     42   -> nwkNeighborRemoveAllStranded
        0     42   -> osal_memset
        0     42   -> sAddrExtCmp
      1     35   ZDO_ProcessMatchDescReq
        0     28   -> NLME_IsAddressBroadcast
        0     30   -> ZDO_AnyClusterMatches
        0     28   -> ZDO_ConvertOTAClusters
        0     35   -> ZDP_EPRsp
        0     28   -> osal_mem_alloc
        0     28   -> osal_mem_free
        0     31   -> osal_memcpy
        0     28   -> osal_msg_allocate
        0     28   -> osal_msg_send
      0     25   ZDO_ProcessMgmtBindReq
        0     20   -> APSME_GetRequest
        0     25   -> ZDP_MgmtBindRsp
        0     20   -> osal_mem_alloc
        0     20   -> osal_mem_free
      1     16   ZDO_ProcessMgmtDirectJoinReq
        0     11   -> NLME_DirectJoinRequest
        0     16   -> ZDP_SendData
      1     23   ZDO_ProcessMgmtLeaveReq
        0     18   -> AddrMgrExtAddrValid
        0     18   -> NLME_GetExtAddr
        0     18   -> NLME_LeaveReq
        0     18   -> NLME_SetPollRate
        0     18   -> NLME_SetQueuedPollRate
        0     18   -> NLME_SetResponseRate
        0     23   -> ZDP_SendData
        0     18   -> sAddrExtCmp
      1     64   ZDO_ProcessMgmtLqiReq
        0     59   -> AddrMgrEntryLookupNwk
        0     59   -> AssocCount
        0     59   -> AssocFindDevice
        0     59   -> NLME_GetRequest
        0     64   -> ZDP_MgmtLqiRsp
        0     59   -> osal_mem_alloc
        0     59   -> osal_mem_free
        0     59   -> osal_memset
        0     59   -> sAddrExtCpy
      1     17   ZDO_ProcessMgmtNwkDiscReq
        0     17   -> NLME_NwkDiscReq2
        0     17   -> NLME_NwkDiscTerm
        0     17   -> osal_build_uint32
      1     16   ZDO_ProcessMgmtPermitJoinReq
        0     11   -> NLME_PermitJoiningRequest
        0     16   -> ZDP_SendData
        0     11   -> ZDSecMgrPermitJoining
      0     22   ZDO_ProcessMgmtRtgReq
        0     17   -> NLME_GetRequest
        0     22   -> ZDP_MgmtRtgRsp
        0     17   -> osal_mem_alloc
        0     17   -> osal_mem_free
      0     14   ZDO_ProcessNodeDescReq
        0     14   -> ZDP_GenericRsp
        0     12   -> ZDP_NodeDescMsg
      0     38   ZDO_ProcessParentAnnce
        0     33   -> AssocGetWithExt
        0     33   -> AssocRemove
        0     33   -> ZDO_ParseParentAnnce
        0     38   -> ZDP_ParentAnnce
        0     33   -> osal_mem_alloc
        0     33   -> osal_mem_free
        0     33   -> sAddrExtCpy
      0     16   ZDO_ProcessParentAnnceRsp
        0     16   -> AssocGetWithExt
        0     16   -> AssocRemove
        0     16   -> ZDO_ParseParentAnnce
        0     16   -> osal_mem_free
      0     14   ZDO_ProcessPowerDescReq
        0     14   -> ZDP_GenericRsp
        0     12   -> ZDP_PowerDescMsg
      0     14   ZDO_ProcessServerDiscReq
        0     14   -> ZDP_ServerDiscRsp
      0     12   ZDO_ProcessSimpleDescReq
        0     12   -> ZDP_SimpleDescMsg
        0     12   -> afFindSimpleDesc
        0     12   -> osal_mem_free
      0     33   ZDO_ProcessUserDescReq
        0     33   -> ZDP_GenericRsp
        0     32   -> ZDP_UserDescRsp
        0     33   -> osal_nv_read
      1     41   ZDO_ProcessUserDescSet
        0     41   -> ZDP_SendData
        0     39   -> osal_memcpy
        0     40   -> osal_nv_write
      2     37   ZDO_RemoveMatchMemory
        2      0   -> osal_mem_free
      0     29   ZDO_StartDevice
        0     22   -> NLME_NetworkDiscoveryRequest
        0     29   -> NLME_NetworkFormationRequest
        0     22   -> NLME_OrphanJoinRequest
        0     22   -> NLME_StartRouterRequest
        0     22   -> ZDApp_ChangeState
        0     22   -> nwk_ScanJoiningOrphan
        0     26   -> osal_start_timerEx
      2     13   ZDO_UpdateAddrManager
        2     13   -> AddrMgrEntryUpdate
        2     13   -> AddrMgrExtAddrSet
      0      9   ZDO_UpdateNwkStatus
        0      9   -> NLME_GetExtAddr
        0      9   -> NLME_GetShortAddr
        0      9   -> zdoSendStateChangeMsg
      1     19   zdoSendStateChangeMsg
        0     10   -> osal_msg_allocate
        0     10   -> osal_msg_find
        0     10   -> osal_msg_send
        0     10   -> osal_set_event


   Segment part sizes:

   Bytes  Function/Label
   -----  --------------
       2  ?<Initializer for zdpExternalStateTaskID>
       5  ??Subroutine204_0
       5  ??Subroutine205_0
       3  ??Subroutine206_0
       5  ??Subroutine207_0
       1  ??Subroutine208_0
       6  ??Subroutine209_0
       5  ??Subroutine210_0
       6  ??Subroutine211_0
       5  ??Subroutine212_0
       1  ??Subroutine213_0
       5  ??Subroutine214_0
       4  ??Subroutine215_0
       7  ??Subroutine216_0
       1  ??Subroutine217_0
       4  ??Subroutine218_0
       2  ??Subroutine219_0
       9  ??Subroutine220_0
       1  ??Subroutine221_0
       5  ??Subroutine222_0
       1  ??Subroutine223_0
       5  ??Subroutine224_0
       5  ??Subroutine225_0
       8  ??Subroutine226_0
       9  ??Subroutine227_0
       5  ??Subroutine228_0
       4  ??Subroutine229_0
       2  ??Subroutine230_0
       6  ??Subroutine231_0
       9  ??Subroutine232_0
       2  ??Subroutine233_0
       8  ??Subroutine234_0
       6  ??Subroutine235_0
       5  ??Subroutine236_0
       6  ??Subroutine237_0
       2  ??Subroutine238_0
       6  ??Subroutine239_0
       8  ??Subroutine240_0
       5  ??Subroutine241_0
       9  ??Subroutine242_0
       4  ??Subroutine243_0
       2  ??Subroutine244_0
       5  ??Subroutine245_0
       3  ??Subroutine246_0
       5  ??Subroutine247_0
       6  ??Subroutine248_0
       8  ??Subroutine249_0
       4  ??Subroutine250_0
       2  ??Subroutine251_0
       6  ??Subroutine252_0
       9  ??Subroutine253_0
       8  ??Subroutine254_0
       3  ??Subroutine255_0
       4  ??Subroutine256_0
       4  ??Subroutine257_0
       5  ??Subroutine258_0
       6  ??Subroutine259_0
       5  ??Subroutine260_0
       4  ??Subroutine261_0
       5  ??Subroutine262_0
       6  ??Subroutine263_0
       4  ??Subroutine264_0
       5  ??Subroutine265_0
       5  ??Subroutine266_0
       6  ??Subroutine267_0
       7  ??Subroutine268_0
       6  ??Subroutine269_0
      10  ??Subroutine270_0
       6  ??Subroutine271_0
       4  ??Subroutine272_0
       7  ?Subroutine0
       2  ?Subroutine1
       5  ?Subroutine10
      11  ?Subroutine100
       8  ?Subroutine101
       6  ?Subroutine102
       8  ?Subroutine103
       4  ?Subroutine104
       6  ?Subroutine105
      10  ?Subroutine106
       7  ?Subroutine107
      12  ?Subroutine108
       5  ?Subroutine109
      38  ?Subroutine11
      13  ?Subroutine110
       7  ?Subroutine111
       1  ?Subroutine112
       4  ?Subroutine113
      11  ?Subroutine114
      17  ?Subroutine115
       4  ?Subroutine116
       2  ?Subroutine117
       1  ?Subroutine118
      15  ?Subroutine119
      26  ?Subroutine12
      11  ?Subroutine120
      11  ?Subroutine121
       3  ?Subroutine122
       3  ?Subroutine123
       1  ?Subroutine124
       6  ?Subroutine125
       4  ?Subroutine126
       4  ?Subroutine127
       6  ?Subroutine128
       4  ?Subroutine129
      20  ?Subroutine13
       7  ?Subroutine130
       8  ?Subroutine131
      15  ?Subroutine132
       1  ?Subroutine133
      27  ?Subroutine134
      21  ?Subroutine135
       6  ?Subroutine136
       5  ?Subroutine137
       4  ?Subroutine138
       1  ?Subroutine139
      16  ?Subroutine14
      12  ?Subroutine140
       4  ?Subroutine141
      10  ?Subroutine142
       3  ?Subroutine143
       8  ?Subroutine144
       4  ?Subroutine145
       8  ?Subroutine146
       1  ?Subroutine147
      12  ?Subroutine148
       4  ?Subroutine149
      17  ?Subroutine15
      10  ?Subroutine150
      13  ?Subroutine151
       4  ?Subroutine152
       9  ?Subroutine153
      11  ?Subroutine154
       1  ?Subroutine155
       9  ?Subroutine156
      10  ?Subroutine157
      13  ?Subroutine158
       8  ?Subroutine159
       8  ?Subroutine16
       6  ?Subroutine160
       5  ?Subroutine161
       7  ?Subroutine162
       7  ?Subroutine163
       4  ?Subroutine164
       9  ?Subroutine165
       4  ?Subroutine166
      10  ?Subroutine167
       4  ?Subroutine168
      16  ?Subroutine169
      13  ?Subroutine17
      13  ?Subroutine170
       7  ?Subroutine171
       3  ?Subroutine172
       6  ?Subroutine173
      18  ?Subroutine174
      13  ?Subroutine175
       5  ?Subroutine176
      10  ?Subroutine177
       6  ?Subroutine178
       2  ?Subroutine179
      11  ?Subroutine18
       6  ?Subroutine180
       5  ?Subroutine181
      19  ?Subroutine182
       3  ?Subroutine183
      11  ?Subroutine184
       7  ?Subroutine185
       5  ?Subroutine186
       1  ?Subroutine187
       9  ?Subroutine188
      10  ?Subroutine189
      15  ?Subroutine19
       9  ?Subroutine190
       9  ?Subroutine191
       3  ?Subroutine192
       7  ?Subroutine193
       7  ?Subroutine194
      10  ?Subroutine195
       3  ?Subroutine196
       6  ?Subroutine197
       6  ?Subroutine198
       9  ?Subroutine199
       5  ?Subroutine2
      19  ?Subroutine20
       9  ?Subroutine200
       6  ?Subroutine201
       7  ?Subroutine202
       1  ?Subroutine203
      20  ?Subroutine21
       3  ?Subroutine22
       7  ?Subroutine23
       6  ?Subroutine24
      13  ?Subroutine25
      18  ?Subroutine26
       4  ?Subroutine27
       9  ?Subroutine28
       8  ?Subroutine29
       4  ?Subroutine3
      11  ?Subroutine30
       6  ?Subroutine31
       5  ?Subroutine32
       5  ?Subroutine33
       8  ?Subroutine34
      21  ?Subroutine35
       8  ?Subroutine36
       4  ?Subroutine37
       6  ?Subroutine38
       5  ?Subroutine39
       3  ?Subroutine4
       8  ?Subroutine40
       6  ?Subroutine41
       4  ?Subroutine42
       8  ?Subroutine43
       6  ?Subroutine44
       4  ?Subroutine45
      13  ?Subroutine46
       6  ?Subroutine47
       4  ?Subroutine48
       7  ?Subroutine49
       3  ?Subroutine5
       7  ?Subroutine50
       9  ?Subroutine51
       6  ?Subroutine52
       6  ?Subroutine53
       4  ?Subroutine54
       4  ?Subroutine55
       6  ?Subroutine56
       9  ?Subroutine57
      17  ?Subroutine58
      35  ?Subroutine59
       8  ?Subroutine6
      31  ?Subroutine60
       4  ?Subroutine61
       3  ?Subroutine62
      13  ?Subroutine63
      38  ?Subroutine64
      17  ?Subroutine65
      21  ?Subroutine66
       4  ?Subroutine67
       3  ?Subroutine68
       9  ?Subroutine69
       3  ?Subroutine7
       9  ?Subroutine70
       9  ?Subroutine71
       9  ?Subroutine72
      10  ?Subroutine73
       4  ?Subroutine74
      14  ?Subroutine75
       3  ?Subroutine76
      11  ?Subroutine77
       7  ?Subroutine78
      10  ?Subroutine79
       5  ?Subroutine8
      10  ?Subroutine80
       4  ?Subroutine81
       6  ?Subroutine82
      21  ?Subroutine83
       2  ?Subroutine84
      12  ?Subroutine85
      12  ?Subroutine86
      18  ?Subroutine87
       9  ?Subroutine88
      12  ?Subroutine89
       3  ?Subroutine9
      13  ?Subroutine90
       8  ?Subroutine91
      13  ?Subroutine92
       3  ?Subroutine93
       3  ?Subroutine94
       2  ?Subroutine95
       1  ?Subroutine96
       8  ?Subroutine97
       4  ?Subroutine98
      13  ?Subroutine99
      13  NLME_PermitJoiningTimeout
       6  NLME_PermitJoiningTimeout::?relay
     618  ZDMatchSendState
       6  ZDMatchSendState::?relay
      52  ZDOBuildBuf
      76  ZDO_AnyClusterMatches
       6  ZDO_AnyClusterMatches::?relay
     210  ZDO_BuildSimpleDescBuf
       6  ZDO_BuildSimpleDescBuf::?relay
     121  ZDO_CompareClusterLists
       6  ZDO_CompareClusterLists::?relay
      69  ZDO_ConvertOTAClusters
       6  ZDO_ConvertOTAClusters::?relay
     230  ZDO_CopyMatchInfo
       6  ZDO_CopyMatchInfo::?relay
       2  ZDO_EDBind
      16  ZDO_EndDeviceBindMatchTimeoutCB
       6  ZDO_EndDeviceBindMatchTimeoutCB::?relay
     221  ZDO_EndDeviceTimeoutCB
       6  ZDO_EndDeviceTimeoutCB::?relay
     406  ZDO_FinishProcessingMgmtNwkDiscReq
       6  ZDO_FinishProcessingMgmtNwkDiscReq::?relay
      34  ZDO_Init
       6  ZDO_Init::?relay
     580  ZDO_MatchEndDeviceBind
       6  ZDO_MatchEndDeviceBind::?relay
     215  ZDO_ParseAddrRsp
       6  ZDO_ParseAddrRsp::?relay
     128  ZDO_ParseBindUnbindReq
       6  ZDO_ParseBindUnbindReq::?relay
      53  ZDO_ParseDeviceAnnce
       6  ZDO_ParseDeviceAnnce::?relay
     116  ZDO_ParseEPListRsp
       6  ZDO_ParseEPListRsp::?relay
     285  ZDO_ParseEndDeviceBindReq
       6  ZDO_ParseEndDeviceBindReq::?relay
     242  ZDO_ParseMgmNwkDiscRsp
       6  ZDO_ParseMgmNwkDiscRsp::?relay
     256  ZDO_ParseMgmtBindRsp
       6  ZDO_ParseMgmtBindRsp::?relay
     274  ZDO_ParseMgmtLqiRsp
       6  ZDO_ParseMgmtLqiRsp::?relay
     213  ZDO_ParseMgmtNwkUpdateNotify
       6  ZDO_ParseMgmtNwkUpdateNotify::?relay
     131  ZDO_ParseMgmtNwkUpdateReq
       6  ZDO_ParseMgmtNwkUpdateReq::?relay
     168  ZDO_ParseMgmtRtgRsp
       6  ZDO_ParseMgmtRtgRsp::?relay
     282  ZDO_ParseNodeDescRsp
       6  ZDO_ParseNodeDescRsp::?relay
     139  ZDO_ParseParentAnnce
       6  ZDO_ParseParentAnnce::?relay
     211  ZDO_ParsePowerDescRsp
       6  ZDO_ParsePowerDescRsp::?relay
      50  ZDO_ParseServerDiscRsp
       6  ZDO_ParseServerDiscRsp::?relay
     290  ZDO_ParseSimpleDescBuf
       6  ZDO_ParseSimpleDescBuf::?relay
      30  ZDO_ParseSimpleDescRsp
       6  ZDO_ParseSimpleDescRsp::?relay
     122  ZDO_ParseUserDescRsp
       6  ZDO_ParseUserDescRsp::?relay
     117  ZDO_ProcessActiveEPReq
       6  ZDO_ProcessActiveEPReq::?relay
     456  ZDO_ProcessBindUnbindReq
       6  ZDO_ProcessBindUnbindReq::?relay
     506  ZDO_ProcessDeviceAnnce
       6  ZDO_ProcessDeviceAnnce::?relay
     973  ZDO_ProcessMatchDescReq
       6  ZDO_ProcessMatchDescReq::?relay
     264  ZDO_ProcessMgmtBindReq
       6  ZDO_ProcessMgmtBindReq::?relay
      87  ZDO_ProcessMgmtDirectJoinReq
       6  ZDO_ProcessMgmtDirectJoinReq::?relay
     200  ZDO_ProcessMgmtLeaveReq
       6  ZDO_ProcessMgmtLeaveReq::?relay
     638  ZDO_ProcessMgmtLqiReq
       6  ZDO_ProcessMgmtLqiReq::?relay
     126  ZDO_ProcessMgmtNwkDiscReq
       6  ZDO_ProcessMgmtNwkDiscReq::?relay
     104  ZDO_ProcessMgmtPermitJoinReq
       6  ZDO_ProcessMgmtPermitJoinReq::?relay
     302  ZDO_ProcessMgmtRtgReq
       6  ZDO_ProcessMgmtRtgReq::?relay
      71  ZDO_ProcessNodeDescReq
       6  ZDO_ProcessNodeDescReq::?relay
     489  ZDO_ProcessParentAnnce
       6  ZDO_ProcessParentAnnce::?relay
     174  ZDO_ProcessParentAnnceRsp
       6  ZDO_ProcessParentAnnceRsp::?relay
      71  ZDO_ProcessPowerDescReq
       6  ZDO_ProcessPowerDescReq::?relay
      63  ZDO_ProcessServerDiscReq
       6  ZDO_ProcessServerDiscReq::?relay
     166  ZDO_ProcessSimpleDescReq
       6  ZDO_ProcessSimpleDescReq::?relay
     157  ZDO_ProcessUserDescReq
       6  ZDO_ProcessUserDescReq::?relay
     290  ZDO_ProcessUserDescSet
       6  ZDO_ProcessUserDescSet::?relay
     132  ZDO_RemoveMatchMemory
       6  ZDO_RemoveMatchMemory::?relay
     344  ZDO_StartDevice
       6  ZDO_StartDevice::?relay
      51  ZDO_UpdateAddrManager
       6  ZDO_UpdateAddrManager::?relay
     109  ZDO_UpdateNwkStatus
       6  ZDO_UpdateNwkStatus::?relay
       4  __Constant_0
       4  __Constant_3e8
       4  apsChannelMask
       1  discRetries
       2  matchED
       1  scanCnt
      73  zdoSendStateChangeMsg
       6  zdoSendStateChangeMsg::?relay
       2  zdpExternalStateTaskID

 
 13 857 bytes in segment BANKED_CODE
    324 bytes in segment BANK_RELAYS
      2 bytes in segment XDATA_I
      2 bytes in segment XDATA_ID
      8 bytes in segment XDATA_ROM_C
     62 bytes in segment XDATA_Z
 
    326 bytes of CODE     memory
      0 bytes of CONST    memory (+ 8 bytes shared)
 13 857 bytes of HUGECODE memory
     64 bytes of XDATA    memory

Errors: none
Warnings: none
